Archive member included to satisfy reference by file (symbol)

c:/program files/microchip/xc32/v2.40/bin/bin/../../lib/gcc/pic32c/6.2.1/../../../../pic32c/lib/v7e-m/fpv4-sp/hard\libpic32c.a(close.o)
                              build/aws_demos/debug/_ext/2009324866/iot_secure_sockets.o (close)
c:/program files/microchip/xc32/v2.40/bin/bin/../../lib/gcc/pic32c/6.2.1/../../../../pic32c/lib/v7e-m/fpv4-sp/hard\libpic32c.a(data_init.o)
                              build/aws_demos/debug/_ext/1534096987/startup_xc32.o (__pic32c_data_initialization)
c:/program files/microchip/xc32/v2.40/bin/bin/../../lib/gcc/pic32c/6.2.1/v7e-m/fpv4-sp/hard\libgcc.a(_arm_addsubdf3.o)
                              build/aws_demos/debug/_ext/230789302/plib_sercom7_i2c_master.o (__aeabi_dsub)
c:/program files/microchip/xc32/v2.40/bin/bin/../../lib/gcc/pic32c/6.2.1/v7e-m/fpv4-sp/hard\libgcc.a(_arm_muldivdf3.o)
                              build/aws_demos/debug/_ext/230789302/plib_sercom7_i2c_master.o (__aeabi_dmul)
c:/program files/microchip/xc32/v2.40/bin/bin/../../lib/gcc/pic32c/6.2.1/v7e-m/fpv4-sp/hard\libgcc.a(_arm_cmpdf2.o)
                              build/aws_demos/debug/_ext/1057560203/cborpretty.o (__aeabi_dcmpeq)
c:/program files/microchip/xc32/v2.40/bin/bin/../../lib/gcc/pic32c/6.2.1/v7e-m/fpv4-sp/hard\libgcc.a(_arm_unorddf2.o)
                              build/aws_demos/debug/_ext/1057560203/cborpretty.o (__aeabi_dcmpun)
c:/program files/microchip/xc32/v2.40/bin/bin/../../lib/gcc/pic32c/6.2.1/v7e-m/fpv4-sp/hard\libgcc.a(_arm_fixunsdfsi.o)
                              build/aws_demos/debug/_ext/230789302/plib_sercom7_i2c_master.o (__aeabi_d2uiz)
c:/program files/microchip/xc32/v2.40/bin/bin/../../lib/gcc/pic32c/6.2.1/v7e-m/fpv4-sp/hard\libgcc.a(_arm_truncdfsf2.o)
                              build/aws_demos/debug/_ext/1057560203/cborvalidation.o (__aeabi_d2f)
c:/program files/microchip/xc32/v2.40/bin/bin/../../lib/gcc/pic32c/6.2.1/v7e-m/fpv4-sp/hard\libgcc.a(_aeabi_uldivmod.o)
                              build/aws_demos/debug/_ext/484134862/sys_time.o (__aeabi_uldivmod)
c:/program files/microchip/xc32/v2.40/bin/bin/../../lib/gcc/pic32c/6.2.1/v7e-m/fpv4-sp/hard\libgcc.a(_fixunsdfdi.o)
                              build/aws_demos/debug/_ext/1057560203/cborpretty.o (__aeabi_d2ulz)
c:/program files/microchip/xc32/v2.40/bin/bin/../../lib/gcc/pic32c/6.2.1/v7e-m/fpv4-sp/hard\libgcc.a(_udivmoddi4.o)
                              c:/program files/microchip/xc32/v2.40/bin/bin/../../lib/gcc/pic32c/6.2.1/v7e-m/fpv4-sp/hard\libgcc.a(_aeabi_uldivmod.o) (__udivmoddi4)
c:/program files/microchip/xc32/v2.40/bin/bin/../../lib/gcc/pic32c/6.2.1/v7e-m/fpv4-sp/hard\libgcc.a(_dvmd_tls.o)
                              c:/program files/microchip/xc32/v2.40/bin/bin/../../lib/gcc/pic32c/6.2.1/v7e-m/fpv4-sp/hard\libgcc.a(_aeabi_uldivmod.o) (__aeabi_ldiv0)
c:/program files/microchip/xc32/v2.40/bin/bin/../../lib/gcc/pic32c/6.2.1/../../../../pic32c/lib/v7e-m/fpv4-sp/hard\libg_nano.a(lib_a-assert.o)
                              build/aws_demos/debug/_ext/490551821/http_parser.o (__assert_func)
c:/program files/microchip/xc32/v2.40/bin/bin/../../lib/gcc/pic32c/6.2.1/../../../../pic32c/lib/v7e-m/fpv4-sp/hard\libg_nano.a(lib_a-atoi.o)
                              build/aws_demos/debug/_ext/255308820/iot_serializer_json_decoder.o (atoi)
c:/program files/microchip/xc32/v2.40/bin/bin/../../lib/gcc/pic32c/6.2.1/../../../../pic32c/lib/v7e-m/fpv4-sp/hard\libg_nano.a(lib_a-calloc.o)
                              build/aws_demos/debug/_ext/1991396724/sys_command.o (calloc)
c:/program files/microchip/xc32/v2.40/bin/bin/../../lib/gcc/pic32c/6.2.1/../../../../pic32c/lib/v7e-m/fpv4-sp/hard\libg_nano.a(lib_a-fprintf.o)
                              c:/program files/microchip/xc32/v2.40/bin/bin/../../lib/gcc/pic32c/6.2.1/../../../../pic32c/lib/v7e-m/fpv4-sp/hard\libg_nano.a(lib_a-assert.o) (fiprintf)
c:/program files/microchip/xc32/v2.40/bin/bin/../../lib/gcc/pic32c/6.2.1/../../../../pic32c/lib/v7e-m/fpv4-sp/hard\libg_nano.a(lib_a-gmtime.o)
                              build/aws_demos/debug/_ext/1833802790/wdrv_winc_systime.o (gmtime)
c:/program files/microchip/xc32/v2.40/bin/bin/../../lib/gcc/pic32c/6.2.1/../../../../pic32c/lib/v7e-m/fpv4-sp/hard\libg_nano.a(lib_a-gmtime_r.o)
                              c:/program files/microchip/xc32/v2.40/bin/bin/../../lib/gcc/pic32c/6.2.1/../../../../pic32c/lib/v7e-m/fpv4-sp/hard\libg_nano.a(lib_a-gmtime.o) (gmtime_r)
c:/program files/microchip/xc32/v2.40/bin/bin/../../lib/gcc/pic32c/6.2.1/../../../../pic32c/lib/v7e-m/fpv4-sp/hard\libg_nano.a(lib_a-impure.o)
                              c:/program files/microchip/xc32/v2.40/bin/bin/../../lib/gcc/pic32c/6.2.1/../../../../pic32c/lib/v7e-m/fpv4-sp/hard\libg_nano.a(lib_a-assert.o) (_impure_ptr)
c:/program files/microchip/xc32/v2.40/bin/bin/../../lib/gcc/pic32c/6.2.1/../../../../pic32c/lib/v7e-m/fpv4-sp/hard\libg_nano.a(lib_a-init.o)
                              build/aws_demos/debug/_ext/1534096987/startup_xc32.o (__libc_init_array)
c:/program files/microchip/xc32/v2.40/bin/bin/../../lib/gcc/pic32c/6.2.1/../../../../pic32c/lib/v7e-m/fpv4-sp/hard\libg_nano.a(lib_a-locale.o)
                              build/aws_demos/debug/_ext/306685378/atca_helpers.o (__locale_ctype_ptr)
c:/program files/microchip/xc32/v2.40/bin/bin/../../lib/gcc/pic32c/6.2.1/../../../../pic32c/lib/v7e-m/fpv4-sp/hard\libg_nano.a(lib_a-malloc.o)
                              build/aws_demos/debug/_ext/1009855837/atca_command.o (malloc)
c:/program files/microchip/xc32/v2.40/bin/bin/../../lib/gcc/pic32c/6.2.1/../../../../pic32c/lib/v7e-m/fpv4-sp/hard\libg_nano.a(lib_a-mbtowc_r.o)
                              c:/program files/microchip/xc32/v2.40/bin/bin/../../lib/gcc/pic32c/6.2.1/../../../../pic32c/lib/v7e-m/fpv4-sp/hard\libg_nano.a(lib_a-locale.o) (__ascii_mbtowc)
c:/program files/microchip/xc32/v2.40/bin/bin/../../lib/gcc/pic32c/6.2.1/../../../../pic32c/lib/v7e-m/fpv4-sp/hard\libg_nano.a(lib_a-memchr.o)
                              build/aws_demos/debug/_ext/1972722184/iot_pkcs11_secure_element.o (memchr)
c:/program files/microchip/xc32/v2.40/bin/bin/../../lib/gcc/pic32c/6.2.1/../../../../pic32c/lib/v7e-m/fpv4-sp/hard\libg_nano.a(lib_a-memcmp.o)
                              build/aws_demos/debug/_ext/766474417/aws_ota_pal.o (memcmp)
c:/program files/microchip/xc32/v2.40/bin/bin/../../lib/gcc/pic32c/6.2.1/../../../../pic32c/lib/v7e-m/fpv4-sp/hard\libg_nano.a(lib_a-memcpy-stub.o)
                              build/aws_demos/debug/_ext/665618993/plib_nvmctrl.o (memcpy)
c:/program files/microchip/xc32/v2.40/bin/bin/../../lib/gcc/pic32c/6.2.1/../../../../pic32c/lib/v7e-m/fpv4-sp/hard\libg_nano.a(lib_a-memmove.o)
                              build/aws_demos/debug/_ext/2009324866/aws_wifi.o (memmove)
c:/program files/microchip/xc32/v2.40/bin/bin/../../lib/gcc/pic32c/6.2.1/../../../../pic32c/lib/v7e-m/fpv4-sp/hard\libg_nano.a(lib_a-memset.o)
                              build/aws_demos/debug/_ext/2009324866/aws_wifi.o (memset)
c:/program files/microchip/xc32/v2.40/bin/bin/../../lib/gcc/pic32c/6.2.1/../../../../pic32c/lib/v7e-m/fpv4-sp/hard\libg_nano.a(lib_a-mktime.o)
                              build/aws_demos/debug/_ext/1833802790/wdrv_winc_systime.o (mktime)
c:/program files/microchip/xc32/v2.40/bin/bin/../../lib/gcc/pic32c/6.2.1/../../../../pic32c/lib/v7e-m/fpv4-sp/hard\libg_nano.a(lib_a-nano-callocr.o)
                              c:/program files/microchip/xc32/v2.40/bin/bin/../../lib/gcc/pic32c/6.2.1/../../../../pic32c/lib/v7e-m/fpv4-sp/hard\libg_nano.a(lib_a-calloc.o) (_calloc_r)
c:/program files/microchip/xc32/v2.40/bin/bin/../../lib/gcc/pic32c/6.2.1/../../../../pic32c/lib/v7e-m/fpv4-sp/hard\libg_nano.a(lib_a-nano-freer.o)
                              c:/program files/microchip/xc32/v2.40/bin/bin/../../lib/gcc/pic32c/6.2.1/../../../../pic32c/lib/v7e-m/fpv4-sp/hard\libg_nano.a(lib_a-malloc.o) (_free_r)
c:/program files/microchip/xc32/v2.40/bin/bin/../../lib/gcc/pic32c/6.2.1/../../../../pic32c/lib/v7e-m/fpv4-sp/hard\libg_nano.a(lib_a-nano-mallocr.o)
                              c:/program files/microchip/xc32/v2.40/bin/bin/../../lib/gcc/pic32c/6.2.1/../../../../pic32c/lib/v7e-m/fpv4-sp/hard\libg_nano.a(lib_a-malloc.o) (_malloc_r)
c:/program files/microchip/xc32/v2.40/bin/bin/../../lib/gcc/pic32c/6.2.1/../../../../pic32c/lib/v7e-m/fpv4-sp/hard\libg_nano.a(lib_a-nano-vfprintf.o)
                              c:/program files/microchip/xc32/v2.40/bin/bin/../../lib/gcc/pic32c/6.2.1/../../../../pic32c/lib/v7e-m/fpv4-sp/hard\libg_nano.a(lib_a-fprintf.o) (_vfprintf_r)
c:/program files/microchip/xc32/v2.40/bin/bin/../../lib/gcc/pic32c/6.2.1/../../../../pic32c/lib/v7e-m/fpv4-sp/hard\libg_nano.a(_lib_a-nano-vfprintf.s.o)
                              c:/program files/microchip/xc32/v2.40/bin/bin/../../lib/gcc/pic32c/6.2.1/../../../../pic32c/lib/v7e-m/fpv4-sp/hard\libg_nano.a(lib_a-nano-vfprintf.o) (_printf_float)
c:/program files/microchip/xc32/v2.40/bin/bin/../../lib/gcc/pic32c/6.2.1/../../../../pic32c/lib/v7e-m/fpv4-sp/hard\libg_nano.a(lib_a-printf.o)
                              build/aws_demos/debug/_ext/684768522/base64.o (printf)
c:/program files/microchip/xc32/v2.40/bin/bin/../../lib/gcc/pic32c/6.2.1/../../../../pic32c/lib/v7e-m/fpv4-sp/hard\libg_nano.a(lib_a-putchar.o)
                              build/aws_demos/debug/_ext/684768522/aes.o (putchar)
c:/program files/microchip/xc32/v2.40/bin/bin/../../lib/gcc/pic32c/6.2.1/../../../../pic32c/lib/v7e-m/fpv4-sp/hard\libg_nano.a(lib_a-putc.o)
                              c:/program files/microchip/xc32/v2.40/bin/bin/../../lib/gcc/pic32c/6.2.1/../../../../pic32c/lib/v7e-m/fpv4-sp/hard\libg_nano.a(lib_a-putchar.o) (_putc_r)
c:/program files/microchip/xc32/v2.40/bin/bin/../../lib/gcc/pic32c/6.2.1/../../../../pic32c/lib/v7e-m/fpv4-sp/hard\libg_nano.a(lib_a-puts.o)
                              build/aws_demos/debug/_ext/684768522/aes.o (puts)
c:/program files/microchip/xc32/v2.40/bin/bin/../../lib/gcc/pic32c/6.2.1/../../../../pic32c/lib/v7e-m/fpv4-sp/hard\libg_nano.a(lib_a-rand.o)
                              build/aws_demos/debug/_ext/684768522/rsa.o (rand)
c:/program files/microchip/xc32/v2.40/bin/bin/../../lib/gcc/pic32c/6.2.1/../../../../pic32c/lib/v7e-m/fpv4-sp/hard\libg_nano.a(lib_a-sbrkr.o)
                              c:/program files/microchip/xc32/v2.40/bin/bin/../../lib/gcc/pic32c/6.2.1/../../../../pic32c/lib/v7e-m/fpv4-sp/hard\libg_nano.a(lib_a-nano-mallocr.o) (_sbrk_r)
c:/program files/microchip/xc32/v2.40/bin/bin/../../lib/gcc/pic32c/6.2.1/../../../../pic32c/lib/v7e-m/fpv4-sp/hard\libg_nano.a(lib_a-s_ldexp.o)
                              build/aws_demos/debug/_ext/1057560203/cborpretty.o (ldexp)
c:/program files/microchip/xc32/v2.40/bin/bin/../../lib/gcc/pic32c/6.2.1/../../../../pic32c/lib/v7e-m/fpv4-sp/hard\libg_nano.a(lib_a-snprintf.o)
                              build/aws_demos/debug/_ext/684768522/x509.o (snprintf)
c:/program files/microchip/xc32/v2.40/bin/bin/../../lib/gcc/pic32c/6.2.1/../../../../pic32c/lib/v7e-m/fpv4-sp/hard\libg_nano.a(lib_a-sprintf.o)
                              (sprintf)
c:/program files/microchip/xc32/v2.40/bin/bin/../../lib/gcc/pic32c/6.2.1/../../../../pic32c/lib/v7e-m/fpv4-sp/hard\libg_nano.a(lib_a-s_scalbn.o)
                              c:/program files/microchip/xc32/v2.40/bin/bin/../../lib/gcc/pic32c/6.2.1/../../../../pic32c/lib/v7e-m/fpv4-sp/hard\libg_nano.a(lib_a-s_ldexp.o) (scalbn)
c:/program files/microchip/xc32/v2.40/bin/bin/../../lib/gcc/pic32c/6.2.1/../../../../pic32c/lib/v7e-m/fpv4-sp/hard\libg_nano.a(_lib_a-sscanf.cdnopsuxX.o)
                              (_sscanf_cdnopsuxX)
c:/program files/microchip/xc32/v2.40/bin/bin/../../lib/gcc/pic32c/6.2.1/../../../../pic32c/lib/v7e-m/fpv4-sp/hard\libg_nano.a(lib_a-__ssfputs.o)
                              c:/program files/microchip/xc32/v2.40/bin/bin/../../lib/gcc/pic32c/6.2.1/../../../../pic32c/lib/v7e-m/fpv4-sp/hard\libg_nano.a(lib_a-nano-vfprintf.o) (__ssfputs_r)
c:/program files/microchip/xc32/v2.40/bin/bin/../../lib/gcc/pic32c/6.2.1/../../../../pic32c/lib/v7e-m/fpv4-sp/hard\libg_nano.a(lib_a-stdio.o)
                              c:/program files/microchip/xc32/v2.40/bin/bin/../../lib/gcc/pic32c/6.2.1/../../../../pic32c/lib/v7e-m/fpv4-sp/hard\libg_nano.a(_lib_a-sscanf.cdnopsuxX.o) (__seofread)
c:/program files/microchip/xc32/v2.40/bin/bin/../../lib/gcc/pic32c/6.2.1/../../../../pic32c/lib/v7e-m/fpv4-sp/hard\libg_nano.a(lib_a-strcat.o)
                              build/aws_demos/debug/_ext/2009324866/aws_wifi.o (strcat)
c:/program files/microchip/xc32/v2.40/bin/bin/../../lib/gcc/pic32c/6.2.1/../../../../pic32c/lib/v7e-m/fpv4-sp/hard\libg_nano.a(lib_a-strchr.o)
                              build/aws_demos/debug/_ext/987380901/atca_jwt.o (strchr)
c:/program files/microchip/xc32/v2.40/bin/bin/../../lib/gcc/pic32c/6.2.1/../../../../pic32c/lib/v7e-m/fpv4-sp/hard\libg_nano.a(lib_a-strcmp.o)
                              build/aws_demos/debug/_ext/1991396724/sys_command.o (strcmp)
c:/program files/microchip/xc32/v2.40/bin/bin/../../lib/gcc/pic32c/6.2.1/../../../../pic32c/lib/v7e-m/fpv4-sp/hard\libg_nano.a(lib_a-strcpy.o)
                              build/aws_demos/debug/_ext/1991396724/sys_command.o (strcpy)
c:/program files/microchip/xc32/v2.40/bin/bin/../../lib/gcc/pic32c/6.2.1/../../../../pic32c/lib/v7e-m/fpv4-sp/hard\libg_nano.a(lib_a-strlen.o)
                              build/aws_demos/debug/_ext/766474417/aws_ota_pal.o (strlen)
c:/program files/microchip/xc32/v2.40/bin/bin/../../lib/gcc/pic32c/6.2.1/../../../../pic32c/lib/v7e-m/fpv4-sp/hard\libg_nano.a(lib_a-strncmp.o)
                              build/aws_demos/debug/_ext/1972722184/iot_pkcs11_secure_element.o (strncmp)
c:/program files/microchip/xc32/v2.40/bin/bin/../../lib/gcc/pic32c/6.2.1/../../../../pic32c/lib/v7e-m/fpv4-sp/hard\libg_nano.a(lib_a-strncpy.o)
                              build/aws_demos/debug/_ext/1991396724/sys_command.o (strncpy)
c:/program files/microchip/xc32/v2.40/bin/bin/../../lib/gcc/pic32c/6.2.1/../../../../pic32c/lib/v7e-m/fpv4-sp/hard\libg_nano.a(lib_a-strstr.o)
                              build/aws_demos/debug/_ext/1456806047/atcacert_pem.o (strstr)
c:/program files/microchip/xc32/v2.40/bin/bin/../../lib/gcc/pic32c/6.2.1/../../../../pic32c/lib/v7e-m/fpv4-sp/hard\libg_nano.a(lib_a-strtol.o)
                              c:/program files/microchip/xc32/v2.40/bin/bin/../../lib/gcc/pic32c/6.2.1/../../../../pic32c/lib/v7e-m/fpv4-sp/hard\libg_nano.a(lib_a-atoi.o) (_strtol_r)
c:/program files/microchip/xc32/v2.40/bin/bin/../../lib/gcc/pic32c/6.2.1/../../../../pic32c/lib/v7e-m/fpv4-sp/hard\libg_nano.a(lib_a-strtoul.o)
                              build/aws_demos/debug/_ext/1741632483/iot_demo_https_common.o (strtoul)
c:/program files/microchip/xc32/v2.40/bin/bin/../../lib/gcc/pic32c/6.2.1/../../../../pic32c/lib/v7e-m/fpv4-sp/hard\libg_nano.a(lib_a-tzcalc_limits.o)
                              c:/program files/microchip/xc32/v2.40/bin/bin/../../lib/gcc/pic32c/6.2.1/../../../../pic32c/lib/v7e-m/fpv4-sp/hard\libg_nano.a(lib_a-mktime.o) (__tzcalc_limits)
c:/program files/microchip/xc32/v2.40/bin/bin/../../lib/gcc/pic32c/6.2.1/../../../../pic32c/lib/v7e-m/fpv4-sp/hard\libg_nano.a(lib_a-tzset.o)
                              c:/program files/microchip/xc32/v2.40/bin/bin/../../lib/gcc/pic32c/6.2.1/../../../../pic32c/lib/v7e-m/fpv4-sp/hard\libg_nano.a(lib_a-mktime.o) (_tzset_unlocked)
c:/program files/microchip/xc32/v2.40/bin/bin/../../lib/gcc/pic32c/6.2.1/../../../../pic32c/lib/v7e-m/fpv4-sp/hard\libg_nano.a(lib_a-tzset_r.o)
                              c:/program files/microchip/xc32/v2.40/bin/bin/../../lib/gcc/pic32c/6.2.1/../../../../pic32c/lib/v7e-m/fpv4-sp/hard\libg_nano.a(lib_a-tzset.o) (_tzset_unlocked_r)
c:/program files/microchip/xc32/v2.40/bin/bin/../../lib/gcc/pic32c/6.2.1/../../../../pic32c/lib/v7e-m/fpv4-sp/hard\libg_nano.a(lib_a-tzvars.o)
                              c:/program files/microchip/xc32/v2.40/bin/bin/../../lib/gcc/pic32c/6.2.1/../../../../pic32c/lib/v7e-m/fpv4-sp/hard\libg_nano.a(lib_a-tzset_r.o) (_timezone)
c:/program files/microchip/xc32/v2.40/bin/bin/../../lib/gcc/pic32c/6.2.1/../../../../pic32c/lib/v7e-m/fpv4-sp/hard\libg_nano.a(lib_a-vsnprintf.o)
                              build/aws_demos/debug/_ext/1991396724/sys_command.o (vsnprintf)
c:/program files/microchip/xc32/v2.40/bin/bin/../../lib/gcc/pic32c/6.2.1/../../../../pic32c/lib/v7e-m/fpv4-sp/hard\libg_nano.a(lib_a-wbuf.o)
                              c:/program files/microchip/xc32/v2.40/bin/bin/../../lib/gcc/pic32c/6.2.1/../../../../pic32c/lib/v7e-m/fpv4-sp/hard\libg_nano.a(lib_a-putc.o) (__swbuf_r)
c:/program files/microchip/xc32/v2.40/bin/bin/../../lib/gcc/pic32c/6.2.1/../../../../pic32c/lib/v7e-m/fpv4-sp/hard\libg_nano.a(lib_a-wctomb_r.o)
                              c:/program files/microchip/xc32/v2.40/bin/bin/../../lib/gcc/pic32c/6.2.1/../../../../pic32c/lib/v7e-m/fpv4-sp/hard\libg_nano.a(lib_a-locale.o) (__ascii_wctomb)
c:/program files/microchip/xc32/v2.40/bin/bin/../../lib/gcc/pic32c/6.2.1/../../../../pic32c/lib/v7e-m/fpv4-sp/hard\libg_nano.a(lib_a-writer.o)
                              c:/program files/microchip/xc32/v2.40/bin/bin/../../lib/gcc/pic32c/6.2.1/../../../../pic32c/lib/v7e-m/fpv4-sp/hard\libg_nano.a(lib_a-stdio.o) (_write_r)
c:/program files/microchip/xc32/v2.40/bin/bin/../../lib/gcc/pic32c/6.2.1/../../../../pic32c/lib/v7e-m/fpv4-sp/hard\libg_nano.a(lib_a-wsetup.o)
                              c:/program files/microchip/xc32/v2.40/bin/bin/../../lib/gcc/pic32c/6.2.1/../../../../pic32c/lib/v7e-m/fpv4-sp/hard\libg_nano.a(lib_a-nano-vfprintf.o) (__swsetup_r)
c:/program files/microchip/xc32/v2.40/bin/bin/../../lib/gcc/pic32c/6.2.1/../../../../pic32c/lib/v7e-m/fpv4-sp/hard\libg_nano.a(lib_a-abort.o)
                              c:/program files/microchip/xc32/v2.40/bin/bin/../../lib/gcc/pic32c/6.2.1/../../../../pic32c/lib/v7e-m/fpv4-sp/hard\libg_nano.a(lib_a-assert.o) (abort)
c:/program files/microchip/xc32/v2.40/bin/bin/../../lib/gcc/pic32c/6.2.1/../../../../pic32c/lib/v7e-m/fpv4-sp/hard\libg_nano.a(lib_a-closer.o)
                              c:/program files/microchip/xc32/v2.40/bin/bin/../../lib/gcc/pic32c/6.2.1/../../../../pic32c/lib/v7e-m/fpv4-sp/hard\libg_nano.a(lib_a-stdio.o) (_close_r)
c:/program files/microchip/xc32/v2.40/bin/bin/../../lib/gcc/pic32c/6.2.1/../../../../pic32c/lib/v7e-m/fpv4-sp/hard\libg_nano.a(lib_a-ctype_.o)
                              c:/program files/microchip/xc32/v2.40/bin/bin/../../lib/gcc/pic32c/6.2.1/../../../../pic32c/lib/v7e-m/fpv4-sp/hard\libg_nano.a(lib_a-locale.o) (_ctype_)
c:/program files/microchip/xc32/v2.40/bin/bin/../../lib/gcc/pic32c/6.2.1/../../../../pic32c/lib/v7e-m/fpv4-sp/hard\libg_nano.a(lib_a-div.o)
                              c:/program files/microchip/xc32/v2.40/bin/bin/../../lib/gcc/pic32c/6.2.1/../../../../pic32c/lib/v7e-m/fpv4-sp/hard\libg_nano.a(lib_a-mktime.o) (div)
c:/program files/microchip/xc32/v2.40/bin/bin/../../lib/gcc/pic32c/6.2.1/../../../../pic32c/lib/v7e-m/fpv4-sp/hard\libg_nano.a(lib_a-errno.o)
                              c:/program files/microchip/xc32/v2.40/bin/bin/../../lib/gcc/pic32c/6.2.1/../../../../pic32c/lib/v7e-m/fpv4-sp/hard\libg_nano.a(lib_a-s_ldexp.o) (__errno)
c:/program files/microchip/xc32/v2.40/bin/bin/../../lib/gcc/pic32c/6.2.1/../../../../pic32c/lib/v7e-m/fpv4-sp/hard\libg_nano.a(lib_a-fflush.o)
                              c:/program files/microchip/xc32/v2.40/bin/bin/../../lib/gcc/pic32c/6.2.1/../../../../pic32c/lib/v7e-m/fpv4-sp/hard\libg_nano.a(lib_a-wbuf.o) (_fflush_r)
c:/program files/microchip/xc32/v2.40/bin/bin/../../lib/gcc/pic32c/6.2.1/../../../../pic32c/lib/v7e-m/fpv4-sp/hard\libg_nano.a(lib_a-findfp.o)
                              c:/program files/microchip/xc32/v2.40/bin/bin/../../lib/gcc/pic32c/6.2.1/../../../../pic32c/lib/v7e-m/fpv4-sp/hard\libg_nano.a(lib_a-nano-vfprintf.o) (__sinit)
c:/program files/microchip/xc32/v2.40/bin/bin/../../lib/gcc/pic32c/6.2.1/../../../../pic32c/lib/v7e-m/fpv4-sp/hard\libg_nano.a(lib_a-fputwc.o)
                              c:/program files/microchip/xc32/v2.40/bin/bin/../../lib/gcc/pic32c/6.2.1/../../../../pic32c/lib/v7e-m/fpv4-sp/hard\libg_nano.a(lib_a-__ssfputs.o) (_fputwc_r)
c:/program files/microchip/xc32/v2.40/bin/bin/../../lib/gcc/pic32c/6.2.1/../../../../pic32c/lib/v7e-m/fpv4-sp/hard\libg_nano.a(lib_a-fwalk.o)
                              c:/program files/microchip/xc32/v2.40/bin/bin/../../lib/gcc/pic32c/6.2.1/../../../../pic32c/lib/v7e-m/fpv4-sp/hard\libg_nano.a(lib_a-fflush.o) (_fwalk_reent)
c:/program files/microchip/xc32/v2.40/bin/bin/../../lib/gcc/pic32c/6.2.1/../../../../pic32c/lib/v7e-m/fpv4-sp/hard\libg_nano.a(lib_a-getenv_r.o)
                              c:/program files/microchip/xc32/v2.40/bin/bin/../../lib/gcc/pic32c/6.2.1/../../../../pic32c/lib/v7e-m/fpv4-sp/hard\libg_nano.a(lib_a-tzset_r.o) (_getenv_r)
c:/program files/microchip/xc32/v2.40/bin/bin/../../lib/gcc/pic32c/6.2.1/../../../../pic32c/lib/v7e-m/fpv4-sp/hard\libg_nano.a(lib_a-gettzinfo.o)
                              c:/program files/microchip/xc32/v2.40/bin/bin/../../lib/gcc/pic32c/6.2.1/../../../../pic32c/lib/v7e-m/fpv4-sp/hard\libg_nano.a(lib_a-mktime.o) (__gettzinfo)
c:/program files/microchip/xc32/v2.40/bin/bin/../../lib/gcc/pic32c/6.2.1/../../../../pic32c/lib/v7e-m/fpv4-sp/hard\libg_nano.a(lib_a-lseekr.o)
                              c:/program files/microchip/xc32/v2.40/bin/bin/../../lib/gcc/pic32c/6.2.1/../../../../pic32c/lib/v7e-m/fpv4-sp/hard\libg_nano.a(lib_a-stdio.o) (_lseek_r)
c:/program files/microchip/xc32/v2.40/bin/bin/../../lib/gcc/pic32c/6.2.1/../../../../pic32c/lib/v7e-m/fpv4-sp/hard\libg_nano.a(lib_a-makebuf.o)
                              c:/program files/microchip/xc32/v2.40/bin/bin/../../lib/gcc/pic32c/6.2.1/../../../../pic32c/lib/v7e-m/fpv4-sp/hard\libg_nano.a(lib_a-wsetup.o) (__smakebuf_r)
c:/program files/microchip/xc32/v2.40/bin/bin/../../lib/gcc/pic32c/6.2.1/../../../../pic32c/lib/v7e-m/fpv4-sp/hard\libg_nano.a(lib_a-mlock.o)
                              c:/program files/microchip/xc32/v2.40/bin/bin/../../lib/gcc/pic32c/6.2.1/../../../../pic32c/lib/v7e-m/fpv4-sp/hard\libg_nano.a(lib_a-nano-freer.o) (__malloc_lock)
c:/program files/microchip/xc32/v2.40/bin/bin/../../lib/gcc/pic32c/6.2.1/../../../../pic32c/lib/v7e-m/fpv4-sp/hard\libg_nano.a(lib_a-month_lengths.o)
                              c:/program files/microchip/xc32/v2.40/bin/bin/../../lib/gcc/pic32c/6.2.1/../../../../pic32c/lib/v7e-m/fpv4-sp/hard\libg_nano.a(lib_a-tzcalc_limits.o) (__month_lengths)
c:/program files/microchip/xc32/v2.40/bin/bin/../../lib/gcc/pic32c/6.2.1/../../../../pic32c/lib/v7e-m/fpv4-sp/hard\libg_nano.a(lib_a-nano-svfprintf.o)
                              c:/program files/microchip/xc32/v2.40/bin/bin/../../lib/gcc/pic32c/6.2.1/../../../../pic32c/lib/v7e-m/fpv4-sp/hard\libg_nano.a(lib_a-snprintf.o) (_svfprintf_r)
c:/program files/microchip/xc32/v2.40/bin/bin/../../lib/gcc/pic32c/6.2.1/../../../../pic32c/lib/v7e-m/fpv4-sp/hard\libg_nano.a(lib_a-nano-vfprintf_i.o)
                              c:/program files/microchip/xc32/v2.40/bin/bin/../../lib/gcc/pic32c/6.2.1/../../../../pic32c/lib/v7e-m/fpv4-sp/hard\libg_nano.a(_lib_a-nano-vfprintf.s.o) (_printf_common)
c:/program files/microchip/xc32/v2.40/bin/bin/../../lib/gcc/pic32c/6.2.1/../../../../pic32c/lib/v7e-m/fpv4-sp/hard\libg_nano.a(_lib_a-nano-vfscanf.cdnopsuxX.o)
                              c:/program files/microchip/xc32/v2.40/bin/bin/../../lib/gcc/pic32c/6.2.1/../../../../pic32c/lib/v7e-m/fpv4-sp/hard\libg_nano.a(_lib_a-sscanf.cdnopsuxX.o) (_vfscanf_cdnopsuxX)
c:/program files/microchip/xc32/v2.40/bin/bin/../../lib/gcc/pic32c/6.2.1/../../../../pic32c/lib/v7e-m/fpv4-sp/hard\libg_nano.a(lib_a-readr.o)
                              c:/program files/microchip/xc32/v2.40/bin/bin/../../lib/gcc/pic32c/6.2.1/../../../../pic32c/lib/v7e-m/fpv4-sp/hard\libg_nano.a(lib_a-stdio.o) (_read_r)
c:/program files/microchip/xc32/v2.40/bin/bin/../../lib/gcc/pic32c/6.2.1/../../../../pic32c/lib/v7e-m/fpv4-sp/hard\libg_nano.a(lib_a-reent.o)
                              c:/program files/microchip/xc32/v2.40/bin/bin/../../lib/gcc/pic32c/6.2.1/../../../../pic32c/lib/v7e-m/fpv4-sp/hard\libg_nano.a(lib_a-sbrkr.o) (errno)
c:/program files/microchip/xc32/v2.40/bin/bin/../../lib/gcc/pic32c/6.2.1/../../../../pic32c/lib/v7e-m/fpv4-sp/hard\libg_nano.a(lib_a-refill.o)
                              c:/program files/microchip/xc32/v2.40/bin/bin/../../lib/gcc/pic32c/6.2.1/../../../../pic32c/lib/v7e-m/fpv4-sp/hard\libg_nano.a(_lib_a-nano-vfscanf.cdnopsuxX.o) (__srefill_r)
c:/program files/microchip/xc32/v2.40/bin/bin/../../lib/gcc/pic32c/6.2.1/../../../../pic32c/lib/v7e-m/fpv4-sp/hard\libg_nano.a(lib_a-sccl.o)
                              c:/program files/microchip/xc32/v2.40/bin/bin/../../lib/gcc/pic32c/6.2.1/../../../../pic32c/lib/v7e-m/fpv4-sp/hard\libg_nano.a(_lib_a-nano-vfscanf.cdnopsuxX.o) (__sccl)
c:/program files/microchip/xc32/v2.40/bin/bin/../../lib/gcc/pic32c/6.2.1/../../../../pic32c/lib/v7e-m/fpv4-sp/hard\libg_nano.a(lib_a-s_copysign.o)
                              c:/program files/microchip/xc32/v2.40/bin/bin/../../lib/gcc/pic32c/6.2.1/../../../../pic32c/lib/v7e-m/fpv4-sp/hard\libg_nano.a(lib_a-s_scalbn.o) (copysign)
c:/program files/microchip/xc32/v2.40/bin/bin/../../lib/gcc/pic32c/6.2.1/../../../../pic32c/lib/v7e-m/fpv4-sp/hard\libg_nano.a(lib_a-s_finite.o)
                              c:/program files/microchip/xc32/v2.40/bin/bin/../../lib/gcc/pic32c/6.2.1/../../../../pic32c/lib/v7e-m/fpv4-sp/hard\libg_nano.a(lib_a-s_ldexp.o) (finite)
c:/program files/microchip/xc32/v2.40/bin/bin/../../lib/gcc/pic32c/6.2.1/../../../../pic32c/lib/v7e-m/fpv4-sp/hard\libg_nano.a(lib_a-signal.o)
                              c:/program files/microchip/xc32/v2.40/bin/bin/../../lib/gcc/pic32c/6.2.1/../../../../pic32c/lib/v7e-m/fpv4-sp/hard\libg_nano.a(lib_a-abort.o) (raise)
c:/program files/microchip/xc32/v2.40/bin/bin/../../lib/gcc/pic32c/6.2.1/../../../../pic32c/lib/v7e-m/fpv4-sp/hard\libg_nano.a(lib_a-signalr.o)
                              c:/program files/microchip/xc32/v2.40/bin/bin/../../lib/gcc/pic32c/6.2.1/../../../../pic32c/lib/v7e-m/fpv4-sp/hard\libg_nano.a(lib_a-signal.o) (_kill_r)
c:/program files/microchip/xc32/v2.40/bin/bin/../../lib/gcc/pic32c/6.2.1/../../../../pic32c/lib/v7e-m/fpv4-sp/hard\libg_nano.a(lib_a-sscanf.o)
                              c:/program files/microchip/xc32/v2.40/bin/bin/../../lib/gcc/pic32c/6.2.1/../../../../pic32c/lib/v7e-m/fpv4-sp/hard\libg_nano.a(lib_a-tzset_r.o) (siscanf)
c:/program files/microchip/xc32/v2.40/bin/bin/../../lib/gcc/pic32c/6.2.1/../../../../pic32c/lib/v7e-m/fpv4-sp/hard\libg_nano.a(lib_a-__ssputs.o)
                              c:/program files/microchip/xc32/v2.40/bin/bin/../../lib/gcc/pic32c/6.2.1/../../../../pic32c/lib/v7e-m/fpv4-sp/hard\libg_nano.a(lib_a-nano-svfprintf.o) (__ssputs_r)
c:/program files/microchip/xc32/v2.40/bin/bin/../../lib/gcc/pic32c/6.2.1/../../../../pic32c/lib/v7e-m/fpv4-sp/hard\libg_nano.a(lib_a-ungetc.o)
                              c:/program files/microchip/xc32/v2.40/bin/bin/../../lib/gcc/pic32c/6.2.1/../../../../pic32c/lib/v7e-m/fpv4-sp/hard\libg_nano.a(_lib_a-nano-vfscanf.cdnopsuxX.o) (_ungetc_r)
c:/program files/microchip/xc32/v2.40/bin/bin/../../lib/gcc/pic32c/6.2.1/../../../../pic32c/lib/v7e-m/fpv4-sp/hard\libg_nano.a(lib_a-wcrtomb.o)
                              c:/program files/microchip/xc32/v2.40/bin/bin/../../lib/gcc/pic32c/6.2.1/../../../../pic32c/lib/v7e-m/fpv4-sp/hard\libg_nano.a(lib_a-fputwc.o) (_wcrtomb_r)
c:/program files/microchip/xc32/v2.40/bin/bin/../../lib/gcc/pic32c/6.2.1/../../../../pic32c/lib/v7e-m/fpv4-sp/hard\libg_nano.a(lib_a-environ.o)
                              c:/program files/microchip/xc32/v2.40/bin/bin/../../lib/gcc/pic32c/6.2.1/../../../../pic32c/lib/v7e-m/fpv4-sp/hard\libg_nano.a(lib_a-getenv_r.o) (environ)
c:/program files/microchip/xc32/v2.40/bin/bin/../../lib/gcc/pic32c/6.2.1/../../../../pic32c/lib/v7e-m/fpv4-sp/hard\libg_nano.a(lib_a-envlock.o)
                              c:/program files/microchip/xc32/v2.40/bin/bin/../../lib/gcc/pic32c/6.2.1/../../../../pic32c/lib/v7e-m/fpv4-sp/hard\libg_nano.a(lib_a-getenv_r.o) (__env_lock)
c:/program files/microchip/xc32/v2.40/bin/bin/../../lib/gcc/pic32c/6.2.1/../../../../pic32c/lib/v7e-m/fpv4-sp/hard\libg_nano.a(lib_a-fstatr.o)
                              c:/program files/microchip/xc32/v2.40/bin/bin/../../lib/gcc/pic32c/6.2.1/../../../../pic32c/lib/v7e-m/fpv4-sp/hard\libg_nano.a(lib_a-makebuf.o) (_fstat_r)
c:/program files/microchip/xc32/v2.40/bin/bin/../../lib/gcc/pic32c/6.2.1/../../../../pic32c/lib/v7e-m/fpv4-sp/hard\libg_nano.a(lib_a-isattyr.o)
                              c:/program files/microchip/xc32/v2.40/bin/bin/../../lib/gcc/pic32c/6.2.1/../../../../pic32c/lib/v7e-m/fpv4-sp/hard\libg_nano.a(lib_a-makebuf.o) (_isatty_r)
c:/program files/microchip/xc32/v2.40/bin/bin/../../lib/gcc/pic32c/6.2.1/../../../../pic32c/lib/v7e-m/fpv4-sp/hard\libg_nano.a(lib_a-nano-reallocr.o)
                              c:/program files/microchip/xc32/v2.40/bin/bin/../../lib/gcc/pic32c/6.2.1/../../../../pic32c/lib/v7e-m/fpv4-sp/hard\libg_nano.a(lib_a-__ssputs.o) (_realloc_r)
c:/program files/microchip/xc32/v2.40/bin/bin/../../lib/gcc/pic32c/6.2.1/../../../../pic32c/lib/v7e-m/fpv4-sp/hard\libg_nano.a(lib_a-nano-svfscanf.o)
                              c:/program files/microchip/xc32/v2.40/bin/bin/../../lib/gcc/pic32c/6.2.1/../../../../pic32c/lib/v7e-m/fpv4-sp/hard\libg_nano.a(lib_a-sscanf.o) (__ssvfscanf_r)
c:/program files/microchip/xc32/v2.40/bin/bin/../../lib/gcc/pic32c/6.2.1/../../../../pic32c/lib/v7e-m/fpv4-sp/hard\libg_nano.a(lib_a-nano-vfscanf_i.o)
                              c:/program files/microchip/xc32/v2.40/bin/bin/../../lib/gcc/pic32c/6.2.1/../../../../pic32c/lib/v7e-m/fpv4-sp/hard\libg_nano.a(lib_a-nano-svfscanf.o) (_scanf_chars)
c:/program files/microchip/xc32/v2.40/bin/bin/../../lib/gcc/pic32c/6.2.1/../../../../pic32c/lib/v7e-m/fpv4-sp/hard\libg_nano.a(lib_a-nano-msizer.o)
                              c:/program files/microchip/xc32/v2.40/bin/bin/../../lib/gcc/pic32c/6.2.1/../../../../pic32c/lib/v7e-m/fpv4-sp/hard\libg_nano.a(lib_a-nano-reallocr.o) (_malloc_usable_size_r)
c:/program files/microchip/xc32/v2.40/bin/bin/../../lib/gcc/pic32c/6.2.1/../../../../pic32c/lib/v7e-m/fpv4-sp/hard\libpic32c.a(_close.o)
                              c:/program files/microchip/xc32/v2.40/bin/bin/../../lib/gcc/pic32c/6.2.1/../../../../pic32c/lib/v7e-m/fpv4-sp/hard\libg_nano.a(lib_a-closer.o) (_close)
c:/program files/microchip/xc32/v2.40/bin/bin/../../lib/gcc/pic32c/6.2.1/../../../../pic32c/lib/v7e-m/fpv4-sp/hard\libpic32c.a(_fstat.o)
                              c:/program files/microchip/xc32/v2.40/bin/bin/../../lib/gcc/pic32c/6.2.1/../../../../pic32c/lib/v7e-m/fpv4-sp/hard\libg_nano.a(lib_a-fstatr.o) (_fstat)
c:/program files/microchip/xc32/v2.40/bin/bin/../../lib/gcc/pic32c/6.2.1/../../../../pic32c/lib/v7e-m/fpv4-sp/hard\libpic32c.a(_getpid.o)
                              c:/program files/microchip/xc32/v2.40/bin/bin/../../lib/gcc/pic32c/6.2.1/../../../../pic32c/lib/v7e-m/fpv4-sp/hard\libg_nano.a(lib_a-signalr.o) (_getpid)
c:/program files/microchip/xc32/v2.40/bin/bin/../../lib/gcc/pic32c/6.2.1/../../../../pic32c/lib/v7e-m/fpv4-sp/hard\libpic32c.a(_isatty.o)
                              c:/program files/microchip/xc32/v2.40/bin/bin/../../lib/gcc/pic32c/6.2.1/../../../../pic32c/lib/v7e-m/fpv4-sp/hard\libg_nano.a(lib_a-isattyr.o) (_isatty)
c:/program files/microchip/xc32/v2.40/bin/bin/../../lib/gcc/pic32c/6.2.1/../../../../pic32c/lib/v7e-m/fpv4-sp/hard\libpic32c.a(_kill.o)
                              c:/program files/microchip/xc32/v2.40/bin/bin/../../lib/gcc/pic32c/6.2.1/../../../../pic32c/lib/v7e-m/fpv4-sp/hard\libg_nano.a(lib_a-signalr.o) (_kill)
c:/program files/microchip/xc32/v2.40/bin/bin/../../lib/gcc/pic32c/6.2.1/../../../../pic32c/lib/v7e-m/fpv4-sp/hard\libpic32c.a(_lseek.o)
                              c:/program files/microchip/xc32/v2.40/bin/bin/../../lib/gcc/pic32c/6.2.1/../../../../pic32c/lib/v7e-m/fpv4-sp/hard\libg_nano.a(lib_a-lseekr.o) (_lseek)
c:/program files/microchip/xc32/v2.40/bin/bin/../../lib/gcc/pic32c/6.2.1/../../../../pic32c/lib/v7e-m/fpv4-sp/hard\libpic32c.a(_read.o)
                              c:/program files/microchip/xc32/v2.40/bin/bin/../../lib/gcc/pic32c/6.2.1/../../../../pic32c/lib/v7e-m/fpv4-sp/hard\libg_nano.a(lib_a-readr.o) (_read)
c:/program files/microchip/xc32/v2.40/bin/bin/../../lib/gcc/pic32c/6.2.1/../../../../pic32c/lib/v7e-m/fpv4-sp/hard\libpic32c.a(sbrk.o)
                              c:/program files/microchip/xc32/v2.40/bin/bin/../../lib/gcc/pic32c/6.2.1/../../../../pic32c/lib/v7e-m/fpv4-sp/hard\libg_nano.a(lib_a-sbrkr.o) (_sbrk)
c:/program files/microchip/xc32/v2.40/bin/bin/../../lib/gcc/pic32c/6.2.1/../../../../pic32c/lib/v7e-m/fpv4-sp/hard\libpic32c.a(_write.o)
                              c:/program files/microchip/xc32/v2.40/bin/bin/../../lib/gcc/pic32c/6.2.1/../../../../pic32c/lib/v7e-m/fpv4-sp/hard\libg_nano.a(lib_a-writer.o) (_write)
c:/program files/microchip/xc32/v2.40/bin/bin/../../lib/gcc/pic32c/6.2.1/../../../../pic32c/lib/v7e-m/fpv4-sp/hard\libpic32c.a(fstat.o)
                              c:/program files/microchip/xc32/v2.40/bin/bin/../../lib/gcc/pic32c/6.2.1/../../../../pic32c/lib/v7e-m/fpv4-sp/hard\libpic32c.a(_fstat.o) (fstat)
c:/program files/microchip/xc32/v2.40/bin/bin/../../lib/gcc/pic32c/6.2.1/../../../../pic32c/lib/v7e-m/fpv4-sp/hard\libpic32c.a(getpid.o)
                              c:/program files/microchip/xc32/v2.40/bin/bin/../../lib/gcc/pic32c/6.2.1/../../../../pic32c/lib/v7e-m/fpv4-sp/hard\libpic32c.a(_getpid.o) (getpid)
c:/program files/microchip/xc32/v2.40/bin/bin/../../lib/gcc/pic32c/6.2.1/../../../../pic32c/lib/v7e-m/fpv4-sp/hard\libpic32c.a(isatty.o)
                              c:/program files/microchip/xc32/v2.40/bin/bin/../../lib/gcc/pic32c/6.2.1/../../../../pic32c/lib/v7e-m/fpv4-sp/hard\libpic32c.a(_isatty.o) (isatty)
c:/program files/microchip/xc32/v2.40/bin/bin/../../lib/gcc/pic32c/6.2.1/../../../../pic32c/lib/v7e-m/fpv4-sp/hard\libpic32c.a(kill.o)
                              c:/program files/microchip/xc32/v2.40/bin/bin/../../lib/gcc/pic32c/6.2.1/../../../../pic32c/lib/v7e-m/fpv4-sp/hard\libpic32c.a(_kill.o) (kill)
c:/program files/microchip/xc32/v2.40/bin/bin/../../lib/gcc/pic32c/6.2.1/../../../../pic32c/lib/v7e-m/fpv4-sp/hard\libpic32c.a(lseek.o)
                              c:/program files/microchip/xc32/v2.40/bin/bin/../../lib/gcc/pic32c/6.2.1/../../../../pic32c/lib/v7e-m/fpv4-sp/hard\libpic32c.a(_lseek.o) (lseek)
c:/program files/microchip/xc32/v2.40/bin/bin/../../lib/gcc/pic32c/6.2.1/../../../../pic32c/lib/v7e-m/fpv4-sp/hard\libpic32c.a(read.o)
                              c:/program files/microchip/xc32/v2.40/bin/bin/../../lib/gcc/pic32c/6.2.1/../../../../pic32c/lib/v7e-m/fpv4-sp/hard\libpic32c.a(_read.o) (read)
c:/program files/microchip/xc32/v2.40/bin/bin/../../lib/gcc/pic32c/6.2.1/../../../../pic32c/lib/v7e-m/fpv4-sp/hard\libpic32c.a(write.o)
                              c:/program files/microchip/xc32/v2.40/bin/bin/../../lib/gcc/pic32c/6.2.1/../../../../pic32c/lib/v7e-m/fpv4-sp/hard\libpic32c.a(_write.o) (write)

Allocating common symbols
Common symbol       size              file

g_atcab_device      0x8               build/aws_demos/debug/_ext/306685378/atca_basic.o
cfg_ateccx08a_i2c_default
                    0x30              build/aws_demos/debug/_ext/1360937237/main.o
mbedtls_cipher_supported
                    0x40              build/aws_demos/debug/_ext/684768522/cipher_wrap.o
errno               0x4               c:/program files/microchip/xc32/v2.40/bin/bin/../../lib/gcc/pic32c/6.2.1/../../../../pic32c/lib/v7e-m/fpv4-sp/hard\libg_nano.a(lib_a-reent.o)
TC3_CallbackObject  0x8               build/aws_demos/debug/_ext/1110296786/plib_tc3.o
pfWINCDebugPrintCb  0x4               build/aws_demos/debug/_ext/1833802790/wdrv_winc.o
sercom6USARTObj     0x38              build/aws_demos/debug/_ext/731420310/plib_sercom6_usart.o
_AwsIotShadowSubscriptionsMutex
                    0x54              build/aws_demos/debug/_ext/1647995491/aws_iot_shadow_subscription.o
g_network_param     0x200             build/aws_demos/debug/_ext/2009324866/aws_wifi.o
sercom2USARTObj     0x30              build/aws_demos/debug/_ext/731420310/plib_sercom2_usart.o
xBoundTCPSocketsList
                    0x14              build/aws_demos/debug/_ext/1682906662/FreeRTOS_Sockets.o
appData             0x1               build/aws_demos/debug/_ext/1360937237/app.o
_AwsIotShadowPendingOperationsMutex
                    0x54              build/aws_demos/debug/_ext/1647995491/aws_iot_shadow_operation.o
xAPP_Tasks          0x4               build/aws_demos/debug/_ext/1534096987/tasks.o
eicCallbackObject   0xc0              build/aws_demos/debug/_ext/59476128/plib_eic.o
sysObj              0x14              build/aws_demos/debug/_ext/1534096987/initialization.o
waiting_task        0x4               build/aws_demos/debug/_ext/2009324866/aws_wifi.o
sercom4SPIObj       0x2c              build/aws_demos/debug/_ext/1916130672/plib_sercom4_spi.o
xBoundUDPSocketsList
                    0x14              build/aws_demos/debug/_ext/1682906662/FreeRTOS_Sockets.o
gblErrLvl           0x1               build/aws_demos/debug/_ext/1931625852/sys_debug.o
gastrSockets        0xb0              build/aws_demos/debug/_ext/1777946865/socket.o
gpfAppSocketCb      0x4               build/aws_demos/debug/_ext/1777946865/socket.o
g_atcab_iface       0x28              build/aws_demos/debug/_ext/306685378/atca_basic.o
pkcs11_object_cache
                    0x80              build/aws_demos/debug/_ext/1326886903/pkcs11_object.o
g_atcab_command     0x4               build/aws_demos/debug/_ext/306685378/atca_basic.o
gpfAppResolveCb     0x4               build/aws_demos/debug/_ext/1777946865/socket.o
dmacChannelObj      0x40              build/aws_demos/debug/_ext/1843785878/plib_dmac.o

Microchip PIC32 Memory-Usage Report

ROM Program-Memory Usage
section                    address  length [bytes]      (dec)  Description
-------                 ----------  -------------------------  -----------
.vectors                         0          0x264         612   
.text                        0x264           0x20          32  App's exec code 
.ARM.exidx                   0x284            0x8           8   
.text                        0x28c        0x13af0       80624  App's exec code 
.rodata                    0x13d7c          0xd28        3368  Read-only const 
.text                      0x14aa4         0x4848       18504  App's exec code 
.dinit                     0x192ec          0xaf0        2800   
.text                      0x19ddc         0x2a70       10864  App's exec code 
.rodata                    0x1c84c         0x1384        4996  Read-only const 
.text                      0x1dbd0          0x910        2320  App's exec code 
.rodata                    0x1e4e0         0x21cc        8652  Read-only const 
.text                      0x206ac         0x1e88        7816  App's exec code 
.rodata                    0x22534          0xe88        3720  Read-only const 
.text                      0x233bc         0x434c       17228  App's exec code 
.rodata                    0x27708          0x58c        1420  Read-only const 
.text                      0x27c94         0x1504        5380  App's exec code 
.rodata                    0x29198          0x500        1280  Read-only const 
.text                      0x29698          0xe64        3684  App's exec code 
.rodata                    0x2a4fc          0x47c        1148  Read-only const 
.text                      0x2a978          0x47c        1148  App's exec code 
.rodata                    0x2adf4          0x460        1120  Read-only const 
.text                      0x2b254          0x8a8        2216  App's exec code 
.rodata                    0x2bafc          0x444        1092  Read-only const 
.text                      0x2bf40         0x3c40       15424  App's exec code 
.rodata                    0x2fb80          0x3d4         980  Read-only const 
.text                      0x2ff54          0x3c4         964  App's exec code 
.rodata                    0x30318          0x3bc         956  Read-only const 
.text                      0x306d4          0xab0        2736  App's exec code 
.rodata                    0x31184          0x35c         860  Read-only const 
.text                      0x314e0          0xc9c        3228  App's exec code 
.text._tzset_unlocked_r    0x3217c          0x304         772   
.text.mktime               0x32480          0x2f0         752   
.rodata                    0x32770          0x2e8         744  Read-only const 
.text                      0x32a58          0x2e4         740  App's exec code 
.rodata                    0x32d3c          0x2dc         732  Read-only const 
.text                      0x33018          0x864        2148  App's exec code 
.rodata                    0x3387c          0x2b8         696  Read-only const 
.text                      0x33b34          0x56c        1388  App's exec code 
.rodata                    0x340a0          0x2b0         688  Read-only const 
.text                      0x34350          0x2b0         688  App's exec code 
.text.__ssvfscanf_r        0x34600          0x2a8         680   
.text                      0x348a8          0x734        1844  App's exec code 
.text._printf_i            0x34fdc          0x240         576   
.text                      0x3521c          0x22c         556  App's exec code 
.rodata                    0x35448          0x22c         556  Read-only const 
.text                      0x35674          0x220         544  App's exec code 
.rodata                    0x35894          0x21c         540  Read-only const 
.text                      0x35ab0          0x42c        1068  App's exec code 
.rodata                    0x35edc          0x20c         524  Read-only const 
.text                      0x360e8          0x5dc        1500  App's exec code 
.text._vfprintf_r          0x366c4          0x1f4         500   
.text                      0x368b8          0x1e8         488  App's exec code 
.text._scanf_i             0x36aa0          0x1e8         488   
.text                      0x36c88          0x92c        2348  App's exec code 
.text._svfprintf_r         0x375b4          0x1c8         456   
.text.validate_structur    0x3777c          0x1c0         448   
.rodata                    0x3793c          0x1bc         444  Read-only const 
.text                      0x37af8          0x1b8         440  App's exec code 
.rodata                    0x37cb0          0x1a8         424  Read-only const 
.text                      0x37e58          0xc14        3092  App's exec code 
.text.__tzcalc_limits      0x38a6c          0x150         336   
.text                      0x38bbc          0x286         646  App's exec code 
.rodata                    0x38e42            0x2           2  Read-only const 
.text                      0x38e44          0x138         312  App's exec code 
.text.gmtime_r             0x38f7c          0x134         308   
.rodata                    0x390b0          0x37c         892  Read-only const 
.text                      0x3942c          0x120         288  App's exec code 
.rodata                    0x3954c          0x118         280  Read-only const 
.text.__sflush_r           0x39664          0x110         272   
.text                      0x39774          0x20c         524  App's exec code 
.rodata._ctype_            0x39980          0x101         257   
.rodata                    0x39a84          0x200         512  Read-only const 
.text._strtol_l.isra.0     0x39c84          0x100         256   
.text                      0x39d84           0xfc         252  App's exec code 
.text._strtoul_l.isra.0    0x39e80           0xfa         250   
.text                      0x39f7a           0xec         236  App's exec code 
.text                      0x3a066            0x2           2  App's exec code 
.text                      0x3a068          0x1d8         472  App's exec code 
.text._printf_common       0x3a240           0xec         236   
.text                      0x3a32c          0x2a8         680  App's exec code 
.rodata                    0x3a5d4           0xe0         224  Read-only const 
.text.__swsetup_r          0x3a6b4           0xdc         220   
.text                      0x3a790           0xd4         212  App's exec code 
.rodata                    0x3a864           0xd0         208  Read-only const 
.text._puts_r              0x3a934           0xcc         204   
.text._scanf_chars         0x3aa00           0xc8         200   
.rodata                    0x3aac8           0xc0         192  Read-only const 
.text                      0x3ab88           0xbc         188  App's exec code 
.text._malloc_r            0x3ac44           0xbc         188   
.text.__swbuf_r            0x3ad00           0xbc         188   
.text                      0x3adbc          0x170         368  App's exec code 
.text.__ssputs_r           0x3af2c           0xb6         182   
.text.__malloc_lock        0x3afe2            0x2           2   
.text                      0x3afe4           0xac         172  App's exec code 
.rodata                    0x3b090          0x150         336  Read-only const 
.text                      0x3b1e0          0x1ec         492  App's exec code 
.rodata                    0x3b3cc           0xa0         160  Read-only const 
.rodata                    0x3b46c            0x4           4  Read-only const 
.text                      0x3b470          0x13c         316  App's exec code 
.text._free_r              0x3b5ac           0x9c         156   
.text                      0x3b648          0x1b6         438  App's exec code 
.text.__malloc_unlock      0x3b7fe            0x2           2   
.text                      0x3b800          0x114         276  App's exec code 
.rodata                    0x3b914           0x84         132  Read-only const 
.text                      0x3b998          0x108         264  App's exec code 
.rodata                    0x3baa0           0x84         132  Read-only const 
.text.__fputwc             0x3bb24           0x82         130   
.text.__env_lock           0x3bba6            0x2           2   
.text.__pic32c_data_ini    0x3bba8           0x80         128   
.text._findenv_r           0x3bc28           0x80         128   
.text.Reset_Handler        0x3bca8           0x7c         124   
.text._sungetc_r           0x3bd24           0x7a         122   
.text.__env_unlock         0x3bd9e            0x2           2   
.rodata                    0x3bda0           0x78         120  Read-only const 
.text                      0x3be18           0x78         120  App's exec code 
.text.__sfp                0x3be90           0x78         120   
.text.__smakebuf_r         0x3bf08           0x78         120   
.text.__submore            0x3bf80           0x76         118   
.text                      0x3bff8           0x74         116  App's exec code 
.text.rand                 0x3c06c           0x74         116   
.text                      0x3c0e0           0x70         112  App's exec code 
.rodata                    0x3c150           0xe0         224  Read-only const 
.text._putc_r              0x3c230           0x6c         108   
.text.snprintf             0x3c29c           0x6c         108   
.text                      0x3c308           0x6a         106  App's exec code 
.rodata                    0x3c374           0x64         100  Read-only const 
.text                      0x3c3d8           0x60          96  App's exec code 
.text.__sinit              0x3c438           0x60          96   
.rodata.__month_lengths    0x3c498           0x60          96   
.text.__sccl               0x3c4f8           0x60          96   
.text._vsnprintf_r         0x3c558           0x5c          92   
.text                      0x3c5b4           0x58          88  App's exec code 
.text._fflush_r            0x3c60c           0x54          84   
.text.sscanf               0x3c660           0x54          84   
.rodata                    0x3c6b4           0x50          80  Read-only const 
.text._wcrtomb_r           0x3c704           0x50          80   
.rodata                    0x3c754           0x4e          78  Read-only const 
.text.sprintf              0x3c7a4           0x4c          76   
.text._realloc_r           0x3c7f0           0x4c          76   
.text.__ssfputs_r          0x3c83c           0x4a          74   
.rodata                    0x3c888           0x48          72  Read-only const 
.text.__libc_init_array    0x3c8d0           0x48          72   
.text.std.isra.0           0x3c918           0x48          72   
.text.__swhatbuf_r         0x3c960           0x48          72   
.text                      0x3c9a8           0x8c         140  App's exec code 
.rodata                    0x3ca34           0x88         136  Read-only const 
.text                      0x3cabc           0x84         132  App's exec code 
.rodata                    0x3cb40           0x40          64  Read-only const 
.text                      0x3cb80           0xbc         188  App's exec code 
.rodata                    0x3cc3c           0x3c          60  Read-only const 
.text._fwalk_reent         0x3cc78           0x3c          60   
.text.write                0x3ccb4           0x3c          60   
.text.__ssrefill_r         0x3ccf0           0x3a          58   
.text                      0x3cd2a           0x38          56  App's exec code 
.text                      0x3cd64           0x38          56  App's exec code 
.rodata                    0x3cd9c           0x38          56  Read-only const 
.text                      0x3cdd4           0x38          56  App's exec code 
.rodata                    0x3ce0c           0x38          56  Read-only const 
.text.__swrite             0x3ce44           0x38          56   
.text.strstr               0x3ce7c           0x36          54   
.text                      0x3ceb4           0x34          52  App's exec code 
.rodata                    0x3cee8           0x34          52  Read-only const 
.text.memmove              0x3cf1c           0x34          52   
.rodata                    0x3cf50           0x60          96  Read-only const 
.text                      0x3cfb0           0x30          48  App's exec code 
.rodata.DAYS_IN_MONTH      0x3cfe0           0x30          48   
.rodata._DAYS_BEFORE_MO    0x3d010           0x30          48   
.text.printf               0x3d040           0x30          48   
.text.__sfputc_r           0x3d070           0x30          48   
.text                      0x3d0a0           0x2e          46  App's exec code 
.rodata                    0x3d0d0           0x84         132  Read-only const 
.text.strtoul              0x3d154           0x2c          44   
.text.__sfmoreglue         0x3d180           0x2c          44   
.text._sbrk                0x3d1ac           0x2c          44   
.text.strncpy              0x3d1d8           0x2a          42   
.text                      0x3d202           0x28          40  App's exec code 
.text                      0x3d22c           0x50          80  App's exec code 
.text.putchar              0x3d27c           0x28          40   
.text.div                  0x3d2a4           0x28          40   
.rodata                    0x3d2cc           0x28          40  Read-only const 
.text.read                 0x3d2f4           0x28          40   
.text                      0x3d31c           0x6c         108  App's exec code 
.text.gmtime               0x3d388           0x24          36   
.text.__ascii_mbtowc       0x3d3ac           0x24          36   
.text.__sseek              0x3d3d0           0x24          36   
.text.strncmp              0x3d3f4           0x24          36   
.text._strtol_r            0x3d418           0x24          36   
.text._strtoul_r           0x3d43c           0x24          36   
.text._write_r             0x3d460           0x24          36   
.text._lseek_r             0x3d484           0x24          36   
.text._read_r              0x3d4a8           0x24          36   
.text._fstat_r             0x3d4cc           0x24          36   
.text.__sread              0x3d4f0           0x22          34   
.rodata                    0x3d512           0x22          34  Read-only const 
.text._sbrk_r              0x3d534           0x20          32   
.text._close_r             0x3d554           0x20          32   
.rodata.__sf_fake_stder    0x3d574           0x20          32   
.rodata.__sf_fake_stdin    0x3d594           0x20          32   
.rodata.__sf_fake_stdou    0x3d5b4           0x20          32   
.text._isatty_r            0x3d5d4           0x20          32   
.text.memcmp               0x3d5f4           0x1e          30   
.text.strcat               0x3d612           0x1e          30   
.text                      0x3d630           0x1c          28  App's exec code 
.text.__locale_mb_cur_m    0x3d64c           0x1c          28   
.text.__locale_ctype_pt    0x3d668           0x1c          28   
.text._calloc_r            0x3d684           0x1c          28   
.text.vsnprintf            0x3d6a0           0x1c          28   
.text._fputwc_r            0x3d6bc           0x1c          28   
.text.__ascii_wctomb       0x3d6d8           0x1a          26   
.rodata                    0x3d6f4           0x48          72  Read-only const 
.text                      0x3d73c           0x18          24  App's exec code 
.rodata                    0x3d754           0x30          48  Read-only const 
.text.memcpy               0x3d784           0x16          22   
.rodata                    0x3d79c           0x28          40  Read-only const 
.text                      0x3d7c4           0x28          40  App's exec code 
.text._malloc_usable_si    0x3d7ec           0x12          18   
.rodata                    0x3d7fe           0x32          50  Read-only const 
.text.calloc               0x3d830           0x10          16   
.text.malloc               0x3d840           0x10          16   
.text.free                 0x3d850           0x10          16   
.text.memset               0x3d860           0x10          16   
.text.puts                 0x3d870           0x10          16   
.text.strcpy               0x3d880           0x10          16   
.text                      0x3d890           0x10          16  App's exec code 
.text._getenv_r            0x3d8a0            0xe          14   
.rodata                    0x3d8b0           0x18          24  Read-only const 
.text                      0x3d8c8            0xc          12  App's exec code 
.text.tzset                0x3d8d4            0xc          12   
.text._cleanup_r           0x3d8e0            0xc          12   
.text.fstat                0x3d8ec            0xc          12   
.rodata                    0x3d8f8            0xb          11  Read-only const 
.rodata                    0x3d904           0x18          24  Read-only const 
.text.close                0x3d91c            0x8           8   
.text.__sclose             0x3d924            0x8           8   
.text.__gettzinfo          0x3d92c            0x8           8   
.text.__locale_ctype_pt    0x3d934            0x6           6   
.text.__printf_float       0x3d93a            0x6           6   
.rodata                    0x3d940            0x4           4  Read-only const 
.text.Dummy_Handler        0x3d944            0x4           4   
.text                      0x3d948            0x4           4  App's exec code 
.rodata._global_impure_    0x3d94c            0x4           4   
.text.__seofread           0x3d950            0x4           4   
.text._tzset_unlocked      0x3d954            0x4           4   
.rodata                    0x3d958            0x4           4  Read-only const 
.text.__scanf_float        0x3d95c            0x4           4   
.rodata                    0x3d960            0x4           4  Read-only const 
.text._close               0x3d964            0x4           4   
.text._fstat               0x3d968            0x4           4   
.text._isatty              0x3d96c            0x4           4   
.text._lseek               0x3d970            0x4           4   
.text._read                0x3d974            0x4           4   
.text._write               0x3d978            0x4           4   
.text.isatty               0x3d97c            0x4           4   
.text.lseek                0x3d980            0x4           4   
      Total ROM used  :     0x3d96a      252266  24.1% of 0x100000
        --------------------------------------------------------------------------
         Total Program Memory used  :     0x3d96a      252266  24.1% of 0x100000
        --------------------------------------------------------------------------


RAM Data-Memory Usage
section                    address  length [bytes]      (dec)  Description
-------                 ----------  -------------------------  -----------
.bss                    0x20000100          0x564        1380  Uninitialized data 
.bss                    0x20000664        0x2bfc8      180168  Uninitialized data 
.data                   0x2002c62c            0x4           4  Initialized data 
.bss                    0x2002c630         0x17d0        6096  Uninitialized data 
.data                   0x2002de00          0x1e0         480  Initialized data 
.data.__global_locale   0x2002dfe0          0x16c         364   
.bss                    0x2002e14c          0x2cc         716  Uninitialized data 
.data                   0x2002e418          0x144         324  Initialized data 
.bss                    0x2002e55c          0x539        1337  Uninitialized data 
.bss                    0x2002ea98          0x290         656  Uninitialized data 
.bss                    0x2002ed28            0x8           8  Uninitialized data 
.bss                    0x2002ed30          0x1f2         498  Uninitialized data 
.bss                    0x2002ef22            0x2           2  Uninitialized data 
.data.impure_data       0x2002ef24           0x60          96   
.bss                    0x2002ef84           0x58          88  Uninitialized data 
.data.tzinfo            0x2002efdc           0x40          64   
.data                   0x2002f01c           0x30          48  Initialized data 
.bss                    0x2002f04c           0x2d          45  Uninitialized data 
.data                   0x2002f07c           0x2c          44  Initialized data 
.bss                    0x2002f0a8           0x49          73  Uninitialized data 
.bss                    0x2002f0f4           0x3c          60  Uninitialized data 
.data                   0x2002f130           0x1c          28  Initialized data 
.bss                    0x2002f14c           0x40          64  Uninitialized data 
.data                   0x2002f18c           0x14          20  Initialized data 
.bss                    0x2002f1a0           0x12          18  Uninitialized data 
.data                   0x2002f1b2            0x2           2  Initialized data 
.data                   0x2002f1b4           0x2c          44  Initialized data 
.bss                    0x2002f1e0            0xc          12  Uninitialized data 
.bss.__tzname_dst       0x2002f1ec            0xb          11   
.bss.__tzname_std       0x2002f1f7            0xb          11   
.data                   0x2002f202            0x1           1  Initialized data 
.bss                    0x2002f203            0x1           1  Uninitialized data 
.bss                    0x2002f204           0x18          24  Uninitialized data 
.data                   0x2002f21c            0x8           8  Initialized data 
.bss                    0x2002f224            0x8           8  Uninitialized data 
.data._tzname           0x2002f22c            0x8           8   
.bss                    0x2002f234            0x5           5  Uninitialized data 
.bss                    0x2002f23c            0x4           4  Uninitialized data 
.data                   0x2002f240            0xc          12  Initialized data 
.bss                    0x2002f24c            0x4           4  Uninitialized data 
.data                   0x2002f250            0x4           4  Initialized data 
.bss                    0x2002f254            0xc          12  Uninitialized data 
.data                   0x2002f260            0xc          12  Initialized data 
.data._impure_ptr       0x2002f26c            0x4           4   
.bss.__malloc_free_list 0x2002f270            0x4           4   
.bss.__malloc_sbrk_star 0x2002f274            0x4           4   
.bss.prev_tzenv         0x2002f278            0x4           4   
.bss._daylight          0x2002f27c            0x4           4   
.bss._timezone          0x2002f280            0x4           4   
.bss.initial_env        0x2002f284            0x4           4   
.data.environ           0x2002f288            0x4           4   
.bss                    0x2002f28c            0x4           4  Uninitialized data 
.data                   0x2002f290            0x2           2  Initialized data 
         Total RAM used  :     0x2f186      192902  73.7% of 0x3fe00
        --------------------------------------------------------------------------
            Total Data Memory used  :     0x2f186      192902  73.7% of 0x3fe00
        --------------------------------------------------------------------------


Dynamic Data-Memory Reservation
section                    address  length [bytes]      (dec)  Description
-------                 ----------  -------------------------  -----------
heap                    0x2002f298          0x200         512  Reserved for heap 
stack                   0x2002f4b0        0x10a40       68160  Reserved for stack 

        --------------------------------------------------------------------------

Discarded input sections

 .text          0x00000000        0x0 c:/program files/microchip/xc32/v2.40/bin/bin/../../lib/gcc/pic32c/6.2.1/v7e-m/fpv4-sp/hard/crti.o
 .data          0x00000000        0x0 c:/program files/microchip/xc32/v2.40/bin/bin/../../lib/gcc/pic32c/6.2.1/v7e-m/fpv4-sp/hard/crti.o
 .bss           0x00000000        0x0 c:/program files/microchip/xc32/v2.40/bin/bin/../../lib/gcc/pic32c/6.2.1/v7e-m/fpv4-sp/hard/crti.o
 .data          0x00000000        0x4 c:/program files/microchip/xc32/v2.40/bin/bin/../../lib/gcc/pic32c/6.2.1/v7e-m/fpv4-sp/hard/crtbegin.o
 .data          0x00000000        0x0 build/aws_demos/debug/_ext/665618993/plib_nvmctrl.o
 .data          0x00000000        0x0 build/aws_demos/debug/_ext/1168480030/heap_4.o
 .text          0x00000000      0x1ec build/aws_demos/debug/_ext/1778494626/BufferAllocation_2.o
 .data          0x00000000        0x0 build/aws_demos/debug/_ext/1778494626/BufferAllocation_2.o
 .bss           0x00000000      0x88c build/aws_demos/debug/_ext/1778494626/BufferAllocation_2.o
 .rodata        0x00000000       0x8c build/aws_demos/debug/_ext/1778494626/BufferAllocation_2.o
 .debug_info    0x00000000     0x468b build/aws_demos/debug/_ext/1778494626/BufferAllocation_2.o
 .debug_abbrev  0x00000000      0x318 build/aws_demos/debug/_ext/1778494626/BufferAllocation_2.o
 .debug_loc     0x00000000      0x401 build/aws_demos/debug/_ext/1778494626/BufferAllocation_2.o
 .debug_aranges
                0x00000000       0x20 build/aws_demos/debug/_ext/1778494626/BufferAllocation_2.o
 .debug_line    0x00000000      0x57e build/aws_demos/debug/_ext/1778494626/BufferAllocation_2.o
 .debug_str     0x00000000      0x129 build/aws_demos/debug/_ext/1778494626/BufferAllocation_2.o
 .comment       0x00000000       0x3d build/aws_demos/debug/_ext/1778494626/BufferAllocation_2.o
 .debug_frame   0x00000000       0xe0 build/aws_demos/debug/_ext/1778494626/BufferAllocation_2.o
 .ARM.attributes
                0x00000000       0x39 build/aws_demos/debug/_ext/1778494626/BufferAllocation_2.o
 .text          0x00000000        0x0 build/aws_demos/debug/_ext/1778494626/NetworkInterface_wifi.o
 .data          0x00000000        0x0 build/aws_demos/debug/_ext/1778494626/NetworkInterface_wifi.o
 .bss           0x00000000        0x0 build/aws_demos/debug/_ext/1778494626/NetworkInterface_wifi.o
 .debug_line    0x00000000        0x0 build/aws_demos/debug/_ext/1778494626/NetworkInterface_wifi.o
 .debug_str     0x00000000        0x0 build/aws_demos/debug/_ext/1778494626/NetworkInterface_wifi.o
 .comment       0x00000000       0x3d build/aws_demos/debug/_ext/1778494626/NetworkInterface_wifi.o
 .ARM.attributes
                0x00000000       0x39 build/aws_demos/debug/_ext/1778494626/NetworkInterface_wifi.o
 .text          0x00000000        0x0 build/aws_demos/debug/_ext/787859085/atca_cert_chain.o
 .data          0x00000000        0x0 build/aws_demos/debug/_ext/787859085/atca_cert_chain.o
 .bss           0x00000000        0x0 build/aws_demos/debug/_ext/787859085/atca_cert_chain.o
 .text          0x00000000      0x744 build/aws_demos/debug/_ext/766474417/aws_ota_pal.o
 .data          0x00000000        0x0 build/aws_demos/debug/_ext/766474417/aws_ota_pal.o
 .bss           0x00000000       0x10 build/aws_demos/debug/_ext/766474417/aws_ota_pal.o
 .rodata        0x00000000      0x684 build/aws_demos/debug/_ext/766474417/aws_ota_pal.o
 .debug_info    0x00000000     0x461e build/aws_demos/debug/_ext/766474417/aws_ota_pal.o
 .debug_abbrev  0x00000000      0x587 build/aws_demos/debug/_ext/766474417/aws_ota_pal.o
 .debug_loc     0x00000000      0xe5d build/aws_demos/debug/_ext/766474417/aws_ota_pal.o
 .debug_aranges
                0x00000000       0x20 build/aws_demos/debug/_ext/766474417/aws_ota_pal.o
 .debug_ranges  0x00000000       0xf8 build/aws_demos/debug/_ext/766474417/aws_ota_pal.o
 .debug_line    0x00000000      0x653 build/aws_demos/debug/_ext/766474417/aws_ota_pal.o
 .debug_str     0x00000000      0x2e1 build/aws_demos/debug/_ext/766474417/aws_ota_pal.o
 .comment       0x00000000       0x3d build/aws_demos/debug/_ext/766474417/aws_ota_pal.o
 .debug_frame   0x00000000       0xfc build/aws_demos/debug/_ext/766474417/aws_ota_pal.o
 .ARM.attributes
                0x00000000       0x39 build/aws_demos/debug/_ext/766474417/aws_ota_pal.o
 .text          0x00000000      0x1c8 build/aws_demos/debug/_ext/1972722184/pkcs11_nvm.o
 .data          0x00000000        0x0 build/aws_demos/debug/_ext/1972722184/pkcs11_nvm.o
 .bss           0x00000000        0x0 build/aws_demos/debug/_ext/1972722184/pkcs11_nvm.o
 .rodata        0x00000000       0x78 build/aws_demos/debug/_ext/1972722184/pkcs11_nvm.o
 .debug_info    0x00000000     0x15dd build/aws_demos/debug/_ext/1972722184/pkcs11_nvm.o
 .debug_abbrev  0x00000000      0x2d2 build/aws_demos/debug/_ext/1972722184/pkcs11_nvm.o
 .debug_loc     0x00000000      0x78f build/aws_demos/debug/_ext/1972722184/pkcs11_nvm.o
 .debug_aranges
                0x00000000       0x20 build/aws_demos/debug/_ext/1972722184/pkcs11_nvm.o
 .debug_ranges  0x00000000       0x18 build/aws_demos/debug/_ext/1972722184/pkcs11_nvm.o
 .debug_line    0x00000000      0x317 build/aws_demos/debug/_ext/1972722184/pkcs11_nvm.o
 .debug_str     0x00000000       0xc4 build/aws_demos/debug/_ext/1972722184/pkcs11_nvm.o
 .comment       0x00000000       0x3d build/aws_demos/debug/_ext/1972722184/pkcs11_nvm.o
 .debug_frame   0x00000000      0x110 build/aws_demos/debug/_ext/1972722184/pkcs11_nvm.o
 .ARM.attributes
                0x00000000       0x39 build/aws_demos/debug/_ext/1972722184/pkcs11_nvm.o
 .data          0x00000000        0x0 build/aws_demos/debug/_ext/2009324866/iot_secure_sockets.o
 .data          0x00000000        0x0 build/aws_demos/debug/_ext/1456806047/atcacert_client.o
 .data          0x00000000        0x0 build/aws_demos/debug/_ext/1456806047/atcacert_date.o
 .bss           0x00000000        0x0 build/aws_demos/debug/_ext/1456806047/atcacert_date.o
 .data          0x00000000        0x0 build/aws_demos/debug/_ext/1456806047/atcacert_def.o
 .bss           0x00000000        0x0 build/aws_demos/debug/_ext/1456806047/atcacert_def.o
 .data          0x00000000        0x0 build/aws_demos/debug/_ext/1456806047/atcacert_der.o
 .bss           0x00000000        0x0 build/aws_demos/debug/_ext/1456806047/atcacert_der.o
 .text          0x00000000       0xae build/aws_demos/debug/_ext/1456806047/atcacert_host_hw.o
 .data          0x00000000        0x0 build/aws_demos/debug/_ext/1456806047/atcacert_host_hw.o
 .bss           0x00000000        0x0 build/aws_demos/debug/_ext/1456806047/atcacert_host_hw.o
 .debug_info    0x00000000     0x31f5 build/aws_demos/debug/_ext/1456806047/atcacert_host_hw.o
 .debug_abbrev  0x00000000      0x2b9 build/aws_demos/debug/_ext/1456806047/atcacert_host_hw.o
 .debug_loc     0x00000000      0x398 build/aws_demos/debug/_ext/1456806047/atcacert_host_hw.o
 .debug_aranges
                0x00000000       0x20 build/aws_demos/debug/_ext/1456806047/atcacert_host_hw.o
 .debug_line    0x00000000      0x515 build/aws_demos/debug/_ext/1456806047/atcacert_host_hw.o
 .debug_str     0x00000000       0x89 build/aws_demos/debug/_ext/1456806047/atcacert_host_hw.o
 .comment       0x00000000       0x3d build/aws_demos/debug/_ext/1456806047/atcacert_host_hw.o
 .debug_frame   0x00000000       0x78 build/aws_demos/debug/_ext/1456806047/atcacert_host_hw.o
 .ARM.attributes
                0x00000000       0x39 build/aws_demos/debug/_ext/1456806047/atcacert_host_hw.o
 .text          0x00000000       0x80 build/aws_demos/debug/_ext/1456806047/atcacert_host_sw.o
 .data          0x00000000        0x0 build/aws_demos/debug/_ext/1456806047/atcacert_host_sw.o
 .bss           0x00000000        0x0 build/aws_demos/debug/_ext/1456806047/atcacert_host_sw.o
 .debug_info    0x00000000     0x31c1 build/aws_demos/debug/_ext/1456806047/atcacert_host_sw.o
 .debug_abbrev  0x00000000      0x2aa build/aws_demos/debug/_ext/1456806047/atcacert_host_sw.o
 .debug_loc     0x00000000      0x331 build/aws_demos/debug/_ext/1456806047/atcacert_host_sw.o
 .debug_aranges
                0x00000000       0x20 build/aws_demos/debug/_ext/1456806047/atcacert_host_sw.o
 .debug_line    0x00000000      0x580 build/aws_demos/debug/_ext/1456806047/atcacert_host_sw.o
 .debug_str     0x00000000       0x87 build/aws_demos/debug/_ext/1456806047/atcacert_host_sw.o
 .comment       0x00000000       0x3d build/aws_demos/debug/_ext/1456806047/atcacert_host_sw.o
 .debug_frame   0x00000000       0x88 build/aws_demos/debug/_ext/1456806047/atcacert_host_sw.o
 .ARM.attributes
                0x00000000       0x39 build/aws_demos/debug/_ext/1456806047/atcacert_host_sw.o
 .data          0x00000000        0x0 build/aws_demos/debug/_ext/1456806047/atcacert_pem.o
 .bss           0x00000000        0x0 build/aws_demos/debug/_ext/1456806047/atcacert_pem.o
 .data          0x00000000        0x0 build/aws_demos/debug/_ext/1009855837/atca_command.o
 .bss           0x00000000        0x0 build/aws_demos/debug/_ext/1009855837/atca_command.o
 .data          0x00000000        0x0 build/aws_demos/debug/_ext/1009855837/atca_device.o
 .bss           0x00000000        0x0 build/aws_demos/debug/_ext/1009855837/atca_device.o
 .data          0x00000000        0x0 build/aws_demos/debug/_ext/1009855837/atca_execution.o
 .bss           0x00000000        0x0 build/aws_demos/debug/_ext/1009855837/atca_execution.o
 .data          0x00000000        0x0 build/aws_demos/debug/_ext/1009855837/atca_iface.o
 .bss           0x00000000        0x0 build/aws_demos/debug/_ext/1009855837/atca_iface.o
 .data          0x00000000        0x0 build/aws_demos/debug/_ext/306685378/atca_basic.o
 .text          0x00000000      0x110 build/aws_demos/debug/_ext/306685378/atca_basic_aes.o
 .data          0x00000000        0x0 build/aws_demos/debug/_ext/306685378/atca_basic_aes.o
 .bss           0x00000000        0x0 build/aws_demos/debug/_ext/306685378/atca_basic_aes.o
 .debug_info    0x00000000     0x2b1c build/aws_demos/debug/_ext/306685378/atca_basic_aes.o
 .debug_abbrev  0x00000000      0x299 build/aws_demos/debug/_ext/306685378/atca_basic_aes.o
 .debug_loc     0x00000000      0x47c build/aws_demos/debug/_ext/306685378/atca_basic_aes.o
 .debug_aranges
                0x00000000       0x20 build/aws_demos/debug/_ext/306685378/atca_basic_aes.o
 .debug_line    0x00000000      0x4c0 build/aws_demos/debug/_ext/306685378/atca_basic_aes.o
 .debug_str     0x00000000       0x5e build/aws_demos/debug/_ext/306685378/atca_basic_aes.o
 .comment       0x00000000       0x3d build/aws_demos/debug/_ext/306685378/atca_basic_aes.o
 .debug_frame   0x00000000       0x90 build/aws_demos/debug/_ext/306685378/atca_basic_aes.o
 .ARM.attributes
                0x00000000       0x39 build/aws_demos/debug/_ext/306685378/atca_basic_aes.o
 .text          0x00000000      0x122 build/aws_demos/debug/_ext/306685378/atca_basic_aes_cbc.o
 .data          0x00000000        0x0 build/aws_demos/debug/_ext/306685378/atca_basic_aes_cbc.o
 .bss           0x00000000        0x0 build/aws_demos/debug/_ext/306685378/atca_basic_aes_cbc.o
 .debug_info    0x00000000     0x2a03 build/aws_demos/debug/_ext/306685378/atca_basic_aes_cbc.o
 .debug_abbrev  0x00000000      0x289 build/aws_demos/debug/_ext/306685378/atca_basic_aes_cbc.o
 .debug_loc     0x00000000      0x400 build/aws_demos/debug/_ext/306685378/atca_basic_aes_cbc.o
 .debug_aranges
                0x00000000       0x20 build/aws_demos/debug/_ext/306685378/atca_basic_aes_cbc.o
 .debug_line    0x00000000      0x4bb build/aws_demos/debug/_ext/306685378/atca_basic_aes_cbc.o
 .debug_str     0x00000000       0x66 build/aws_demos/debug/_ext/306685378/atca_basic_aes_cbc.o
 .comment       0x00000000       0x3d build/aws_demos/debug/_ext/306685378/atca_basic_aes_cbc.o
 .debug_frame   0x00000000       0x90 build/aws_demos/debug/_ext/306685378/atca_basic_aes_cbc.o
 .ARM.attributes
                0x00000000       0x39 build/aws_demos/debug/_ext/306685378/atca_basic_aes_cbc.o
 .text          0x00000000      0x1e0 build/aws_demos/debug/_ext/306685378/atca_basic_aes_cmac.o
 .data          0x00000000        0x0 build/aws_demos/debug/_ext/306685378/atca_basic_aes_cmac.o
 .bss           0x00000000        0x0 build/aws_demos/debug/_ext/306685378/atca_basic_aes_cmac.o
 .rodata        0x00000000       0x10 build/aws_demos/debug/_ext/306685378/atca_basic_aes_cmac.o
 .debug_info    0x00000000     0x2d6a build/aws_demos/debug/_ext/306685378/atca_basic_aes_cmac.o
 .debug_abbrev  0x00000000      0x2bc build/aws_demos/debug/_ext/306685378/atca_basic_aes_cmac.o
 .debug_loc     0x00000000      0x5dd build/aws_demos/debug/_ext/306685378/atca_basic_aes_cmac.o
 .debug_aranges
                0x00000000       0x20 build/aws_demos/debug/_ext/306685378/atca_basic_aes_cmac.o
 .debug_line    0x00000000      0x4f6 build/aws_demos/debug/_ext/306685378/atca_basic_aes_cmac.o
 .debug_str     0x00000000       0x83 build/aws_demos/debug/_ext/306685378/atca_basic_aes_cmac.o
 .comment       0x00000000       0x3d build/aws_demos/debug/_ext/306685378/atca_basic_aes_cmac.o
 .debug_frame   0x00000000       0x9c build/aws_demos/debug/_ext/306685378/atca_basic_aes_cmac.o
 .ARM.attributes
                0x00000000       0x39 build/aws_demos/debug/_ext/306685378/atca_basic_aes_cmac.o
 .text          0x00000000      0x17a build/aws_demos/debug/_ext/306685378/atca_basic_aes_ctr.o
 .data          0x00000000        0x0 build/aws_demos/debug/_ext/306685378/atca_basic_aes_ctr.o
 .bss           0x00000000        0x0 build/aws_demos/debug/_ext/306685378/atca_basic_aes_ctr.o
 .debug_info    0x00000000     0x2c27 build/aws_demos/debug/_ext/306685378/atca_basic_aes_ctr.o
 .debug_abbrev  0x00000000      0x2ad build/aws_demos/debug/_ext/306685378/atca_basic_aes_ctr.o
 .debug_loc     0x00000000      0x6a8 build/aws_demos/debug/_ext/306685378/atca_basic_aes_ctr.o
 .debug_aranges
                0x00000000       0x20 build/aws_demos/debug/_ext/306685378/atca_basic_aes_ctr.o
 .debug_line    0x00000000      0x4ee build/aws_demos/debug/_ext/306685378/atca_basic_aes_ctr.o
 .debug_str     0x00000000       0x75 build/aws_demos/debug/_ext/306685378/atca_basic_aes_ctr.o
 .comment       0x00000000       0x3d build/aws_demos/debug/_ext/306685378/atca_basic_aes_ctr.o
 .debug_frame   0x00000000      0x104 build/aws_demos/debug/_ext/306685378/atca_basic_aes_ctr.o
 .ARM.attributes
                0x00000000       0x39 build/aws_demos/debug/_ext/306685378/atca_basic_aes_ctr.o
 .text          0x00000000      0x5cc build/aws_demos/debug/_ext/306685378/atca_basic_aes_gcm.o
 .data          0x00000000        0x4 build/aws_demos/debug/_ext/306685378/atca_basic_aes_gcm.o
 .bss           0x00000000        0x0 build/aws_demos/debug/_ext/306685378/atca_basic_aes_gcm.o
 .rodata        0x00000000        0x4 build/aws_demos/debug/_ext/306685378/atca_basic_aes_gcm.o
 .debug_info    0x00000000     0x35a0 build/aws_demos/debug/_ext/306685378/atca_basic_aes_gcm.o
 .debug_abbrev  0x00000000      0x35e build/aws_demos/debug/_ext/306685378/atca_basic_aes_gcm.o
 .debug_loc     0x00000000     0x10f7 build/aws_demos/debug/_ext/306685378/atca_basic_aes_gcm.o
 .debug_aranges
                0x00000000       0x20 build/aws_demos/debug/_ext/306685378/atca_basic_aes_gcm.o
 .debug_line    0x00000000      0x5e3 build/aws_demos/debug/_ext/306685378/atca_basic_aes_gcm.o
 .debug_str     0x00000000       0xa3 build/aws_demos/debug/_ext/306685378/atca_basic_aes_gcm.o
 .comment       0x00000000       0x3d build/aws_demos/debug/_ext/306685378/atca_basic_aes_gcm.o
 .debug_frame   0x00000000      0x200 build/aws_demos/debug/_ext/306685378/atca_basic_aes_gcm.o
 .ARM.attributes
                0x00000000       0x39 build/aws_demos/debug/_ext/306685378/atca_basic_aes_gcm.o
 .data          0x00000000        0x0 build/aws_demos/debug/_ext/306685378/atca_basic_checkmac.o
 .bss           0x00000000        0x0 build/aws_demos/debug/_ext/306685378/atca_basic_checkmac.o
 .text          0x00000000       0x90 build/aws_demos/debug/_ext/306685378/atca_basic_counter.o
 .data          0x00000000        0x0 build/aws_demos/debug/_ext/306685378/atca_basic_counter.o
 .bss           0x00000000        0x0 build/aws_demos/debug/_ext/306685378/atca_basic_counter.o
 .debug_info    0x00000000     0x29fa build/aws_demos/debug/_ext/306685378/atca_basic_counter.o
 .debug_abbrev  0x00000000      0x287 build/aws_demos/debug/_ext/306685378/atca_basic_counter.o
 .debug_loc     0x00000000      0x1f1 build/aws_demos/debug/_ext/306685378/atca_basic_counter.o
 .debug_aranges
                0x00000000       0x20 build/aws_demos/debug/_ext/306685378/atca_basic_counter.o
 .debug_line    0x00000000      0x4b9 build/aws_demos/debug/_ext/306685378/atca_basic_counter.o
 .debug_str     0x00000000       0x5b build/aws_demos/debug/_ext/306685378/atca_basic_counter.o
 .comment       0x00000000       0x3d build/aws_demos/debug/_ext/306685378/atca_basic_counter.o
 .debug_frame   0x00000000       0x64 build/aws_demos/debug/_ext/306685378/atca_basic_counter.o
 .ARM.attributes
                0x00000000       0x39 build/aws_demos/debug/_ext/306685378/atca_basic_counter.o
 .text          0x00000000       0x70 build/aws_demos/debug/_ext/306685378/atca_basic_derivekey.o
 .data          0x00000000        0x0 build/aws_demos/debug/_ext/306685378/atca_basic_derivekey.o
 .bss           0x00000000        0x0 build/aws_demos/debug/_ext/306685378/atca_basic_derivekey.o
 .debug_info    0x00000000     0x2957 build/aws_demos/debug/_ext/306685378/atca_basic_derivekey.o
 .debug_abbrev  0x00000000      0x278 build/aws_demos/debug/_ext/306685378/atca_basic_derivekey.o
 .debug_loc     0x00000000      0x10f build/aws_demos/debug/_ext/306685378/atca_basic_derivekey.o
 .debug_aranges
                0x00000000       0x20 build/aws_demos/debug/_ext/306685378/atca_basic_derivekey.o
 .debug_line    0x00000000      0x49f build/aws_demos/debug/_ext/306685378/atca_basic_derivekey.o
 .debug_str     0x00000000       0x44 build/aws_demos/debug/_ext/306685378/atca_basic_derivekey.o
 .comment       0x00000000       0x3d build/aws_demos/debug/_ext/306685378/atca_basic_derivekey.o
 .debug_frame   0x00000000       0x34 build/aws_demos/debug/_ext/306685378/atca_basic_derivekey.o
 .ARM.attributes
                0x00000000       0x39 build/aws_demos/debug/_ext/306685378/atca_basic_derivekey.o
 .data          0x00000000        0x0 build/aws_demos/debug/_ext/306685378/atca_basic_ecdh.o
 .bss           0x00000000        0x0 build/aws_demos/debug/_ext/306685378/atca_basic_ecdh.o
 .data          0x00000000        0x0 build/aws_demos/debug/_ext/306685378/atca_basic_gendig.o
 .bss           0x00000000        0x0 build/aws_demos/debug/_ext/306685378/atca_basic_gendig.o
 .data          0x00000000        0x0 build/aws_demos/debug/_ext/306685378/atca_basic_genkey.o
 .bss           0x00000000        0x0 build/aws_demos/debug/_ext/306685378/atca_basic_genkey.o
 .text          0x00000000       0x74 build/aws_demos/debug/_ext/306685378/atca_basic_hmac.o
 .data          0x00000000        0x0 build/aws_demos/debug/_ext/306685378/atca_basic_hmac.o
 .bss           0x00000000        0x0 build/aws_demos/debug/_ext/306685378/atca_basic_hmac.o
 .debug_info    0x00000000     0x2931 build/aws_demos/debug/_ext/306685378/atca_basic_hmac.o
 .debug_abbrev  0x00000000      0x28a build/aws_demos/debug/_ext/306685378/atca_basic_hmac.o
 .debug_loc     0x00000000      0x168 build/aws_demos/debug/_ext/306685378/atca_basic_hmac.o
 .debug_aranges
                0x00000000       0x20 build/aws_demos/debug/_ext/306685378/atca_basic_hmac.o
 .debug_line    0x00000000      0x4a8 build/aws_demos/debug/_ext/306685378/atca_basic_hmac.o
 .debug_str     0x00000000       0x38 build/aws_demos/debug/_ext/306685378/atca_basic_hmac.o
 .comment       0x00000000       0x3d build/aws_demos/debug/_ext/306685378/atca_basic_hmac.o
 .debug_frame   0x00000000       0x3c build/aws_demos/debug/_ext/306685378/atca_basic_hmac.o
 .ARM.attributes
                0x00000000       0x39 build/aws_demos/debug/_ext/306685378/atca_basic_hmac.o
 .data          0x00000000        0x0 build/aws_demos/debug/_ext/306685378/atca_basic_info.o
 .bss           0x00000000        0x0 build/aws_demos/debug/_ext/306685378/atca_basic_info.o
 .text          0x00000000       0xfc build/aws_demos/debug/_ext/306685378/atca_basic_kdf.o
 .data          0x00000000        0x0 build/aws_demos/debug/_ext/306685378/atca_basic_kdf.o
 .bss           0x00000000        0x0 build/aws_demos/debug/_ext/306685378/atca_basic_kdf.o
 .debug_info    0x00000000     0x29f0 build/aws_demos/debug/_ext/306685378/atca_basic_kdf.o
 .debug_abbrev  0x00000000      0x298 build/aws_demos/debug/_ext/306685378/atca_basic_kdf.o
 .debug_loc     0x00000000      0x2b0 build/aws_demos/debug/_ext/306685378/atca_basic_kdf.o
 .debug_aranges
                0x00000000       0x20 build/aws_demos/debug/_ext/306685378/atca_basic_kdf.o
 .debug_line    0x00000000      0x4bb build/aws_demos/debug/_ext/306685378/atca_basic_kdf.o
 .debug_str     0x00000000       0x38 build/aws_demos/debug/_ext/306685378/atca_basic_kdf.o
 .comment       0x00000000       0x3d build/aws_demos/debug/_ext/306685378/atca_basic_kdf.o
 .debug_frame   0x00000000       0x38 build/aws_demos/debug/_ext/306685378/atca_basic_kdf.o
 .ARM.attributes
                0x00000000       0x39 build/aws_demos/debug/_ext/306685378/atca_basic_kdf.o
 .data          0x00000000        0x0 build/aws_demos/debug/_ext/306685378/atca_basic_lock.o
 .bss           0x00000000        0x0 build/aws_demos/debug/_ext/306685378/atca_basic_lock.o
 .text          0x00000000       0xa8 build/aws_demos/debug/_ext/306685378/atca_basic_mac.o
 .data          0x00000000        0x0 build/aws_demos/debug/_ext/306685378/atca_basic_mac.o
 .bss           0x00000000        0x0 build/aws_demos/debug/_ext/306685378/atca_basic_mac.o
 .debug_info    0x00000000     0x294d build/aws_demos/debug/_ext/306685378/atca_basic_mac.o
 .debug_abbrev  0x00000000      0x28a build/aws_demos/debug/_ext/306685378/atca_basic_mac.o
 .debug_loc     0x00000000      0x1d5 build/aws_demos/debug/_ext/306685378/atca_basic_mac.o
 .debug_aranges
                0x00000000       0x20 build/aws_demos/debug/_ext/306685378/atca_basic_mac.o
 .debug_line    0x00000000      0x4ab build/aws_demos/debug/_ext/306685378/atca_basic_mac.o
 .debug_str     0x00000000       0x38 build/aws_demos/debug/_ext/306685378/atca_basic_mac.o
 .comment       0x00000000       0x3d build/aws_demos/debug/_ext/306685378/atca_basic_mac.o
 .debug_frame   0x00000000       0x48 build/aws_demos/debug/_ext/306685378/atca_basic_mac.o
 .ARM.attributes
                0x00000000       0x39 build/aws_demos/debug/_ext/306685378/atca_basic_mac.o
 .data          0x00000000        0x0 build/aws_demos/debug/_ext/306685378/atca_basic_nonce.o
 .bss           0x00000000        0x0 build/aws_demos/debug/_ext/306685378/atca_basic_nonce.o
 .data          0x00000000        0x0 build/aws_demos/debug/_ext/306685378/atca_basic_privwrite.o
 .bss           0x00000000        0x0 build/aws_demos/debug/_ext/306685378/atca_basic_privwrite.o
 .data          0x00000000        0x0 build/aws_demos/debug/_ext/306685378/atca_basic_random.o
 .bss           0x00000000        0x0 build/aws_demos/debug/_ext/306685378/atca_basic_random.o
 .data          0x00000000        0x0 build/aws_demos/debug/_ext/306685378/atca_basic_read.o
 .bss           0x00000000        0x0 build/aws_demos/debug/_ext/306685378/atca_basic_read.o
 .text          0x00000000      0x1d4 build/aws_demos/debug/_ext/306685378/atca_basic_secureboot.o
 .data          0x00000000        0x0 build/aws_demos/debug/_ext/306685378/atca_basic_secureboot.o
 .bss           0x00000000        0x0 build/aws_demos/debug/_ext/306685378/atca_basic_secureboot.o
 .debug_info    0x00000000     0x2f1d build/aws_demos/debug/_ext/306685378/atca_basic_secureboot.o
 .debug_abbrev  0x00000000      0x2c8 build/aws_demos/debug/_ext/306685378/atca_basic_secureboot.o
 .debug_loc     0x00000000      0x3ee build/aws_demos/debug/_ext/306685378/atca_basic_secureboot.o
 .debug_aranges
                0x00000000       0x20 build/aws_demos/debug/_ext/306685378/atca_basic_secureboot.o
 .debug_line    0x00000000      0x54a build/aws_demos/debug/_ext/306685378/atca_basic_secureboot.o
 .debug_str     0x00000000       0xe2 build/aws_demos/debug/_ext/306685378/atca_basic_secureboot.o
 .comment       0x00000000       0x3d build/aws_demos/debug/_ext/306685378/atca_basic_secureboot.o
 .debug_frame   0x00000000       0x6c build/aws_demos/debug/_ext/306685378/atca_basic_secureboot.o
 .ARM.attributes
                0x00000000       0x39 build/aws_demos/debug/_ext/306685378/atca_basic_secureboot.o
 .text          0x00000000       0x50 build/aws_demos/debug/_ext/306685378/atca_basic_selftest.o
 .data          0x00000000        0x0 build/aws_demos/debug/_ext/306685378/atca_basic_selftest.o
 .bss           0x00000000        0x0 build/aws_demos/debug/_ext/306685378/atca_basic_selftest.o
 .debug_info    0x00000000     0x2947 build/aws_demos/debug/_ext/306685378/atca_basic_selftest.o
 .debug_abbrev  0x00000000      0x278 build/aws_demos/debug/_ext/306685378/atca_basic_selftest.o
 .debug_loc     0x00000000      0x127 build/aws_demos/debug/_ext/306685378/atca_basic_selftest.o
 .debug_aranges
                0x00000000       0x20 build/aws_demos/debug/_ext/306685378/atca_basic_selftest.o
 .debug_line    0x00000000      0x4a4 build/aws_demos/debug/_ext/306685378/atca_basic_selftest.o
 .debug_str     0x00000000       0x43 build/aws_demos/debug/_ext/306685378/atca_basic_selftest.o
 .comment       0x00000000       0x3d build/aws_demos/debug/_ext/306685378/atca_basic_selftest.o
 .debug_frame   0x00000000       0x38 build/aws_demos/debug/_ext/306685378/atca_basic_selftest.o
 .ARM.attributes
                0x00000000       0x39 build/aws_demos/debug/_ext/306685378/atca_basic_selftest.o
 .text          0x00000000      0x414 build/aws_demos/debug/_ext/306685378/atca_basic_sha.o
 .data          0x00000000        0x0 build/aws_demos/debug/_ext/306685378/atca_basic_sha.o
 .bss           0x00000000        0x0 build/aws_demos/debug/_ext/306685378/atca_basic_sha.o
 .debug_info    0x00000000     0x341d build/aws_demos/debug/_ext/306685378/atca_basic_sha.o
 .debug_abbrev  0x00000000      0x346 build/aws_demos/debug/_ext/306685378/atca_basic_sha.o
 .debug_loc     0x00000000      0xd2d build/aws_demos/debug/_ext/306685378/atca_basic_sha.o
 .debug_aranges
                0x00000000       0x20 build/aws_demos/debug/_ext/306685378/atca_basic_sha.o
 .debug_line    0x00000000      0x563 build/aws_demos/debug/_ext/306685378/atca_basic_sha.o
 .debug_str     0x00000000       0xa0 build/aws_demos/debug/_ext/306685378/atca_basic_sha.o
 .comment       0x00000000       0x3d build/aws_demos/debug/_ext/306685378/atca_basic_sha.o
 .debug_frame   0x00000000      0x210 build/aws_demos/debug/_ext/306685378/atca_basic_sha.o
 .ARM.attributes
                0x00000000       0x39 build/aws_demos/debug/_ext/306685378/atca_basic_sha.o
 .data          0x00000000        0x0 build/aws_demos/debug/_ext/306685378/atca_basic_sign.o
 .bss           0x00000000        0x0 build/aws_demos/debug/_ext/306685378/atca_basic_sign.o
 .data          0x00000000        0x0 build/aws_demos/debug/_ext/306685378/atca_basic_updateextra.o
 .bss           0x00000000        0x0 build/aws_demos/debug/_ext/306685378/atca_basic_updateextra.o
 .data          0x00000000        0x0 build/aws_demos/debug/_ext/306685378/atca_basic_verify.o
 .bss           0x00000000        0x0 build/aws_demos/debug/_ext/306685378/atca_basic_verify.o
 .data          0x00000000        0x0 build/aws_demos/debug/_ext/306685378/atca_basic_write.o
 .bss           0x00000000        0x0 build/aws_demos/debug/_ext/306685378/atca_basic_write.o
 .bss           0x00000000        0x0 build/aws_demos/debug/_ext/306685378/atca_helpers.o
 .text          0x00000000        0x4 build/aws_demos/debug/_ext/961827245/atca_crypto_sw_ecdsa.o
 .data          0x00000000        0x0 build/aws_demos/debug/_ext/961827245/atca_crypto_sw_ecdsa.o
 .bss           0x00000000        0x0 build/aws_demos/debug/_ext/961827245/atca_crypto_sw_ecdsa.o
 .debug_info    0x00000000      0x659 build/aws_demos/debug/_ext/961827245/atca_crypto_sw_ecdsa.o
 .debug_abbrev  0x00000000       0x8e build/aws_demos/debug/_ext/961827245/atca_crypto_sw_ecdsa.o
 .debug_loc     0x00000000       0x21 build/aws_demos/debug/_ext/961827245/atca_crypto_sw_ecdsa.o
 .debug_aranges
                0x00000000       0x20 build/aws_demos/debug/_ext/961827245/atca_crypto_sw_ecdsa.o
 .debug_line    0x00000000      0x16c build/aws_demos/debug/_ext/961827245/atca_crypto_sw_ecdsa.o
 .debug_str     0x00000000        0x0 build/aws_demos/debug/_ext/961827245/atca_crypto_sw_ecdsa.o
 .comment       0x00000000       0x3d build/aws_demos/debug/_ext/961827245/atca_crypto_sw_ecdsa.o
 .debug_frame   0x00000000       0x20 build/aws_demos/debug/_ext/961827245/atca_crypto_sw_ecdsa.o
 .ARM.attributes
                0x00000000       0x39 build/aws_demos/debug/_ext/961827245/atca_crypto_sw_ecdsa.o
 .text          0x00000000        0x4 build/aws_demos/debug/_ext/961827245/atca_crypto_sw_rand.o
 .data          0x00000000        0x0 build/aws_demos/debug/_ext/961827245/atca_crypto_sw_rand.o
 .bss           0x00000000        0x0 build/aws_demos/debug/_ext/961827245/atca_crypto_sw_rand.o
 .debug_info    0x00000000      0x643 build/aws_demos/debug/_ext/961827245/atca_crypto_sw_rand.o
 .debug_abbrev  0x00000000       0x87 build/aws_demos/debug/_ext/961827245/atca_crypto_sw_rand.o
 .debug_loc     0x00000000       0x21 build/aws_demos/debug/_ext/961827245/atca_crypto_sw_rand.o
 .debug_aranges
                0x00000000       0x20 build/aws_demos/debug/_ext/961827245/atca_crypto_sw_rand.o
 .debug_line    0x00000000      0x1ba build/aws_demos/debug/_ext/961827245/atca_crypto_sw_rand.o
 .debug_str     0x00000000        0x0 build/aws_demos/debug/_ext/961827245/atca_crypto_sw_rand.o
 .comment       0x00000000       0x3d build/aws_demos/debug/_ext/961827245/atca_crypto_sw_rand.o
 .debug_frame   0x00000000       0x20 build/aws_demos/debug/_ext/961827245/atca_crypto_sw_rand.o
 .ARM.attributes
                0x00000000       0x39 build/aws_demos/debug/_ext/961827245/atca_crypto_sw_rand.o
 .data          0x00000000        0x0 build/aws_demos/debug/_ext/961827245/atca_crypto_sw_sha1.o
 .bss           0x00000000        0x0 build/aws_demos/debug/_ext/961827245/atca_crypto_sw_sha1.o
 .data          0x00000000        0x0 build/aws_demos/debug/_ext/961827245/atca_crypto_sw_sha2.o
 .bss           0x00000000        0x0 build/aws_demos/debug/_ext/961827245/atca_crypto_sw_sha2.o
 .data          0x00000000        0x0 build/aws_demos/debug/_ext/1070826718/sha1_routines.o
 .bss           0x00000000        0x0 build/aws_demos/debug/_ext/1070826718/sha1_routines.o
 .data          0x00000000        0x0 build/aws_demos/debug/_ext/1070826718/sha2_routines.o
 .bss           0x00000000        0x0 build/aws_demos/debug/_ext/1070826718/sha2_routines.o
 .data          0x00000000        0x0 build/aws_demos/debug/_ext/544104044/atca_host.o
 .bss           0x00000000        0x0 build/aws_demos/debug/_ext/544104044/atca_host.o
 .text          0x00000000      0x36c build/aws_demos/debug/_ext/987380901/atca_jwt.o
 .data          0x00000000        0x0 build/aws_demos/debug/_ext/987380901/atca_jwt.o
 .bss           0x00000000        0x0 build/aws_demos/debug/_ext/987380901/atca_jwt.o
 .rodata        0x00000000       0x34 build/aws_demos/debug/_ext/987380901/atca_jwt.o
 .debug_info    0x00000000     0x2e98 build/aws_demos/debug/_ext/987380901/atca_jwt.o
 .debug_abbrev  0x00000000      0x34b build/aws_demos/debug/_ext/987380901/atca_jwt.o
 .debug_loc     0x00000000      0x8db build/aws_demos/debug/_ext/987380901/atca_jwt.o
 .debug_aranges
                0x00000000       0x20 build/aws_demos/debug/_ext/987380901/atca_jwt.o
 .debug_line    0x00000000      0x5f1 build/aws_demos/debug/_ext/987380901/atca_jwt.o
 .debug_str     0x00000000       0xa9 build/aws_demos/debug/_ext/987380901/atca_jwt.o
 .comment       0x00000000       0x3d build/aws_demos/debug/_ext/987380901/atca_jwt.o
 .debug_frame   0x00000000      0x11c build/aws_demos/debug/_ext/987380901/atca_jwt.o
 .ARM.attributes
                0x00000000       0x39 build/aws_demos/debug/_ext/987380901/atca_jwt.o
 .text          0x00000000        0x0 build/aws_demos/debug/_ext/439918565/atca_mbedtls_ecdh.o
 .data          0x00000000        0x0 build/aws_demos/debug/_ext/439918565/atca_mbedtls_ecdh.o
 .bss           0x00000000        0x0 build/aws_demos/debug/_ext/439918565/atca_mbedtls_ecdh.o
 .debug_info    0x00000000     0x27b3 build/aws_demos/debug/_ext/439918565/atca_mbedtls_ecdh.o
 .debug_abbrev  0x00000000      0x1f5 build/aws_demos/debug/_ext/439918565/atca_mbedtls_ecdh.o
 .debug_aranges
                0x00000000       0x18 build/aws_demos/debug/_ext/439918565/atca_mbedtls_ecdh.o
 .debug_line    0x00000000      0x455 build/aws_demos/debug/_ext/439918565/atca_mbedtls_ecdh.o
 .debug_str     0x00000000       0x23 build/aws_demos/debug/_ext/439918565/atca_mbedtls_ecdh.o
 .comment       0x00000000       0x3d build/aws_demos/debug/_ext/439918565/atca_mbedtls_ecdh.o
 .ARM.attributes
                0x00000000       0x39 build/aws_demos/debug/_ext/439918565/atca_mbedtls_ecdh.o
 .text          0x00000000        0x0 build/aws_demos/debug/_ext/439918565/atca_mbedtls_ecdsa.o
 .data          0x00000000        0x0 build/aws_demos/debug/_ext/439918565/atca_mbedtls_ecdsa.o
 .bss           0x00000000        0x0 build/aws_demos/debug/_ext/439918565/atca_mbedtls_ecdsa.o
 .debug_info    0x00000000     0x27b4 build/aws_demos/debug/_ext/439918565/atca_mbedtls_ecdsa.o
 .debug_abbrev  0x00000000      0x1f5 build/aws_demos/debug/_ext/439918565/atca_mbedtls_ecdsa.o
 .debug_aranges
                0x00000000       0x18 build/aws_demos/debug/_ext/439918565/atca_mbedtls_ecdsa.o
 .debug_line    0x00000000      0x455 build/aws_demos/debug/_ext/439918565/atca_mbedtls_ecdsa.o
 .debug_str     0x00000000       0x23 build/aws_demos/debug/_ext/439918565/atca_mbedtls_ecdsa.o
 .comment       0x00000000       0x3d build/aws_demos/debug/_ext/439918565/atca_mbedtls_ecdsa.o
 .ARM.attributes
                0x00000000       0x39 build/aws_demos/debug/_ext/439918565/atca_mbedtls_ecdsa.o
 .text          0x00000000      0x110 build/aws_demos/debug/_ext/439918565/atca_mbedtls_wrap.o
 .data          0x00000000        0x0 build/aws_demos/debug/_ext/439918565/atca_mbedtls_wrap.o
 .bss           0x00000000        0x0 build/aws_demos/debug/_ext/439918565/atca_mbedtls_wrap.o
 .debug_info    0x00000000     0x3ece build/aws_demos/debug/_ext/439918565/atca_mbedtls_wrap.o
 .debug_abbrev  0x00000000      0x2e9 build/aws_demos/debug/_ext/439918565/atca_mbedtls_wrap.o
 .debug_loc     0x00000000      0x370 build/aws_demos/debug/_ext/439918565/atca_mbedtls_wrap.o
 .debug_aranges
                0x00000000       0x20 build/aws_demos/debug/_ext/439918565/atca_mbedtls_wrap.o
 .debug_ranges  0x00000000       0x18 build/aws_demos/debug/_ext/439918565/atca_mbedtls_wrap.o
 .debug_line    0x00000000      0x6b9 build/aws_demos/debug/_ext/439918565/atca_mbedtls_wrap.o
 .debug_str     0x00000000      0x1eb build/aws_demos/debug/_ext/439918565/atca_mbedtls_wrap.o
 .comment       0x00000000       0x3d build/aws_demos/debug/_ext/439918565/atca_mbedtls_wrap.o
 .debug_frame   0x00000000       0x5c build/aws_demos/debug/_ext/439918565/atca_mbedtls_wrap.o
 .ARM.attributes
                0x00000000       0x39 build/aws_demos/debug/_ext/439918565/atca_mbedtls_wrap.o
 .data          0x00000000        0x0 build/aws_demos/debug/_ext/1326886903/pkcs11_attrib.o
 .bss           0x00000000        0x0 build/aws_demos/debug/_ext/1326886903/pkcs11_attrib.o
 .data          0x00000000        0x0 build/aws_demos/debug/_ext/1326886903/pkcs11_cert.o
 .bss           0x00000000        0x0 build/aws_demos/debug/_ext/1326886903/pkcs11_cert.o
 .data          0x00000000        0x0 build/aws_demos/debug/_ext/1326886903/pkcs11_config.o
 .bss           0x00000000        0x0 build/aws_demos/debug/_ext/1326886903/pkcs11_config.o
 .text          0x00000000        0x0 build/aws_demos/debug/_ext/1326886903/pkcs11_debug.o
 .data          0x00000000        0x0 build/aws_demos/debug/_ext/1326886903/pkcs11_debug.o
 .bss           0x00000000        0x0 build/aws_demos/debug/_ext/1326886903/pkcs11_debug.o
 .debug_info    0x00000000      0x28d build/aws_demos/debug/_ext/1326886903/pkcs11_debug.o
 .debug_abbrev  0x00000000       0x1b build/aws_demos/debug/_ext/1326886903/pkcs11_debug.o
 .debug_aranges
                0x00000000       0x18 build/aws_demos/debug/_ext/1326886903/pkcs11_debug.o
 .debug_line    0x00000000       0x1d build/aws_demos/debug/_ext/1326886903/pkcs11_debug.o
 .debug_str     0x00000000        0x0 build/aws_demos/debug/_ext/1326886903/pkcs11_debug.o
 .comment       0x00000000       0x3d build/aws_demos/debug/_ext/1326886903/pkcs11_debug.o
 .ARM.attributes
                0x00000000       0x39 build/aws_demos/debug/_ext/1326886903/pkcs11_debug.o
 .data          0x00000000        0x0 build/aws_demos/debug/_ext/1326886903/pkcs11_digest.o
 .data          0x00000000        0x0 build/aws_demos/debug/_ext/1326886903/pkcs11_find.o
 .data          0x00000000        0x0 build/aws_demos/debug/_ext/1326886903/pkcs11_info.o
 .bss           0x00000000        0x0 build/aws_demos/debug/_ext/1326886903/pkcs11_info.o
 .data          0x00000000        0x0 build/aws_demos/debug/_ext/1326886903/pkcs11_init.o
 .data          0x00000000        0x0 build/aws_demos/debug/_ext/1326886903/pkcs11_key.o
 .bss           0x00000000        0x0 build/aws_demos/debug/_ext/1326886903/pkcs11_key.o
 .data          0x00000000        0x0 build/aws_demos/debug/_ext/1326886903/pkcs11_main.o
 .bss           0x00000000        0x0 build/aws_demos/debug/_ext/1326886903/pkcs11_main.o
 .bss           0x00000000        0x0 build/aws_demos/debug/_ext/1326886903/pkcs11_mech.o
 .rodata        0x00000000       0x2c build/aws_demos/debug/_ext/1326886903/pkcs11_object.o
 .data          0x00000000        0x0 build/aws_demos/debug/_ext/1326886903/pkcs11_os.o
 .bss           0x00000000        0x0 build/aws_demos/debug/_ext/1326886903/pkcs11_os.o
 .data          0x00000000        0x0 build/aws_demos/debug/_ext/1326886903/pkcs11_session.o
 .data          0x00000000        0x0 build/aws_demos/debug/_ext/1326886903/pkcs11_signature.o
 .bss           0x00000000        0x0 build/aws_demos/debug/_ext/1326886903/pkcs11_signature.o
 .data          0x00000000        0x0 build/aws_demos/debug/_ext/1326886903/pkcs11_slot.o
 .data          0x00000000        0x0 build/aws_demos/debug/_ext/1326886903/pkcs11_token.o
 .bss           0x00000000        0x0 build/aws_demos/debug/_ext/1326886903/pkcs11_token.o
 .data          0x00000000        0x0 build/aws_demos/debug/_ext/1326886903/pkcs11_util.o
 .bss           0x00000000        0x0 build/aws_demos/debug/_ext/1326886903/pkcs11_util.o
 .data          0x00000000        0x0 build/aws_demos/debug/_ext/1110296786/plib_tc3.o
 .bss           0x00000000        0x0 build/aws_demos/debug/_ext/1110296786/plib_tc3.o
 .data          0x00000000        0x0 build/aws_demos/debug/_ext/1843304010/plib_trng.o
 .bss           0x00000000        0x0 build/aws_demos/debug/_ext/1843304010/plib_trng.o
 .data          0x00000000        0x0 build/aws_demos/debug/_ext/1534684544/sys_console_uart.o
 .data          0x00000000        0x0 build/aws_demos/debug/_ext/2104392270/drv_spi.o
 .text          0x00000000        0x0 build/aws_demos/debug/_ext/2146650376/ATECC608A_0.o
 .bss           0x00000000        0x0 build/aws_demos/debug/_ext/2146650376/ATECC608A_0.o
 .data          0x00000000        0x0 build/aws_demos/debug/_ext/1762024984/sys_int.o
 .bss           0x00000000        0x0 build/aws_demos/debug/_ext/1762024984/sys_int.o
 .data          0x00000000        0x0 build/aws_demos/debug/_ext/959252812/sys_dma.o
 .bss           0x00000000        0x0 build/aws_demos/debug/_ext/959252812/sys_dma.o
 .data          0x00000000        0x0 build/aws_demos/debug/_ext/1149029443/osal_freertos.o
 .bss           0x00000000        0x0 build/aws_demos/debug/_ext/1149029443/osal_freertos.o
 .data          0x00000000        0x0 build/aws_demos/debug/_ext/1360937237/app.o
 .bss           0x00000000        0x0 build/aws_demos/debug/_ext/1360937237/app.o
 .data          0x00000000        0x0 build/aws_demos/debug/_ext/1534096987/tasks.o
 .bss           0x00000000        0x0 build/aws_demos/debug/_ext/1534096987/tasks.o
 .data          0x00000000        0x0 build/aws_demos/debug/_ext/731420310/plib_sercom2_usart.o
 .bss           0x00000000        0x0 build/aws_demos/debug/_ext/731420310/plib_sercom2_usart.o
 .data          0x00000000        0x0 build/aws_demos/debug/_ext/1321577635/plib_evsys.o
 .bss           0x00000000        0x0 build/aws_demos/debug/_ext/1321577635/plib_evsys.o
 .data          0x00000000        0x0 build/aws_demos/debug/_ext/1833802790/wdrv_winc.o
 .text          0x00000000      0x126 build/aws_demos/debug/_ext/1833802790/wdrv_winc_assoc.o
 .data          0x00000000        0x0 build/aws_demos/debug/_ext/1833802790/wdrv_winc_assoc.o
 .bss           0x00000000        0x0 build/aws_demos/debug/_ext/1833802790/wdrv_winc_assoc.o
 .debug_info    0x00000000     0x2d8b build/aws_demos/debug/_ext/1833802790/wdrv_winc_assoc.o
 .debug_abbrev  0x00000000      0x2bb build/aws_demos/debug/_ext/1833802790/wdrv_winc_assoc.o
 .debug_loc     0x00000000      0x6bd build/aws_demos/debug/_ext/1833802790/wdrv_winc_assoc.o
 .debug_aranges
                0x00000000       0x20 build/aws_demos/debug/_ext/1833802790/wdrv_winc_assoc.o
 .debug_line    0x00000000      0x533 build/aws_demos/debug/_ext/1833802790/wdrv_winc_assoc.o
 .debug_str     0x00000000       0x9f build/aws_demos/debug/_ext/1833802790/wdrv_winc_assoc.o
 .comment       0x00000000       0x3d build/aws_demos/debug/_ext/1833802790/wdrv_winc_assoc.o
 .debug_frame   0x00000000       0xa0 build/aws_demos/debug/_ext/1833802790/wdrv_winc_assoc.o
 .ARM.attributes
                0x00000000       0x39 build/aws_demos/debug/_ext/1833802790/wdrv_winc_assoc.o
 .data          0x00000000        0x0 build/aws_demos/debug/_ext/1833802790/wdrv_winc_authctx.o
 .bss           0x00000000        0x0 build/aws_demos/debug/_ext/1833802790/wdrv_winc_authctx.o
 .data          0x00000000        0x0 build/aws_demos/debug/_ext/1833802790/wdrv_winc_bssctx.o
 .bss           0x00000000        0x0 build/aws_demos/debug/_ext/1833802790/wdrv_winc_bssctx.o
 .text          0x00000000      0x23a build/aws_demos/debug/_ext/1833802790/wdrv_winc_bssfind.o
 .data          0x00000000        0x0 build/aws_demos/debug/_ext/1833802790/wdrv_winc_bssfind.o
 .bss           0x00000000        0x0 build/aws_demos/debug/_ext/1833802790/wdrv_winc_bssfind.o
 .debug_info    0x00000000     0x340d build/aws_demos/debug/_ext/1833802790/wdrv_winc_bssfind.o
 .debug_abbrev  0x00000000      0x331 build/aws_demos/debug/_ext/1833802790/wdrv_winc_bssfind.o
 .debug_loc     0x00000000      0x9fe build/aws_demos/debug/_ext/1833802790/wdrv_winc_bssfind.o
 .debug_aranges
                0x00000000       0x20 build/aws_demos/debug/_ext/1833802790/wdrv_winc_bssfind.o
 .debug_line    0x00000000      0x59f build/aws_demos/debug/_ext/1833802790/wdrv_winc_bssfind.o
 .debug_str     0x00000000       0xf6 build/aws_demos/debug/_ext/1833802790/wdrv_winc_bssfind.o
 .comment       0x00000000       0x3d build/aws_demos/debug/_ext/1833802790/wdrv_winc_bssfind.o
 .debug_frame   0x00000000      0x14c build/aws_demos/debug/_ext/1833802790/wdrv_winc_bssfind.o
 .ARM.attributes
                0x00000000       0x39 build/aws_demos/debug/_ext/1833802790/wdrv_winc_bssfind.o
 .text          0x00000000       0xfe build/aws_demos/debug/_ext/1833802790/wdrv_winc_custie.o
 .data          0x00000000        0x0 build/aws_demos/debug/_ext/1833802790/wdrv_winc_custie.o
 .bss           0x00000000        0x0 build/aws_demos/debug/_ext/1833802790/wdrv_winc_custie.o
 .debug_info    0x00000000     0x1f6d build/aws_demos/debug/_ext/1833802790/wdrv_winc_custie.o
 .debug_abbrev  0x00000000      0x281 build/aws_demos/debug/_ext/1833802790/wdrv_winc_custie.o
 .debug_loc     0x00000000      0x3ca build/aws_demos/debug/_ext/1833802790/wdrv_winc_custie.o
 .debug_aranges
                0x00000000       0x20 build/aws_demos/debug/_ext/1833802790/wdrv_winc_custie.o
 .debug_line    0x00000000      0x3a6 build/aws_demos/debug/_ext/1833802790/wdrv_winc_custie.o
 .debug_str     0x00000000       0x39 build/aws_demos/debug/_ext/1833802790/wdrv_winc_custie.o
 .comment       0x00000000       0x3d build/aws_demos/debug/_ext/1833802790/wdrv_winc_custie.o
 .debug_frame   0x00000000       0x98 build/aws_demos/debug/_ext/1833802790/wdrv_winc_custie.o
 .ARM.attributes
                0x00000000       0x39 build/aws_demos/debug/_ext/1833802790/wdrv_winc_custie.o
 .text          0x00000000       0x62 build/aws_demos/debug/_ext/1833802790/wdrv_winc_httpprovctx.o
 .data          0x00000000        0x0 build/aws_demos/debug/_ext/1833802790/wdrv_winc_httpprovctx.o
 .bss           0x00000000        0x0 build/aws_demos/debug/_ext/1833802790/wdrv_winc_httpprovctx.o
 .debug_info    0x00000000     0x216d build/aws_demos/debug/_ext/1833802790/wdrv_winc_httpprovctx.o
 .debug_abbrev  0x00000000      0x2b5 build/aws_demos/debug/_ext/1833802790/wdrv_winc_httpprovctx.o
 .debug_loc     0x00000000      0x175 build/aws_demos/debug/_ext/1833802790/wdrv_winc_httpprovctx.o
 .debug_aranges
                0x00000000       0x20 build/aws_demos/debug/_ext/1833802790/wdrv_winc_httpprovctx.o
 .debug_line    0x00000000      0x3ab build/aws_demos/debug/_ext/1833802790/wdrv_winc_httpprovctx.o
 .debug_str     0x00000000       0x50 build/aws_demos/debug/_ext/1833802790/wdrv_winc_httpprovctx.o
 .comment       0x00000000       0x3d build/aws_demos/debug/_ext/1833802790/wdrv_winc_httpprovctx.o
 .debug_frame   0x00000000       0x64 build/aws_demos/debug/_ext/1833802790/wdrv_winc_httpprovctx.o
 .ARM.attributes
                0x00000000       0x39 build/aws_demos/debug/_ext/1833802790/wdrv_winc_httpprovctx.o
 .text          0x00000000      0x268 build/aws_demos/debug/_ext/1833802790/wdrv_winc_nvm.o
 .data          0x00000000        0x0 build/aws_demos/debug/_ext/1833802790/wdrv_winc_nvm.o
 .bss           0x00000000        0x0 build/aws_demos/debug/_ext/1833802790/wdrv_winc_nvm.o
 .rodata        0x00000000       0x50 build/aws_demos/debug/_ext/1833802790/wdrv_winc_nvm.o
 .debug_info    0x00000000     0x3778 build/aws_demos/debug/_ext/1833802790/wdrv_winc_nvm.o
 .debug_abbrev  0x00000000      0x378 build/aws_demos/debug/_ext/1833802790/wdrv_winc_nvm.o
 .debug_loc     0x00000000      0x9b3 build/aws_demos/debug/_ext/1833802790/wdrv_winc_nvm.o
 .debug_aranges
                0x00000000       0x20 build/aws_demos/debug/_ext/1833802790/wdrv_winc_nvm.o
 .debug_ranges  0x00000000       0x68 build/aws_demos/debug/_ext/1833802790/wdrv_winc_nvm.o
 .debug_line    0x00000000      0x5d2 build/aws_demos/debug/_ext/1833802790/wdrv_winc_nvm.o
 .debug_str     0x00000000       0xb2 build/aws_demos/debug/_ext/1833802790/wdrv_winc_nvm.o
 .comment       0x00000000       0x3d build/aws_demos/debug/_ext/1833802790/wdrv_winc_nvm.o
 .debug_frame   0x00000000      0x110 build/aws_demos/debug/_ext/1833802790/wdrv_winc_nvm.o
 .ARM.attributes
                0x00000000       0x39 build/aws_demos/debug/_ext/1833802790/wdrv_winc_nvm.o
 .text          0x00000000       0x74 build/aws_demos/debug/_ext/1833802790/wdrv_winc_powersave.o
 .data          0x00000000        0x0 build/aws_demos/debug/_ext/1833802790/wdrv_winc_powersave.o
 .bss           0x00000000        0x0 build/aws_demos/debug/_ext/1833802790/wdrv_winc_powersave.o
 .debug_info    0x00000000     0x2dc0 build/aws_demos/debug/_ext/1833802790/wdrv_winc_powersave.o
 .debug_abbrev  0x00000000      0x298 build/aws_demos/debug/_ext/1833802790/wdrv_winc_powersave.o
 .debug_loc     0x00000000      0x31b build/aws_demos/debug/_ext/1833802790/wdrv_winc_powersave.o
 .debug_aranges
                0x00000000       0x20 build/aws_demos/debug/_ext/1833802790/wdrv_winc_powersave.o
 .debug_line    0x00000000      0x510 build/aws_demos/debug/_ext/1833802790/wdrv_winc_powersave.o
 .debug_str     0x00000000       0x82 build/aws_demos/debug/_ext/1833802790/wdrv_winc_powersave.o
 .comment       0x00000000       0x3d build/aws_demos/debug/_ext/1833802790/wdrv_winc_powersave.o
 .debug_frame   0x00000000       0x78 build/aws_demos/debug/_ext/1833802790/wdrv_winc_powersave.o
 .ARM.attributes
                0x00000000       0x39 build/aws_demos/debug/_ext/1833802790/wdrv_winc_powersave.o
 .data          0x00000000        0x0 build/aws_demos/debug/_ext/1833802790/wdrv_winc_socket.o
 .bss           0x00000000        0x0 build/aws_demos/debug/_ext/1833802790/wdrv_winc_socket.o
 .text          0x00000000      0x1ca build/aws_demos/debug/_ext/1833802790/wdrv_winc_softap.o
 .data          0x00000000        0x0 build/aws_demos/debug/_ext/1833802790/wdrv_winc_softap.o
 .bss           0x00000000        0x0 build/aws_demos/debug/_ext/1833802790/wdrv_winc_softap.o
 .debug_info    0x00000000     0x30af build/aws_demos/debug/_ext/1833802790/wdrv_winc_softap.o
 .debug_abbrev  0x00000000      0x315 build/aws_demos/debug/_ext/1833802790/wdrv_winc_softap.o
 .debug_loc     0x00000000      0x4b4 build/aws_demos/debug/_ext/1833802790/wdrv_winc_softap.o
 .debug_aranges
                0x00000000       0x20 build/aws_demos/debug/_ext/1833802790/wdrv_winc_softap.o
 .debug_line    0x00000000      0x562 build/aws_demos/debug/_ext/1833802790/wdrv_winc_softap.o
 .debug_str     0x00000000       0xe9 build/aws_demos/debug/_ext/1833802790/wdrv_winc_softap.o
 .comment       0x00000000       0x3d build/aws_demos/debug/_ext/1833802790/wdrv_winc_softap.o
 .debug_frame   0x00000000       0xa0 build/aws_demos/debug/_ext/1833802790/wdrv_winc_softap.o
 .ARM.attributes
                0x00000000       0x39 build/aws_demos/debug/_ext/1833802790/wdrv_winc_softap.o
 .text          0x00000000      0x17c build/aws_demos/debug/_ext/1833802790/wdrv_winc_ssl.o
 .data          0x00000000        0x0 build/aws_demos/debug/_ext/1833802790/wdrv_winc_ssl.o
 .bss           0x00000000        0x0 build/aws_demos/debug/_ext/1833802790/wdrv_winc_ssl.o
 .rodata        0x00000000       0x40 build/aws_demos/debug/_ext/1833802790/wdrv_winc_ssl.o
 .debug_info    0x00000000     0x35c6 build/aws_demos/debug/_ext/1833802790/wdrv_winc_ssl.o
 .debug_abbrev  0x00000000      0x34c build/aws_demos/debug/_ext/1833802790/wdrv_winc_ssl.o
 .debug_loc     0x00000000      0x688 build/aws_demos/debug/_ext/1833802790/wdrv_winc_ssl.o
 .debug_aranges
                0x00000000       0x20 build/aws_demos/debug/_ext/1833802790/wdrv_winc_ssl.o
 .debug_line    0x00000000      0x547 build/aws_demos/debug/_ext/1833802790/wdrv_winc_ssl.o
 .debug_str     0x00000000      0x113 build/aws_demos/debug/_ext/1833802790/wdrv_winc_ssl.o
 .comment       0x00000000       0x3d build/aws_demos/debug/_ext/1833802790/wdrv_winc_ssl.o
 .debug_frame   0x00000000      0x120 build/aws_demos/debug/_ext/1833802790/wdrv_winc_ssl.o
 .ARM.attributes
                0x00000000       0x39 build/aws_demos/debug/_ext/1833802790/wdrv_winc_ssl.o
 .data          0x00000000        0x0 build/aws_demos/debug/_ext/1833802790/wdrv_winc_sta.o
 .bss           0x00000000        0x0 build/aws_demos/debug/_ext/1833802790/wdrv_winc_sta.o
 .data          0x00000000        0x0 build/aws_demos/debug/_ext/1833802790/wdrv_winc_systime.o
 .bss           0x00000000        0x0 build/aws_demos/debug/_ext/1833802790/wdrv_winc_systime.o
 .text          0x00000000      0x16c build/aws_demos/debug/_ext/1833802790/wdrv_winc_wps.o
 .data          0x00000000        0x0 build/aws_demos/debug/_ext/1833802790/wdrv_winc_wps.o
 .bss           0x00000000        0x0 build/aws_demos/debug/_ext/1833802790/wdrv_winc_wps.o
 .rodata        0x00000000        0x8 build/aws_demos/debug/_ext/1833802790/wdrv_winc_wps.o
 .debug_info    0x00000000     0x2dca build/aws_demos/debug/_ext/1833802790/wdrv_winc_wps.o
 .debug_abbrev  0x00000000      0x308 build/aws_demos/debug/_ext/1833802790/wdrv_winc_wps.o
 .debug_loc     0x00000000      0x375 build/aws_demos/debug/_ext/1833802790/wdrv_winc_wps.o
 .debug_aranges
                0x00000000       0x20 build/aws_demos/debug/_ext/1833802790/wdrv_winc_wps.o
 .debug_line    0x00000000      0x50c build/aws_demos/debug/_ext/1833802790/wdrv_winc_wps.o
 .debug_str     0x00000000       0x82 build/aws_demos/debug/_ext/1833802790/wdrv_winc_wps.o
 .comment       0x00000000       0x3d build/aws_demos/debug/_ext/1833802790/wdrv_winc_wps.o
 .debug_frame   0x00000000       0x84 build/aws_demos/debug/_ext/1833802790/wdrv_winc_wps.o
 .ARM.attributes
                0x00000000       0x39 build/aws_demos/debug/_ext/1833802790/wdrv_winc_wps.o
 .data          0x00000000        0x0 build/aws_demos/debug/_ext/978667550/wdrv_winc_eint.o
 .bss           0x00000000        0x0 build/aws_demos/debug/_ext/978667550/wdrv_winc_eint.o
 .data          0x00000000        0x0 build/aws_demos/debug/_ext/978667550/wdrv_winc_gpio.o
 .bss           0x00000000        0x0 build/aws_demos/debug/_ext/978667550/wdrv_winc_gpio.o
 .data          0x00000000        0x0 build/aws_demos/debug/_ext/1289849308/wdrv_winc_osal.o
 .bss           0x00000000        0x0 build/aws_demos/debug/_ext/1289849308/wdrv_winc_osal.o
 .data          0x00000000        0x0 build/aws_demos/debug/_ext/2059254151/nm_common.o
 .bss           0x00000000        0x0 build/aws_demos/debug/_ext/2059254151/nm_common.o
 .data          0x00000000        0x0 build/aws_demos/debug/_ext/2090543044/m2m_flash.o
 .data          0x00000000        0x0 build/aws_demos/debug/_ext/2090543044/m2m_hif.o
 .text          0x00000000       0xae build/aws_demos/debug/_ext/2090543044/m2m_periph.o
 .data          0x00000000        0x0 build/aws_demos/debug/_ext/2090543044/m2m_periph.o
 .bss           0x00000000        0x0 build/aws_demos/debug/_ext/2090543044/m2m_periph.o
 .debug_info    0x00000000     0x1fef build/aws_demos/debug/_ext/2090543044/m2m_periph.o
 .debug_abbrev  0x00000000      0x315 build/aws_demos/debug/_ext/2090543044/m2m_periph.o
 .debug_loc     0x00000000      0x365 build/aws_demos/debug/_ext/2090543044/m2m_periph.o
 .debug_aranges
                0x00000000       0x20 build/aws_demos/debug/_ext/2090543044/m2m_periph.o
 .debug_line    0x00000000      0x3ba build/aws_demos/debug/_ext/2090543044/m2m_periph.o
 .debug_str     0x00000000       0x7d build/aws_demos/debug/_ext/2090543044/m2m_periph.o
 .comment       0x00000000       0x3d build/aws_demos/debug/_ext/2090543044/m2m_periph.o
 .debug_frame   0x00000000       0x9c build/aws_demos/debug/_ext/2090543044/m2m_periph.o
 .ARM.attributes
                0x00000000       0x39 build/aws_demos/debug/_ext/2090543044/m2m_periph.o
 .data          0x00000000        0x0 build/aws_demos/debug/_ext/2090543044/m2m_wifi.o
 .bss           0x00000000        0x0 build/aws_demos/debug/_ext/2090543044/nmbus.o
 .data          0x00000000        0x0 build/aws_demos/debug/_ext/2090543044/nmdrv.o
 .bss           0x00000000        0x0 build/aws_demos/debug/_ext/2090543044/nmdrv.o
 .data          0x00000000        0x0 build/aws_demos/debug/_ext/2090543044/nmspi.o
 .data          0x00000000        0x0 build/aws_demos/debug/_ext/1151736449/spi_flash.o
 .data          0x00000000        0x0 build/aws_demos/debug/_ext/2090543044/m2m_ota.o
 .data          0x00000000        0x0 build/aws_demos/debug/_ext/1777946865/socket.o
 .text          0x00000000       0xb0 build/aws_demos/debug/_ext/1777946865/inet_ntop.o
 .data          0x00000000        0x0 build/aws_demos/debug/_ext/1777946865/inet_ntop.o
 .bss           0x00000000        0x0 build/aws_demos/debug/_ext/1777946865/inet_ntop.o
 .debug_info    0x00000000     0x1bb5 build/aws_demos/debug/_ext/1777946865/inet_ntop.o
 .debug_abbrev  0x00000000      0x233 build/aws_demos/debug/_ext/1777946865/inet_ntop.o
 .debug_loc     0x00000000      0x302 build/aws_demos/debug/_ext/1777946865/inet_ntop.o
 .debug_aranges
                0x00000000       0x20 build/aws_demos/debug/_ext/1777946865/inet_ntop.o
 .debug_line    0x00000000      0x3b4 build/aws_demos/debug/_ext/1777946865/inet_ntop.o
 .debug_str     0x00000000       0x23 build/aws_demos/debug/_ext/1777946865/inet_ntop.o
 .comment       0x00000000       0x3d build/aws_demos/debug/_ext/1777946865/inet_ntop.o
 .debug_frame   0x00000000       0x58 build/aws_demos/debug/_ext/1777946865/inet_ntop.o
 .ARM.attributes
                0x00000000       0x39 build/aws_demos/debug/_ext/1777946865/inet_ntop.o
 .text          0x00000000       0xc0 build/aws_demos/debug/_ext/1777946865/inet_addr.o
 .data          0x00000000        0x0 build/aws_demos/debug/_ext/1777946865/inet_addr.o
 .bss           0x00000000        0x0 build/aws_demos/debug/_ext/1777946865/inet_addr.o
 .debug_info    0x00000000     0x1b3e build/aws_demos/debug/_ext/1777946865/inet_addr.o
 .debug_abbrev  0x00000000      0x224 build/aws_demos/debug/_ext/1777946865/inet_addr.o
 .debug_loc     0x00000000      0x283 build/aws_demos/debug/_ext/1777946865/inet_addr.o
 .debug_aranges
                0x00000000       0x20 build/aws_demos/debug/_ext/1777946865/inet_addr.o
 .debug_line    0x00000000      0x37b build/aws_demos/debug/_ext/1777946865/inet_addr.o
 .debug_str     0x00000000       0x23 build/aws_demos/debug/_ext/1777946865/inet_addr.o
 .comment       0x00000000       0x3d build/aws_demos/debug/_ext/1777946865/inet_addr.o
 .debug_frame   0x00000000       0x30 build/aws_demos/debug/_ext/1777946865/inet_addr.o
 .ARM.attributes
                0x00000000       0x39 build/aws_demos/debug/_ext/1777946865/inet_addr.o
 .data          0x00000000        0x0 build/aws_demos/debug/_ext/230789302/plib_sercom7_i2c_master.o
 .data          0x00000000        0x0 build/aws_demos/debug/_ext/1991396724/sys_command.o
 .data          0x00000000        0x0 build/aws_demos/debug/_ext/731420310/plib_sercom6_usart.o
 .data          0x00000000        0x0 build/aws_demos/debug/_ext/1360937237/main.o
 .data          0x00000000        0x0 build/aws_demos/debug/_ext/1534096987/initialization.o
 .text          0x00000000        0x0 build/aws_demos/debug/_ext/1534096987/interrupts.o
 .data          0x00000000        0x0 build/aws_demos/debug/_ext/1534096987/interrupts.o
 .bss           0x00000000        0x0 build/aws_demos/debug/_ext/1534096987/interrupts.o
 .data          0x00000000        0x0 build/aws_demos/debug/_ext/1534096987/exceptions.o
 .bss           0x00000000        0x0 build/aws_demos/debug/_ext/1534096987/exceptions.o
 .data          0x00000000        0x0 build/aws_demos/debug/_ext/1263901141/xc32_monitor.o
 .bss           0x00000000        0x0 build/aws_demos/debug/_ext/1263901141/xc32_monitor.o
 .data          0x00000000        0x0 build/aws_demos/debug/_ext/1843425920/plib_port.o
 .bss           0x00000000        0x0 build/aws_demos/debug/_ext/1843425920/plib_port.o
 .data          0x00000000        0x0 build/aws_demos/debug/_ext/1323727121/plib_clock.o
 .bss           0x00000000        0x0 build/aws_demos/debug/_ext/1323727121/plib_clock.o
 .data          0x00000000        0x0 build/aws_demos/debug/_ext/1843479071/plib_nvic.o
 .bss           0x00000000        0x0 build/aws_demos/debug/_ext/1843479071/plib_nvic.o
 .data          0x00000000        0x0 build/aws_demos/debug/_ext/1843785878/plib_dmac.o
 .text          0x00000000        0x0 build/aws_demos/debug/_ext/1534096987/startup_xc32.o
 .data          0x00000000        0x0 build/aws_demos/debug/_ext/1534096987/startup_xc32.o
 .bss           0x00000000        0x0 build/aws_demos/debug/_ext/1534096987/startup_xc32.o
 .text          0x00000000        0x4 build/aws_demos/debug/_ext/1534096987/libc_syscalls.o
 .data          0x00000000        0x0 build/aws_demos/debug/_ext/1534096987/libc_syscalls.o
 .bss           0x00000000        0x0 build/aws_demos/debug/_ext/1534096987/libc_syscalls.o
 .debug_info    0x00000000      0xe87 build/aws_demos/debug/_ext/1534096987/libc_syscalls.o
 .debug_abbrev  0x00000000      0x1a6 build/aws_demos/debug/_ext/1534096987/libc_syscalls.o
 .debug_aranges
                0x00000000       0x20 build/aws_demos/debug/_ext/1534096987/libc_syscalls.o
 .debug_line    0x00000000      0x1d2 build/aws_demos/debug/_ext/1534096987/libc_syscalls.o
 .debug_str     0x00000000        0xe build/aws_demos/debug/_ext/1534096987/libc_syscalls.o
 .comment       0x00000000       0x3d build/aws_demos/debug/_ext/1534096987/libc_syscalls.o
 .debug_frame   0x00000000       0x20 build/aws_demos/debug/_ext/1534096987/libc_syscalls.o
 .ARM.attributes
                0x00000000       0x39 build/aws_demos/debug/_ext/1534096987/libc_syscalls.o
 .data          0x00000000        0x0 build/aws_demos/debug/_ext/1916130672/plib_sercom4_spi.o
 .data          0x00000000        0x0 build/aws_demos/debug/_ext/59476128/plib_eic.o
 .bss           0x00000000        0x0 build/aws_demos/debug/_ext/59476128/plib_eic.o
 .data          0x00000000        0x0 build/aws_demos/debug/_ext/1931625852/sys_debug.o
 .text          0x00000000      0x24c build/aws_demos/debug/_ext/988341903/aws_iot_demo_defender.o
 .data          0x00000000        0x0 build/aws_demos/debug/_ext/988341903/aws_iot_demo_defender.o
 .bss           0x00000000        0x0 build/aws_demos/debug/_ext/988341903/aws_iot_demo_defender.o
 .rodata        0x00000000      0x200 build/aws_demos/debug/_ext/988341903/aws_iot_demo_defender.o
 .debug_info    0x00000000     0x244e build/aws_demos/debug/_ext/988341903/aws_iot_demo_defender.o
 .debug_abbrev  0x00000000      0x331 build/aws_demos/debug/_ext/988341903/aws_iot_demo_defender.o
 .debug_loc     0x00000000      0x4ce build/aws_demos/debug/_ext/988341903/aws_iot_demo_defender.o
 .debug_aranges
                0x00000000       0x20 build/aws_demos/debug/_ext/988341903/aws_iot_demo_defender.o
 .debug_ranges  0x00000000       0x18 build/aws_demos/debug/_ext/988341903/aws_iot_demo_defender.o
 .debug_line    0x00000000      0x3e8 build/aws_demos/debug/_ext/988341903/aws_iot_demo_defender.o
 .debug_str     0x00000000      0x217 build/aws_demos/debug/_ext/988341903/aws_iot_demo_defender.o
 .comment       0x00000000       0x3d build/aws_demos/debug/_ext/988341903/aws_iot_demo_defender.o
 .debug_frame   0x00000000       0x5c build/aws_demos/debug/_ext/988341903/aws_iot_demo_defender.o
 .ARM.attributes
                0x00000000       0x39 build/aws_demos/debug/_ext/988341903/aws_iot_demo_defender.o
 .data          0x00000000        0x0 build/aws_demos/debug/_ext/1223942466/aws_demo.o
 .text          0x00000000       0x30 build/aws_demos/debug/_ext/1223942466/aws_demo_network_addr.o
 .data          0x00000000        0x6 build/aws_demos/debug/_ext/1223942466/aws_demo_network_addr.o
 .bss           0x00000000        0x0 build/aws_demos/debug/_ext/1223942466/aws_demo_network_addr.o
 .rodata        0x00000000       0x24 build/aws_demos/debug/_ext/1223942466/aws_demo_network_addr.o
 .debug_info    0x00000000      0x453 build/aws_demos/debug/_ext/1223942466/aws_demo_network_addr.o
 .debug_abbrev  0x00000000       0xcb build/aws_demos/debug/_ext/1223942466/aws_demo_network_addr.o
 .debug_loc     0x00000000       0x38 build/aws_demos/debug/_ext/1223942466/aws_demo_network_addr.o
 .debug_aranges
                0x00000000       0x20 build/aws_demos/debug/_ext/1223942466/aws_demo_network_addr.o
 .debug_line    0x00000000      0x16b build/aws_demos/debug/_ext/1223942466/aws_demo_network_addr.o
 .debug_str     0x00000000       0x10 build/aws_demos/debug/_ext/1223942466/aws_demo_network_addr.o
 .comment       0x00000000       0x3d build/aws_demos/debug/_ext/1223942466/aws_demo_network_addr.o
 .debug_frame   0x00000000       0x3c build/aws_demos/debug/_ext/1223942466/aws_demo_network_addr.o
 .ARM.attributes
                0x00000000       0x39 build/aws_demos/debug/_ext/1223942466/aws_demo_network_addr.o
 .text          0x00000000        0x0 build/aws_demos/debug/_ext/1223942466/aws_demo_version.o
 .data          0x00000000        0x0 build/aws_demos/debug/_ext/1223942466/aws_demo_version.o
 .bss           0x00000000        0x0 build/aws_demos/debug/_ext/1223942466/aws_demo_version.o
 .rodata        0x00000000        0x4 build/aws_demos/debug/_ext/1223942466/aws_demo_version.o
 .debug_info    0x00000000      0x402 build/aws_demos/debug/_ext/1223942466/aws_demo_version.o
 .debug_abbrev  0x00000000       0x90 build/aws_demos/debug/_ext/1223942466/aws_demo_version.o
 .debug_aranges
                0x00000000       0x18 build/aws_demos/debug/_ext/1223942466/aws_demo_version.o
 .debug_line    0x00000000      0x184 build/aws_demos/debug/_ext/1223942466/aws_demo_version.o
 .debug_str     0x00000000        0x0 build/aws_demos/debug/_ext/1223942466/aws_demo_version.o
 .comment       0x00000000       0x3d build/aws_demos/debug/_ext/1223942466/aws_demo_version.o
 .ARM.attributes
                0x00000000       0x39 build/aws_demos/debug/_ext/1223942466/aws_demo_version.o
 .data          0x00000000        0x0 build/aws_demos/debug/_ext/1223942466/iot_demo_freertos.o
 .bss           0x00000000        0x0 build/aws_demos/debug/_ext/1223942466/iot_demo_runner.o
 .data          0x00000000        0x0 build/aws_demos/debug/_ext/198771642/aws_dev_mode_key_provisioning.o
 .bss           0x00000000        0x0 build/aws_demos/debug/_ext/198771642/aws_dev_mode_key_provisioning.o
 .text          0x00000000      0x284 build/aws_demos/debug/_ext/905468053/aws_greengrass_discovery_demo.o
 .data          0x00000000        0x0 build/aws_demos/debug/_ext/905468053/aws_greengrass_discovery_demo.o
 .bss           0x00000000      0x9c4 build/aws_demos/debug/_ext/905468053/aws_greengrass_discovery_demo.o
 .rodata        0x00000000      0x534 build/aws_demos/debug/_ext/905468053/aws_greengrass_discovery_demo.o
 .debug_info    0x00000000     0x23f4 build/aws_demos/debug/_ext/905468053/aws_greengrass_discovery_demo.o
 .debug_abbrev  0x00000000      0x363 build/aws_demos/debug/_ext/905468053/aws_greengrass_discovery_demo.o
 .debug_loc     0x00000000      0x39f build/aws_demos/debug/_ext/905468053/aws_greengrass_discovery_demo.o
 .debug_aranges
                0x00000000       0x20 build/aws_demos/debug/_ext/905468053/aws_greengrass_discovery_demo.o
 .debug_ranges  0x00000000       0x30 build/aws_demos/debug/_ext/905468053/aws_greengrass_discovery_demo.o
 .debug_line    0x00000000      0x499 build/aws_demos/debug/_ext/905468053/aws_greengrass_discovery_demo.o
 .debug_str     0x00000000      0x140 build/aws_demos/debug/_ext/905468053/aws_greengrass_discovery_demo.o
 .comment       0x00000000       0x3d build/aws_demos/debug/_ext/905468053/aws_greengrass_discovery_demo.o
 .debug_frame   0x00000000       0x64 build/aws_demos/debug/_ext/905468053/aws_greengrass_discovery_demo.o
 .ARM.attributes
                0x00000000       0x39 build/aws_demos/debug/_ext/905468053/aws_greengrass_discovery_demo.o
 .text          0x00000000      0x224 build/aws_demos/debug/_ext/1741632483/iot_demo_https_common.o
 .data          0x00000000        0x0 build/aws_demos/debug/_ext/1741632483/iot_demo_https_common.o
 .bss           0x00000000        0x0 build/aws_demos/debug/_ext/1741632483/iot_demo_https_common.o
 .rodata        0x00000000      0x3ec build/aws_demos/debug/_ext/1741632483/iot_demo_https_common.o
 .debug_info    0x00000000     0x2334 build/aws_demos/debug/_ext/1741632483/iot_demo_https_common.o
 .debug_abbrev  0x00000000      0x27a build/aws_demos/debug/_ext/1741632483/iot_demo_https_common.o
 .debug_loc     0x00000000      0x2d5 build/aws_demos/debug/_ext/1741632483/iot_demo_https_common.o
 .debug_aranges
                0x00000000       0x20 build/aws_demos/debug/_ext/1741632483/iot_demo_https_common.o
 .debug_line    0x00000000      0x30d build/aws_demos/debug/_ext/1741632483/iot_demo_https_common.o
 .debug_str     0x00000000       0xc0 build/aws_demos/debug/_ext/1741632483/iot_demo_https_common.o
 .comment       0x00000000       0x3d build/aws_demos/debug/_ext/1741632483/iot_demo_https_common.o
 .debug_frame   0x00000000       0x38 build/aws_demos/debug/_ext/1741632483/iot_demo_https_common.o
 .ARM.attributes
                0x00000000       0x39 build/aws_demos/debug/_ext/1741632483/iot_demo_https_common.o
 .text          0x00000000      0xa84 build/aws_demos/debug/_ext/1741632483/iot_demo_https_s3_download_async.o
 .data          0x00000000        0x0 build/aws_demos/debug/_ext/1741632483/iot_demo_https_s3_download_async.o
 .bss           0x00000000     0x1894 build/aws_demos/debug/_ext/1741632483/iot_demo_https_s3_download_async.o
 .rodata        0x00000000      0xff4 build/aws_demos/debug/_ext/1741632483/iot_demo_https_s3_download_async.o
 .debug_info    0x00000000     0x42d5 build/aws_demos/debug/_ext/1741632483/iot_demo_https_s3_download_async.o
 .debug_abbrev  0x00000000      0x3a9 build/aws_demos/debug/_ext/1741632483/iot_demo_https_s3_download_async.o
 .debug_loc     0x00000000      0xe42 build/aws_demos/debug/_ext/1741632483/iot_demo_https_s3_download_async.o
 .debug_aranges
                0x00000000       0x20 build/aws_demos/debug/_ext/1741632483/iot_demo_https_s3_download_async.o
 .debug_ranges  0x00000000       0x88 build/aws_demos/debug/_ext/1741632483/iot_demo_https_s3_download_async.o
 .debug_line    0x00000000      0x6cd build/aws_demos/debug/_ext/1741632483/iot_demo_https_s3_download_async.o
 .debug_str     0x00000000      0x3a6 build/aws_demos/debug/_ext/1741632483/iot_demo_https_s3_download_async.o
 .comment       0x00000000       0x3d build/aws_demos/debug/_ext/1741632483/iot_demo_https_s3_download_async.o
 .debug_frame   0x00000000       0xf0 build/aws_demos/debug/_ext/1741632483/iot_demo_https_s3_download_async.o
 .ARM.attributes
                0x00000000       0x39 build/aws_demos/debug/_ext/1741632483/iot_demo_https_s3_download_async.o
 .text          0x00000000      0x4f4 build/aws_demos/debug/_ext/1741632483/iot_demo_https_s3_download_sync.o
 .data          0x00000000        0x0 build/aws_demos/debug/_ext/1741632483/iot_demo_https_s3_download_sync.o
 .bss           0x00000000      0xa00 build/aws_demos/debug/_ext/1741632483/iot_demo_https_s3_download_sync.o
 .rodata        0x00000000      0xac8 build/aws_demos/debug/_ext/1741632483/iot_demo_https_s3_download_sync.o
 .debug_info    0x00000000     0x2d6a build/aws_demos/debug/_ext/1741632483/iot_demo_https_s3_download_sync.o
 .debug_abbrev  0x00000000      0x2ea build/aws_demos/debug/_ext/1741632483/iot_demo_https_s3_download_sync.o
 .debug_loc     0x00000000      0x52c build/aws_demos/debug/_ext/1741632483/iot_demo_https_s3_download_sync.o
 .debug_aranges
                0x00000000       0x20 build/aws_demos/debug/_ext/1741632483/iot_demo_https_s3_download_sync.o
 .debug_ranges  0x00000000       0x20 build/aws_demos/debug/_ext/1741632483/iot_demo_https_s3_download_sync.o
 .debug_line    0x00000000      0x422 build/aws_demos/debug/_ext/1741632483/iot_demo_https_s3_download_sync.o
 .debug_str     0x00000000      0x1f2 build/aws_demos/debug/_ext/1741632483/iot_demo_https_s3_download_sync.o
 .comment       0x00000000       0x3d build/aws_demos/debug/_ext/1741632483/iot_demo_https_s3_download_sync.o
 .debug_frame   0x00000000       0x40 build/aws_demos/debug/_ext/1741632483/iot_demo_https_s3_download_sync.o
 .ARM.attributes
                0x00000000       0x39 build/aws_demos/debug/_ext/1741632483/iot_demo_https_s3_download_sync.o
 .text          0x00000000      0x2f4 build/aws_demos/debug/_ext/1741632483/iot_demo_https_s3_upload_async.o
 .data          0x00000000        0x0 build/aws_demos/debug/_ext/1741632483/iot_demo_https_s3_upload_async.o
 .bss           0x00000000      0x850 build/aws_demos/debug/_ext/1741632483/iot_demo_https_s3_upload_async.o
 .rodata        0x00000000      0x848 build/aws_demos/debug/_ext/1741632483/iot_demo_https_s3_upload_async.o
 .debug_info    0x00000000     0x2d46 build/aws_demos/debug/_ext/1741632483/iot_demo_https_s3_upload_async.o
 .debug_abbrev  0x00000000      0x316 build/aws_demos/debug/_ext/1741632483/iot_demo_https_s3_upload_async.o
 .debug_loc     0x00000000      0x536 build/aws_demos/debug/_ext/1741632483/iot_demo_https_s3_upload_async.o
 .debug_aranges
                0x00000000       0x20 build/aws_demos/debug/_ext/1741632483/iot_demo_https_s3_upload_async.o
 .debug_line    0x00000000      0x527 build/aws_demos/debug/_ext/1741632483/iot_demo_https_s3_upload_async.o
 .debug_str     0x00000000      0x222 build/aws_demos/debug/_ext/1741632483/iot_demo_https_s3_upload_async.o
 .comment       0x00000000       0x3d build/aws_demos/debug/_ext/1741632483/iot_demo_https_s3_upload_async.o
 .debug_frame   0x00000000       0x78 build/aws_demos/debug/_ext/1741632483/iot_demo_https_s3_upload_async.o
 .ARM.attributes
                0x00000000       0x39 build/aws_demos/debug/_ext/1741632483/iot_demo_https_s3_upload_async.o
 .text          0x00000000      0x2b0 build/aws_demos/debug/_ext/1741632483/iot_demo_https_s3_upload_sync.o
 .data          0x00000000        0x0 build/aws_demos/debug/_ext/1741632483/iot_demo_https_s3_upload_sync.o
 .bss           0x00000000      0x800 build/aws_demos/debug/_ext/1741632483/iot_demo_https_s3_upload_sync.o
 .rodata        0x00000000      0x874 build/aws_demos/debug/_ext/1741632483/iot_demo_https_s3_upload_sync.o
 .debug_info    0x00000000     0x28e3 build/aws_demos/debug/_ext/1741632483/iot_demo_https_s3_upload_sync.o
 .debug_abbrev  0x00000000      0x2b5 build/aws_demos/debug/_ext/1741632483/iot_demo_https_s3_upload_sync.o
 .debug_loc     0x00000000      0x39f build/aws_demos/debug/_ext/1741632483/iot_demo_https_s3_upload_sync.o
 .debug_aranges
                0x00000000       0x20 build/aws_demos/debug/_ext/1741632483/iot_demo_https_s3_upload_sync.o
 .debug_line    0x00000000      0x3b8 build/aws_demos/debug/_ext/1741632483/iot_demo_https_s3_upload_sync.o
 .debug_str     0x00000000      0x16f build/aws_demos/debug/_ext/1741632483/iot_demo_https_s3_upload_sync.o
 .comment       0x00000000       0x3d build/aws_demos/debug/_ext/1741632483/iot_demo_https_s3_upload_sync.o
 .debug_frame   0x00000000       0x3c build/aws_demos/debug/_ext/1741632483/iot_demo_https_s3_upload_sync.o
 .ARM.attributes
                0x00000000       0x39 build/aws_demos/debug/_ext/1741632483/iot_demo_https_s3_upload_sync.o
 .data          0x00000000        0x0 build/aws_demos/debug/_ext/1441508942/iot_demo_mqtt.o
 .bss           0x00000000        0x0 build/aws_demos/debug/_ext/1441508942/iot_demo_mqtt.o
 .text          0x00000000        0x0 build/aws_demos/debug/_ext/2040524622/aws_iot_demo_network.o
 .data          0x00000000        0x0 build/aws_demos/debug/_ext/2040524622/aws_iot_demo_network.o
 .bss           0x00000000        0x0 build/aws_demos/debug/_ext/2040524622/aws_iot_demo_network.o
 .debug_line    0x00000000        0x0 build/aws_demos/debug/_ext/2040524622/aws_iot_demo_network.o
 .debug_str     0x00000000        0x0 build/aws_demos/debug/_ext/2040524622/aws_iot_demo_network.o
 .comment       0x00000000       0x3d build/aws_demos/debug/_ext/2040524622/aws_iot_demo_network.o
 .ARM.attributes
                0x00000000       0x39 build/aws_demos/debug/_ext/2040524622/aws_iot_demo_network.o
 .text          0x00000000      0x1a0 build/aws_demos/debug/_ext/1986160946/aws_iot_ota_update_demo.o
 .data          0x00000000       0x28 build/aws_demos/debug/_ext/1986160946/aws_iot_ota_update_demo.o
 .bss           0x00000000        0xc build/aws_demos/debug/_ext/1986160946/aws_iot_ota_update_demo.o
 .rodata        0x00000000      0x1f8 build/aws_demos/debug/_ext/1986160946/aws_iot_ota_update_demo.o
 .debug_info    0x00000000     0x265f build/aws_demos/debug/_ext/1986160946/aws_iot_ota_update_demo.o
 .debug_abbrev  0x00000000      0x34c build/aws_demos/debug/_ext/1986160946/aws_iot_ota_update_demo.o
 .debug_loc     0x00000000      0x3de build/aws_demos/debug/_ext/1986160946/aws_iot_ota_update_demo.o
 .debug_aranges
                0x00000000       0x20 build/aws_demos/debug/_ext/1986160946/aws_iot_ota_update_demo.o
 .debug_ranges  0x00000000       0x18 build/aws_demos/debug/_ext/1986160946/aws_iot_ota_update_demo.o
 .debug_line    0x00000000      0x568 build/aws_demos/debug/_ext/1986160946/aws_iot_ota_update_demo.o
 .debug_str     0x00000000      0x1c7 build/aws_demos/debug/_ext/1986160946/aws_iot_ota_update_demo.o
 .comment       0x00000000       0x3d build/aws_demos/debug/_ext/1986160946/aws_iot_ota_update_demo.o
 .debug_frame   0x00000000       0x88 build/aws_demos/debug/_ext/1986160946/aws_iot_ota_update_demo.o
 .ARM.attributes
                0x00000000       0x39 build/aws_demos/debug/_ext/1986160946/aws_iot_ota_update_demo.o
 .text          0x00000000      0x644 build/aws_demos/debug/_ext/2147228718/aws_iot_demo_shadow.o
 .data          0x00000000        0x0 build/aws_demos/debug/_ext/2147228718/aws_iot_demo_shadow.o
 .bss           0x00000000       0x7b build/aws_demos/debug/_ext/2147228718/aws_iot_demo_shadow.o
 .rodata        0x00000000      0x55c build/aws_demos/debug/_ext/2147228718/aws_iot_demo_shadow.o
 .debug_info    0x00000000     0x36d9 build/aws_demos/debug/_ext/2147228718/aws_iot_demo_shadow.o
 .debug_abbrev  0x00000000      0x40c build/aws_demos/debug/_ext/2147228718/aws_iot_demo_shadow.o
 .debug_loc     0x00000000      0xf45 build/aws_demos/debug/_ext/2147228718/aws_iot_demo_shadow.o
 .debug_aranges
                0x00000000       0x20 build/aws_demos/debug/_ext/2147228718/aws_iot_demo_shadow.o
 .debug_ranges  0x00000000       0x80 build/aws_demos/debug/_ext/2147228718/aws_iot_demo_shadow.o
 .debug_line    0x00000000      0x69e build/aws_demos/debug/_ext/2147228718/aws_iot_demo_shadow.o
 .debug_str     0x00000000      0x359 build/aws_demos/debug/_ext/2147228718/aws_iot_demo_shadow.o
 .comment       0x00000000       0x3d build/aws_demos/debug/_ext/2147228718/aws_iot_demo_shadow.o
 .debug_frame   0x00000000       0xd4 build/aws_demos/debug/_ext/2147228718/aws_iot_demo_shadow.o
 .ARM.attributes
                0x00000000       0x39 build/aws_demos/debug/_ext/2147228718/aws_iot_demo_shadow.o
 .text          0x00000000      0x2c8 build/aws_demos/debug/_ext/1986156653/aws_tcp_echo_client_single_task.o
 .data          0x00000000        0x1 build/aws_demos/debug/_ext/1986156653/aws_tcp_echo_client_single_task.o
 .bss           0x00000000      0xfb4 build/aws_demos/debug/_ext/1986156653/aws_tcp_echo_client_single_task.o
 .rodata        0x00000000      0x218 build/aws_demos/debug/_ext/1986156653/aws_tcp_echo_client_single_task.o
 .debug_info    0x00000000     0x1b24 build/aws_demos/debug/_ext/1986156653/aws_tcp_echo_client_single_task.o
 .debug_abbrev  0x00000000      0x34d build/aws_demos/debug/_ext/1986156653/aws_tcp_echo_client_single_task.o
 .debug_loc     0x00000000      0x408 build/aws_demos/debug/_ext/1986156653/aws_tcp_echo_client_single_task.o
 .debug_aranges
                0x00000000       0x20 build/aws_demos/debug/_ext/1986156653/aws_tcp_echo_client_single_task.o
 .debug_ranges  0x00000000       0x18 build/aws_demos/debug/_ext/1986156653/aws_tcp_echo_client_single_task.o
 .debug_line    0x00000000      0x3fa build/aws_demos/debug/_ext/1986156653/aws_tcp_echo_client_single_task.o
 .debug_str     0x00000000       0xd9 build/aws_demos/debug/_ext/1986156653/aws_tcp_echo_client_single_task.o
 .comment       0x00000000       0x3d build/aws_demos/debug/_ext/1986156653/aws_tcp_echo_client_single_task.o
 .debug_frame   0x00000000       0x68 build/aws_demos/debug/_ext/1986156653/aws_tcp_echo_client_single_task.o
 .ARM.attributes
                0x00000000       0x39 build/aws_demos/debug/_ext/1986156653/aws_tcp_echo_client_single_task.o
 .text          0x00000000        0x0 build/aws_demos/debug/_ext/811507611/croutine.o
 .data          0x00000000        0x0 build/aws_demos/debug/_ext/811507611/croutine.o
 .bss           0x00000000        0x0 build/aws_demos/debug/_ext/811507611/croutine.o
 .debug_info    0x00000000      0x2c0 build/aws_demos/debug/_ext/811507611/croutine.o
 .debug_abbrev  0x00000000       0x1b build/aws_demos/debug/_ext/811507611/croutine.o
 .debug_aranges
                0x00000000       0x18 build/aws_demos/debug/_ext/811507611/croutine.o
 .debug_line    0x00000000       0x1d build/aws_demos/debug/_ext/811507611/croutine.o
 .debug_str     0x00000000        0x0 build/aws_demos/debug/_ext/811507611/croutine.o
 .comment       0x00000000       0x3d build/aws_demos/debug/_ext/811507611/croutine.o
 .ARM.attributes
                0x00000000       0x39 build/aws_demos/debug/_ext/811507611/croutine.o
 .data          0x00000000        0x0 build/aws_demos/debug/_ext/811507611/event_groups.o
 .bss           0x00000000        0x0 build/aws_demos/debug/_ext/811507611/event_groups.o
 .data          0x00000000        0x0 build/aws_demos/debug/_ext/811507611/list.o
 .bss           0x00000000        0x0 build/aws_demos/debug/_ext/811507611/list.o
 .data          0x00000000        0x0 build/aws_demos/debug/_ext/811507611/queue.o
 .bss           0x00000000        0x0 build/aws_demos/debug/_ext/811507611/queue.o
 .text          0x00000000      0x864 build/aws_demos/debug/_ext/811507611/stream_buffer.o
 .data          0x00000000        0x0 build/aws_demos/debug/_ext/811507611/stream_buffer.o
 .bss           0x00000000        0x0 build/aws_demos/debug/_ext/811507611/stream_buffer.o
 .rodata        0x00000000       0x38 build/aws_demos/debug/_ext/811507611/stream_buffer.o
 .debug_info    0x00000000     0x2bf9 build/aws_demos/debug/_ext/811507611/stream_buffer.o
 .debug_abbrev  0x00000000      0x450 build/aws_demos/debug/_ext/811507611/stream_buffer.o
 .debug_loc     0x00000000     0x1b98 build/aws_demos/debug/_ext/811507611/stream_buffer.o
 .debug_aranges
                0x00000000       0x20 build/aws_demos/debug/_ext/811507611/stream_buffer.o
 .debug_ranges  0x00000000       0x30 build/aws_demos/debug/_ext/811507611/stream_buffer.o
 .debug_line    0x00000000      0x53a build/aws_demos/debug/_ext/811507611/stream_buffer.o
 .debug_str     0x00000000      0x27d build/aws_demos/debug/_ext/811507611/stream_buffer.o
 .comment       0x00000000       0x3d build/aws_demos/debug/_ext/811507611/stream_buffer.o
 .debug_frame   0x00000000      0x300 build/aws_demos/debug/_ext/811507611/stream_buffer.o
 .ARM.attributes
                0x00000000       0x39 build/aws_demos/debug/_ext/811507611/stream_buffer.o
 .data          0x00000000        0x0 build/aws_demos/debug/_ext/811507611/tasks.o
 .data          0x00000000        0x0 build/aws_demos/debug/_ext/811507611/timers.o
 .text          0x00000000     0x3ae8 build/aws_demos/debug/_ext/490551821/http_parser.o
 .data          0x00000000        0x4 build/aws_demos/debug/_ext/490551821/http_parser.o
 .bss           0x00000000        0x0 build/aws_demos/debug/_ext/490551821/http_parser.o
 .rodata        0x00000000     0x12c8 build/aws_demos/debug/_ext/490551821/http_parser.o
 .debug_info    0x00000000     0x3e05 build/aws_demos/debug/_ext/490551821/http_parser.o
 .debug_abbrev  0x00000000      0x440 build/aws_demos/debug/_ext/490551821/http_parser.o
 .debug_loc     0x00000000     0x4907 build/aws_demos/debug/_ext/490551821/http_parser.o
 .debug_aranges
                0x00000000       0x20 build/aws_demos/debug/_ext/490551821/http_parser.o
 .debug_ranges  0x00000000      0x210 build/aws_demos/debug/_ext/490551821/http_parser.o
 .debug_line    0x00000000      0x9fd build/aws_demos/debug/_ext/490551821/http_parser.o
 .debug_str     0x00000000       0x7a build/aws_demos/debug/_ext/490551821/http_parser.o
 .comment       0x00000000       0x3d build/aws_demos/debug/_ext/490551821/http_parser.o
 .debug_frame   0x00000000      0x1bc build/aws_demos/debug/_ext/490551821/http_parser.o
 .ARM.attributes
                0x00000000       0x39 build/aws_demos/debug/_ext/490551821/http_parser.o
 .text          0x00000000      0x4e0 build/aws_demos/debug/_ext/1206754867/jsmn.o
 .data          0x00000000        0x0 build/aws_demos/debug/_ext/1206754867/jsmn.o
 .bss           0x00000000        0x0 build/aws_demos/debug/_ext/1206754867/jsmn.o
 .debug_info    0x00000000      0x81c build/aws_demos/debug/_ext/1206754867/jsmn.o
 .debug_abbrev  0x00000000      0x225 build/aws_demos/debug/_ext/1206754867/jsmn.o
 .debug_loc     0x00000000      0x575 build/aws_demos/debug/_ext/1206754867/jsmn.o
 .debug_aranges
                0x00000000       0x20 build/aws_demos/debug/_ext/1206754867/jsmn.o
 .debug_ranges  0x00000000       0xc0 build/aws_demos/debug/_ext/1206754867/jsmn.o
 .debug_line    0x00000000      0x1b3 build/aws_demos/debug/_ext/1206754867/jsmn.o
 .debug_str     0x00000000       0x25 build/aws_demos/debug/_ext/1206754867/jsmn.o
 .comment       0x00000000       0x3d build/aws_demos/debug/_ext/1206754867/jsmn.o
 .debug_frame   0x00000000       0x58 build/aws_demos/debug/_ext/1206754867/jsmn.o
 .ARM.attributes
                0x00000000       0x39 build/aws_demos/debug/_ext/1206754867/jsmn.o
 .text          0x00000000     0x13d4 build/aws_demos/debug/_ext/684768522/aes.o
 .data          0x00000000        0x0 build/aws_demos/debug/_ext/684768522/aes.o
 .bss           0x00000000        0x0 build/aws_demos/debug/_ext/684768522/aes.o
 .rodata        0x00000000     0x2664 build/aws_demos/debug/_ext/684768522/aes.o
 .debug_info    0x00000000     0x2191 build/aws_demos/debug/_ext/684768522/aes.o
 .debug_abbrev  0x00000000      0x2b0 build/aws_demos/debug/_ext/684768522/aes.o
 .debug_loc     0x00000000     0x1f29 build/aws_demos/debug/_ext/684768522/aes.o
 .debug_aranges
                0x00000000       0x20 build/aws_demos/debug/_ext/684768522/aes.o
 .debug_ranges  0x00000000       0x18 build/aws_demos/debug/_ext/684768522/aes.o
 .debug_line    0x00000000      0x4bc build/aws_demos/debug/_ext/684768522/aes.o
 .debug_str     0x00000000       0x8a build/aws_demos/debug/_ext/684768522/aes.o
 .comment       0x00000000       0x3d build/aws_demos/debug/_ext/684768522/aes.o
 .debug_frame   0x00000000      0x204 build/aws_demos/debug/_ext/684768522/aes.o
 .ARM.attributes
                0x00000000       0x39 build/aws_demos/debug/_ext/684768522/aes.o
 .text          0x00000000        0x0 build/aws_demos/debug/_ext/684768522/aesni.o
 .data          0x00000000        0x0 build/aws_demos/debug/_ext/684768522/aesni.o
 .bss           0x00000000        0x0 build/aws_demos/debug/_ext/684768522/aesni.o
 .debug_info    0x00000000      0x20e build/aws_demos/debug/_ext/684768522/aesni.o
 .debug_abbrev  0x00000000       0x1b build/aws_demos/debug/_ext/684768522/aesni.o
 .debug_aranges
                0x00000000       0x18 build/aws_demos/debug/_ext/684768522/aesni.o
 .debug_line    0x00000000       0x1d build/aws_demos/debug/_ext/684768522/aesni.o
 .debug_str     0x00000000        0x0 build/aws_demos/debug/_ext/684768522/aesni.o
 .comment       0x00000000       0x3d build/aws_demos/debug/_ext/684768522/aesni.o
 .ARM.attributes
                0x00000000       0x39 build/aws_demos/debug/_ext/684768522/aesni.o
 .text          0x00000000        0x0 build/aws_demos/debug/_ext/684768522/arc4.o
 .data          0x00000000        0x0 build/aws_demos/debug/_ext/684768522/arc4.o
 .bss           0x00000000        0x0 build/aws_demos/debug/_ext/684768522/arc4.o
 .debug_info    0x00000000      0x20d build/aws_demos/debug/_ext/684768522/arc4.o
 .debug_abbrev  0x00000000       0x1b build/aws_demos/debug/_ext/684768522/arc4.o
 .debug_aranges
                0x00000000       0x18 build/aws_demos/debug/_ext/684768522/arc4.o
 .debug_line    0x00000000       0x1d build/aws_demos/debug/_ext/684768522/arc4.o
 .debug_str     0x00000000        0x0 build/aws_demos/debug/_ext/684768522/arc4.o
 .comment       0x00000000       0x3d build/aws_demos/debug/_ext/684768522/arc4.o
 .ARM.attributes
                0x00000000       0x39 build/aws_demos/debug/_ext/684768522/arc4.o
 .data          0x00000000        0x0 build/aws_demos/debug/_ext/684768522/asn1parse.o
 .bss           0x00000000        0x0 build/aws_demos/debug/_ext/684768522/asn1parse.o
 .data          0x00000000        0x0 build/aws_demos/debug/_ext/684768522/asn1write.o
 .bss           0x00000000        0x0 build/aws_demos/debug/_ext/684768522/asn1write.o
 .data          0x00000000        0x0 build/aws_demos/debug/_ext/684768522/base64.o
 .bss           0x00000000        0x0 build/aws_demos/debug/_ext/684768522/base64.o
 .data          0x00000000        0x0 build/aws_demos/debug/_ext/684768522/bignum.o
 .bss           0x00000000        0x0 build/aws_demos/debug/_ext/684768522/bignum.o
 .text          0x00000000        0x0 build/aws_demos/debug/_ext/684768522/blowfish.o
 .data          0x00000000        0x0 build/aws_demos/debug/_ext/684768522/blowfish.o
 .bss           0x00000000        0x0 build/aws_demos/debug/_ext/684768522/blowfish.o
 .debug_info    0x00000000      0x211 build/aws_demos/debug/_ext/684768522/blowfish.o
 .debug_abbrev  0x00000000       0x1b build/aws_demos/debug/_ext/684768522/blowfish.o
 .debug_aranges
                0x00000000       0x18 build/aws_demos/debug/_ext/684768522/blowfish.o
 .debug_line    0x00000000       0x1d build/aws_demos/debug/_ext/684768522/blowfish.o
 .debug_str     0x00000000        0x0 build/aws_demos/debug/_ext/684768522/blowfish.o
 .comment       0x00000000       0x3d build/aws_demos/debug/_ext/684768522/blowfish.o
 .ARM.attributes
                0x00000000       0x39 build/aws_demos/debug/_ext/684768522/blowfish.o
 .text          0x00000000        0x0 build/aws_demos/debug/_ext/684768522/camellia.o
 .data          0x00000000        0x0 build/aws_demos/debug/_ext/684768522/camellia.o
 .bss           0x00000000        0x0 build/aws_demos/debug/_ext/684768522/camellia.o
 .debug_info    0x00000000      0x211 build/aws_demos/debug/_ext/684768522/camellia.o
 .debug_abbrev  0x00000000       0x1b build/aws_demos/debug/_ext/684768522/camellia.o
 .debug_aranges
                0x00000000       0x18 build/aws_demos/debug/_ext/684768522/camellia.o
 .debug_line    0x00000000       0x1d build/aws_demos/debug/_ext/684768522/camellia.o
 .debug_str     0x00000000        0x0 build/aws_demos/debug/_ext/684768522/camellia.o
 .comment       0x00000000       0x3d build/aws_demos/debug/_ext/684768522/camellia.o
 .ARM.attributes
                0x00000000       0x39 build/aws_demos/debug/_ext/684768522/camellia.o
 .text          0x00000000        0x0 build/aws_demos/debug/_ext/684768522/ccm.o
 .data          0x00000000        0x0 build/aws_demos/debug/_ext/684768522/ccm.o
 .bss           0x00000000        0x0 build/aws_demos/debug/_ext/684768522/ccm.o
 .debug_info    0x00000000      0x20c build/aws_demos/debug/_ext/684768522/ccm.o
 .debug_abbrev  0x00000000       0x1b build/aws_demos/debug/_ext/684768522/ccm.o
 .debug_aranges
                0x00000000       0x18 build/aws_demos/debug/_ext/684768522/ccm.o
 .debug_line    0x00000000       0x1d build/aws_demos/debug/_ext/684768522/ccm.o
 .debug_str     0x00000000        0x0 build/aws_demos/debug/_ext/684768522/ccm.o
 .comment       0x00000000       0x3d build/aws_demos/debug/_ext/684768522/ccm.o
 .ARM.attributes
                0x00000000       0x39 build/aws_demos/debug/_ext/684768522/ccm.o
 .text          0x00000000        0x0 build/aws_demos/debug/_ext/684768522/certs.o
 .data          0x00000000        0x0 build/aws_demos/debug/_ext/684768522/certs.o
 .bss           0x00000000        0x0 build/aws_demos/debug/_ext/684768522/certs.o
 .debug_info    0x00000000      0x897 build/aws_demos/debug/_ext/684768522/certs.o
 .debug_abbrev  0x00000000       0x57 build/aws_demos/debug/_ext/684768522/certs.o
 .debug_aranges
                0x00000000       0x18 build/aws_demos/debug/_ext/684768522/certs.o
 .debug_line    0x00000000       0xb7 build/aws_demos/debug/_ext/684768522/certs.o
 .debug_str     0x00000000        0x0 build/aws_demos/debug/_ext/684768522/certs.o
 .comment       0x00000000       0x3d build/aws_demos/debug/_ext/684768522/certs.o
 .ARM.attributes
                0x00000000       0x39 build/aws_demos/debug/_ext/684768522/certs.o
 .text          0x00000000      0x984 build/aws_demos/debug/_ext/684768522/cipher.o
 .data          0x00000000        0x0 build/aws_demos/debug/_ext/684768522/cipher.o
 .bss           0x00000000        0x4 build/aws_demos/debug/_ext/684768522/cipher.o
 .debug_info    0x00000000     0x33b8 build/aws_demos/debug/_ext/684768522/cipher.o
 .debug_abbrev  0x00000000      0x57f build/aws_demos/debug/_ext/684768522/cipher.o
 .debug_loc     0x00000000     0x1e63 build/aws_demos/debug/_ext/684768522/cipher.o
 .debug_aranges
                0x00000000       0x20 build/aws_demos/debug/_ext/684768522/cipher.o
 .debug_ranges  0x00000000       0xd0 build/aws_demos/debug/_ext/684768522/cipher.o
 .debug_line    0x00000000      0x52b build/aws_demos/debug/_ext/684768522/cipher.o
 .debug_str     0x00000000      0x17a build/aws_demos/debug/_ext/684768522/cipher.o
 .comment       0x00000000       0x3d build/aws_demos/debug/_ext/684768522/cipher.o
 .debug_frame   0x00000000      0x384 build/aws_demos/debug/_ext/684768522/cipher.o
 .ARM.attributes
                0x00000000       0x39 build/aws_demos/debug/_ext/684768522/cipher.o
 .text          0x00000000       0xba build/aws_demos/debug/_ext/684768522/cipher_wrap.o
 .data          0x00000000        0x0 build/aws_demos/debug/_ext/684768522/cipher_wrap.o
 .bss           0x00000000        0x0 build/aws_demos/debug/_ext/684768522/cipher_wrap.o
 .rodata        0x00000000      0x32c build/aws_demos/debug/_ext/684768522/cipher_wrap.o
 .debug_info    0x00000000     0x2876 build/aws_demos/debug/_ext/684768522/cipher_wrap.o
 .debug_abbrev  0x00000000      0x313 build/aws_demos/debug/_ext/684768522/cipher_wrap.o
 .debug_loc     0x00000000      0x56f build/aws_demos/debug/_ext/684768522/cipher_wrap.o
 .debug_aranges
                0x00000000       0x20 build/aws_demos/debug/_ext/684768522/cipher_wrap.o
 .debug_line    0x00000000      0x281 build/aws_demos/debug/_ext/684768522/cipher_wrap.o
 .debug_str     0x00000000      0x1ab build/aws_demos/debug/_ext/684768522/cipher_wrap.o
 .comment       0x00000000       0x3d build/aws_demos/debug/_ext/684768522/cipher_wrap.o
 .debug_frame   0x00000000      0x130 build/aws_demos/debug/_ext/684768522/cipher_wrap.o
 .ARM.attributes
                0x00000000       0x39 build/aws_demos/debug/_ext/684768522/cipher_wrap.o
 COMMON         0x00000000       0x40 build/aws_demos/debug/_ext/684768522/cipher_wrap.o
 .text          0x00000000        0x0 build/aws_demos/debug/_ext/684768522/cmac.o
 .data          0x00000000        0x0 build/aws_demos/debug/_ext/684768522/cmac.o
 .bss           0x00000000        0x0 build/aws_demos/debug/_ext/684768522/cmac.o
 .debug_info    0x00000000      0x20d build/aws_demos/debug/_ext/684768522/cmac.o
 .debug_abbrev  0x00000000       0x1b build/aws_demos/debug/_ext/684768522/cmac.o
 .debug_aranges
                0x00000000       0x18 build/aws_demos/debug/_ext/684768522/cmac.o
 .debug_line    0x00000000       0x1d build/aws_demos/debug/_ext/684768522/cmac.o
 .debug_str     0x00000000        0x0 build/aws_demos/debug/_ext/684768522/cmac.o
 .comment       0x00000000       0x3d build/aws_demos/debug/_ext/684768522/cmac.o
 .ARM.attributes
                0x00000000       0x39 build/aws_demos/debug/_ext/684768522/cmac.o
 .text          0x00000000      0x74c build/aws_demos/debug/_ext/684768522/ctr_drbg.o
 .data          0x00000000        0x0 build/aws_demos/debug/_ext/684768522/ctr_drbg.o
 .bss           0x00000000        0x4 build/aws_demos/debug/_ext/684768522/ctr_drbg.o
 .rodata        0x00000000      0x128 build/aws_demos/debug/_ext/684768522/ctr_drbg.o
 .debug_info    0x00000000     0x253e build/aws_demos/debug/_ext/684768522/ctr_drbg.o
 .debug_abbrev  0x00000000      0x3cc build/aws_demos/debug/_ext/684768522/ctr_drbg.o
 .debug_loc     0x00000000      0xf88 build/aws_demos/debug/_ext/684768522/ctr_drbg.o
 .debug_aranges
                0x00000000       0x20 build/aws_demos/debug/_ext/684768522/ctr_drbg.o
 .debug_ranges  0x00000000       0x18 build/aws_demos/debug/_ext/684768522/ctr_drbg.o
 .debug_line    0x00000000      0x45c build/aws_demos/debug/_ext/684768522/ctr_drbg.o
 .debug_str     0x00000000       0xea build/aws_demos/debug/_ext/684768522/ctr_drbg.o
 .comment       0x00000000       0x3d build/aws_demos/debug/_ext/684768522/ctr_drbg.o
 .debug_frame   0x00000000      0x1fc build/aws_demos/debug/_ext/684768522/ctr_drbg.o
 .ARM.attributes
                0x00000000       0x39 build/aws_demos/debug/_ext/684768522/ctr_drbg.o
 .text          0x00000000        0x0 build/aws_demos/debug/_ext/684768522/debug.o
 .data          0x00000000        0x0 build/aws_demos/debug/_ext/684768522/debug.o
 .bss           0x00000000        0x0 build/aws_demos/debug/_ext/684768522/debug.o
 .debug_info    0x00000000      0x20e build/aws_demos/debug/_ext/684768522/debug.o
 .debug_abbrev  0x00000000       0x1b build/aws_demos/debug/_ext/684768522/debug.o
 .debug_aranges
                0x00000000       0x18 build/aws_demos/debug/_ext/684768522/debug.o
 .debug_line    0x00000000       0x1d build/aws_demos/debug/_ext/684768522/debug.o
 .debug_str     0x00000000        0x0 build/aws_demos/debug/_ext/684768522/debug.o
 .comment       0x00000000       0x3d build/aws_demos/debug/_ext/684768522/debug.o
 .ARM.attributes
                0x00000000       0x39 build/aws_demos/debug/_ext/684768522/debug.o
 .text          0x00000000        0x0 build/aws_demos/debug/_ext/684768522/des.o
 .data          0x00000000        0x0 build/aws_demos/debug/_ext/684768522/des.o
 .bss           0x00000000        0x0 build/aws_demos/debug/_ext/684768522/des.o
 .debug_info    0x00000000      0x20c build/aws_demos/debug/_ext/684768522/des.o
 .debug_abbrev  0x00000000       0x1b build/aws_demos/debug/_ext/684768522/des.o
 .debug_aranges
                0x00000000       0x18 build/aws_demos/debug/_ext/684768522/des.o
 .debug_line    0x00000000       0x1d build/aws_demos/debug/_ext/684768522/des.o
 .debug_str     0x00000000        0x0 build/aws_demos/debug/_ext/684768522/des.o
 .comment       0x00000000       0x3d build/aws_demos/debug/_ext/684768522/des.o
 .ARM.attributes
                0x00000000       0x39 build/aws_demos/debug/_ext/684768522/des.o
 .text          0x00000000        0x0 build/aws_demos/debug/_ext/684768522/dhm.o
 .data          0x00000000        0x0 build/aws_demos/debug/_ext/684768522/dhm.o
 .bss           0x00000000        0x0 build/aws_demos/debug/_ext/684768522/dhm.o
 .debug_info    0x00000000      0x20c build/aws_demos/debug/_ext/684768522/dhm.o
 .debug_abbrev  0x00000000       0x1b build/aws_demos/debug/_ext/684768522/dhm.o
 .debug_aranges
                0x00000000       0x18 build/aws_demos/debug/_ext/684768522/dhm.o
 .debug_line    0x00000000       0x1d build/aws_demos/debug/_ext/684768522/dhm.o
 .debug_str     0x00000000        0x0 build/aws_demos/debug/_ext/684768522/dhm.o
 .comment       0x00000000       0x3d build/aws_demos/debug/_ext/684768522/dhm.o
 .ARM.attributes
                0x00000000       0x39 build/aws_demos/debug/_ext/684768522/dhm.o
 .text          0x00000000      0x34c build/aws_demos/debug/_ext/684768522/ecdh.o
 .data          0x00000000        0x0 build/aws_demos/debug/_ext/684768522/ecdh.o
 .bss           0x00000000        0x0 build/aws_demos/debug/_ext/684768522/ecdh.o
 .debug_info    0x00000000     0x260b build/aws_demos/debug/_ext/684768522/ecdh.o
 .debug_abbrev  0x00000000      0x41c build/aws_demos/debug/_ext/684768522/ecdh.o
 .debug_loc     0x00000000     0x138f build/aws_demos/debug/_ext/684768522/ecdh.o
 .debug_aranges
                0x00000000       0x20 build/aws_demos/debug/_ext/684768522/ecdh.o
 .debug_ranges  0x00000000       0xc8 build/aws_demos/debug/_ext/684768522/ecdh.o
 .debug_line    0x00000000      0x2b0 build/aws_demos/debug/_ext/684768522/ecdh.o
 .debug_str     0x00000000      0x23b build/aws_demos/debug/_ext/684768522/ecdh.o
 .comment       0x00000000       0x3d build/aws_demos/debug/_ext/684768522/ecdh.o
 .debug_frame   0x00000000      0x190 build/aws_demos/debug/_ext/684768522/ecdh.o
 .ARM.attributes
                0x00000000       0x39 build/aws_demos/debug/_ext/684768522/ecdh.o
 .data          0x00000000        0x0 build/aws_demos/debug/_ext/684768522/ecdsa.o
 .bss           0x00000000        0x0 build/aws_demos/debug/_ext/684768522/ecdsa.o
 .text          0x00000000        0x0 build/aws_demos/debug/_ext/684768522/ecjpake.o
 .data          0x00000000        0x0 build/aws_demos/debug/_ext/684768522/ecjpake.o
 .bss           0x00000000        0x0 build/aws_demos/debug/_ext/684768522/ecjpake.o
 .debug_info    0x00000000      0x210 build/aws_demos/debug/_ext/684768522/ecjpake.o
 .debug_abbrev  0x00000000       0x1b build/aws_demos/debug/_ext/684768522/ecjpake.o
 .debug_aranges
                0x00000000       0x18 build/aws_demos/debug/_ext/684768522/ecjpake.o
 .debug_line    0x00000000       0x1d build/aws_demos/debug/_ext/684768522/ecjpake.o
 .debug_str     0x00000000        0x0 build/aws_demos/debug/_ext/684768522/ecjpake.o
 .comment       0x00000000       0x3d build/aws_demos/debug/_ext/684768522/ecjpake.o
 .ARM.attributes
                0x00000000       0x39 build/aws_demos/debug/_ext/684768522/ecjpake.o
 .data          0x00000000        0x0 build/aws_demos/debug/_ext/684768522/ecp.o
 .bss           0x00000000        0x0 build/aws_demos/debug/_ext/684768522/ecp_curves.o
 .text          0x00000000      0x5d0 build/aws_demos/debug/_ext/684768522/entropy.o
 .data          0x00000000        0x0 build/aws_demos/debug/_ext/684768522/entropy.o
 .bss           0x00000000        0x0 build/aws_demos/debug/_ext/684768522/entropy.o
 .rodata        0x00000000       0x3c build/aws_demos/debug/_ext/684768522/entropy.o
 .debug_info    0x00000000     0x2074 build/aws_demos/debug/_ext/684768522/entropy.o
 .debug_abbrev  0x00000000      0x3a6 build/aws_demos/debug/_ext/684768522/entropy.o
 .debug_loc     0x00000000      0xf63 build/aws_demos/debug/_ext/684768522/entropy.o
 .debug_aranges
                0x00000000       0x20 build/aws_demos/debug/_ext/684768522/entropy.o
 .debug_line    0x00000000      0x435 build/aws_demos/debug/_ext/684768522/entropy.o
 .debug_str     0x00000000      0x13d build/aws_demos/debug/_ext/684768522/entropy.o
 .comment       0x00000000       0x3d build/aws_demos/debug/_ext/684768522/entropy.o
 .debug_frame   0x00000000      0x1c4 build/aws_demos/debug/_ext/684768522/entropy.o
 .ARM.attributes
                0x00000000       0x39 build/aws_demos/debug/_ext/684768522/entropy.o
 .text          0x00000000        0x0 build/aws_demos/debug/_ext/684768522/entropy_poll.o
 .data          0x00000000        0x0 build/aws_demos/debug/_ext/684768522/entropy_poll.o
 .bss           0x00000000        0x0 build/aws_demos/debug/_ext/684768522/entropy_poll.o
 .debug_info    0x00000000      0xf38 build/aws_demos/debug/_ext/684768522/entropy_poll.o
 .debug_abbrev  0x00000000      0x171 build/aws_demos/debug/_ext/684768522/entropy_poll.o
 .debug_aranges
                0x00000000       0x18 build/aws_demos/debug/_ext/684768522/entropy_poll.o
 .debug_line    0x00000000      0x1e8 build/aws_demos/debug/_ext/684768522/entropy_poll.o
 .debug_str     0x00000000        0xe build/aws_demos/debug/_ext/684768522/entropy_poll.o
 .comment       0x00000000       0x3d build/aws_demos/debug/_ext/684768522/entropy_poll.o
 .ARM.attributes
                0x00000000       0x39 build/aws_demos/debug/_ext/684768522/entropy_poll.o
 .text          0x00000000        0x0 build/aws_demos/debug/_ext/684768522/error.o
 .data          0x00000000        0x0 build/aws_demos/debug/_ext/684768522/error.o
 .bss           0x00000000        0x0 build/aws_demos/debug/_ext/684768522/error.o
 .debug_info    0x00000000      0xe45 build/aws_demos/debug/_ext/684768522/error.o
 .debug_abbrev  0x00000000      0x171 build/aws_demos/debug/_ext/684768522/error.o
 .debug_aranges
                0x00000000       0x18 build/aws_demos/debug/_ext/684768522/error.o
 .debug_line    0x00000000      0x111 build/aws_demos/debug/_ext/684768522/error.o
 .debug_str     0x00000000        0xe build/aws_demos/debug/_ext/684768522/error.o
 .comment       0x00000000       0x3d build/aws_demos/debug/_ext/684768522/error.o
 .ARM.attributes
                0x00000000       0x39 build/aws_demos/debug/_ext/684768522/error.o
 .text          0x00000000      0xc90 build/aws_demos/debug/_ext/684768522/gcm.o
 .data          0x00000000        0x0 build/aws_demos/debug/_ext/684768522/gcm.o
 .bss           0x00000000        0x0 build/aws_demos/debug/_ext/684768522/gcm.o
 .rodata        0x00000000      0xc64 build/aws_demos/debug/_ext/684768522/gcm.o
 .debug_info    0x00000000     0x31b2 build/aws_demos/debug/_ext/684768522/gcm.o
 .debug_abbrev  0x00000000      0x438 build/aws_demos/debug/_ext/684768522/gcm.o
 .debug_loc     0x00000000     0x1712 build/aws_demos/debug/_ext/684768522/gcm.o
 .debug_aranges
                0x00000000       0x20 build/aws_demos/debug/_ext/684768522/gcm.o
 .debug_ranges  0x00000000       0x50 build/aws_demos/debug/_ext/684768522/gcm.o
 .debug_line    0x00000000      0x3e1 build/aws_demos/debug/_ext/684768522/gcm.o
 .debug_str     0x00000000      0x15b build/aws_demos/debug/_ext/684768522/gcm.o
 .comment       0x00000000       0x3d build/aws_demos/debug/_ext/684768522/gcm.o
 .debug_frame   0x00000000      0x1a8 build/aws_demos/debug/_ext/684768522/gcm.o
 .ARM.attributes
                0x00000000       0x39 build/aws_demos/debug/_ext/684768522/gcm.o
 .text          0x00000000        0x0 build/aws_demos/debug/_ext/684768522/havege.o
 .data          0x00000000        0x0 build/aws_demos/debug/_ext/684768522/havege.o
 .bss           0x00000000        0x0 build/aws_demos/debug/_ext/684768522/havege.o
 .debug_info    0x00000000      0x20f build/aws_demos/debug/_ext/684768522/havege.o
 .debug_abbrev  0x00000000       0x1b build/aws_demos/debug/_ext/684768522/havege.o
 .debug_aranges
                0x00000000       0x18 build/aws_demos/debug/_ext/684768522/havege.o
 .debug_line    0x00000000       0x1d build/aws_demos/debug/_ext/684768522/havege.o
 .debug_str     0x00000000        0x0 build/aws_demos/debug/_ext/684768522/havege.o
 .comment       0x00000000       0x3d build/aws_demos/debug/_ext/684768522/havege.o
 .ARM.attributes
                0x00000000       0x39 build/aws_demos/debug/_ext/684768522/havege.o
 .text          0x00000000        0x0 build/aws_demos/debug/_ext/684768522/hmac_drbg.o
 .data          0x00000000        0x0 build/aws_demos/debug/_ext/684768522/hmac_drbg.o
 .bss           0x00000000        0x0 build/aws_demos/debug/_ext/684768522/hmac_drbg.o
 .debug_info    0x00000000      0x212 build/aws_demos/debug/_ext/684768522/hmac_drbg.o
 .debug_abbrev  0x00000000       0x1b build/aws_demos/debug/_ext/684768522/hmac_drbg.o
 .debug_aranges
                0x00000000       0x18 build/aws_demos/debug/_ext/684768522/hmac_drbg.o
 .debug_line    0x00000000       0x1d build/aws_demos/debug/_ext/684768522/hmac_drbg.o
 .debug_str     0x00000000        0x0 build/aws_demos/debug/_ext/684768522/hmac_drbg.o
 .comment       0x00000000       0x3d build/aws_demos/debug/_ext/684768522/hmac_drbg.o
 .ARM.attributes
                0x00000000       0x39 build/aws_demos/debug/_ext/684768522/hmac_drbg.o
 .data          0x00000000        0x0 build/aws_demos/debug/_ext/684768522/md.o
 .bss           0x00000000        0x0 build/aws_demos/debug/_ext/684768522/md.o
 .text          0x00000000        0x0 build/aws_demos/debug/_ext/684768522/md2.o
 .data          0x00000000        0x0 build/aws_demos/debug/_ext/684768522/md2.o
 .bss           0x00000000        0x0 build/aws_demos/debug/_ext/684768522/md2.o
 .debug_info    0x00000000      0x20c build/aws_demos/debug/_ext/684768522/md2.o
 .debug_abbrev  0x00000000       0x1b build/aws_demos/debug/_ext/684768522/md2.o
 .debug_aranges
                0x00000000       0x18 build/aws_demos/debug/_ext/684768522/md2.o
 .debug_line    0x00000000       0x1d build/aws_demos/debug/_ext/684768522/md2.o
 .debug_str     0x00000000        0x0 build/aws_demos/debug/_ext/684768522/md2.o
 .comment       0x00000000       0x3d build/aws_demos/debug/_ext/684768522/md2.o
 .ARM.attributes
                0x00000000       0x39 build/aws_demos/debug/_ext/684768522/md2.o
 .text          0x00000000        0x0 build/aws_demos/debug/_ext/684768522/md4.o
 .data          0x00000000        0x0 build/aws_demos/debug/_ext/684768522/md4.o
 .bss           0x00000000        0x0 build/aws_demos/debug/_ext/684768522/md4.o
 .debug_info    0x00000000      0x20c build/aws_demos/debug/_ext/684768522/md4.o
 .debug_abbrev  0x00000000       0x1b build/aws_demos/debug/_ext/684768522/md4.o
 .debug_aranges
                0x00000000       0x18 build/aws_demos/debug/_ext/684768522/md4.o
 .debug_line    0x00000000       0x1d build/aws_demos/debug/_ext/684768522/md4.o
 .debug_str     0x00000000        0x0 build/aws_demos/debug/_ext/684768522/md4.o
 .comment       0x00000000       0x3d build/aws_demos/debug/_ext/684768522/md4.o
 .ARM.attributes
                0x00000000       0x39 build/aws_demos/debug/_ext/684768522/md4.o
 .text          0x00000000        0x0 build/aws_demos/debug/_ext/684768522/md5.o
 .data          0x00000000        0x0 build/aws_demos/debug/_ext/684768522/md5.o
 .bss           0x00000000        0x0 build/aws_demos/debug/_ext/684768522/md5.o
 .debug_info    0x00000000      0x20c build/aws_demos/debug/_ext/684768522/md5.o
 .debug_abbrev  0x00000000       0x1b build/aws_demos/debug/_ext/684768522/md5.o
 .debug_aranges
                0x00000000       0x18 build/aws_demos/debug/_ext/684768522/md5.o
 .debug_line    0x00000000       0x1d build/aws_demos/debug/_ext/684768522/md5.o
 .debug_str     0x00000000        0x0 build/aws_demos/debug/_ext/684768522/md5.o
 .comment       0x00000000       0x3d build/aws_demos/debug/_ext/684768522/md5.o
 .ARM.attributes
                0x00000000       0x39 build/aws_demos/debug/_ext/684768522/md5.o
 .data          0x00000000        0x0 build/aws_demos/debug/_ext/684768522/md_wrap.o
 .bss           0x00000000        0x0 build/aws_demos/debug/_ext/684768522/md_wrap.o
 .text          0x00000000        0x0 build/aws_demos/debug/_ext/684768522/memory_buffer_alloc.o
 .data          0x00000000        0x0 build/aws_demos/debug/_ext/684768522/memory_buffer_alloc.o
 .bss           0x00000000        0x0 build/aws_demos/debug/_ext/684768522/memory_buffer_alloc.o
 .debug_info    0x00000000      0x21c build/aws_demos/debug/_ext/684768522/memory_buffer_alloc.o
 .debug_abbrev  0x00000000       0x1b build/aws_demos/debug/_ext/684768522/memory_buffer_alloc.o
 .debug_aranges
                0x00000000       0x18 build/aws_demos/debug/_ext/684768522/memory_buffer_alloc.o
 .debug_line    0x00000000       0x1d build/aws_demos/debug/_ext/684768522/memory_buffer_alloc.o
 .debug_str     0x00000000        0x0 build/aws_demos/debug/_ext/684768522/memory_buffer_alloc.o
 .comment       0x00000000       0x3d build/aws_demos/debug/_ext/684768522/memory_buffer_alloc.o
 .ARM.attributes
                0x00000000       0x39 build/aws_demos/debug/_ext/684768522/memory_buffer_alloc.o
 .text          0x00000000        0x0 build/aws_demos/debug/_ext/684768522/net_sockets.o
 .data          0x00000000        0x0 build/aws_demos/debug/_ext/684768522/net_sockets.o
 .bss           0x00000000        0x0 build/aws_demos/debug/_ext/684768522/net_sockets.o
 .debug_info    0x00000000      0x214 build/aws_demos/debug/_ext/684768522/net_sockets.o
 .debug_abbrev  0x00000000       0x1b build/aws_demos/debug/_ext/684768522/net_sockets.o
 .debug_aranges
                0x00000000       0x18 build/aws_demos/debug/_ext/684768522/net_sockets.o
 .debug_line    0x00000000       0x1d build/aws_demos/debug/_ext/684768522/net_sockets.o
 .debug_str     0x00000000        0x0 build/aws_demos/debug/_ext/684768522/net_sockets.o
 .comment       0x00000000       0x3d build/aws_demos/debug/_ext/684768522/net_sockets.o
 .ARM.attributes
                0x00000000       0x39 build/aws_demos/debug/_ext/684768522/net_sockets.o
 .data          0x00000000        0x0 build/aws_demos/debug/_ext/684768522/oid.o
 .bss           0x00000000        0x0 build/aws_demos/debug/_ext/684768522/oid.o
 .text          0x00000000        0x0 build/aws_demos/debug/_ext/684768522/padlock.o
 .data          0x00000000        0x0 build/aws_demos/debug/_ext/684768522/padlock.o
 .bss           0x00000000        0x0 build/aws_demos/debug/_ext/684768522/padlock.o
 .debug_info    0x00000000      0x210 build/aws_demos/debug/_ext/684768522/padlock.o
 .debug_abbrev  0x00000000       0x1b build/aws_demos/debug/_ext/684768522/padlock.o
 .debug_aranges
                0x00000000       0x18 build/aws_demos/debug/_ext/684768522/padlock.o
 .debug_line    0x00000000       0x1d build/aws_demos/debug/_ext/684768522/padlock.o
 .debug_str     0x00000000        0x0 build/aws_demos/debug/_ext/684768522/padlock.o
 .comment       0x00000000       0x3d build/aws_demos/debug/_ext/684768522/padlock.o
 .ARM.attributes
                0x00000000       0x39 build/aws_demos/debug/_ext/684768522/padlock.o
 .data          0x00000000        0x0 build/aws_demos/debug/_ext/684768522/pem.o
 .bss           0x00000000        0x0 build/aws_demos/debug/_ext/684768522/pem.o
 .data          0x00000000        0x0 build/aws_demos/debug/_ext/684768522/pk.o
 .bss           0x00000000        0x0 build/aws_demos/debug/_ext/684768522/pk.o
 .text          0x00000000        0x0 build/aws_demos/debug/_ext/684768522/pkcs12.o
 .data          0x00000000        0x0 build/aws_demos/debug/_ext/684768522/pkcs12.o
 .bss           0x00000000        0x0 build/aws_demos/debug/_ext/684768522/pkcs12.o
 .debug_info    0x00000000      0x20f build/aws_demos/debug/_ext/684768522/pkcs12.o
 .debug_abbrev  0x00000000       0x1b build/aws_demos/debug/_ext/684768522/pkcs12.o
 .debug_aranges
                0x00000000       0x18 build/aws_demos/debug/_ext/684768522/pkcs12.o
 .debug_line    0x00000000       0x1d build/aws_demos/debug/_ext/684768522/pkcs12.o
 .debug_str     0x00000000        0x0 build/aws_demos/debug/_ext/684768522/pkcs12.o
 .comment       0x00000000       0x3d build/aws_demos/debug/_ext/684768522/pkcs12.o
 .ARM.attributes
                0x00000000       0x39 build/aws_demos/debug/_ext/684768522/pkcs12.o
 .text          0x00000000        0x0 build/aws_demos/debug/_ext/684768522/pkcs5.o
 .data          0x00000000        0x0 build/aws_demos/debug/_ext/684768522/pkcs5.o
 .bss           0x00000000        0x0 build/aws_demos/debug/_ext/684768522/pkcs5.o
 .debug_info    0x00000000      0x20e build/aws_demos/debug/_ext/684768522/pkcs5.o
 .debug_abbrev  0x00000000       0x1b build/aws_demos/debug/_ext/684768522/pkcs5.o
 .debug_aranges
                0x00000000       0x18 build/aws_demos/debug/_ext/684768522/pkcs5.o
 .debug_line    0x00000000       0x1d build/aws_demos/debug/_ext/684768522/pkcs5.o
 .debug_str     0x00000000        0x0 build/aws_demos/debug/_ext/684768522/pkcs5.o
 .comment       0x00000000       0x3d build/aws_demos/debug/_ext/684768522/pkcs5.o
 .ARM.attributes
                0x00000000       0x39 build/aws_demos/debug/_ext/684768522/pkcs5.o
 .data          0x00000000        0x0 build/aws_demos/debug/_ext/684768522/pkparse.o
 .bss           0x00000000        0x0 build/aws_demos/debug/_ext/684768522/pkparse.o
 .text          0x00000000      0x524 build/aws_demos/debug/_ext/684768522/pkwrite.o
 .data          0x00000000        0x0 build/aws_demos/debug/_ext/684768522/pkwrite.o
 .bss           0x00000000        0x0 build/aws_demos/debug/_ext/684768522/pkwrite.o
 .debug_info    0x00000000     0x223a build/aws_demos/debug/_ext/684768522/pkwrite.o
 .debug_abbrev  0x00000000      0x358 build/aws_demos/debug/_ext/684768522/pkwrite.o
 .debug_loc     0x00000000      0xe8e build/aws_demos/debug/_ext/684768522/pkwrite.o
 .debug_aranges
                0x00000000       0x20 build/aws_demos/debug/_ext/684768522/pkwrite.o
 .debug_ranges  0x00000000       0x58 build/aws_demos/debug/_ext/684768522/pkwrite.o
 .debug_line    0x00000000      0x3b7 build/aws_demos/debug/_ext/684768522/pkwrite.o
 .debug_str     0x00000000      0x1f5 build/aws_demos/debug/_ext/684768522/pkwrite.o
 .comment       0x00000000       0x3d build/aws_demos/debug/_ext/684768522/pkwrite.o
 .debug_frame   0x00000000       0xd8 build/aws_demos/debug/_ext/684768522/pkwrite.o
 .ARM.attributes
                0x00000000       0x39 build/aws_demos/debug/_ext/684768522/pkwrite.o
 .data          0x00000000        0x0 build/aws_demos/debug/_ext/684768522/pk_wrap.o
 .bss           0x00000000        0x0 build/aws_demos/debug/_ext/684768522/pk_wrap.o
 .bss           0x00000000        0x0 build/aws_demos/debug/_ext/684768522/platform.o
 .bss           0x00000000        0x0 build/aws_demos/debug/_ext/684768522/platform_util.o
 .text          0x00000000        0x0 build/aws_demos/debug/_ext/684768522/ripemd160.o
 .data          0x00000000        0x0 build/aws_demos/debug/_ext/684768522/ripemd160.o
 .bss           0x00000000        0x0 build/aws_demos/debug/_ext/684768522/ripemd160.o
 .debug_info    0x00000000      0x212 build/aws_demos/debug/_ext/684768522/ripemd160.o
 .debug_abbrev  0x00000000       0x1b build/aws_demos/debug/_ext/684768522/ripemd160.o
 .debug_aranges
                0x00000000       0x18 build/aws_demos/debug/_ext/684768522/ripemd160.o
 .debug_line    0x00000000       0x1d build/aws_demos/debug/_ext/684768522/ripemd160.o
 .debug_str     0x00000000        0x0 build/aws_demos/debug/_ext/684768522/ripemd160.o
 .comment       0x00000000       0x3d build/aws_demos/debug/_ext/684768522/ripemd160.o
 .ARM.attributes
                0x00000000       0x39 build/aws_demos/debug/_ext/684768522/ripemd160.o
 .data          0x00000000        0x0 build/aws_demos/debug/_ext/684768522/rsa.o
 .bss           0x00000000        0x0 build/aws_demos/debug/_ext/684768522/rsa.o
 .data          0x00000000        0x0 build/aws_demos/debug/_ext/684768522/rsa_internal.o
 .bss           0x00000000        0x0 build/aws_demos/debug/_ext/684768522/rsa_internal.o
 .data          0x00000000        0x0 build/aws_demos/debug/_ext/684768522/sha1.o
 .bss           0x00000000        0x0 build/aws_demos/debug/_ext/684768522/sha1.o
 .data          0x00000000        0x0 build/aws_demos/debug/_ext/684768522/sha256.o
 .bss           0x00000000        0x0 build/aws_demos/debug/_ext/684768522/sha256.o
 .text          0x00000000        0x0 build/aws_demos/debug/_ext/684768522/sha512.o
 .data          0x00000000        0x0 build/aws_demos/debug/_ext/684768522/sha512.o
 .bss           0x00000000        0x0 build/aws_demos/debug/_ext/684768522/sha512.o
 .debug_info    0x00000000      0x20f build/aws_demos/debug/_ext/684768522/sha512.o
 .debug_abbrev  0x00000000       0x1b build/aws_demos/debug/_ext/684768522/sha512.o
 .debug_aranges
                0x00000000       0x18 build/aws_demos/debug/_ext/684768522/sha512.o
 .debug_line    0x00000000       0x1d build/aws_demos/debug/_ext/684768522/sha512.o
 .debug_str     0x00000000        0x0 build/aws_demos/debug/_ext/684768522/sha512.o
 .comment       0x00000000       0x3d build/aws_demos/debug/_ext/684768522/sha512.o
 .ARM.attributes
                0x00000000       0x39 build/aws_demos/debug/_ext/684768522/sha512.o
 .text          0x00000000        0x0 build/aws_demos/debug/_ext/684768522/ssl_cache.o
 .data          0x00000000        0x0 build/aws_demos/debug/_ext/684768522/ssl_cache.o
 .bss           0x00000000        0x0 build/aws_demos/debug/_ext/684768522/ssl_cache.o
 .debug_info    0x00000000      0x212 build/aws_demos/debug/_ext/684768522/ssl_cache.o
 .debug_abbrev  0x00000000       0x1b build/aws_demos/debug/_ext/684768522/ssl_cache.o
 .debug_aranges
                0x00000000       0x18 build/aws_demos/debug/_ext/684768522/ssl_cache.o
 .debug_line    0x00000000       0x1d build/aws_demos/debug/_ext/684768522/ssl_cache.o
 .debug_str     0x00000000        0x0 build/aws_demos/debug/_ext/684768522/ssl_cache.o
 .comment       0x00000000       0x3d build/aws_demos/debug/_ext/684768522/ssl_cache.o
 .ARM.attributes
                0x00000000       0x39 build/aws_demos/debug/_ext/684768522/ssl_cache.o
 .text          0x00000000      0x11c build/aws_demos/debug/_ext/684768522/ssl_ciphersuites.o
 .data          0x00000000        0x0 build/aws_demos/debug/_ext/684768522/ssl_ciphersuites.o
 .bss           0x00000000       0x28 build/aws_demos/debug/_ext/684768522/ssl_ciphersuites.o
 .rodata        0x00000000      0x5a4 build/aws_demos/debug/_ext/684768522/ssl_ciphersuites.o
 .debug_info    0x00000000     0x21f4 build/aws_demos/debug/_ext/684768522/ssl_ciphersuites.o
 .debug_abbrev  0x00000000      0x289 build/aws_demos/debug/_ext/684768522/ssl_ciphersuites.o
 .debug_loc     0x00000000      0x366 build/aws_demos/debug/_ext/684768522/ssl_ciphersuites.o
 .debug_aranges
                0x00000000       0x20 build/aws_demos/debug/_ext/684768522/ssl_ciphersuites.o
 .debug_line    0x00000000      0x346 build/aws_demos/debug/_ext/684768522/ssl_ciphersuites.o
 .debug_str     0x00000000       0x52 build/aws_demos/debug/_ext/684768522/ssl_ciphersuites.o
 .comment       0x00000000       0x3d build/aws_demos/debug/_ext/684768522/ssl_ciphersuites.o
 .debug_frame   0x00000000       0xbc build/aws_demos/debug/_ext/684768522/ssl_ciphersuites.o
 .ARM.attributes
                0x00000000       0x39 build/aws_demos/debug/_ext/684768522/ssl_ciphersuites.o
 .text          0x00000000     0x108c build/aws_demos/debug/_ext/684768522/ssl_cli.o
 .data          0x00000000        0x0 build/aws_demos/debug/_ext/684768522/ssl_cli.o
 .bss           0x00000000        0x0 build/aws_demos/debug/_ext/684768522/ssl_cli.o
 .debug_info    0x00000000     0x5ee6 build/aws_demos/debug/_ext/684768522/ssl_cli.o
 .debug_abbrev  0x00000000      0x413 build/aws_demos/debug/_ext/684768522/ssl_cli.o
 .debug_loc     0x00000000     0x2a3a build/aws_demos/debug/_ext/684768522/ssl_cli.o
 .debug_aranges
                0x00000000       0x20 build/aws_demos/debug/_ext/684768522/ssl_cli.o
 .debug_ranges  0x00000000      0x2b0 build/aws_demos/debug/_ext/684768522/ssl_cli.o
 .debug_line    0x00000000      0x7e9 build/aws_demos/debug/_ext/684768522/ssl_cli.o
 .debug_str     0x00000000      0x6ce build/aws_demos/debug/_ext/684768522/ssl_cli.o
 .comment       0x00000000       0x3d build/aws_demos/debug/_ext/684768522/ssl_cli.o
 .debug_frame   0x00000000       0x40 build/aws_demos/debug/_ext/684768522/ssl_cli.o
 .ARM.attributes
                0x00000000       0x39 build/aws_demos/debug/_ext/684768522/ssl_cli.o
 .text          0x00000000        0x0 build/aws_demos/debug/_ext/684768522/ssl_cookie.o
 .data          0x00000000        0x0 build/aws_demos/debug/_ext/684768522/ssl_cookie.o
 .bss           0x00000000        0x0 build/aws_demos/debug/_ext/684768522/ssl_cookie.o
 .debug_info    0x00000000      0x213 build/aws_demos/debug/_ext/684768522/ssl_cookie.o
 .debug_abbrev  0x00000000       0x1b build/aws_demos/debug/_ext/684768522/ssl_cookie.o
 .debug_aranges
                0x00000000       0x18 build/aws_demos/debug/_ext/684768522/ssl_cookie.o
 .debug_line    0x00000000       0x1d build/aws_demos/debug/_ext/684768522/ssl_cookie.o
 .debug_str     0x00000000        0x0 build/aws_demos/debug/_ext/684768522/ssl_cookie.o
 .comment       0x00000000       0x3d build/aws_demos/debug/_ext/684768522/ssl_cookie.o
 .ARM.attributes
                0x00000000       0x39 build/aws_demos/debug/_ext/684768522/ssl_cookie.o
 .text          0x00000000        0x0 build/aws_demos/debug/_ext/684768522/ssl_srv.o
 .data          0x00000000        0x0 build/aws_demos/debug/_ext/684768522/ssl_srv.o
 .bss           0x00000000        0x0 build/aws_demos/debug/_ext/684768522/ssl_srv.o
 .debug_info    0x00000000      0x210 build/aws_demos/debug/_ext/684768522/ssl_srv.o
 .debug_abbrev  0x00000000       0x1b build/aws_demos/debug/_ext/684768522/ssl_srv.o
 .debug_aranges
                0x00000000       0x18 build/aws_demos/debug/_ext/684768522/ssl_srv.o
 .debug_line    0x00000000       0x1d build/aws_demos/debug/_ext/684768522/ssl_srv.o
 .debug_str     0x00000000        0x0 build/aws_demos/debug/_ext/684768522/ssl_srv.o
 .comment       0x00000000       0x3d build/aws_demos/debug/_ext/684768522/ssl_srv.o
 .ARM.attributes
                0x00000000       0x39 build/aws_demos/debug/_ext/684768522/ssl_srv.o
 .text          0x00000000        0x0 build/aws_demos/debug/_ext/684768522/ssl_ticket.o
 .data          0x00000000        0x0 build/aws_demos/debug/_ext/684768522/ssl_ticket.o
 .bss           0x00000000        0x0 build/aws_demos/debug/_ext/684768522/ssl_ticket.o
 .debug_info    0x00000000      0x213 build/aws_demos/debug/_ext/684768522/ssl_ticket.o
 .debug_abbrev  0x00000000       0x1b build/aws_demos/debug/_ext/684768522/ssl_ticket.o
 .debug_aranges
                0x00000000       0x18 build/aws_demos/debug/_ext/684768522/ssl_ticket.o
 .debug_line    0x00000000       0x1d build/aws_demos/debug/_ext/684768522/ssl_ticket.o
 .debug_str     0x00000000        0x0 build/aws_demos/debug/_ext/684768522/ssl_ticket.o
 .comment       0x00000000       0x3d build/aws_demos/debug/_ext/684768522/ssl_ticket.o
 .ARM.attributes
                0x00000000       0x39 build/aws_demos/debug/_ext/684768522/ssl_ticket.o
 .text          0x00000000     0x2648 build/aws_demos/debug/_ext/684768522/ssl_tls.o
 .data          0x00000000       0x28 build/aws_demos/debug/_ext/684768522/ssl_tls.o
 .bss           0x00000000        0x0 build/aws_demos/debug/_ext/684768522/ssl_tls.o
 .rodata        0x00000000       0x98 build/aws_demos/debug/_ext/684768522/ssl_tls.o
 .debug_info    0x00000000     0x95c7 build/aws_demos/debug/_ext/684768522/ssl_tls.o
 .debug_abbrev  0x00000000      0x5dc build/aws_demos/debug/_ext/684768522/ssl_tls.o
 .debug_loc     0x00000000     0x4d24 build/aws_demos/debug/_ext/684768522/ssl_tls.o
 .debug_aranges
                0x00000000       0x20 build/aws_demos/debug/_ext/684768522/ssl_tls.o
 .debug_ranges  0x00000000      0x348 build/aws_demos/debug/_ext/684768522/ssl_tls.o
 .debug_line    0x00000000      0xe3a build/aws_demos/debug/_ext/684768522/ssl_tls.o
 .debug_str     0x00000000      0x888 build/aws_demos/debug/_ext/684768522/ssl_tls.o
 .comment       0x00000000       0x3d build/aws_demos/debug/_ext/684768522/ssl_tls.o
 .debug_frame   0x00000000      0xa24 build/aws_demos/debug/_ext/684768522/ssl_tls.o
 .ARM.attributes
                0x00000000       0x39 build/aws_demos/debug/_ext/684768522/ssl_tls.o
 .bss           0x00000000        0x0 build/aws_demos/debug/_ext/684768522/threading.o
 .text          0x00000000        0x0 build/aws_demos/debug/_ext/684768522/timing.o
 .data          0x00000000        0x0 build/aws_demos/debug/_ext/684768522/timing.o
 .bss           0x00000000        0x0 build/aws_demos/debug/_ext/684768522/timing.o
 .debug_info    0x00000000      0xe46 build/aws_demos/debug/_ext/684768522/timing.o
 .debug_abbrev  0x00000000      0x171 build/aws_demos/debug/_ext/684768522/timing.o
 .debug_aranges
                0x00000000       0x18 build/aws_demos/debug/_ext/684768522/timing.o
 .debug_line    0x00000000      0x111 build/aws_demos/debug/_ext/684768522/timing.o
 .debug_str     0x00000000        0xe build/aws_demos/debug/_ext/684768522/timing.o
 .comment       0x00000000       0x3d build/aws_demos/debug/_ext/684768522/timing.o
 .ARM.attributes
                0x00000000       0x39 build/aws_demos/debug/_ext/684768522/timing.o
 .text          0x00000000       0x34 build/aws_demos/debug/_ext/684768522/version.o
 .data          0x00000000        0x0 build/aws_demos/debug/_ext/684768522/version.o
 .bss           0x00000000        0x0 build/aws_demos/debug/_ext/684768522/version.o
 .rodata        0x00000000       0x18 build/aws_demos/debug/_ext/684768522/version.o
 .debug_info    0x00000000      0xeb1 build/aws_demos/debug/_ext/684768522/version.o
 .debug_abbrev  0x00000000      0x1c1 build/aws_demos/debug/_ext/684768522/version.o
 .debug_loc     0x00000000       0x76 build/aws_demos/debug/_ext/684768522/version.o
 .debug_aranges
                0x00000000       0x20 build/aws_demos/debug/_ext/684768522/version.o
 .debug_line    0x00000000      0x120 build/aws_demos/debug/_ext/684768522/version.o
 .debug_str     0x00000000        0xe build/aws_demos/debug/_ext/684768522/version.o
 .comment       0x00000000       0x3d build/aws_demos/debug/_ext/684768522/version.o
 .debug_frame   0x00000000       0x4c build/aws_demos/debug/_ext/684768522/version.o
 .ARM.attributes
                0x00000000       0x39 build/aws_demos/debug/_ext/684768522/version.o
 .text          0x00000000       0x38 build/aws_demos/debug/_ext/684768522/version_features.o
 .data          0x00000000       0xfc build/aws_demos/debug/_ext/684768522/version_features.o
 .bss           0x00000000        0x0 build/aws_demos/debug/_ext/684768522/version_features.o
 .rodata        0x00000000      0x60c build/aws_demos/debug/_ext/684768522/version_features.o
 .debug_info    0x00000000      0xeab build/aws_demos/debug/_ext/684768522/version_features.o
 .debug_abbrev  0x00000000      0x1d6 build/aws_demos/debug/_ext/684768522/version_features.o
 .debug_loc     0x00000000       0x7e build/aws_demos/debug/_ext/684768522/version_features.o
 .debug_aranges
                0x00000000       0x20 build/aws_demos/debug/_ext/684768522/version_features.o
 .debug_line    0x00000000      0x16f build/aws_demos/debug/_ext/684768522/version_features.o
 .debug_str     0x00000000        0xe build/aws_demos/debug/_ext/684768522/version_features.o
 .comment       0x00000000       0x3d build/aws_demos/debug/_ext/684768522/version_features.o
 .debug_frame   0x00000000       0x2c build/aws_demos/debug/_ext/684768522/version_features.o
 .ARM.attributes
                0x00000000       0x39 build/aws_demos/debug/_ext/684768522/version_features.o
 .data          0x00000000        0x0 build/aws_demos/debug/_ext/684768522/x509.o
 .bss           0x00000000        0x0 build/aws_demos/debug/_ext/684768522/x509.o
 .text          0x00000000        0x0 build/aws_demos/debug/_ext/684768522/x509write_crt.o
 .data          0x00000000        0x0 build/aws_demos/debug/_ext/684768522/x509write_crt.o
 .bss           0x00000000        0x0 build/aws_demos/debug/_ext/684768522/x509write_crt.o
 .debug_info    0x00000000      0x216 build/aws_demos/debug/_ext/684768522/x509write_crt.o
 .debug_abbrev  0x00000000       0x1b build/aws_demos/debug/_ext/684768522/x509write_crt.o
 .debug_aranges
                0x00000000       0x18 build/aws_demos/debug/_ext/684768522/x509write_crt.o
 .debug_line    0x00000000       0x1d build/aws_demos/debug/_ext/684768522/x509write_crt.o
 .debug_str     0x00000000        0x0 build/aws_demos/debug/_ext/684768522/x509write_crt.o
 .comment       0x00000000       0x3d build/aws_demos/debug/_ext/684768522/x509write_crt.o
 .ARM.attributes
                0x00000000       0x39 build/aws_demos/debug/_ext/684768522/x509write_crt.o
 .text          0x00000000        0x0 build/aws_demos/debug/_ext/684768522/x509write_csr.o
 .data          0x00000000        0x0 build/aws_demos/debug/_ext/684768522/x509write_csr.o
 .bss           0x00000000        0x0 build/aws_demos/debug/_ext/684768522/x509write_csr.o
 .debug_info    0x00000000      0x216 build/aws_demos/debug/_ext/684768522/x509write_csr.o
 .debug_abbrev  0x00000000       0x1b build/aws_demos/debug/_ext/684768522/x509write_csr.o
 .debug_aranges
                0x00000000       0x18 build/aws_demos/debug/_ext/684768522/x509write_csr.o
 .debug_line    0x00000000       0x1d build/aws_demos/debug/_ext/684768522/x509write_csr.o
 .debug_str     0x00000000        0x0 build/aws_demos/debug/_ext/684768522/x509write_csr.o
 .comment       0x00000000       0x3d build/aws_demos/debug/_ext/684768522/x509write_csr.o
 .ARM.attributes
                0x00000000       0x39 build/aws_demos/debug/_ext/684768522/x509write_csr.o
 .text          0x00000000        0x0 build/aws_demos/debug/_ext/684768522/x509_create.o
 .data          0x00000000        0x0 build/aws_demos/debug/_ext/684768522/x509_create.o
 .bss           0x00000000        0x0 build/aws_demos/debug/_ext/684768522/x509_create.o
 .debug_info    0x00000000      0x214 build/aws_demos/debug/_ext/684768522/x509_create.o
 .debug_abbrev  0x00000000       0x1b build/aws_demos/debug/_ext/684768522/x509_create.o
 .debug_aranges
                0x00000000       0x18 build/aws_demos/debug/_ext/684768522/x509_create.o
 .debug_line    0x00000000       0x1d build/aws_demos/debug/_ext/684768522/x509_create.o
 .debug_str     0x00000000        0x0 build/aws_demos/debug/_ext/684768522/x509_create.o
 .comment       0x00000000       0x3d build/aws_demos/debug/_ext/684768522/x509_create.o
 .ARM.attributes
                0x00000000       0x39 build/aws_demos/debug/_ext/684768522/x509_create.o
 .text          0x00000000        0x0 build/aws_demos/debug/_ext/684768522/x509_crl.o
 .data          0x00000000        0x0 build/aws_demos/debug/_ext/684768522/x509_crl.o
 .bss           0x00000000        0x0 build/aws_demos/debug/_ext/684768522/x509_crl.o
 .debug_info    0x00000000      0x211 build/aws_demos/debug/_ext/684768522/x509_crl.o
 .debug_abbrev  0x00000000       0x1b build/aws_demos/debug/_ext/684768522/x509_crl.o
 .debug_aranges
                0x00000000       0x18 build/aws_demos/debug/_ext/684768522/x509_crl.o
 .debug_line    0x00000000       0x1d build/aws_demos/debug/_ext/684768522/x509_crl.o
 .debug_str     0x00000000        0x0 build/aws_demos/debug/_ext/684768522/x509_crl.o
 .comment       0x00000000       0x3d build/aws_demos/debug/_ext/684768522/x509_crl.o
 .ARM.attributes
                0x00000000       0x39 build/aws_demos/debug/_ext/684768522/x509_crl.o
 .data          0x00000000        0x0 build/aws_demos/debug/_ext/684768522/x509_crt.o
 .bss           0x00000000        0x0 build/aws_demos/debug/_ext/684768522/x509_crt.o
 .text          0x00000000        0x0 build/aws_demos/debug/_ext/684768522/x509_csr.o
 .data          0x00000000        0x0 build/aws_demos/debug/_ext/684768522/x509_csr.o
 .bss           0x00000000        0x0 build/aws_demos/debug/_ext/684768522/x509_csr.o
 .debug_info    0x00000000      0x211 build/aws_demos/debug/_ext/684768522/x509_csr.o
 .debug_abbrev  0x00000000       0x1b build/aws_demos/debug/_ext/684768522/x509_csr.o
 .debug_aranges
                0x00000000       0x18 build/aws_demos/debug/_ext/684768522/x509_csr.o
 .debug_line    0x00000000       0x1d build/aws_demos/debug/_ext/684768522/x509_csr.o
 .debug_str     0x00000000        0x0 build/aws_demos/debug/_ext/684768522/x509_csr.o
 .comment       0x00000000       0x3d build/aws_demos/debug/_ext/684768522/x509_csr.o
 .ARM.attributes
                0x00000000       0x39 build/aws_demos/debug/_ext/684768522/x509_csr.o
 .text          0x00000000        0x0 build/aws_demos/debug/_ext/684768522/xtea.o
 .data          0x00000000        0x0 build/aws_demos/debug/_ext/684768522/xtea.o
 .bss           0x00000000        0x0 build/aws_demos/debug/_ext/684768522/xtea.o
 .debug_info    0x00000000      0x20d build/aws_demos/debug/_ext/684768522/xtea.o
 .debug_abbrev  0x00000000       0x1b build/aws_demos/debug/_ext/684768522/xtea.o
 .debug_aranges
                0x00000000       0x18 build/aws_demos/debug/_ext/684768522/xtea.o
 .debug_line    0x00000000       0x1d build/aws_demos/debug/_ext/684768522/xtea.o
 .debug_str     0x00000000        0x0 build/aws_demos/debug/_ext/684768522/xtea.o
 .comment       0x00000000       0x3d build/aws_demos/debug/_ext/684768522/xtea.o
 .ARM.attributes
                0x00000000       0x39 build/aws_demos/debug/_ext/684768522/xtea.o
 .data          0x00000000        0x0 build/aws_demos/debug/_ext/2077790016/mbedtls_utils.o
 .bss           0x00000000        0x0 build/aws_demos/debug/_ext/2077790016/mbedtls_utils.o
 .text          0x00000000      0x624 build/aws_demos/debug/_ext/1057560203/cborencoder.o
 .data          0x00000000        0x0 build/aws_demos/debug/_ext/1057560203/cborencoder.o
 .bss           0x00000000        0x0 build/aws_demos/debug/_ext/1057560203/cborencoder.o
 .rodata        0x00000000       0xb0 build/aws_demos/debug/_ext/1057560203/cborencoder.o
 .debug_info    0x00000000     0x2dcd build/aws_demos/debug/_ext/1057560203/cborencoder.o
 .debug_abbrev  0x00000000      0x44d build/aws_demos/debug/_ext/1057560203/cborencoder.o
 .debug_loc     0x00000000     0x240d build/aws_demos/debug/_ext/1057560203/cborencoder.o
 .debug_aranges
                0x00000000       0x20 build/aws_demos/debug/_ext/1057560203/cborencoder.o
 .debug_ranges  0x00000000      0x228 build/aws_demos/debug/_ext/1057560203/cborencoder.o
 .debug_line    0x00000000      0x43e build/aws_demos/debug/_ext/1057560203/cborencoder.o
 .debug_str     0x00000000       0x72 build/aws_demos/debug/_ext/1057560203/cborencoder.o
 .comment       0x00000000       0x3d build/aws_demos/debug/_ext/1057560203/cborencoder.o
 .debug_frame   0x00000000      0x1bc build/aws_demos/debug/_ext/1057560203/cborencoder.o
 .ARM.attributes
                0x00000000       0x39 build/aws_demos/debug/_ext/1057560203/cborencoder.o
 .text          0x00000000        0x8 build/aws_demos/debug/_ext/1057560203/cborencoder_close_container_checked.o
 .data          0x00000000        0x0 build/aws_demos/debug/_ext/1057560203/cborencoder_close_container_checked.o
 .bss           0x00000000        0x0 build/aws_demos/debug/_ext/1057560203/cborencoder_close_container_checked.o
 .debug_info    0x00000000     0x134d build/aws_demos/debug/_ext/1057560203/cborencoder_close_container_checked.o
 .debug_abbrev  0x00000000      0x218 build/aws_demos/debug/_ext/1057560203/cborencoder_close_container_checked.o
 .debug_loc     0x00000000       0x62 build/aws_demos/debug/_ext/1057560203/cborencoder_close_container_checked.o
 .debug_aranges
                0x00000000       0x20 build/aws_demos/debug/_ext/1057560203/cborencoder_close_container_checked.o
 .debug_line    0x00000000      0x199 build/aws_demos/debug/_ext/1057560203/cborencoder_close_container_checked.o
 .debug_str     0x00000000       0x41 build/aws_demos/debug/_ext/1057560203/cborencoder_close_container_checked.o
 .comment       0x00000000       0x3d build/aws_demos/debug/_ext/1057560203/cborencoder_close_container_checked.o
 .debug_frame   0x00000000       0x28 build/aws_demos/debug/_ext/1057560203/cborencoder_close_container_checked.o
 .ARM.attributes
                0x00000000       0x39 build/aws_demos/debug/_ext/1057560203/cborencoder_close_container_checked.o
 .text          0x00000000      0x1f8 build/aws_demos/debug/_ext/1057560203/cborerrorstrings.o
 .data          0x00000000        0x0 build/aws_demos/debug/_ext/1057560203/cborerrorstrings.o
 .bss           0x00000000        0x0 build/aws_demos/debug/_ext/1057560203/cborerrorstrings.o
 .rodata        0x00000000      0x434 build/aws_demos/debug/_ext/1057560203/cborerrorstrings.o
 .debug_info    0x00000000     0x121b build/aws_demos/debug/_ext/1057560203/cborerrorstrings.o
 .debug_abbrev  0x00000000      0x1f5 build/aws_demos/debug/_ext/1057560203/cborerrorstrings.o
 .debug_loc     0x00000000      0x32f build/aws_demos/debug/_ext/1057560203/cborerrorstrings.o
 .debug_aranges
                0x00000000       0x20 build/aws_demos/debug/_ext/1057560203/cborerrorstrings.o
 .debug_line    0x00000000      0x188 build/aws_demos/debug/_ext/1057560203/cborerrorstrings.o
 .debug_str     0x00000000       0x18 build/aws_demos/debug/_ext/1057560203/cborerrorstrings.o
 .comment       0x00000000       0x3d build/aws_demos/debug/_ext/1057560203/cborerrorstrings.o
 .debug_frame   0x00000000       0x28 build/aws_demos/debug/_ext/1057560203/cborerrorstrings.o
 .ARM.attributes
                0x00000000       0x39 build/aws_demos/debug/_ext/1057560203/cborerrorstrings.o
 .text          0x00000000      0x9f0 build/aws_demos/debug/_ext/1057560203/cborparser.o
 .data          0x00000000        0x0 build/aws_demos/debug/_ext/1057560203/cborparser.o
 .bss           0x00000000        0x0 build/aws_demos/debug/_ext/1057560203/cborparser.o
 .rodata        0x00000000      0x464 build/aws_demos/debug/_ext/1057560203/cborparser.o
 .debug_info    0x00000000     0x3430 build/aws_demos/debug/_ext/1057560203/cborparser.o
 .debug_abbrev  0x00000000      0x4e6 build/aws_demos/debug/_ext/1057560203/cborparser.o
 .debug_loc     0x00000000     0x1a50 build/aws_demos/debug/_ext/1057560203/cborparser.o
 .debug_aranges
                0x00000000       0x20 build/aws_demos/debug/_ext/1057560203/cborparser.o
 .debug_ranges  0x00000000       0x68 build/aws_demos/debug/_ext/1057560203/cborparser.o
 .debug_line    0x00000000      0x4bc build/aws_demos/debug/_ext/1057560203/cborparser.o
 .debug_str     0x00000000       0x7e build/aws_demos/debug/_ext/1057560203/cborparser.o
 .comment       0x00000000       0x3d build/aws_demos/debug/_ext/1057560203/cborparser.o
 .debug_frame   0x00000000      0x378 build/aws_demos/debug/_ext/1057560203/cborparser.o
 .ARM.attributes
                0x00000000       0x39 build/aws_demos/debug/_ext/1057560203/cborparser.o
 .text          0x00000000       0x7c build/aws_demos/debug/_ext/1057560203/cborparser_dup_string.o
 .data          0x00000000        0x0 build/aws_demos/debug/_ext/1057560203/cborparser_dup_string.o
 .bss           0x00000000        0x0 build/aws_demos/debug/_ext/1057560203/cborparser_dup_string.o
 .rodata        0x00000000       0x74 build/aws_demos/debug/_ext/1057560203/cborparser_dup_string.o
 .debug_info    0x00000000     0x14de build/aws_demos/debug/_ext/1057560203/cborparser_dup_string.o
 .debug_abbrev  0x00000000      0x283 build/aws_demos/debug/_ext/1057560203/cborparser_dup_string.o
 .debug_loc     0x00000000      0x193 build/aws_demos/debug/_ext/1057560203/cborparser_dup_string.o
 .debug_aranges
                0x00000000       0x20 build/aws_demos/debug/_ext/1057560203/cborparser_dup_string.o
 .debug_line    0x00000000      0x1eb build/aws_demos/debug/_ext/1057560203/cborparser_dup_string.o
 .debug_str     0x00000000       0x53 build/aws_demos/debug/_ext/1057560203/cborparser_dup_string.o
 .comment       0x00000000       0x3d build/aws_demos/debug/_ext/1057560203/cborparser_dup_string.o
 .debug_frame   0x00000000       0x30 build/aws_demos/debug/_ext/1057560203/cborparser_dup_string.o
 .ARM.attributes
                0x00000000       0x39 build/aws_demos/debug/_ext/1057560203/cborparser_dup_string.o
 .text          0x00000000      0x898 build/aws_demos/debug/_ext/1057560203/cborpretty.o
 .data          0x00000000        0x0 build/aws_demos/debug/_ext/1057560203/cborpretty.o
 .bss           0x00000000        0x0 build/aws_demos/debug/_ext/1057560203/cborpretty.o
 .rodata        0x00000000      0x1dc build/aws_demos/debug/_ext/1057560203/cborpretty.o
 .debug_info    0x00000000     0x2d41 build/aws_demos/debug/_ext/1057560203/cborpretty.o
 .debug_abbrev  0x00000000      0x48c build/aws_demos/debug/_ext/1057560203/cborpretty.o
 .debug_loc     0x00000000     0x19ef build/aws_demos/debug/_ext/1057560203/cborpretty.o
 .debug_aranges
                0x00000000       0x20 build/aws_demos/debug/_ext/1057560203/cborpretty.o
 .debug_ranges  0x00000000      0x228 build/aws_demos/debug/_ext/1057560203/cborpretty.o
 .debug_line    0x00000000      0x43b build/aws_demos/debug/_ext/1057560203/cborpretty.o
 .debug_str     0x00000000      0x1fa build/aws_demos/debug/_ext/1057560203/cborpretty.o
 .comment       0x00000000       0x3d build/aws_demos/debug/_ext/1057560203/cborpretty.o
 .debug_frame   0x00000000       0x80 build/aws_demos/debug/_ext/1057560203/cborpretty.o
 .ARM.attributes
                0x00000000       0x39 build/aws_demos/debug/_ext/1057560203/cborpretty.o
 .text          0x00000000       0x4c build/aws_demos/debug/_ext/1057560203/cborpretty_stdio.o
 .data          0x00000000        0x0 build/aws_demos/debug/_ext/1057560203/cborpretty_stdio.o
 .bss           0x00000000        0x0 build/aws_demos/debug/_ext/1057560203/cborpretty_stdio.o
 .debug_info    0x00000000     0x164c build/aws_demos/debug/_ext/1057560203/cborpretty_stdio.o
 .debug_abbrev  0x00000000      0x2a1 build/aws_demos/debug/_ext/1057560203/cborpretty_stdio.o
 .debug_loc     0x00000000      0x1ac build/aws_demos/debug/_ext/1057560203/cborpretty_stdio.o
 .debug_aranges
                0x00000000       0x20 build/aws_demos/debug/_ext/1057560203/cborpretty_stdio.o
 .debug_line    0x00000000      0x1ec build/aws_demos/debug/_ext/1057560203/cborpretty_stdio.o
 .debug_str     0x00000000       0x52 build/aws_demos/debug/_ext/1057560203/cborpretty_stdio.o
 .comment       0x00000000       0x3d build/aws_demos/debug/_ext/1057560203/cborpretty_stdio.o
 .debug_frame   0x00000000       0x70 build/aws_demos/debug/_ext/1057560203/cborpretty_stdio.o
 .ARM.attributes
                0x00000000       0x39 build/aws_demos/debug/_ext/1057560203/cborpretty_stdio.o
 .text          0x00000000      0x8f8 build/aws_demos/debug/_ext/1057560203/cborvalidation.o
 .data          0x00000000        0x0 build/aws_demos/debug/_ext/1057560203/cborvalidation.o
 .bss           0x00000000        0x0 build/aws_demos/debug/_ext/1057560203/cborvalidation.o
 .rodata        0x00000000      0x2a4 build/aws_demos/debug/_ext/1057560203/cborvalidation.o
 .debug_info    0x00000000     0x2f2d build/aws_demos/debug/_ext/1057560203/cborvalidation.o
 .debug_abbrev  0x00000000      0x438 build/aws_demos/debug/_ext/1057560203/cborvalidation.o
 .debug_loc     0x00000000     0x157e build/aws_demos/debug/_ext/1057560203/cborvalidation.o
 .debug_aranges
                0x00000000       0x20 build/aws_demos/debug/_ext/1057560203/cborvalidation.o
 .debug_ranges  0x00000000      0x2e0 build/aws_demos/debug/_ext/1057560203/cborvalidation.o
 .debug_line    0x00000000      0x4d3 build/aws_demos/debug/_ext/1057560203/cborvalidation.o
 .debug_str     0x00000000      0x207 build/aws_demos/debug/_ext/1057560203/cborvalidation.o
 .comment       0x00000000       0x3d build/aws_demos/debug/_ext/1057560203/cborvalidation.o
 .debug_frame   0x00000000       0x64 build/aws_demos/debug/_ext/1057560203/cborvalidation.o
 .ARM.attributes
                0x00000000       0x39 build/aws_demos/debug/_ext/1057560203/cborvalidation.o
 .text          0x00000000      0xe58 build/aws_demos/debug/_ext/1193839791/aes_decrypt.o
 .data          0x00000000        0x0 build/aws_demos/debug/_ext/1193839791/aes_decrypt.o
 .bss           0x00000000        0x0 build/aws_demos/debug/_ext/1193839791/aes_decrypt.o
 .rodata        0x00000000      0x100 build/aws_demos/debug/_ext/1193839791/aes_decrypt.o
 .debug_info    0x00000000     0x127b build/aws_demos/debug/_ext/1193839791/aes_decrypt.o
 .debug_abbrev  0x00000000      0x16f build/aws_demos/debug/_ext/1193839791/aes_decrypt.o
 .debug_loc     0x00000000      0x4ad build/aws_demos/debug/_ext/1193839791/aes_decrypt.o
 .debug_aranges
                0x00000000       0x20 build/aws_demos/debug/_ext/1193839791/aes_decrypt.o
 .debug_line    0x00000000      0x1f4 build/aws_demos/debug/_ext/1193839791/aes_decrypt.o
 .debug_str     0x00000000       0x27 build/aws_demos/debug/_ext/1193839791/aes_decrypt.o
 .comment       0x00000000       0x3d build/aws_demos/debug/_ext/1193839791/aes_decrypt.o
 .debug_frame   0x00000000       0x64 build/aws_demos/debug/_ext/1193839791/aes_decrypt.o
 .ARM.attributes
                0x00000000       0x39 build/aws_demos/debug/_ext/1193839791/aes_decrypt.o
 .text          0x00000000      0x7a0 build/aws_demos/debug/_ext/1193839791/aes_encrypt.o
 .data          0x00000000        0x0 build/aws_demos/debug/_ext/1193839791/aes_encrypt.o
 .bss           0x00000000        0x0 build/aws_demos/debug/_ext/1193839791/aes_encrypt.o
 .rodata        0x00000000      0x12c build/aws_demos/debug/_ext/1193839791/aes_encrypt.o
 .debug_info    0x00000000      0x9b9 build/aws_demos/debug/_ext/1193839791/aes_encrypt.o
 .debug_abbrev  0x00000000      0x1a9 build/aws_demos/debug/_ext/1193839791/aes_encrypt.o
 .debug_loc     0x00000000      0x522 build/aws_demos/debug/_ext/1193839791/aes_encrypt.o
 .debug_aranges
                0x00000000       0x20 build/aws_demos/debug/_ext/1193839791/aes_encrypt.o
 .debug_ranges  0x00000000       0x18 build/aws_demos/debug/_ext/1193839791/aes_encrypt.o
 .debug_line    0x00000000      0x205 build/aws_demos/debug/_ext/1193839791/aes_encrypt.o
 .debug_str     0x00000000        0xd build/aws_demos/debug/_ext/1193839791/aes_encrypt.o
 .comment       0x00000000       0x3d build/aws_demos/debug/_ext/1193839791/aes_encrypt.o
 .debug_frame   0x00000000       0x78 build/aws_demos/debug/_ext/1193839791/aes_encrypt.o
 .ARM.attributes
                0x00000000       0x39 build/aws_demos/debug/_ext/1193839791/aes_encrypt.o
 .text          0x00000000      0x14c build/aws_demos/debug/_ext/1193839791/cbc_mode.o
 .data          0x00000000        0x0 build/aws_demos/debug/_ext/1193839791/cbc_mode.o
 .bss           0x00000000        0x0 build/aws_demos/debug/_ext/1193839791/cbc_mode.o
 .debug_info    0x00000000      0x5d0 build/aws_demos/debug/_ext/1193839791/cbc_mode.o
 .debug_abbrev  0x00000000       0xfd build/aws_demos/debug/_ext/1193839791/cbc_mode.o
 .debug_loc     0x00000000      0x58a build/aws_demos/debug/_ext/1193839791/cbc_mode.o
 .debug_aranges
                0x00000000       0x20 build/aws_demos/debug/_ext/1193839791/cbc_mode.o
 .debug_line    0x00000000      0x1b1 build/aws_demos/debug/_ext/1193839791/cbc_mode.o
 .debug_str     0x00000000       0x1e build/aws_demos/debug/_ext/1193839791/cbc_mode.o
 .comment       0x00000000       0x3d build/aws_demos/debug/_ext/1193839791/cbc_mode.o
 .debug_frame   0x00000000       0x98 build/aws_demos/debug/_ext/1193839791/cbc_mode.o
 .ARM.attributes
                0x00000000       0x39 build/aws_demos/debug/_ext/1193839791/cbc_mode.o
 .text          0x00000000      0x408 build/aws_demos/debug/_ext/1193839791/ccm_mode.o
 .data          0x00000000        0x0 build/aws_demos/debug/_ext/1193839791/ccm_mode.o
 .bss           0x00000000        0x0 build/aws_demos/debug/_ext/1193839791/ccm_mode.o
 .debug_info    0x00000000     0x1481 build/aws_demos/debug/_ext/1193839791/ccm_mode.o
 .debug_abbrev  0x00000000      0x254 build/aws_demos/debug/_ext/1193839791/ccm_mode.o
 .debug_loc     0x00000000      0xb9f build/aws_demos/debug/_ext/1193839791/ccm_mode.o
 .debug_aranges
                0x00000000       0x20 build/aws_demos/debug/_ext/1193839791/ccm_mode.o
 .debug_line    0x00000000      0x2b7 build/aws_demos/debug/_ext/1193839791/ccm_mode.o
 .debug_str     0x00000000       0x3c build/aws_demos/debug/_ext/1193839791/ccm_mode.o
 .comment       0x00000000       0x3d build/aws_demos/debug/_ext/1193839791/ccm_mode.o
 .debug_frame   0x00000000       0xf8 build/aws_demos/debug/_ext/1193839791/ccm_mode.o
 .ARM.attributes
                0x00000000       0x39 build/aws_demos/debug/_ext/1193839791/ccm_mode.o
 .text          0x00000000      0x230 build/aws_demos/debug/_ext/1193839791/cmac_mode.o
 .data          0x00000000        0x0 build/aws_demos/debug/_ext/1193839791/cmac_mode.o
 .bss           0x00000000        0x0 build/aws_demos/debug/_ext/1193839791/cmac_mode.o
 .rodata        0x00000000        0x1 build/aws_demos/debug/_ext/1193839791/cmac_mode.o
 .debug_info    0x00000000      0x8d7 build/aws_demos/debug/_ext/1193839791/cmac_mode.o
 .debug_abbrev  0x00000000      0x14b build/aws_demos/debug/_ext/1193839791/cmac_mode.o
 .debug_loc     0x00000000      0x4d3 build/aws_demos/debug/_ext/1193839791/cmac_mode.o
 .debug_aranges
                0x00000000       0x20 build/aws_demos/debug/_ext/1193839791/cmac_mode.o
 .debug_ranges  0x00000000       0x18 build/aws_demos/debug/_ext/1193839791/cmac_mode.o
 .debug_line    0x00000000      0x244 build/aws_demos/debug/_ext/1193839791/cmac_mode.o
 .debug_str     0x00000000       0x29 build/aws_demos/debug/_ext/1193839791/cmac_mode.o
 .comment       0x00000000       0x3d build/aws_demos/debug/_ext/1193839791/cmac_mode.o
 .debug_frame   0x00000000      0x104 build/aws_demos/debug/_ext/1193839791/cmac_mode.o
 .ARM.attributes
                0x00000000       0x39 build/aws_demos/debug/_ext/1193839791/cmac_mode.o
 .text          0x00000000       0xf0 build/aws_demos/debug/_ext/1193839791/ctr_mode.o
 .data          0x00000000        0x0 build/aws_demos/debug/_ext/1193839791/ctr_mode.o
 .bss           0x00000000        0x0 build/aws_demos/debug/_ext/1193839791/ctr_mode.o
 .debug_info    0x00000000      0x4a6 build/aws_demos/debug/_ext/1193839791/ctr_mode.o
 .debug_abbrev  0x00000000       0xfd build/aws_demos/debug/_ext/1193839791/ctr_mode.o
 .debug_loc     0x00000000      0x2e1 build/aws_demos/debug/_ext/1193839791/ctr_mode.o
 .debug_aranges
                0x00000000       0x20 build/aws_demos/debug/_ext/1193839791/ctr_mode.o
 .debug_line    0x00000000      0x19a build/aws_demos/debug/_ext/1193839791/ctr_mode.o
 .debug_str     0x00000000        0xf build/aws_demos/debug/_ext/1193839791/ctr_mode.o
 .comment       0x00000000       0x3d build/aws_demos/debug/_ext/1193839791/ctr_mode.o
 .debug_frame   0x00000000       0x58 build/aws_demos/debug/_ext/1193839791/ctr_mode.o
 .ARM.attributes
                0x00000000       0x39 build/aws_demos/debug/_ext/1193839791/ctr_mode.o
 .text          0x00000000      0x2ae build/aws_demos/debug/_ext/1193839791/ctr_prng.o
 .data          0x00000000        0x0 build/aws_demos/debug/_ext/1193839791/ctr_prng.o
 .bss           0x00000000        0x0 build/aws_demos/debug/_ext/1193839791/ctr_prng.o
 .debug_info    0x00000000     0x160e build/aws_demos/debug/_ext/1193839791/ctr_prng.o
 .debug_abbrev  0x00000000      0x2b8 build/aws_demos/debug/_ext/1193839791/ctr_prng.o
 .debug_loc     0x00000000      0x759 build/aws_demos/debug/_ext/1193839791/ctr_prng.o
 .debug_aranges
                0x00000000       0x20 build/aws_demos/debug/_ext/1193839791/ctr_prng.o
 .debug_line    0x00000000      0x25b build/aws_demos/debug/_ext/1193839791/ctr_prng.o
 .debug_str     0x00000000       0xa1 build/aws_demos/debug/_ext/1193839791/ctr_prng.o
 .comment       0x00000000       0x3d build/aws_demos/debug/_ext/1193839791/ctr_prng.o
 .debug_frame   0x00000000       0xf0 build/aws_demos/debug/_ext/1193839791/ctr_prng.o
 .ARM.attributes
                0x00000000       0x39 build/aws_demos/debug/_ext/1193839791/ctr_prng.o
 .text          0x00000000     0x1134 build/aws_demos/debug/_ext/1193839791/ecc.o
 .data          0x00000000        0x0 build/aws_demos/debug/_ext/1193839791/ecc.o
 .bss           0x00000000        0x4 build/aws_demos/debug/_ext/1193839791/ecc.o
 .rodata        0x00000000       0xb0 build/aws_demos/debug/_ext/1193839791/ecc.o
 .debug_info    0x00000000     0x40f9 build/aws_demos/debug/_ext/1193839791/ecc.o
 .debug_abbrev  0x00000000      0x4f8 build/aws_demos/debug/_ext/1193839791/ecc.o
 .debug_loc     0x00000000     0x2627 build/aws_demos/debug/_ext/1193839791/ecc.o
 .debug_aranges
                0x00000000       0x20 build/aws_demos/debug/_ext/1193839791/ecc.o
 .debug_ranges  0x00000000       0x80 build/aws_demos/debug/_ext/1193839791/ecc.o
 .debug_line    0x00000000      0x478 build/aws_demos/debug/_ext/1193839791/ecc.o
 .debug_str     0x00000000       0x87 build/aws_demos/debug/_ext/1193839791/ecc.o
 .comment       0x00000000       0x3d build/aws_demos/debug/_ext/1193839791/ecc.o
 .debug_frame   0x00000000      0x500 build/aws_demos/debug/_ext/1193839791/ecc.o
 .ARM.attributes
                0x00000000       0x39 build/aws_demos/debug/_ext/1193839791/ecc.o
 .text          0x00000000      0x1bc build/aws_demos/debug/_ext/1193839791/ecc_dh.o
 .data          0x00000000        0x0 build/aws_demos/debug/_ext/1193839791/ecc_dh.o
 .bss           0x00000000        0x0 build/aws_demos/debug/_ext/1193839791/ecc_dh.o
 .debug_info    0x00000000     0x156a build/aws_demos/debug/_ext/1193839791/ecc_dh.o
 .debug_abbrev  0x00000000      0x276 build/aws_demos/debug/_ext/1193839791/ecc_dh.o
 .debug_loc     0x00000000      0x2ee build/aws_demos/debug/_ext/1193839791/ecc_dh.o
 .debug_aranges
                0x00000000       0x20 build/aws_demos/debug/_ext/1193839791/ecc_dh.o
 .debug_ranges  0x00000000       0x18 build/aws_demos/debug/_ext/1193839791/ecc_dh.o
 .debug_line    0x00000000      0x216 build/aws_demos/debug/_ext/1193839791/ecc_dh.o
 .debug_str     0x00000000       0xda build/aws_demos/debug/_ext/1193839791/ecc_dh.o
 .comment       0x00000000       0x3d build/aws_demos/debug/_ext/1193839791/ecc_dh.o
 .debug_frame   0x00000000       0x90 build/aws_demos/debug/_ext/1193839791/ecc_dh.o
 .ARM.attributes
                0x00000000       0x39 build/aws_demos/debug/_ext/1193839791/ecc_dh.o
 .text          0x00000000      0x540 build/aws_demos/debug/_ext/1193839791/ecc_dsa.o
 .data          0x00000000        0x0 build/aws_demos/debug/_ext/1193839791/ecc_dsa.o
 .bss           0x00000000        0x0 build/aws_demos/debug/_ext/1193839791/ecc_dsa.o
 .debug_info    0x00000000     0x1416 build/aws_demos/debug/_ext/1193839791/ecc_dsa.o
 .debug_abbrev  0x00000000      0x211 build/aws_demos/debug/_ext/1193839791/ecc_dsa.o
 .debug_loc     0x00000000      0x63f build/aws_demos/debug/_ext/1193839791/ecc_dsa.o
 .debug_aranges
                0x00000000       0x20 build/aws_demos/debug/_ext/1193839791/ecc_dsa.o
 .debug_ranges  0x00000000       0x38 build/aws_demos/debug/_ext/1193839791/ecc_dsa.o
 .debug_line    0x00000000      0x201 build/aws_demos/debug/_ext/1193839791/ecc_dsa.o
 .debug_str     0x00000000      0x1a3 build/aws_demos/debug/_ext/1193839791/ecc_dsa.o
 .comment       0x00000000       0x3d build/aws_demos/debug/_ext/1193839791/ecc_dsa.o
 .debug_frame   0x00000000       0xc4 build/aws_demos/debug/_ext/1193839791/ecc_dsa.o
 .ARM.attributes
                0x00000000       0x39 build/aws_demos/debug/_ext/1193839791/ecc_dsa.o
 .text          0x00000000        0x0 build/aws_demos/debug/_ext/1193839791/ecc_platform_specific.o
 .data          0x00000000        0x0 build/aws_demos/debug/_ext/1193839791/ecc_platform_specific.o
 .bss           0x00000000        0x0 build/aws_demos/debug/_ext/1193839791/ecc_platform_specific.o
 .debug_line    0x00000000        0x0 build/aws_demos/debug/_ext/1193839791/ecc_platform_specific.o
 .debug_str     0x00000000        0x0 build/aws_demos/debug/_ext/1193839791/ecc_platform_specific.o
 .comment       0x00000000       0x3d build/aws_demos/debug/_ext/1193839791/ecc_platform_specific.o
 .ARM.attributes
                0x00000000       0x39 build/aws_demos/debug/_ext/1193839791/ecc_platform_specific.o
 .text          0x00000000      0x152 build/aws_demos/debug/_ext/1193839791/hmac.o
 .data          0x00000000        0x0 build/aws_demos/debug/_ext/1193839791/hmac.o
 .bss           0x00000000        0x0 build/aws_demos/debug/_ext/1193839791/hmac.o
 .debug_info    0x00000000      0x843 build/aws_demos/debug/_ext/1193839791/hmac.o
 .debug_abbrev  0x00000000      0x166 build/aws_demos/debug/_ext/1193839791/hmac.o
 .debug_loc     0x00000000      0x534 build/aws_demos/debug/_ext/1193839791/hmac.o
 .debug_aranges
                0x00000000       0x20 build/aws_demos/debug/_ext/1193839791/hmac.o
 .debug_line    0x00000000      0x212 build/aws_demos/debug/_ext/1193839791/hmac.o
 .debug_str     0x00000000       0x39 build/aws_demos/debug/_ext/1193839791/hmac.o
 .comment       0x00000000       0x3d build/aws_demos/debug/_ext/1193839791/hmac.o
 .debug_frame   0x00000000       0xe8 build/aws_demos/debug/_ext/1193839791/hmac.o
 .ARM.attributes
                0x00000000       0x39 build/aws_demos/debug/_ext/1193839791/hmac.o
 .text          0x00000000      0x1e6 build/aws_demos/debug/_ext/1193839791/hmac_prng.o
 .data          0x00000000        0x0 build/aws_demos/debug/_ext/1193839791/hmac_prng.o
 .bss           0x00000000        0x0 build/aws_demos/debug/_ext/1193839791/hmac_prng.o
 .debug_info    0x00000000      0xa9a build/aws_demos/debug/_ext/1193839791/hmac_prng.o
 .debug_abbrev  0x00000000      0x15c build/aws_demos/debug/_ext/1193839791/hmac_prng.o
 .debug_loc     0x00000000      0x447 build/aws_demos/debug/_ext/1193839791/hmac_prng.o
 .debug_aranges
                0x00000000       0x20 build/aws_demos/debug/_ext/1193839791/hmac_prng.o
 .debug_line    0x00000000      0x232 build/aws_demos/debug/_ext/1193839791/hmac_prng.o
 .debug_str     0x00000000       0x3a build/aws_demos/debug/_ext/1193839791/hmac_prng.o
 .comment       0x00000000       0x3d build/aws_demos/debug/_ext/1193839791/hmac_prng.o
 .debug_frame   0x00000000       0xe4 build/aws_demos/debug/_ext/1193839791/hmac_prng.o
 .ARM.attributes
                0x00000000       0x39 build/aws_demos/debug/_ext/1193839791/hmac_prng.o
 .text          0x00000000      0x380 build/aws_demos/debug/_ext/1193839791/sha256.o
 .data          0x00000000        0x0 build/aws_demos/debug/_ext/1193839791/sha256.o
 .bss           0x00000000        0x0 build/aws_demos/debug/_ext/1193839791/sha256.o
 .rodata        0x00000000      0x100 build/aws_demos/debug/_ext/1193839791/sha256.o
 .debug_info    0x00000000      0x81e build/aws_demos/debug/_ext/1193839791/sha256.o
 .debug_abbrev  0x00000000      0x17d build/aws_demos/debug/_ext/1193839791/sha256.o
 .debug_loc     0x00000000      0xa00 build/aws_demos/debug/_ext/1193839791/sha256.o
 .debug_aranges
                0x00000000       0x20 build/aws_demos/debug/_ext/1193839791/sha256.o
 .debug_line    0x00000000      0x261 build/aws_demos/debug/_ext/1193839791/sha256.o
 .debug_str     0x00000000        0x0 build/aws_demos/debug/_ext/1193839791/sha256.o
 .comment       0x00000000       0x3d build/aws_demos/debug/_ext/1193839791/sha256.o
 .debug_frame   0x00000000       0xc4 build/aws_demos/debug/_ext/1193839791/sha256.o
 .ARM.attributes
                0x00000000       0x39 build/aws_demos/debug/_ext/1193839791/sha256.o
 .text          0x00000000       0x56 build/aws_demos/debug/_ext/1193839791/utils.o
 .data          0x00000000        0x0 build/aws_demos/debug/_ext/1193839791/utils.o
 .bss           0x00000000        0x0 build/aws_demos/debug/_ext/1193839791/utils.o
 .debug_info    0x00000000      0xffa build/aws_demos/debug/_ext/1193839791/utils.o
 .debug_abbrev  0x00000000      0x20b build/aws_demos/debug/_ext/1193839791/utils.o
 .debug_loc     0x00000000      0x326 build/aws_demos/debug/_ext/1193839791/utils.o
 .debug_aranges
                0x00000000       0x20 build/aws_demos/debug/_ext/1193839791/utils.o
 .debug_line    0x00000000      0x1d2 build/aws_demos/debug/_ext/1193839791/utils.o
 .debug_str     0x00000000        0xe build/aws_demos/debug/_ext/1193839791/utils.o
 .comment       0x00000000       0x3d build/aws_demos/debug/_ext/1193839791/utils.o
 .debug_frame   0x00000000       0x6c build/aws_demos/debug/_ext/1193839791/utils.o
 .ARM.attributes
                0x00000000       0x39 build/aws_demos/debug/_ext/1193839791/utils.o
 .data          0x00000000        0x0 build/aws_demos/debug/_ext/520142351/iot_clock_freertos.o
 .bss           0x00000000        0x0 build/aws_demos/debug/_ext/520142351/iot_clock_freertos.o
 .text          0x00000000        0x0 build/aws_demos/debug/_ext/520142351/iot_metrics.o
 .data          0x00000000        0x0 build/aws_demos/debug/_ext/520142351/iot_metrics.o
 .bss           0x00000000        0x0 build/aws_demos/debug/_ext/520142351/iot_metrics.o
 .debug_info    0x00000000      0xdf7 build/aws_demos/debug/_ext/520142351/iot_metrics.o
 .debug_abbrev  0x00000000      0x160 build/aws_demos/debug/_ext/520142351/iot_metrics.o
 .debug_aranges
                0x00000000       0x18 build/aws_demos/debug/_ext/520142351/iot_metrics.o
 .debug_line    0x00000000       0xc6 build/aws_demos/debug/_ext/520142351/iot_metrics.o
 .debug_str     0x00000000        0xe build/aws_demos/debug/_ext/520142351/iot_metrics.o
 .comment       0x00000000       0x3d build/aws_demos/debug/_ext/520142351/iot_metrics.o
 .ARM.attributes
                0x00000000       0x39 build/aws_demos/debug/_ext/520142351/iot_metrics.o
 .data          0x00000000        0x0 build/aws_demos/debug/_ext/520142351/iot_network_freertos.o
 .bss           0x00000000        0x0 build/aws_demos/debug/_ext/520142351/iot_network_freertos.o
 .data          0x00000000        0x0 build/aws_demos/debug/_ext/520142351/iot_threads_freertos.o
 .bss           0x00000000        0x0 build/aws_demos/debug/_ext/520142351/iot_threads_freertos.o
 .text          0x00000000      0x5b4 build/aws_demos/debug/_ext/1901419232/aws_iot_defender_api.o
 .data          0x00000000       0x2c build/aws_demos/debug/_ext/1901419232/aws_iot_defender_api.o
 .bss           0x00000000       0xc4 build/aws_demos/debug/_ext/1901419232/aws_iot_defender_api.o
 .rodata        0x00000000      0x528 build/aws_demos/debug/_ext/1901419232/aws_iot_defender_api.o
 .debug_info    0x00000000     0x37d2 build/aws_demos/debug/_ext/1901419232/aws_iot_defender_api.o
 .debug_abbrev  0x00000000      0x3eb build/aws_demos/debug/_ext/1901419232/aws_iot_defender_api.o
 .debug_loc     0x00000000      0xa5e build/aws_demos/debug/_ext/1901419232/aws_iot_defender_api.o
 .debug_aranges
                0x00000000       0x20 build/aws_demos/debug/_ext/1901419232/aws_iot_defender_api.o
 .debug_ranges  0x00000000       0x30 build/aws_demos/debug/_ext/1901419232/aws_iot_defender_api.o
 .debug_line    0x00000000      0x7b4 build/aws_demos/debug/_ext/1901419232/aws_iot_defender_api.o
 .debug_str     0x00000000      0x352 build/aws_demos/debug/_ext/1901419232/aws_iot_defender_api.o
 .comment       0x00000000       0x3d build/aws_demos/debug/_ext/1901419232/aws_iot_defender_api.o
 .debug_frame   0x00000000      0x178 build/aws_demos/debug/_ext/1901419232/aws_iot_defender_api.o
 .ARM.attributes
                0x00000000       0x39 build/aws_demos/debug/_ext/1901419232/aws_iot_defender_api.o
 .text          0x00000000      0x404 build/aws_demos/debug/_ext/1901419232/aws_iot_defender_collector.o
 .data          0x00000000       0x10 build/aws_demos/debug/_ext/1901419232/aws_iot_defender_collector.o
 .bss           0x00000000       0x18 build/aws_demos/debug/_ext/1901419232/aws_iot_defender_collector.o
 .rodata        0x00000000       0xd4 build/aws_demos/debug/_ext/1901419232/aws_iot_defender_collector.o
 .debug_info    0x00000000     0x271b build/aws_demos/debug/_ext/1901419232/aws_iot_defender_collector.o
 .debug_abbrev  0x00000000      0x3e9 build/aws_demos/debug/_ext/1901419232/aws_iot_defender_collector.o
 .debug_loc     0x00000000      0x68e build/aws_demos/debug/_ext/1901419232/aws_iot_defender_collector.o
 .debug_aranges
                0x00000000       0x20 build/aws_demos/debug/_ext/1901419232/aws_iot_defender_collector.o
 .debug_ranges  0x00000000       0x18 build/aws_demos/debug/_ext/1901419232/aws_iot_defender_collector.o
 .debug_line    0x00000000      0x623 build/aws_demos/debug/_ext/1901419232/aws_iot_defender_collector.o
 .debug_str     0x00000000       0xc0 build/aws_demos/debug/_ext/1901419232/aws_iot_defender_collector.o
 .comment       0x00000000       0x3d build/aws_demos/debug/_ext/1901419232/aws_iot_defender_collector.o
 .debug_frame   0x00000000       0xf4 build/aws_demos/debug/_ext/1901419232/aws_iot_defender_collector.o
 .ARM.attributes
                0x00000000       0x39 build/aws_demos/debug/_ext/1901419232/aws_iot_defender_collector.o
 .text          0x00000000      0x1f0 build/aws_demos/debug/_ext/1901419232/aws_iot_defender_mqtt.o
 .data          0x00000000        0x0 build/aws_demos/debug/_ext/1901419232/aws_iot_defender_mqtt.o
 .bss           0x00000000       0x18 build/aws_demos/debug/_ext/1901419232/aws_iot_defender_mqtt.o
 .rodata        0x00000000       0x70 build/aws_demos/debug/_ext/1901419232/aws_iot_defender_mqtt.o
 .debug_info    0x00000000     0x2b33 build/aws_demos/debug/_ext/1901419232/aws_iot_defender_mqtt.o
 .debug_abbrev  0x00000000      0x2cd build/aws_demos/debug/_ext/1901419232/aws_iot_defender_mqtt.o
 .debug_loc     0x00000000      0x24c build/aws_demos/debug/_ext/1901419232/aws_iot_defender_mqtt.o
 .debug_aranges
                0x00000000       0x20 build/aws_demos/debug/_ext/1901419232/aws_iot_defender_mqtt.o
 .debug_line    0x00000000      0x50b build/aws_demos/debug/_ext/1901419232/aws_iot_defender_mqtt.o
 .debug_str     0x00000000       0xff build/aws_demos/debug/_ext/1901419232/aws_iot_defender_mqtt.o
 .comment       0x00000000       0x3d build/aws_demos/debug/_ext/1901419232/aws_iot_defender_mqtt.o
 .debug_frame   0x00000000       0xac build/aws_demos/debug/_ext/1901419232/aws_iot_defender_mqtt.o
 .ARM.attributes
                0x00000000       0x39 build/aws_demos/debug/_ext/1901419232/aws_iot_defender_mqtt.o
 .text          0x00000000      0x20c build/aws_demos/debug/_ext/1901419232/aws_iot_defender_v1.o
 .data          0x00000000       0x30 build/aws_demos/debug/_ext/1901419232/aws_iot_defender_v1.o
 .bss           0x00000000        0x5 build/aws_demos/debug/_ext/1901419232/aws_iot_defender_v1.o
 .rodata        0x00000000      0x400 build/aws_demos/debug/_ext/1901419232/aws_iot_defender_v1.o
 .debug_info    0x00000000     0x26c4 build/aws_demos/debug/_ext/1901419232/aws_iot_defender_v1.o
 .debug_abbrev  0x00000000      0x361 build/aws_demos/debug/_ext/1901419232/aws_iot_defender_v1.o
 .debug_loc     0x00000000      0x4a9 build/aws_demos/debug/_ext/1901419232/aws_iot_defender_v1.o
 .debug_aranges
                0x00000000       0x20 build/aws_demos/debug/_ext/1901419232/aws_iot_defender_v1.o
 .debug_ranges  0x00000000       0x30 build/aws_demos/debug/_ext/1901419232/aws_iot_defender_v1.o
 .debug_line    0x00000000      0x406 build/aws_demos/debug/_ext/1901419232/aws_iot_defender_v1.o
 .debug_str     0x00000000      0x138 build/aws_demos/debug/_ext/1901419232/aws_iot_defender_v1.o
 .comment       0x00000000       0x3d build/aws_demos/debug/_ext/1901419232/aws_iot_defender_v1.o
 .debug_frame   0x00000000       0xec build/aws_demos/debug/_ext/1901419232/aws_iot_defender_v1.o
 .ARM.attributes
                0x00000000       0x39 build/aws_demos/debug/_ext/1901419232/aws_iot_defender_v1.o
 .text          0x00000000      0xd14 build/aws_demos/debug/_ext/1647995491/aws_iot_shadow_api.o
 .data          0x00000000        0x4 build/aws_demos/debug/_ext/1647995491/aws_iot_shadow_api.o
 .bss           0x00000000        0x0 build/aws_demos/debug/_ext/1647995491/aws_iot_shadow_api.o
 .rodata        0x00000000      0x84c build/aws_demos/debug/_ext/1647995491/aws_iot_shadow_api.o
 .debug_info    0x00000000     0x422a build/aws_demos/debug/_ext/1647995491/aws_iot_shadow_api.o
 .debug_abbrev  0x00000000      0x410 build/aws_demos/debug/_ext/1647995491/aws_iot_shadow_api.o
 .debug_loc     0x00000000     0x18d8 build/aws_demos/debug/_ext/1647995491/aws_iot_shadow_api.o
 .debug_aranges
                0x00000000       0x20 build/aws_demos/debug/_ext/1647995491/aws_iot_shadow_api.o
 .debug_ranges  0x00000000      0x108 build/aws_demos/debug/_ext/1647995491/aws_iot_shadow_api.o
 .debug_line    0x00000000      0x8eb build/aws_demos/debug/_ext/1647995491/aws_iot_shadow_api.o
 .debug_str     0x00000000      0x331 build/aws_demos/debug/_ext/1647995491/aws_iot_shadow_api.o
 .comment       0x00000000       0x3d build/aws_demos/debug/_ext/1647995491/aws_iot_shadow_api.o
 .debug_frame   0x00000000      0x2ac build/aws_demos/debug/_ext/1647995491/aws_iot_shadow_api.o
 .ARM.attributes
                0x00000000       0x39 build/aws_demos/debug/_ext/1647995491/aws_iot_shadow_api.o
 .text          0x00000000      0x8f0 build/aws_demos/debug/_ext/1647995491/aws_iot_shadow_operation.o
 .data          0x00000000        0x0 build/aws_demos/debug/_ext/1647995491/aws_iot_shadow_operation.o
 .bss           0x00000000        0x8 build/aws_demos/debug/_ext/1647995491/aws_iot_shadow_operation.o
 .rodata        0x00000000      0x534 build/aws_demos/debug/_ext/1647995491/aws_iot_shadow_operation.o
 .debug_info    0x00000000     0x3907 build/aws_demos/debug/_ext/1647995491/aws_iot_shadow_operation.o
 .debug_abbrev  0x00000000      0x470 build/aws_demos/debug/_ext/1647995491/aws_iot_shadow_operation.o
 .debug_loc     0x00000000      0xcb5 build/aws_demos/debug/_ext/1647995491/aws_iot_shadow_operation.o
 .debug_aranges
                0x00000000       0x20 build/aws_demos/debug/_ext/1647995491/aws_iot_shadow_operation.o
 .debug_ranges  0x00000000       0xa0 build/aws_demos/debug/_ext/1647995491/aws_iot_shadow_operation.o
 .debug_line    0x00000000      0x858 build/aws_demos/debug/_ext/1647995491/aws_iot_shadow_operation.o
 .debug_str     0x00000000      0x2f4 build/aws_demos/debug/_ext/1647995491/aws_iot_shadow_operation.o
 .comment       0x00000000       0x3d build/aws_demos/debug/_ext/1647995491/aws_iot_shadow_operation.o
 .debug_frame   0x00000000      0x158 build/aws_demos/debug/_ext/1647995491/aws_iot_shadow_operation.o
 .ARM.attributes
                0x00000000       0x39 build/aws_demos/debug/_ext/1647995491/aws_iot_shadow_operation.o
 COMMON         0x00000000       0x54 build/aws_demos/debug/_ext/1647995491/aws_iot_shadow_operation.o
 .text          0x00000000      0x238 build/aws_demos/debug/_ext/1647995491/aws_iot_shadow_parser.o
 .data          0x00000000        0x0 build/aws_demos/debug/_ext/1647995491/aws_iot_shadow_parser.o
 .bss           0x00000000        0x0 build/aws_demos/debug/_ext/1647995491/aws_iot_shadow_parser.o
 .rodata        0x00000000      0x108 build/aws_demos/debug/_ext/1647995491/aws_iot_shadow_parser.o
 .debug_info    0x00000000     0x1a51 build/aws_demos/debug/_ext/1647995491/aws_iot_shadow_parser.o
 .debug_abbrev  0x00000000      0x2b3 build/aws_demos/debug/_ext/1647995491/aws_iot_shadow_parser.o
 .debug_loc     0x00000000      0x321 build/aws_demos/debug/_ext/1647995491/aws_iot_shadow_parser.o
 .debug_aranges
                0x00000000       0x20 build/aws_demos/debug/_ext/1647995491/aws_iot_shadow_parser.o
 .debug_line    0x00000000      0x5ab build/aws_demos/debug/_ext/1647995491/aws_iot_shadow_parser.o
 .debug_str     0x00000000       0x73 build/aws_demos/debug/_ext/1647995491/aws_iot_shadow_parser.o
 .comment       0x00000000       0x3d build/aws_demos/debug/_ext/1647995491/aws_iot_shadow_parser.o
 .debug_frame   0x00000000       0x90 build/aws_demos/debug/_ext/1647995491/aws_iot_shadow_parser.o
 .ARM.attributes
                0x00000000       0x39 build/aws_demos/debug/_ext/1647995491/aws_iot_shadow_parser.o
 .text          0x00000000        0x0 build/aws_demos/debug/_ext/1647995491/aws_iot_shadow_static_memory.o
 .data          0x00000000        0x0 build/aws_demos/debug/_ext/1647995491/aws_iot_shadow_static_memory.o
 .bss           0x00000000        0x0 build/aws_demos/debug/_ext/1647995491/aws_iot_shadow_static_memory.o
 .debug_info    0x00000000      0x2e3 build/aws_demos/debug/_ext/1647995491/aws_iot_shadow_static_memory.o
 .debug_abbrev  0x00000000       0x1b build/aws_demos/debug/_ext/1647995491/aws_iot_shadow_static_memory.o
 .debug_aranges
                0x00000000       0x18 build/aws_demos/debug/_ext/1647995491/aws_iot_shadow_static_memory.o
 .debug_line    0x00000000       0x1d build/aws_demos/debug/_ext/1647995491/aws_iot_shadow_static_memory.o
 .debug_str     0x00000000        0x0 build/aws_demos/debug/_ext/1647995491/aws_iot_shadow_static_memory.o
 .comment       0x00000000       0x3d build/aws_demos/debug/_ext/1647995491/aws_iot_shadow_static_memory.o
 .ARM.attributes
                0x00000000       0x39 build/aws_demos/debug/_ext/1647995491/aws_iot_shadow_static_memory.o
 .text          0x00000000      0x870 build/aws_demos/debug/_ext/1647995491/aws_iot_shadow_subscription.o
 .data          0x00000000        0x0 build/aws_demos/debug/_ext/1647995491/aws_iot_shadow_subscription.o
 .bss           0x00000000        0x8 build/aws_demos/debug/_ext/1647995491/aws_iot_shadow_subscription.o
 .rodata        0x00000000      0x60c build/aws_demos/debug/_ext/1647995491/aws_iot_shadow_subscription.o
 .debug_info    0x00000000     0x3581 build/aws_demos/debug/_ext/1647995491/aws_iot_shadow_subscription.o
 .debug_abbrev  0x00000000      0x425 build/aws_demos/debug/_ext/1647995491/aws_iot_shadow_subscription.o
 .debug_loc     0x00000000      0xcc8 build/aws_demos/debug/_ext/1647995491/aws_iot_shadow_subscription.o
 .debug_aranges
                0x00000000       0x20 build/aws_demos/debug/_ext/1647995491/aws_iot_shadow_subscription.o
 .debug_ranges  0x00000000       0x30 build/aws_demos/debug/_ext/1647995491/aws_iot_shadow_subscription.o
 .debug_line    0x00000000      0x773 build/aws_demos/debug/_ext/1647995491/aws_iot_shadow_subscription.o
 .debug_str     0x00000000      0x1d6 build/aws_demos/debug/_ext/1647995491/aws_iot_shadow_subscription.o
 .comment       0x00000000       0x3d build/aws_demos/debug/_ext/1647995491/aws_iot_shadow_subscription.o
 .debug_frame   0x00000000      0x14c build/aws_demos/debug/_ext/1647995491/aws_iot_shadow_subscription.o
 .ARM.attributes
                0x00000000       0x39 build/aws_demos/debug/_ext/1647995491/aws_iot_shadow_subscription.o
 COMMON         0x00000000       0x54 build/aws_demos/debug/_ext/1647995491/aws_iot_shadow_subscription.o
 .text          0x00000000      0x4c0 build/aws_demos/debug/_ext/1647995491/aws_shadow.o
 .data          0x00000000        0x4 build/aws_demos/debug/_ext/1647995491/aws_shadow.o
 .bss           0x00000000        0x4 build/aws_demos/debug/_ext/1647995491/aws_shadow.o
 .rodata        0x00000000       0xf4 build/aws_demos/debug/_ext/1647995491/aws_shadow.o
 .debug_info    0x00000000     0x2d94 build/aws_demos/debug/_ext/1647995491/aws_shadow.o
 .debug_abbrev  0x00000000      0x340 build/aws_demos/debug/_ext/1647995491/aws_shadow.o
 .debug_loc     0x00000000      0xcff build/aws_demos/debug/_ext/1647995491/aws_shadow.o
 .debug_aranges
                0x00000000       0x20 build/aws_demos/debug/_ext/1647995491/aws_shadow.o
 .debug_line    0x00000000      0x53f build/aws_demos/debug/_ext/1647995491/aws_shadow.o
 .debug_str     0x00000000      0x2a7 build/aws_demos/debug/_ext/1647995491/aws_shadow.o
 .comment       0x00000000       0x3d build/aws_demos/debug/_ext/1647995491/aws_shadow.o
 .debug_frame   0x00000000      0x188 build/aws_demos/debug/_ext/1647995491/aws_shadow.o
 .ARM.attributes
                0x00000000       0x39 build/aws_demos/debug/_ext/1647995491/aws_shadow.o
 .data          0x00000000        0x0 build/aws_demos/debug/_ext/13066905/iot_device_metrics.o
 .data          0x00000000        0x0 build/aws_demos/debug/_ext/13066905/iot_init.o
 .bss           0x00000000        0x0 build/aws_demos/debug/_ext/13066905/iot_init.o
 .text          0x00000000        0x0 build/aws_demos/debug/_ext/13066905/iot_static_memory_common.o
 .data          0x00000000        0x0 build/aws_demos/debug/_ext/13066905/iot_static_memory_common.o
 .bss           0x00000000        0x0 build/aws_demos/debug/_ext/13066905/iot_static_memory_common.o
 .debug_info    0x00000000      0x2e0 build/aws_demos/debug/_ext/13066905/iot_static_memory_common.o
 .debug_abbrev  0x00000000       0x1b build/aws_demos/debug/_ext/13066905/iot_static_memory_common.o
 .debug_aranges
                0x00000000       0x18 build/aws_demos/debug/_ext/13066905/iot_static_memory_common.o
 .debug_line    0x00000000       0x1d build/aws_demos/debug/_ext/13066905/iot_static_memory_common.o
 .debug_str     0x00000000        0x0 build/aws_demos/debug/_ext/13066905/iot_static_memory_common.o
 .comment       0x00000000       0x3d build/aws_demos/debug/_ext/13066905/iot_static_memory_common.o
 .ARM.attributes
                0x00000000       0x39 build/aws_demos/debug/_ext/13066905/iot_static_memory_common.o
 .data          0x00000000        0x0 build/aws_demos/debug/_ext/227692215/iot_logging.o
 .bss           0x00000000        0x0 build/aws_demos/debug/_ext/227692215/iot_logging.o
 .data          0x00000000        0x0 build/aws_demos/debug/_ext/227692215/iot_logging_task_dynamic_buffers.o
 .data          0x00000000        0x0 build/aws_demos/debug/_ext/333408969/iot_taskpool.o
 .text          0x00000000        0x0 build/aws_demos/debug/_ext/333408969/iot_taskpool_static_memory.o
 .data          0x00000000        0x0 build/aws_demos/debug/_ext/333408969/iot_taskpool_static_memory.o
 .bss           0x00000000        0x0 build/aws_demos/debug/_ext/333408969/iot_taskpool_static_memory.o
 .debug_info    0x00000000      0x2eb build/aws_demos/debug/_ext/333408969/iot_taskpool_static_memory.o
 .debug_abbrev  0x00000000       0x1b build/aws_demos/debug/_ext/333408969/iot_taskpool_static_memory.o
 .debug_aranges
                0x00000000       0x18 build/aws_demos/debug/_ext/333408969/iot_taskpool_static_memory.o
 .debug_line    0x00000000       0x1d build/aws_demos/debug/_ext/333408969/iot_taskpool_static_memory.o
 .debug_str     0x00000000        0x0 build/aws_demos/debug/_ext/333408969/iot_taskpool_static_memory.o
 .comment       0x00000000       0x3d build/aws_demos/debug/_ext/333408969/iot_taskpool_static_memory.o
 .ARM.attributes
                0x00000000       0x39 build/aws_demos/debug/_ext/333408969/iot_taskpool_static_memory.o
 .text          0x00000000     0x2690 build/aws_demos/debug/_ext/1046953532/iot_https_client.o
 .data          0x00000000        0x0 build/aws_demos/debug/_ext/1046953532/iot_https_client.o
 .bss           0x00000000      0x428 build/aws_demos/debug/_ext/1046953532/iot_https_client.o
 .rodata        0x00000000     0x226c build/aws_demos/debug/_ext/1046953532/iot_https_client.o
 .debug_info    0x00000000     0x8ecf build/aws_demos/debug/_ext/1046953532/iot_https_client.o
 .debug_abbrev  0x00000000      0x4dd build/aws_demos/debug/_ext/1046953532/iot_https_client.o
 .debug_loc     0x00000000     0x50b3 build/aws_demos/debug/_ext/1046953532/iot_https_client.o
 .debug_aranges
                0x00000000       0x20 build/aws_demos/debug/_ext/1046953532/iot_https_client.o
 .debug_ranges  0x00000000      0x340 build/aws_demos/debug/_ext/1046953532/iot_https_client.o
 .debug_line    0x00000000      0xe5b build/aws_demos/debug/_ext/1046953532/iot_https_client.o
 .debug_str     0x00000000      0x3f6 build/aws_demos/debug/_ext/1046953532/iot_https_client.o
 .comment       0x00000000       0x3d build/aws_demos/debug/_ext/1046953532/iot_https_client.o
 .debug_frame   0x00000000      0x588 build/aws_demos/debug/_ext/1046953532/iot_https_client.o
 .ARM.attributes
                0x00000000       0x39 build/aws_demos/debug/_ext/1046953532/iot_https_client.o
 .text          0x00000000       0xf8 build/aws_demos/debug/_ext/1046953532/iot_https_utils.o
 .data          0x00000000        0x0 build/aws_demos/debug/_ext/1046953532/iot_https_utils.o
 .bss           0x00000000        0x0 build/aws_demos/debug/_ext/1046953532/iot_https_utils.o
 .rodata        0x00000000       0xb8 build/aws_demos/debug/_ext/1046953532/iot_https_utils.o
 .debug_info    0x00000000     0x15fd build/aws_demos/debug/_ext/1046953532/iot_https_utils.o
 .debug_abbrev  0x00000000      0x236 build/aws_demos/debug/_ext/1046953532/iot_https_utils.o
 .debug_loc     0x00000000      0x322 build/aws_demos/debug/_ext/1046953532/iot_https_utils.o
 .debug_aranges
                0x00000000       0x20 build/aws_demos/debug/_ext/1046953532/iot_https_utils.o
 .debug_line    0x00000000      0x348 build/aws_demos/debug/_ext/1046953532/iot_https_utils.o
 .debug_str     0x00000000       0x6c build/aws_demos/debug/_ext/1046953532/iot_https_utils.o
 .comment       0x00000000       0x3d build/aws_demos/debug/_ext/1046953532/iot_https_utils.o
 .debug_frame   0x00000000       0x60 build/aws_demos/debug/_ext/1046953532/iot_https_utils.o
 .ARM.attributes
                0x00000000       0x39 build/aws_demos/debug/_ext/1046953532/iot_https_utils.o
 .text          0x00000000      0x4d0 build/aws_demos/debug/_ext/1739149067/iot_mqtt_agent.o
 .data          0x00000000        0x4 build/aws_demos/debug/_ext/1739149067/iot_mqtt_agent.o
 .bss           0x00000000        0x0 build/aws_demos/debug/_ext/1739149067/iot_mqtt_agent.o
 .rodata        0x00000000      0x2b8 build/aws_demos/debug/_ext/1739149067/iot_mqtt_agent.o
 .debug_info    0x00000000     0x33db build/aws_demos/debug/_ext/1739149067/iot_mqtt_agent.o
 .debug_abbrev  0x00000000      0x461 build/aws_demos/debug/_ext/1739149067/iot_mqtt_agent.o
 .debug_loc     0x00000000      0xeb7 build/aws_demos/debug/_ext/1739149067/iot_mqtt_agent.o
 .debug_aranges
                0x00000000       0x20 build/aws_demos/debug/_ext/1739149067/iot_mqtt_agent.o
 .debug_ranges  0x00000000       0xc0 build/aws_demos/debug/_ext/1739149067/iot_mqtt_agent.o
 .debug_line    0x00000000      0x530 build/aws_demos/debug/_ext/1739149067/iot_mqtt_agent.o
 .debug_str     0x00000000      0x1ec build/aws_demos/debug/_ext/1739149067/iot_mqtt_agent.o
 .comment       0x00000000       0x3d build/aws_demos/debug/_ext/1739149067/iot_mqtt_agent.o
 .debug_frame   0x00000000      0x1a8 build/aws_demos/debug/_ext/1739149067/iot_mqtt_agent.o
 .ARM.attributes
                0x00000000       0x39 build/aws_demos/debug/_ext/1739149067/iot_mqtt_agent.o
 .data          0x00000000        0x0 build/aws_demos/debug/_ext/1739149067/iot_mqtt_api.o
 .bss           0x00000000        0x0 build/aws_demos/debug/_ext/1739149067/iot_mqtt_api.o
 .data          0x00000000        0x0 build/aws_demos/debug/_ext/1739149067/iot_mqtt_network.o
 .bss           0x00000000        0x0 build/aws_demos/debug/_ext/1739149067/iot_mqtt_network.o
 .data          0x00000000        0x0 build/aws_demos/debug/_ext/1739149067/iot_mqtt_operation.o
 .bss           0x00000000        0x0 build/aws_demos/debug/_ext/1739149067/iot_mqtt_operation.o
 .bss           0x00000000        0x0 build/aws_demos/debug/_ext/1739149067/iot_mqtt_serialize.o
 .text          0x00000000        0x0 build/aws_demos/debug/_ext/1739149067/iot_mqtt_static_memory.o
 .data          0x00000000        0x0 build/aws_demos/debug/_ext/1739149067/iot_mqtt_static_memory.o
 .bss           0x00000000        0x0 build/aws_demos/debug/_ext/1739149067/iot_mqtt_static_memory.o
 .debug_info    0x00000000      0x2e0 build/aws_demos/debug/_ext/1739149067/iot_mqtt_static_memory.o
 .debug_abbrev  0x00000000       0x1b build/aws_demos/debug/_ext/1739149067/iot_mqtt_static_memory.o
 .debug_aranges
                0x00000000       0x18 build/aws_demos/debug/_ext/1739149067/iot_mqtt_static_memory.o
 .debug_line    0x00000000       0x1d build/aws_demos/debug/_ext/1739149067/iot_mqtt_static_memory.o
 .debug_str     0x00000000        0x0 build/aws_demos/debug/_ext/1739149067/iot_mqtt_static_memory.o
 .comment       0x00000000       0x3d build/aws_demos/debug/_ext/1739149067/iot_mqtt_static_memory.o
 .ARM.attributes
                0x00000000       0x39 build/aws_demos/debug/_ext/1739149067/iot_mqtt_static_memory.o
 .data          0x00000000        0x0 build/aws_demos/debug/_ext/1739149067/iot_mqtt_subscription.o
 .bss           0x00000000        0x0 build/aws_demos/debug/_ext/1739149067/iot_mqtt_subscription.o
 .data          0x00000000        0x0 build/aws_demos/debug/_ext/1739149067/iot_mqtt_validate.o
 .bss           0x00000000        0x0 build/aws_demos/debug/_ext/1739149067/iot_mqtt_validate.o
 .text          0x00000000      0x35c build/aws_demos/debug/_ext/255083950/iot_serializer_tinycbor_decoder.o
 .data          0x00000000       0x20 build/aws_demos/debug/_ext/255083950/iot_serializer_tinycbor_decoder.o
 .bss           0x00000000        0x0 build/aws_demos/debug/_ext/255083950/iot_serializer_tinycbor_decoder.o
 .rodata        0x00000000      0x124 build/aws_demos/debug/_ext/255083950/iot_serializer_tinycbor_decoder.o
 .debug_info    0x00000000     0x2c02 build/aws_demos/debug/_ext/255083950/iot_serializer_tinycbor_decoder.o
 .debug_abbrev  0x00000000      0x4bc build/aws_demos/debug/_ext/255083950/iot_serializer_tinycbor_decoder.o
 .debug_loc     0x00000000      0xc51 build/aws_demos/debug/_ext/255083950/iot_serializer_tinycbor_decoder.o
 .debug_aranges
                0x00000000       0x20 build/aws_demos/debug/_ext/255083950/iot_serializer_tinycbor_decoder.o
 .debug_ranges  0x00000000       0xa0 build/aws_demos/debug/_ext/255083950/iot_serializer_tinycbor_decoder.o
 .debug_line    0x00000000      0x3e4 build/aws_demos/debug/_ext/255083950/iot_serializer_tinycbor_decoder.o
 .debug_str     0x00000000      0x1cf build/aws_demos/debug/_ext/255083950/iot_serializer_tinycbor_decoder.o
 .comment       0x00000000       0x3d build/aws_demos/debug/_ext/255083950/iot_serializer_tinycbor_decoder.o
 .debug_frame   0x00000000      0x148 build/aws_demos/debug/_ext/255083950/iot_serializer_tinycbor_decoder.o
 .ARM.attributes
                0x00000000       0x39 build/aws_demos/debug/_ext/255083950/iot_serializer_tinycbor_decoder.o
 .text          0x00000000      0x20a build/aws_demos/debug/_ext/255083950/iot_serializer_tinycbor_encoder.o
 .data          0x00000000       0x24 build/aws_demos/debug/_ext/255083950/iot_serializer_tinycbor_encoder.o
 .bss           0x00000000        0x0 build/aws_demos/debug/_ext/255083950/iot_serializer_tinycbor_encoder.o
 .debug_info    0x00000000     0x2520 build/aws_demos/debug/_ext/255083950/iot_serializer_tinycbor_encoder.o
 .debug_abbrev  0x00000000      0x413 build/aws_demos/debug/_ext/255083950/iot_serializer_tinycbor_encoder.o
 .debug_loc     0x00000000      0x70f build/aws_demos/debug/_ext/255083950/iot_serializer_tinycbor_encoder.o
 .debug_aranges
                0x00000000       0x20 build/aws_demos/debug/_ext/255083950/iot_serializer_tinycbor_encoder.o
 .debug_ranges  0x00000000       0x18 build/aws_demos/debug/_ext/255083950/iot_serializer_tinycbor_encoder.o
 .debug_line    0x00000000      0x350 build/aws_demos/debug/_ext/255083950/iot_serializer_tinycbor_encoder.o
 .debug_str     0x00000000      0x18b build/aws_demos/debug/_ext/255083950/iot_serializer_tinycbor_encoder.o
 .comment       0x00000000       0x3d build/aws_demos/debug/_ext/255083950/iot_serializer_tinycbor_encoder.o
 .debug_frame   0x00000000      0x138 build/aws_demos/debug/_ext/255083950/iot_serializer_tinycbor_encoder.o
 .ARM.attributes
                0x00000000       0x39 build/aws_demos/debug/_ext/255083950/iot_serializer_tinycbor_encoder.o
 .text          0x00000000      0x194 build/aws_demos/debug/_ext/2051690653/iot_json_utils.o
 .data          0x00000000        0x0 build/aws_demos/debug/_ext/2051690653/iot_json_utils.o
 .bss           0x00000000        0x0 build/aws_demos/debug/_ext/2051690653/iot_json_utils.o
 .debug_info    0x00000000      0xf97 build/aws_demos/debug/_ext/2051690653/iot_json_utils.o
 .debug_abbrev  0x00000000      0x1c7 build/aws_demos/debug/_ext/2051690653/iot_json_utils.o
 .debug_loc     0x00000000      0x3c8 build/aws_demos/debug/_ext/2051690653/iot_json_utils.o
 .debug_aranges
                0x00000000       0x20 build/aws_demos/debug/_ext/2051690653/iot_json_utils.o
 .debug_line    0x00000000      0x1f3 build/aws_demos/debug/_ext/2051690653/iot_json_utils.o
 .debug_str     0x00000000        0xe build/aws_demos/debug/_ext/2051690653/iot_json_utils.o
 .comment       0x00000000       0x3d build/aws_demos/debug/_ext/2051690653/iot_json_utils.o
 .debug_frame   0x00000000       0x38 build/aws_demos/debug/_ext/2051690653/iot_json_utils.o
 .ARM.attributes
                0x00000000       0x39 build/aws_demos/debug/_ext/2051690653/iot_json_utils.o
 .text          0x00000000        0x0 build/aws_demos/debug/_ext/2051690653/iot_serializer_static_memory.o
 .data          0x00000000        0x0 build/aws_demos/debug/_ext/2051690653/iot_serializer_static_memory.o
 .bss           0x00000000        0x0 build/aws_demos/debug/_ext/2051690653/iot_serializer_static_memory.o
 .debug_info    0x00000000      0x2ec build/aws_demos/debug/_ext/2051690653/iot_serializer_static_memory.o
 .debug_abbrev  0x00000000       0x1b build/aws_demos/debug/_ext/2051690653/iot_serializer_static_memory.o
 .debug_aranges
                0x00000000       0x18 build/aws_demos/debug/_ext/2051690653/iot_serializer_static_memory.o
 .debug_line    0x00000000       0x1d build/aws_demos/debug/_ext/2051690653/iot_serializer_static_memory.o
 .debug_str     0x00000000        0x0 build/aws_demos/debug/_ext/2051690653/iot_serializer_static_memory.o
 .comment       0x00000000       0x3d build/aws_demos/debug/_ext/2051690653/iot_serializer_static_memory.o
 .ARM.attributes
                0x00000000       0x39 build/aws_demos/debug/_ext/2051690653/iot_serializer_static_memory.o
 .text          0x00000000      0x67c build/aws_demos/debug/_ext/255308820/iot_serializer_json_decoder.o
 .data          0x00000000       0x20 build/aws_demos/debug/_ext/255308820/iot_serializer_json_decoder.o
 .bss           0x00000000        0x0 build/aws_demos/debug/_ext/255308820/iot_serializer_json_decoder.o
 .debug_info    0x00000000     0x2578 build/aws_demos/debug/_ext/255308820/iot_serializer_json_decoder.o
 .debug_abbrev  0x00000000      0x458 build/aws_demos/debug/_ext/255308820/iot_serializer_json_decoder.o
 .debug_loc     0x00000000     0x12e9 build/aws_demos/debug/_ext/255308820/iot_serializer_json_decoder.o
 .debug_aranges
                0x00000000       0x20 build/aws_demos/debug/_ext/255308820/iot_serializer_json_decoder.o
 .debug_ranges  0x00000000       0x80 build/aws_demos/debug/_ext/255308820/iot_serializer_json_decoder.o
 .debug_line    0x00000000      0x4bf build/aws_demos/debug/_ext/255308820/iot_serializer_json_decoder.o
 .debug_str     0x00000000       0xb1 build/aws_demos/debug/_ext/255308820/iot_serializer_json_decoder.o
 .comment       0x00000000       0x3d build/aws_demos/debug/_ext/255308820/iot_serializer_json_decoder.o
 .debug_frame   0x00000000      0x1e4 build/aws_demos/debug/_ext/255308820/iot_serializer_json_decoder.o
 .ARM.attributes
                0x00000000       0x39 build/aws_demos/debug/_ext/255308820/iot_serializer_json_decoder.o
 .text          0x00000000      0x53c build/aws_demos/debug/_ext/255308820/iot_serializer_json_encoder.o
 .data          0x00000000       0x24 build/aws_demos/debug/_ext/255308820/iot_serializer_json_encoder.o
 .bss           0x00000000        0x0 build/aws_demos/debug/_ext/255308820/iot_serializer_json_encoder.o
 .rodata        0x00000000       0x20 build/aws_demos/debug/_ext/255308820/iot_serializer_json_encoder.o
 .debug_info    0x00000000     0x250c build/aws_demos/debug/_ext/255308820/iot_serializer_json_encoder.o
 .debug_abbrev  0x00000000      0x372 build/aws_demos/debug/_ext/255308820/iot_serializer_json_encoder.o
 .debug_loc     0x00000000     0x1305 build/aws_demos/debug/_ext/255308820/iot_serializer_json_encoder.o
 .debug_aranges
                0x00000000       0x20 build/aws_demos/debug/_ext/255308820/iot_serializer_json_encoder.o
 .debug_ranges  0x00000000       0x50 build/aws_demos/debug/_ext/255308820/iot_serializer_json_encoder.o
 .debug_line    0x00000000      0x46f build/aws_demos/debug/_ext/255308820/iot_serializer_json_encoder.o
 .debug_str     0x00000000       0xfb build/aws_demos/debug/_ext/255308820/iot_serializer_json_encoder.o
 .comment       0x00000000       0x3d build/aws_demos/debug/_ext/255308820/iot_serializer_json_encoder.o
 .debug_frame   0x00000000      0x1c0 build/aws_demos/debug/_ext/255308820/iot_serializer_json_encoder.o
 .ARM.attributes
                0x00000000       0x39 build/aws_demos/debug/_ext/255308820/iot_serializer_json_encoder.o
 .text          0x00000000      0x7ac build/aws_demos/debug/_ext/524897113/aws_greengrass_discovery.o
 .data          0x00000000        0x0 build/aws_demos/debug/_ext/524897113/aws_greengrass_discovery.o
 .bss           0x00000000        0x0 build/aws_demos/debug/_ext/524897113/aws_greengrass_discovery.o
 .rodata        0x00000000      0x3a0 build/aws_demos/debug/_ext/524897113/aws_greengrass_discovery.o
 .debug_info    0x00000000     0x24f0 build/aws_demos/debug/_ext/524897113/aws_greengrass_discovery.o
 .debug_abbrev  0x00000000      0x3a3 build/aws_demos/debug/_ext/524897113/aws_greengrass_discovery.o
 .debug_loc     0x00000000     0x11b0 build/aws_demos/debug/_ext/524897113/aws_greengrass_discovery.o
 .debug_aranges
                0x00000000       0x20 build/aws_demos/debug/_ext/524897113/aws_greengrass_discovery.o
 .debug_ranges  0x00000000       0x68 build/aws_demos/debug/_ext/524897113/aws_greengrass_discovery.o
 .debug_line    0x00000000      0x5a1 build/aws_demos/debug/_ext/524897113/aws_greengrass_discovery.o
 .debug_str     0x00000000      0x1ab build/aws_demos/debug/_ext/524897113/aws_greengrass_discovery.o
 .comment       0x00000000       0x3d build/aws_demos/debug/_ext/524897113/aws_greengrass_discovery.o
 .debug_frame   0x00000000      0x174 build/aws_demos/debug/_ext/524897113/aws_greengrass_discovery.o
 .ARM.attributes
                0x00000000       0x39 build/aws_demos/debug/_ext/524897113/aws_greengrass_discovery.o
 .text          0x00000000      0x348 build/aws_demos/debug/_ext/524897113/aws_helper_secure_connect.o
 .data          0x00000000        0x0 build/aws_demos/debug/_ext/524897113/aws_helper_secure_connect.o
 .bss           0x00000000        0x0 build/aws_demos/debug/_ext/524897113/aws_helper_secure_connect.o
 .rodata        0x00000000      0x14c build/aws_demos/debug/_ext/524897113/aws_helper_secure_connect.o
 .debug_info    0x00000000     0x18e5 build/aws_demos/debug/_ext/524897113/aws_helper_secure_connect.o
 .debug_abbrev  0x00000000      0x309 build/aws_demos/debug/_ext/524897113/aws_helper_secure_connect.o
 .debug_loc     0x00000000      0x7ab build/aws_demos/debug/_ext/524897113/aws_helper_secure_connect.o
 .debug_aranges
                0x00000000       0x20 build/aws_demos/debug/_ext/524897113/aws_helper_secure_connect.o
 .debug_ranges  0x00000000       0x28 build/aws_demos/debug/_ext/524897113/aws_helper_secure_connect.o
 .debug_line    0x00000000      0x43d build/aws_demos/debug/_ext/524897113/aws_helper_secure_connect.o
 .debug_str     0x00000000       0xf2 build/aws_demos/debug/_ext/524897113/aws_helper_secure_connect.o
 .comment       0x00000000       0x3d build/aws_demos/debug/_ext/524897113/aws_helper_secure_connect.o
 .debug_frame   0x00000000       0xac build/aws_demos/debug/_ext/524897113/aws_helper_secure_connect.o
 .ARM.attributes
                0x00000000       0x39 build/aws_demos/debug/_ext/524897113/aws_helper_secure_connect.o
 .data          0x00000000        0x0 build/aws_demos/debug/_ext/350635301/iot_crypto.o
 .bss           0x00000000        0x0 build/aws_demos/debug/_ext/350635301/iot_crypto.o
 .text          0x00000000      0x438 build/aws_demos/debug/_ext/1682906662/FreeRTOS_ARP.o
 .data          0x00000000        0x0 build/aws_demos/debug/_ext/1682906662/FreeRTOS_ARP.o
 .bss           0x00000000       0x4c build/aws_demos/debug/_ext/1682906662/FreeRTOS_ARP.o
 .rodata        0x00000000       0xdc build/aws_demos/debug/_ext/1682906662/FreeRTOS_ARP.o
 .debug_info    0x00000000     0x1f0a build/aws_demos/debug/_ext/1682906662/FreeRTOS_ARP.o
 .debug_abbrev  0x00000000      0x3a2 build/aws_demos/debug/_ext/1682906662/FreeRTOS_ARP.o
 .debug_loc     0x00000000      0x72d build/aws_demos/debug/_ext/1682906662/FreeRTOS_ARP.o
 .debug_aranges
                0x00000000       0x20 build/aws_demos/debug/_ext/1682906662/FreeRTOS_ARP.o
 .debug_ranges  0x00000000       0x38 build/aws_demos/debug/_ext/1682906662/FreeRTOS_ARP.o
 .debug_line    0x00000000      0x4bc build/aws_demos/debug/_ext/1682906662/FreeRTOS_ARP.o
 .debug_str     0x00000000      0x14b build/aws_demos/debug/_ext/1682906662/FreeRTOS_ARP.o
 .comment       0x00000000       0x3d build/aws_demos/debug/_ext/1682906662/FreeRTOS_ARP.o
 .debug_frame   0x00000000      0x138 build/aws_demos/debug/_ext/1682906662/FreeRTOS_ARP.o
 .ARM.attributes
                0x00000000       0x39 build/aws_demos/debug/_ext/1682906662/FreeRTOS_ARP.o
 .text          0x00000000      0x668 build/aws_demos/debug/_ext/1682906662/FreeRTOS_DHCP.o
 .data          0x00000000        0x0 build/aws_demos/debug/_ext/1682906662/FreeRTOS_DHCP.o
 .bss           0x00000000       0x24 build/aws_demos/debug/_ext/1682906662/FreeRTOS_DHCP.o
 .rodata        0x00000000      0x150 build/aws_demos/debug/_ext/1682906662/FreeRTOS_DHCP.o
 .debug_info    0x00000000     0x2de4 build/aws_demos/debug/_ext/1682906662/FreeRTOS_DHCP.o
 .debug_abbrev  0x00000000      0x363 build/aws_demos/debug/_ext/1682906662/FreeRTOS_DHCP.o
 .debug_loc     0x00000000      0x645 build/aws_demos/debug/_ext/1682906662/FreeRTOS_DHCP.o
 .debug_aranges
                0x00000000       0x20 build/aws_demos/debug/_ext/1682906662/FreeRTOS_DHCP.o
 .debug_ranges  0x00000000       0x18 build/aws_demos/debug/_ext/1682906662/FreeRTOS_DHCP.o
 .debug_line    0x00000000      0x504 build/aws_demos/debug/_ext/1682906662/FreeRTOS_DHCP.o
 .debug_str     0x00000000      0x1d2 build/aws_demos/debug/_ext/1682906662/FreeRTOS_DHCP.o
 .comment       0x00000000       0x3d build/aws_demos/debug/_ext/1682906662/FreeRTOS_DHCP.o
 .debug_frame   0x00000000      0x108 build/aws_demos/debug/_ext/1682906662/FreeRTOS_DHCP.o
 .ARM.attributes
                0x00000000       0x39 build/aws_demos/debug/_ext/1682906662/FreeRTOS_DHCP.o
 .text          0x00000000      0x5a0 build/aws_demos/debug/_ext/1682906662/FreeRTOS_DNS.o
 .data          0x00000000        0x0 build/aws_demos/debug/_ext/1682906662/FreeRTOS_DNS.o
 .bss           0x00000000      0x110 build/aws_demos/debug/_ext/1682906662/FreeRTOS_DNS.o
 .rodata        0x00000000      0x11c build/aws_demos/debug/_ext/1682906662/FreeRTOS_DNS.o
 .debug_info    0x00000000     0x2f5f build/aws_demos/debug/_ext/1682906662/FreeRTOS_DNS.o
 .debug_abbrev  0x00000000      0x3f5 build/aws_demos/debug/_ext/1682906662/FreeRTOS_DNS.o
 .debug_loc     0x00000000      0xf38 build/aws_demos/debug/_ext/1682906662/FreeRTOS_DNS.o
 .debug_aranges
                0x00000000       0x20 build/aws_demos/debug/_ext/1682906662/FreeRTOS_DNS.o
 .debug_ranges  0x00000000       0x88 build/aws_demos/debug/_ext/1682906662/FreeRTOS_DNS.o
 .debug_line    0x00000000      0x553 build/aws_demos/debug/_ext/1682906662/FreeRTOS_DNS.o
 .debug_str     0x00000000      0x1f0 build/aws_demos/debug/_ext/1682906662/FreeRTOS_DNS.o
 .comment       0x00000000       0x3d build/aws_demos/debug/_ext/1682906662/FreeRTOS_DNS.o
 .debug_frame   0x00000000       0xf0 build/aws_demos/debug/_ext/1682906662/FreeRTOS_DNS.o
 .ARM.attributes
                0x00000000       0x39 build/aws_demos/debug/_ext/1682906662/FreeRTOS_DNS.o
 .text          0x00000000      0xbf8 build/aws_demos/debug/_ext/1682906662/FreeRTOS_IP.o
 .data          0x00000000        0x0 build/aws_demos/debug/_ext/1682906662/FreeRTOS_IP.o
 .bss           0x00000000       0x82 build/aws_demos/debug/_ext/1682906662/FreeRTOS_IP.o
 .rodata        0x00000000      0x1fc build/aws_demos/debug/_ext/1682906662/FreeRTOS_IP.o
 .debug_info    0x00000000     0x49ec build/aws_demos/debug/_ext/1682906662/FreeRTOS_IP.o
 .debug_abbrev  0x00000000      0x530 build/aws_demos/debug/_ext/1682906662/FreeRTOS_IP.o
 .debug_loc     0x00000000     0x1859 build/aws_demos/debug/_ext/1682906662/FreeRTOS_IP.o
 .debug_aranges
                0x00000000       0x20 build/aws_demos/debug/_ext/1682906662/FreeRTOS_IP.o
 .debug_ranges  0x00000000      0x138 build/aws_demos/debug/_ext/1682906662/FreeRTOS_IP.o
 .debug_line    0x00000000      0x747 build/aws_demos/debug/_ext/1682906662/FreeRTOS_IP.o
 .debug_str     0x00000000      0x48e build/aws_demos/debug/_ext/1682906662/FreeRTOS_IP.o
 .comment       0x00000000       0x3d build/aws_demos/debug/_ext/1682906662/FreeRTOS_IP.o
 .debug_frame   0x00000000      0x318 build/aws_demos/debug/_ext/1682906662/FreeRTOS_IP.o
 .ARM.attributes
                0x00000000       0x39 build/aws_demos/debug/_ext/1682906662/FreeRTOS_IP.o
 .text          0x00000000     0x1604 build/aws_demos/debug/_ext/1682906662/FreeRTOS_Sockets.o
 .data          0x00000000        0x0 build/aws_demos/debug/_ext/1682906662/FreeRTOS_Sockets.o
 .bss           0x00000000        0x4 build/aws_demos/debug/_ext/1682906662/FreeRTOS_Sockets.o
 .rodata        0x00000000      0x460 build/aws_demos/debug/_ext/1682906662/FreeRTOS_Sockets.o
 .debug_info    0x00000000     0x5706 build/aws_demos/debug/_ext/1682906662/FreeRTOS_Sockets.o
 .debug_abbrev  0x00000000      0x56b build/aws_demos/debug/_ext/1682906662/FreeRTOS_Sockets.o
 .debug_loc     0x00000000     0x33a3 build/aws_demos/debug/_ext/1682906662/FreeRTOS_Sockets.o
 .debug_aranges
                0x00000000       0x20 build/aws_demos/debug/_ext/1682906662/FreeRTOS_Sockets.o
 .debug_ranges  0x00000000      0x1b8 build/aws_demos/debug/_ext/1682906662/FreeRTOS_Sockets.o
 .debug_line    0x00000000      0xa80 build/aws_demos/debug/_ext/1682906662/FreeRTOS_Sockets.o
 .debug_str     0x00000000      0x42e build/aws_demos/debug/_ext/1682906662/FreeRTOS_Sockets.o
 .comment       0x00000000       0x3d build/aws_demos/debug/_ext/1682906662/FreeRTOS_Sockets.o
 .debug_frame   0x00000000      0x484 build/aws_demos/debug/_ext/1682906662/FreeRTOS_Sockets.o
 .ARM.attributes
                0x00000000       0x39 build/aws_demos/debug/_ext/1682906662/FreeRTOS_Sockets.o
 COMMON         0x00000000       0x28 build/aws_demos/debug/_ext/1682906662/FreeRTOS_Sockets.o
 .text          0x00000000      0x148 build/aws_demos/debug/_ext/1682906662/FreeRTOS_Stream_Buffer.o
 .data          0x00000000        0x0 build/aws_demos/debug/_ext/1682906662/FreeRTOS_Stream_Buffer.o
 .bss           0x00000000        0x0 build/aws_demos/debug/_ext/1682906662/FreeRTOS_Stream_Buffer.o
 .debug_info    0x00000000     0x193d build/aws_demos/debug/_ext/1682906662/FreeRTOS_Stream_Buffer.o
 .debug_abbrev  0x00000000      0x2b8 build/aws_demos/debug/_ext/1682906662/FreeRTOS_Stream_Buffer.o
 .debug_loc     0x00000000      0x4a4 build/aws_demos/debug/_ext/1682906662/FreeRTOS_Stream_Buffer.o
 .debug_aranges
                0x00000000       0x20 build/aws_demos/debug/_ext/1682906662/FreeRTOS_Stream_Buffer.o
 .debug_ranges  0x00000000       0x60 build/aws_demos/debug/_ext/1682906662/FreeRTOS_Stream_Buffer.o
 .debug_line    0x00000000      0x373 build/aws_demos/debug/_ext/1682906662/FreeRTOS_Stream_Buffer.o
 .debug_str     0x00000000       0x4c build/aws_demos/debug/_ext/1682906662/FreeRTOS_Stream_Buffer.o
 .comment       0x00000000       0x3d build/aws_demos/debug/_ext/1682906662/FreeRTOS_Stream_Buffer.o
 .debug_frame   0x00000000       0x58 build/aws_demos/debug/_ext/1682906662/FreeRTOS_Stream_Buffer.o
 .ARM.attributes
                0x00000000       0x39 build/aws_demos/debug/_ext/1682906662/FreeRTOS_Stream_Buffer.o
 .text          0x00000000     0x197c build/aws_demos/debug/_ext/1682906662/FreeRTOS_TCP_IP.o
 .data          0x00000000        0x0 build/aws_demos/debug/_ext/1682906662/FreeRTOS_TCP_IP.o
 .bss           0x00000000        0xa build/aws_demos/debug/_ext/1682906662/FreeRTOS_TCP_IP.o
 .rodata        0x00000000      0x764 build/aws_demos/debug/_ext/1682906662/FreeRTOS_TCP_IP.o
 .debug_info    0x00000000     0x537b build/aws_demos/debug/_ext/1682906662/FreeRTOS_TCP_IP.o
 .debug_abbrev  0x00000000      0x4e2 build/aws_demos/debug/_ext/1682906662/FreeRTOS_TCP_IP.o
 .debug_loc     0x00000000     0x2e6a build/aws_demos/debug/_ext/1682906662/FreeRTOS_TCP_IP.o
 .debug_aranges
                0x00000000       0x20 build/aws_demos/debug/_ext/1682906662/FreeRTOS_TCP_IP.o
 .debug_ranges  0x00000000      0x190 build/aws_demos/debug/_ext/1682906662/FreeRTOS_TCP_IP.o
 .debug_line    0x00000000      0x9a0 build/aws_demos/debug/_ext/1682906662/FreeRTOS_TCP_IP.o
 .debug_str     0x00000000      0x3c5 build/aws_demos/debug/_ext/1682906662/FreeRTOS_TCP_IP.o
 .comment       0x00000000       0x3d build/aws_demos/debug/_ext/1682906662/FreeRTOS_TCP_IP.o
 .debug_frame   0x00000000      0x1d0 build/aws_demos/debug/_ext/1682906662/FreeRTOS_TCP_IP.o
 .ARM.attributes
                0x00000000       0x39 build/aws_demos/debug/_ext/1682906662/FreeRTOS_TCP_IP.o
 .text          0x00000000      0x254 build/aws_demos/debug/_ext/1682906662/FreeRTOS_TCP_WIN.o
 .data          0x00000000        0x0 build/aws_demos/debug/_ext/1682906662/FreeRTOS_TCP_WIN.o
 .bss           0x00000000        0x4 build/aws_demos/debug/_ext/1682906662/FreeRTOS_TCP_WIN.o
 .rodata        0x00000000       0xe0 build/aws_demos/debug/_ext/1682906662/FreeRTOS_TCP_WIN.o
 .debug_info    0x00000000     0x1e79 build/aws_demos/debug/_ext/1682906662/FreeRTOS_TCP_WIN.o
 .debug_abbrev  0x00000000      0x3ab build/aws_demos/debug/_ext/1682906662/FreeRTOS_TCP_WIN.o
 .debug_loc     0x00000000      0x913 build/aws_demos/debug/_ext/1682906662/FreeRTOS_TCP_WIN.o
 .debug_aranges
                0x00000000       0x20 build/aws_demos/debug/_ext/1682906662/FreeRTOS_TCP_WIN.o
 .debug_line    0x00000000      0x3ec build/aws_demos/debug/_ext/1682906662/FreeRTOS_TCP_WIN.o
 .debug_str     0x00000000       0xb5 build/aws_demos/debug/_ext/1682906662/FreeRTOS_TCP_WIN.o
 .comment       0x00000000       0x3d build/aws_demos/debug/_ext/1682906662/FreeRTOS_TCP_WIN.o
 .debug_frame   0x00000000      0x120 build/aws_demos/debug/_ext/1682906662/FreeRTOS_TCP_WIN.o
 .ARM.attributes
                0x00000000       0x39 build/aws_demos/debug/_ext/1682906662/FreeRTOS_TCP_WIN.o
 .text          0x00000000      0x160 build/aws_demos/debug/_ext/1682906662/FreeRTOS_UDP_IP.o
 .data          0x00000000       0x18 build/aws_demos/debug/_ext/1682906662/FreeRTOS_UDP_IP.o
 .bss           0x00000000        0x0 build/aws_demos/debug/_ext/1682906662/FreeRTOS_UDP_IP.o
 .rodata        0x00000000       0x64 build/aws_demos/debug/_ext/1682906662/FreeRTOS_UDP_IP.o
 .debug_info    0x00000000     0x2889 build/aws_demos/debug/_ext/1682906662/FreeRTOS_UDP_IP.o
 .debug_abbrev  0x00000000      0x312 build/aws_demos/debug/_ext/1682906662/FreeRTOS_UDP_IP.o
 .debug_loc     0x00000000      0x234 build/aws_demos/debug/_ext/1682906662/FreeRTOS_UDP_IP.o
 .debug_aranges
                0x00000000       0x20 build/aws_demos/debug/_ext/1682906662/FreeRTOS_UDP_IP.o
 .debug_ranges  0x00000000       0x30 build/aws_demos/debug/_ext/1682906662/FreeRTOS_UDP_IP.o
 .debug_line    0x00000000      0x402 build/aws_demos/debug/_ext/1682906662/FreeRTOS_UDP_IP.o
 .debug_str     0x00000000      0x1c2 build/aws_demos/debug/_ext/1682906662/FreeRTOS_UDP_IP.o
 .comment       0x00000000       0x3d build/aws_demos/debug/_ext/1682906662/FreeRTOS_UDP_IP.o
 .debug_frame   0x00000000       0x54 build/aws_demos/debug/_ext/1682906662/FreeRTOS_UDP_IP.o
 .ARM.attributes
                0x00000000       0x39 build/aws_demos/debug/_ext/1682906662/FreeRTOS_UDP_IP.o
 .data          0x00000000        0x0 build/aws_demos/debug/_ext/2138053595/iot_pkcs11.o
 .bss           0x00000000        0x0 build/aws_demos/debug/_ext/2138053595/iot_pkcs11.o
 .text          0x00000000      0x6cc build/aws_demos/debug/_ext/2039890517/iot_tls.o
 .data          0x00000000        0x0 build/aws_demos/debug/_ext/2039890517/iot_tls.o
 .bss           0x00000000        0x0 build/aws_demos/debug/_ext/2039890517/iot_tls.o
 .rodata        0x00000000     0x1600 build/aws_demos/debug/_ext/2039890517/iot_tls.o
 .debug_info    0x00000000     0x5920 build/aws_demos/debug/_ext/2039890517/iot_tls.o
 .debug_abbrev  0x00000000      0x46f build/aws_demos/debug/_ext/2039890517/iot_tls.o
 .debug_loc     0x00000000     0x10c7 build/aws_demos/debug/_ext/2039890517/iot_tls.o
 .debug_aranges
                0x00000000       0x20 build/aws_demos/debug/_ext/2039890517/iot_tls.o
 .debug_ranges  0x00000000       0x50 build/aws_demos/debug/_ext/2039890517/iot_tls.o
 .debug_line    0x00000000      0x76c build/aws_demos/debug/_ext/2039890517/iot_tls.o
 .debug_str     0x00000000      0x5b0 build/aws_demos/debug/_ext/2039890517/iot_tls.o
 .comment       0x00000000       0x3d build/aws_demos/debug/_ext/2039890517/iot_tls.o
 .debug_frame   0x00000000      0x17c build/aws_demos/debug/_ext/2039890517/iot_tls.o
 .ARM.attributes
                0x00000000       0x39 build/aws_demos/debug/_ext/2039890517/iot_tls.o
 .text          0x00000000      0x1d2 build/aws_demos/debug/_ext/1120274527/iot_pki_utils.o
 .data          0x00000000        0x0 build/aws_demos/debug/_ext/1120274527/iot_pki_utils.o
 .bss           0x00000000        0x0 build/aws_demos/debug/_ext/1120274527/iot_pki_utils.o
 .debug_info    0x00000000     0x1034 build/aws_demos/debug/_ext/1120274527/iot_pki_utils.o
 .debug_abbrev  0x00000000      0x1f9 build/aws_demos/debug/_ext/1120274527/iot_pki_utils.o
 .debug_loc     0x00000000      0x217 build/aws_demos/debug/_ext/1120274527/iot_pki_utils.o
 .debug_aranges
                0x00000000       0x20 build/aws_demos/debug/_ext/1120274527/iot_pki_utils.o
 .debug_line    0x00000000      0x1e0 build/aws_demos/debug/_ext/1120274527/iot_pki_utils.o
 .debug_str     0x00000000        0xe build/aws_demos/debug/_ext/1120274527/iot_pki_utils.o
 .comment       0x00000000       0x3d build/aws_demos/debug/_ext/1120274527/iot_pki_utils.o
 .debug_frame   0x00000000       0x68 build/aws_demos/debug/_ext/1120274527/iot_pki_utils.o
 .ARM.attributes
                0x00000000       0x39 build/aws_demos/debug/_ext/1120274527/iot_pki_utils.o
 .data          0x00000000        0x0 build/aws_demos/debug/_ext/1120274527/iot_system_init.o
 .bss           0x00000000        0x0 build/aws_demos/debug/_ext/1120274527/iot_system_init.o
 .data          0x00000000        0x0 build/aws_demos/debug/_ext/1534684544/sys_console.o
 .data          0x00000000        0x0 build/aws_demos/debug/_ext/2146650376/hal_i2c_harmony.o
 .bss           0x00000000        0x0 build/aws_demos/debug/_ext/2146650376/hal_i2c_harmony.o
 .data          0x00000000        0x0 build/aws_demos/debug/_ext/2146650376/atca_hal.o
 .bss           0x00000000        0x0 build/aws_demos/debug/_ext/2146650376/atca_hal.o
 .data          0x00000000        0x0 build/aws_demos/debug/_ext/2146650376/hal_freertos.o
 .bss           0x00000000        0x0 build/aws_demos/debug/_ext/2146650376/hal_freertos.o
 .text          0x00000000        0x0 build/aws_demos/debug/_ext/2146650376/hal_i2c_harmony_init.o
 .bss           0x00000000        0x0 build/aws_demos/debug/_ext/2146650376/hal_i2c_harmony_init.o
 .data          0x00000000        0x0 build/aws_demos/debug/_ext/2146650376/hal_cortex_m_delay.o
 .bss           0x00000000        0x0 build/aws_demos/debug/_ext/2146650376/hal_cortex_m_delay.o
 .text          0x00000000        0x0 c:/program files/microchip/xc32/v2.40/bin/bin/../../lib/gcc/pic32c/6.2.1/../../../../pic32c/lib/v7e-m/fpv4-sp/hard\libpic32c.a(close.o)
 .data          0x00000000        0x0 c:/program files/microchip/xc32/v2.40/bin/bin/../../lib/gcc/pic32c/6.2.1/../../../../pic32c/lib/v7e-m/fpv4-sp/hard\libpic32c.a(close.o)
 .bss           0x00000000        0x0 c:/program files/microchip/xc32/v2.40/bin/bin/../../lib/gcc/pic32c/6.2.1/../../../../pic32c/lib/v7e-m/fpv4-sp/hard\libpic32c.a(close.o)
 .gnu.warning.closestub
                0x00000000        0x0 c:/program files/microchip/xc32/v2.40/bin/bin/../../lib/gcc/pic32c/6.2.1/../../../../pic32c/lib/v7e-m/fpv4-sp/hard\libpic32c.a(close.o)
 .text          0x00000000        0x0 c:/program files/microchip/xc32/v2.40/bin/bin/../../lib/gcc/pic32c/6.2.1/../../../../pic32c/lib/v7e-m/fpv4-sp/hard\libpic32c.a(data_init.o)
 .data          0x00000000        0x0 c:/program files/microchip/xc32/v2.40/bin/bin/../../lib/gcc/pic32c/6.2.1/../../../../pic32c/lib/v7e-m/fpv4-sp/hard\libpic32c.a(data_init.o)
 .bss           0x00000000        0x0 c:/program files/microchip/xc32/v2.40/bin/bin/../../lib/gcc/pic32c/6.2.1/../../../../pic32c/lib/v7e-m/fpv4-sp/hard\libpic32c.a(data_init.o)
 .data          0x00000000        0x0 c:/program files/microchip/xc32/v2.40/bin/bin/../../lib/gcc/pic32c/6.2.1/v7e-m/fpv4-sp/hard\libgcc.a(_arm_addsubdf3.o)
 .bss           0x00000000        0x0 c:/program files/microchip/xc32/v2.40/bin/bin/../../lib/gcc/pic32c/6.2.1/v7e-m/fpv4-sp/hard\libgcc.a(_arm_addsubdf3.o)
 .data          0x00000000        0x0 c:/program files/microchip/xc32/v2.40/bin/bin/../../lib/gcc/pic32c/6.2.1/v7e-m/fpv4-sp/hard\libgcc.a(_arm_muldivdf3.o)
 .bss           0x00000000        0x0 c:/program files/microchip/xc32/v2.40/bin/bin/../../lib/gcc/pic32c/6.2.1/v7e-m/fpv4-sp/hard\libgcc.a(_arm_muldivdf3.o)
 .text          0x00000000      0x110 c:/program files/microchip/xc32/v2.40/bin/bin/../../lib/gcc/pic32c/6.2.1/v7e-m/fpv4-sp/hard\libgcc.a(_arm_cmpdf2.o)
 .data          0x00000000        0x0 c:/program files/microchip/xc32/v2.40/bin/bin/../../lib/gcc/pic32c/6.2.1/v7e-m/fpv4-sp/hard\libgcc.a(_arm_cmpdf2.o)
 .bss           0x00000000        0x0 c:/program files/microchip/xc32/v2.40/bin/bin/../../lib/gcc/pic32c/6.2.1/v7e-m/fpv4-sp/hard\libgcc.a(_arm_cmpdf2.o)
 .debug_line    0x00000000       0xf9 c:/program files/microchip/xc32/v2.40/bin/bin/../../lib/gcc/pic32c/6.2.1/v7e-m/fpv4-sp/hard\libgcc.a(_arm_cmpdf2.o)
 .debug_info    0x00000000      0x102 c:/program files/microchip/xc32/v2.40/bin/bin/../../lib/gcc/pic32c/6.2.1/v7e-m/fpv4-sp/hard\libgcc.a(_arm_cmpdf2.o)
 .debug_abbrev  0x00000000       0x14 c:/program files/microchip/xc32/v2.40/bin/bin/../../lib/gcc/pic32c/6.2.1/v7e-m/fpv4-sp/hard\libgcc.a(_arm_cmpdf2.o)
 .debug_aranges
                0x00000000       0x20 c:/program files/microchip/xc32/v2.40/bin/bin/../../lib/gcc/pic32c/6.2.1/v7e-m/fpv4-sp/hard\libgcc.a(_arm_cmpdf2.o)
 .debug_frame   0x00000000       0xc4 c:/program files/microchip/xc32/v2.40/bin/bin/../../lib/gcc/pic32c/6.2.1/v7e-m/fpv4-sp/hard\libgcc.a(_arm_cmpdf2.o)
 .ARM.attributes
                0x00000000       0x22 c:/program files/microchip/xc32/v2.40/bin/bin/../../lib/gcc/pic32c/6.2.1/v7e-m/fpv4-sp/hard\libgcc.a(_arm_cmpdf2.o)
 .text          0x00000000       0x2c c:/program files/microchip/xc32/v2.40/bin/bin/../../lib/gcc/pic32c/6.2.1/v7e-m/fpv4-sp/hard\libgcc.a(_arm_unorddf2.o)
 .data          0x00000000        0x0 c:/program files/microchip/xc32/v2.40/bin/bin/../../lib/gcc/pic32c/6.2.1/v7e-m/fpv4-sp/hard\libgcc.a(_arm_unorddf2.o)
 .bss           0x00000000        0x0 c:/program files/microchip/xc32/v2.40/bin/bin/../../lib/gcc/pic32c/6.2.1/v7e-m/fpv4-sp/hard\libgcc.a(_arm_unorddf2.o)
 .debug_line    0x00000000       0xaa c:/program files/microchip/xc32/v2.40/bin/bin/../../lib/gcc/pic32c/6.2.1/v7e-m/fpv4-sp/hard\libgcc.a(_arm_unorddf2.o)
 .debug_info    0x00000000      0x102 c:/program files/microchip/xc32/v2.40/bin/bin/../../lib/gcc/pic32c/6.2.1/v7e-m/fpv4-sp/hard\libgcc.a(_arm_unorddf2.o)
 .debug_abbrev  0x00000000       0x14 c:/program files/microchip/xc32/v2.40/bin/bin/../../lib/gcc/pic32c/6.2.1/v7e-m/fpv4-sp/hard\libgcc.a(_arm_unorddf2.o)
 .debug_aranges
                0x00000000       0x20 c:/program files/microchip/xc32/v2.40/bin/bin/../../lib/gcc/pic32c/6.2.1/v7e-m/fpv4-sp/hard\libgcc.a(_arm_unorddf2.o)
 .debug_frame   0x00000000       0x20 c:/program files/microchip/xc32/v2.40/bin/bin/../../lib/gcc/pic32c/6.2.1/v7e-m/fpv4-sp/hard\libgcc.a(_arm_unorddf2.o)
 .ARM.attributes
                0x00000000       0x22 c:/program files/microchip/xc32/v2.40/bin/bin/../../lib/gcc/pic32c/6.2.1/v7e-m/fpv4-sp/hard\libgcc.a(_arm_unorddf2.o)
 .data          0x00000000        0x0 c:/program files/microchip/xc32/v2.40/bin/bin/../../lib/gcc/pic32c/6.2.1/v7e-m/fpv4-sp/hard\libgcc.a(_arm_fixunsdfsi.o)
 .bss           0x00000000        0x0 c:/program files/microchip/xc32/v2.40/bin/bin/../../lib/gcc/pic32c/6.2.1/v7e-m/fpv4-sp/hard\libgcc.a(_arm_fixunsdfsi.o)
 .text          0x00000000       0xa0 c:/program files/microchip/xc32/v2.40/bin/bin/../../lib/gcc/pic32c/6.2.1/v7e-m/fpv4-sp/hard\libgcc.a(_arm_truncdfsf2.o)
 .data          0x00000000        0x0 c:/program files/microchip/xc32/v2.40/bin/bin/../../lib/gcc/pic32c/6.2.1/v7e-m/fpv4-sp/hard\libgcc.a(_arm_truncdfsf2.o)
 .bss           0x00000000        0x0 c:/program files/microchip/xc32/v2.40/bin/bin/../../lib/gcc/pic32c/6.2.1/v7e-m/fpv4-sp/hard\libgcc.a(_arm_truncdfsf2.o)
 .debug_line    0x00000000       0xc9 c:/program files/microchip/xc32/v2.40/bin/bin/../../lib/gcc/pic32c/6.2.1/v7e-m/fpv4-sp/hard\libgcc.a(_arm_truncdfsf2.o)
 .debug_info    0x00000000      0x102 c:/program files/microchip/xc32/v2.40/bin/bin/../../lib/gcc/pic32c/6.2.1/v7e-m/fpv4-sp/hard\libgcc.a(_arm_truncdfsf2.o)
 .debug_abbrev  0x00000000       0x14 c:/program files/microchip/xc32/v2.40/bin/bin/../../lib/gcc/pic32c/6.2.1/v7e-m/fpv4-sp/hard\libgcc.a(_arm_truncdfsf2.o)
 .debug_aranges
                0x00000000       0x20 c:/program files/microchip/xc32/v2.40/bin/bin/../../lib/gcc/pic32c/6.2.1/v7e-m/fpv4-sp/hard\libgcc.a(_arm_truncdfsf2.o)
 .debug_frame   0x00000000       0x24 c:/program files/microchip/xc32/v2.40/bin/bin/../../lib/gcc/pic32c/6.2.1/v7e-m/fpv4-sp/hard\libgcc.a(_arm_truncdfsf2.o)
 .ARM.attributes
                0x00000000       0x22 c:/program files/microchip/xc32/v2.40/bin/bin/../../lib/gcc/pic32c/6.2.1/v7e-m/fpv4-sp/hard\libgcc.a(_arm_truncdfsf2.o)
 .data          0x00000000        0x0 c:/program files/microchip/xc32/v2.40/bin/bin/../../lib/gcc/pic32c/6.2.1/v7e-m/fpv4-sp/hard\libgcc.a(_aeabi_uldivmod.o)
 .bss           0x00000000        0x0 c:/program files/microchip/xc32/v2.40/bin/bin/../../lib/gcc/pic32c/6.2.1/v7e-m/fpv4-sp/hard\libgcc.a(_aeabi_uldivmod.o)
 .text          0x00000000       0x48 c:/program files/microchip/xc32/v2.40/bin/bin/../../lib/gcc/pic32c/6.2.1/v7e-m/fpv4-sp/hard\libgcc.a(_fixunsdfdi.o)
 .data          0x00000000        0x0 c:/program files/microchip/xc32/v2.40/bin/bin/../../lib/gcc/pic32c/6.2.1/v7e-m/fpv4-sp/hard\libgcc.a(_fixunsdfdi.o)
 .bss           0x00000000        0x0 c:/program files/microchip/xc32/v2.40/bin/bin/../../lib/gcc/pic32c/6.2.1/v7e-m/fpv4-sp/hard\libgcc.a(_fixunsdfdi.o)
 .debug_info    0x00000000     0x1324 c:/program files/microchip/xc32/v2.40/bin/bin/../../lib/gcc/pic32c/6.2.1/v7e-m/fpv4-sp/hard\libgcc.a(_fixunsdfdi.o)
 .debug_abbrev  0x00000000      0x12a c:/program files/microchip/xc32/v2.40/bin/bin/../../lib/gcc/pic32c/6.2.1/v7e-m/fpv4-sp/hard\libgcc.a(_fixunsdfdi.o)
 .debug_loc     0x00000000       0xca c:/program files/microchip/xc32/v2.40/bin/bin/../../lib/gcc/pic32c/6.2.1/v7e-m/fpv4-sp/hard\libgcc.a(_fixunsdfdi.o)
 .debug_aranges
                0x00000000       0x20 c:/program files/microchip/xc32/v2.40/bin/bin/../../lib/gcc/pic32c/6.2.1/v7e-m/fpv4-sp/hard\libgcc.a(_fixunsdfdi.o)
 .debug_line    0x00000000      0x295 c:/program files/microchip/xc32/v2.40/bin/bin/../../lib/gcc/pic32c/6.2.1/v7e-m/fpv4-sp/hard\libgcc.a(_fixunsdfdi.o)
 .debug_str     0x00000000        0x0 c:/program files/microchip/xc32/v2.40/bin/bin/../../lib/gcc/pic32c/6.2.1/v7e-m/fpv4-sp/hard\libgcc.a(_fixunsdfdi.o)
 .comment       0x00000000       0x3d c:/program files/microchip/xc32/v2.40/bin/bin/../../lib/gcc/pic32c/6.2.1/v7e-m/fpv4-sp/hard\libgcc.a(_fixunsdfdi.o)
 .debug_frame   0x00000000       0x2c c:/program files/microchip/xc32/v2.40/bin/bin/../../lib/gcc/pic32c/6.2.1/v7e-m/fpv4-sp/hard\libgcc.a(_fixunsdfdi.o)
 .ARM.attributes
                0x00000000       0x34 c:/program files/microchip/xc32/v2.40/bin/bin/../../lib/gcc/pic32c/6.2.1/v7e-m/fpv4-sp/hard\libgcc.a(_fixunsdfdi.o)
 .data          0x00000000        0x0 c:/program files/microchip/xc32/v2.40/bin/bin/../../lib/gcc/pic32c/6.2.1/v7e-m/fpv4-sp/hard\libgcc.a(_udivmoddi4.o)
 .bss           0x00000000        0x0 c:/program files/microchip/xc32/v2.40/bin/bin/../../lib/gcc/pic32c/6.2.1/v7e-m/fpv4-sp/hard\libgcc.a(_udivmoddi4.o)
 .ARM.extab     0x00000000        0x0 c:/program files/microchip/xc32/v2.40/bin/bin/../../lib/gcc/pic32c/6.2.1/v7e-m/fpv4-sp/hard\libgcc.a(_udivmoddi4.o)
 .data          0x00000000        0x0 c:/program files/microchip/xc32/v2.40/bin/bin/../../lib/gcc/pic32c/6.2.1/v7e-m/fpv4-sp/hard\libgcc.a(_dvmd_tls.o)
 .bss           0x00000000        0x0 c:/program files/microchip/xc32/v2.40/bin/bin/../../lib/gcc/pic32c/6.2.1/v7e-m/fpv4-sp/hard\libgcc.a(_dvmd_tls.o)
 .text          0x00000000        0x0 c:/program files/microchip/xc32/v2.40/bin/bin/../../lib/gcc/pic32c/6.2.1/../../../../pic32c/lib/v7e-m/fpv4-sp/hard\libg_nano.a(lib_a-assert.o)
 .data          0x00000000        0x0 c:/program files/microchip/xc32/v2.40/bin/bin/../../lib/gcc/pic32c/6.2.1/../../../../pic32c/lib/v7e-m/fpv4-sp/hard\libg_nano.a(lib_a-assert.o)
 .bss           0x00000000        0x0 c:/program files/microchip/xc32/v2.40/bin/bin/../../lib/gcc/pic32c/6.2.1/../../../../pic32c/lib/v7e-m/fpv4-sp/hard\libg_nano.a(lib_a-assert.o)
 .text.__assert_func
                0x00000000       0x3c c:/program files/microchip/xc32/v2.40/bin/bin/../../lib/gcc/pic32c/6.2.1/../../../../pic32c/lib/v7e-m/fpv4-sp/hard\libg_nano.a(lib_a-assert.o)
 .text.__assert
                0x00000000        0xa c:/program files/microchip/xc32/v2.40/bin/bin/../../lib/gcc/pic32c/6.2.1/../../../../pic32c/lib/v7e-m/fpv4-sp/hard\libg_nano.a(lib_a-assert.o)
 .rodata        0x00000000       0x3d c:/program files/microchip/xc32/v2.40/bin/bin/../../lib/gcc/pic32c/6.2.1/../../../../pic32c/lib/v7e-m/fpv4-sp/hard\libg_nano.a(lib_a-assert.o)
 .debug_info    0x00000000      0xf8c c:/program files/microchip/xc32/v2.40/bin/bin/../../lib/gcc/pic32c/6.2.1/../../../../pic32c/lib/v7e-m/fpv4-sp/hard\libg_nano.a(lib_a-assert.o)
 .debug_abbrev  0x00000000      0x1c0 c:/program files/microchip/xc32/v2.40/bin/bin/../../lib/gcc/pic32c/6.2.1/../../../../pic32c/lib/v7e-m/fpv4-sp/hard\libg_nano.a(lib_a-assert.o)
 .debug_loc     0x00000000      0x15c c:/program files/microchip/xc32/v2.40/bin/bin/../../lib/gcc/pic32c/6.2.1/../../../../pic32c/lib/v7e-m/fpv4-sp/hard\libg_nano.a(lib_a-assert.o)
 .debug_aranges
                0x00000000       0x28 c:/program files/microchip/xc32/v2.40/bin/bin/../../lib/gcc/pic32c/6.2.1/../../../../pic32c/lib/v7e-m/fpv4-sp/hard\libg_nano.a(lib_a-assert.o)
 .debug_ranges  0x00000000       0x18 c:/program files/microchip/xc32/v2.40/bin/bin/../../lib/gcc/pic32c/6.2.1/../../../../pic32c/lib/v7e-m/fpv4-sp/hard\libg_nano.a(lib_a-assert.o)
 .debug_line    0x00000000      0x230 c:/program files/microchip/xc32/v2.40/bin/bin/../../lib/gcc/pic32c/6.2.1/../../../../pic32c/lib/v7e-m/fpv4-sp/hard\libg_nano.a(lib_a-assert.o)
 .debug_str     0x00000000       0x1d c:/program files/microchip/xc32/v2.40/bin/bin/../../lib/gcc/pic32c/6.2.1/../../../../pic32c/lib/v7e-m/fpv4-sp/hard\libg_nano.a(lib_a-assert.o)
 .comment       0x00000000       0x3d c:/program files/microchip/xc32/v2.40/bin/bin/../../lib/gcc/pic32c/6.2.1/../../../../pic32c/lib/v7e-m/fpv4-sp/hard\libg_nano.a(lib_a-assert.o)
 .debug_frame   0x00000000       0x40 c:/program files/microchip/xc32/v2.40/bin/bin/../../lib/gcc/pic32c/6.2.1/../../../../pic32c/lib/v7e-m/fpv4-sp/hard\libg_nano.a(lib_a-assert.o)
 .ARM.attributes
                0x00000000       0x34 c:/program files/microchip/xc32/v2.40/bin/bin/../../lib/gcc/pic32c/6.2.1/../../../../pic32c/lib/v7e-m/fpv4-sp/hard\libg_nano.a(lib_a-assert.o)
 .text          0x00000000        0x0 c:/program files/microchip/xc32/v2.40/bin/bin/../../lib/gcc/pic32c/6.2.1/../../../../pic32c/lib/v7e-m/fpv4-sp/hard\libg_nano.a(lib_a-atoi.o)
 .data          0x00000000        0x0 c:/program files/microchip/xc32/v2.40/bin/bin/../../lib/gcc/pic32c/6.2.1/../../../../pic32c/lib/v7e-m/fpv4-sp/hard\libg_nano.a(lib_a-atoi.o)
 .bss           0x00000000        0x0 c:/program files/microchip/xc32/v2.40/bin/bin/../../lib/gcc/pic32c/6.2.1/../../../../pic32c/lib/v7e-m/fpv4-sp/hard\libg_nano.a(lib_a-atoi.o)
 .text.atoi     0x00000000        0x8 c:/program files/microchip/xc32/v2.40/bin/bin/../../lib/gcc/pic32c/6.2.1/../../../../pic32c/lib/v7e-m/fpv4-sp/hard\libg_nano.a(lib_a-atoi.o)
 .text._atoi_r  0x00000000        0x8 c:/program files/microchip/xc32/v2.40/bin/bin/../../lib/gcc/pic32c/6.2.1/../../../../pic32c/lib/v7e-m/fpv4-sp/hard\libg_nano.a(lib_a-atoi.o)
 .debug_info    0x00000000      0xea7 c:/program files/microchip/xc32/v2.40/bin/bin/../../lib/gcc/pic32c/6.2.1/../../../../pic32c/lib/v7e-m/fpv4-sp/hard\libg_nano.a(lib_a-atoi.o)
 .debug_abbrev  0x00000000      0x199 c:/program files/microchip/xc32/v2.40/bin/bin/../../lib/gcc/pic32c/6.2.1/../../../../pic32c/lib/v7e-m/fpv4-sp/hard\libg_nano.a(lib_a-atoi.o)
 .debug_loc     0x00000000       0x63 c:/program files/microchip/xc32/v2.40/bin/bin/../../lib/gcc/pic32c/6.2.1/../../../../pic32c/lib/v7e-m/fpv4-sp/hard\libg_nano.a(lib_a-atoi.o)
 .debug_aranges
                0x00000000       0x28 c:/program files/microchip/xc32/v2.40/bin/bin/../../lib/gcc/pic32c/6.2.1/../../../../pic32c/lib/v7e-m/fpv4-sp/hard\libg_nano.a(lib_a-atoi.o)
 .debug_ranges  0x00000000       0x18 c:/program files/microchip/xc32/v2.40/bin/bin/../../lib/gcc/pic32c/6.2.1/../../../../pic32c/lib/v7e-m/fpv4-sp/hard\libg_nano.a(lib_a-atoi.o)
 .debug_line    0x00000000      0x210 c:/program files/microchip/xc32/v2.40/bin/bin/../../lib/gcc/pic32c/6.2.1/../../../../pic32c/lib/v7e-m/fpv4-sp/hard\libg_nano.a(lib_a-atoi.o)
 .debug_str     0x00000000       0x13 c:/program files/microchip/xc32/v2.40/bin/bin/../../lib/gcc/pic32c/6.2.1/../../../../pic32c/lib/v7e-m/fpv4-sp/hard\libg_nano.a(lib_a-atoi.o)
 .comment       0x00000000       0x3d c:/program files/microchip/xc32/v2.40/bin/bin/../../lib/gcc/pic32c/6.2.1/../../../../pic32c/lib/v7e-m/fpv4-sp/hard\libg_nano.a(lib_a-atoi.o)
 .debug_frame   0x00000000       0x30 c:/program files/microchip/xc32/v2.40/bin/bin/../../lib/gcc/pic32c/6.2.1/../../../../pic32c/lib/v7e-m/fpv4-sp/hard\libg_nano.a(lib_a-atoi.o)
 .ARM.attributes
                0x00000000       0x34 c:/program files/microchip/xc32/v2.40/bin/bin/../../lib/gcc/pic32c/6.2.1/../../../../pic32c/lib/v7e-m/fpv4-sp/hard\libg_nano.a(lib_a-atoi.o)
 .text          0x00000000        0x0 c:/program files/microchip/xc32/v2.40/bin/bin/../../lib/gcc/pic32c/6.2.1/../../../../pic32c/lib/v7e-m/fpv4-sp/hard\libg_nano.a(lib_a-calloc.o)
 .data          0x00000000        0x0 c:/program files/microchip/xc32/v2.40/bin/bin/../../lib/gcc/pic32c/6.2.1/../../../../pic32c/lib/v7e-m/fpv4-sp/hard\libg_nano.a(lib_a-calloc.o)
 .bss           0x00000000        0x0 c:/program files/microchip/xc32/v2.40/bin/bin/../../lib/gcc/pic32c/6.2.1/../../../../pic32c/lib/v7e-m/fpv4-sp/hard\libg_nano.a(lib_a-calloc.o)
 .text          0x00000000        0x0 c:/program files/microchip/xc32/v2.40/bin/bin/../../lib/gcc/pic32c/6.2.1/../../../../pic32c/lib/v7e-m/fpv4-sp/hard\libg_nano.a(lib_a-fprintf.o)
 .data          0x00000000        0x0 c:/program files/microchip/xc32/v2.40/bin/bin/../../lib/gcc/pic32c/6.2.1/../../../../pic32c/lib/v7e-m/fpv4-sp/hard\libg_nano.a(lib_a-fprintf.o)
 .bss           0x00000000        0x0 c:/program files/microchip/xc32/v2.40/bin/bin/../../lib/gcc/pic32c/6.2.1/../../../../pic32c/lib/v7e-m/fpv4-sp/hard\libg_nano.a(lib_a-fprintf.o)
 .text._fprintf_r
                0x00000000       0x1a c:/program files/microchip/xc32/v2.40/bin/bin/../../lib/gcc/pic32c/6.2.1/../../../../pic32c/lib/v7e-m/fpv4-sp/hard\libg_nano.a(lib_a-fprintf.o)
 .text.fprintf  0x00000000       0x24 c:/program files/microchip/xc32/v2.40/bin/bin/../../lib/gcc/pic32c/6.2.1/../../../../pic32c/lib/v7e-m/fpv4-sp/hard\libg_nano.a(lib_a-fprintf.o)
 .debug_info    0x00000000      0xfbc c:/program files/microchip/xc32/v2.40/bin/bin/../../lib/gcc/pic32c/6.2.1/../../../../pic32c/lib/v7e-m/fpv4-sp/hard\libg_nano.a(lib_a-fprintf.o)
 .debug_abbrev  0x00000000      0x1c1 c:/program files/microchip/xc32/v2.40/bin/bin/../../lib/gcc/pic32c/6.2.1/../../../../pic32c/lib/v7e-m/fpv4-sp/hard\libg_nano.a(lib_a-fprintf.o)
 .debug_loc     0x00000000      0x10e c:/program files/microchip/xc32/v2.40/bin/bin/../../lib/gcc/pic32c/6.2.1/../../../../pic32c/lib/v7e-m/fpv4-sp/hard\libg_nano.a(lib_a-fprintf.o)
 .debug_aranges
                0x00000000       0x28 c:/program files/microchip/xc32/v2.40/bin/bin/../../lib/gcc/pic32c/6.2.1/../../../../pic32c/lib/v7e-m/fpv4-sp/hard\libg_nano.a(lib_a-fprintf.o)
 .debug_ranges  0x00000000       0x18 c:/program files/microchip/xc32/v2.40/bin/bin/../../lib/gcc/pic32c/6.2.1/../../../../pic32c/lib/v7e-m/fpv4-sp/hard\libg_nano.a(lib_a-fprintf.o)
 .debug_line    0x00000000      0x233 c:/program files/microchip/xc32/v2.40/bin/bin/../../lib/gcc/pic32c/6.2.1/../../../../pic32c/lib/v7e-m/fpv4-sp/hard\libg_nano.a(lib_a-fprintf.o)
 .debug_str     0x00000000       0x15 c:/program files/microchip/xc32/v2.40/bin/bin/../../lib/gcc/pic32c/6.2.1/../../../../pic32c/lib/v7e-m/fpv4-sp/hard\libg_nano.a(lib_a-fprintf.o)
 .comment       0x00000000       0x3d c:/program files/microchip/xc32/v2.40/bin/bin/../../lib/gcc/pic32c/6.2.1/../../../../pic32c/lib/v7e-m/fpv4-sp/hard\libg_nano.a(lib_a-fprintf.o)
 .debug_frame   0x00000000       0x64 c:/program files/microchip/xc32/v2.40/bin/bin/../../lib/gcc/pic32c/6.2.1/../../../../pic32c/lib/v7e-m/fpv4-sp/hard\libg_nano.a(lib_a-fprintf.o)
 .ARM.attributes
                0x00000000       0x34 c:/program files/microchip/xc32/v2.40/bin/bin/../../lib/gcc/pic32c/6.2.1/../../../../pic32c/lib/v7e-m/fpv4-sp/hard\libg_nano.a(lib_a-fprintf.o)
 .text          0x00000000        0x0 c:/program files/microchip/xc32/v2.40/bin/bin/../../lib/gcc/pic32c/6.2.1/../../../../pic32c/lib/v7e-m/fpv4-sp/hard\libg_nano.a(lib_a-gmtime.o)
 .data          0x00000000        0x0 c:/program files/microchip/xc32/v2.40/bin/bin/../../lib/gcc/pic32c/6.2.1/../../../../pic32c/lib/v7e-m/fpv4-sp/hard\libg_nano.a(lib_a-gmtime.o)
 .bss           0x00000000        0x0 c:/program files/microchip/xc32/v2.40/bin/bin/../../lib/gcc/pic32c/6.2.1/../../../../pic32c/lib/v7e-m/fpv4-sp/hard\libg_nano.a(lib_a-gmtime.o)
 .text          0x00000000        0x0 c:/program files/microchip/xc32/v2.40/bin/bin/../../lib/gcc/pic32c/6.2.1/../../../../pic32c/lib/v7e-m/fpv4-sp/hard\libg_nano.a(lib_a-gmtime_r.o)
 .data          0x00000000        0x0 c:/program files/microchip/xc32/v2.40/bin/bin/../../lib/gcc/pic32c/6.2.1/../../../../pic32c/lib/v7e-m/fpv4-sp/hard\libg_nano.a(lib_a-gmtime_r.o)
 .bss           0x00000000        0x0 c:/program files/microchip/xc32/v2.40/bin/bin/../../lib/gcc/pic32c/6.2.1/../../../../pic32c/lib/v7e-m/fpv4-sp/hard\libg_nano.a(lib_a-gmtime_r.o)
 .text          0x00000000        0x0 c:/program files/microchip/xc32/v2.40/bin/bin/../../lib/gcc/pic32c/6.2.1/../../../../pic32c/lib/v7e-m/fpv4-sp/hard\libg_nano.a(lib_a-impure.o)
 .data          0x00000000        0x0 c:/program files/microchip/xc32/v2.40/bin/bin/../../lib/gcc/pic32c/6.2.1/../../../../pic32c/lib/v7e-m/fpv4-sp/hard\libg_nano.a(lib_a-impure.o)
 .bss           0x00000000        0x0 c:/program files/microchip/xc32/v2.40/bin/bin/../../lib/gcc/pic32c/6.2.1/../../../../pic32c/lib/v7e-m/fpv4-sp/hard\libg_nano.a(lib_a-impure.o)
 .text          0x00000000        0x0 c:/program files/microchip/xc32/v2.40/bin/bin/../../lib/gcc/pic32c/6.2.1/../../../../pic32c/lib/v7e-m/fpv4-sp/hard\libg_nano.a(lib_a-init.o)
 .data          0x00000000        0x0 c:/program files/microchip/xc32/v2.40/bin/bin/../../lib/gcc/pic32c/6.2.1/../../../../pic32c/lib/v7e-m/fpv4-sp/hard\libg_nano.a(lib_a-init.o)
 .bss           0x00000000        0x0 c:/program files/microchip/xc32/v2.40/bin/bin/../../lib/gcc/pic32c/6.2.1/../../../../pic32c/lib/v7e-m/fpv4-sp/hard\libg_nano.a(lib_a-init.o)
 .text          0x00000000        0x0 c:/program files/microchip/xc32/v2.40/bin/bin/../../lib/gcc/pic32c/6.2.1/../../../../pic32c/lib/v7e-m/fpv4-sp/hard\libg_nano.a(lib_a-locale.o)
 .data          0x00000000        0x0 c:/program files/microchip/xc32/v2.40/bin/bin/../../lib/gcc/pic32c/6.2.1/../../../../pic32c/lib/v7e-m/fpv4-sp/hard\libg_nano.a(lib_a-locale.o)
 .bss           0x00000000        0x0 c:/program files/microchip/xc32/v2.40/bin/bin/../../lib/gcc/pic32c/6.2.1/../../../../pic32c/lib/v7e-m/fpv4-sp/hard\libg_nano.a(lib_a-locale.o)
 .text._setlocale_r
                0x00000000       0x38 c:/program files/microchip/xc32/v2.40/bin/bin/../../lib/gcc/pic32c/6.2.1/../../../../pic32c/lib/v7e-m/fpv4-sp/hard\libg_nano.a(lib_a-locale.o)
 .text.setlocale
                0x00000000       0x10 c:/program files/microchip/xc32/v2.40/bin/bin/../../lib/gcc/pic32c/6.2.1/../../../../pic32c/lib/v7e-m/fpv4-sp/hard\libg_nano.a(lib_a-locale.o)
 .bss._PathLocale
                0x00000000        0x4 c:/program files/microchip/xc32/v2.40/bin/bin/../../lib/gcc/pic32c/6.2.1/../../../../pic32c/lib/v7e-m/fpv4-sp/hard\libg_nano.a(lib_a-locale.o)
 .text          0x00000000        0x0 c:/program files/microchip/xc32/v2.40/bin/bin/../../lib/gcc/pic32c/6.2.1/../../../../pic32c/lib/v7e-m/fpv4-sp/hard\libg_nano.a(lib_a-malloc.o)
 .data          0x00000000        0x0 c:/program files/microchip/xc32/v2.40/bin/bin/../../lib/gcc/pic32c/6.2.1/../../../../pic32c/lib/v7e-m/fpv4-sp/hard\libg_nano.a(lib_a-malloc.o)
 .bss           0x00000000        0x0 c:/program files/microchip/xc32/v2.40/bin/bin/../../lib/gcc/pic32c/6.2.1/../../../../pic32c/lib/v7e-m/fpv4-sp/hard\libg_nano.a(lib_a-malloc.o)
 .text          0x00000000        0x0 c:/program files/microchip/xc32/v2.40/bin/bin/../../lib/gcc/pic32c/6.2.1/../../../../pic32c/lib/v7e-m/fpv4-sp/hard\libg_nano.a(lib_a-mbtowc_r.o)
 .data          0x00000000        0x0 c:/program files/microchip/xc32/v2.40/bin/bin/../../lib/gcc/pic32c/6.2.1/../../../../pic32c/lib/v7e-m/fpv4-sp/hard\libg_nano.a(lib_a-mbtowc_r.o)
 .bss           0x00000000        0x0 c:/program files/microchip/xc32/v2.40/bin/bin/../../lib/gcc/pic32c/6.2.1/../../../../pic32c/lib/v7e-m/fpv4-sp/hard\libg_nano.a(lib_a-mbtowc_r.o)
 .text._mbtowc_r
                0x00000000       0x24 c:/program files/microchip/xc32/v2.40/bin/bin/../../lib/gcc/pic32c/6.2.1/../../../../pic32c/lib/v7e-m/fpv4-sp/hard\libg_nano.a(lib_a-mbtowc_r.o)
 .data          0x00000000        0x0 c:/program files/microchip/xc32/v2.40/bin/bin/../../lib/gcc/pic32c/6.2.1/../../../../pic32c/lib/v7e-m/fpv4-sp/hard\libg_nano.a(lib_a-memchr.o)
 .bss           0x00000000        0x0 c:/program files/microchip/xc32/v2.40/bin/bin/../../lib/gcc/pic32c/6.2.1/../../../../pic32c/lib/v7e-m/fpv4-sp/hard\libg_nano.a(lib_a-memchr.o)
 .text          0x00000000        0x0 c:/program files/microchip/xc32/v2.40/bin/bin/../../lib/gcc/pic32c/6.2.1/../../../../pic32c/lib/v7e-m/fpv4-sp/hard\libg_nano.a(lib_a-memcmp.o)
 .data          0x00000000        0x0 c:/program files/microchip/xc32/v2.40/bin/bin/../../lib/gcc/pic32c/6.2.1/../../../../pic32c/lib/v7e-m/fpv4-sp/hard\libg_nano.a(lib_a-memcmp.o)
 .bss           0x00000000        0x0 c:/program files/microchip/xc32/v2.40/bin/bin/../../lib/gcc/pic32c/6.2.1/../../../../pic32c/lib/v7e-m/fpv4-sp/hard\libg_nano.a(lib_a-memcmp.o)
 .text          0x00000000        0x0 c:/program files/microchip/xc32/v2.40/bin/bin/../../lib/gcc/pic32c/6.2.1/../../../../pic32c/lib/v7e-m/fpv4-sp/hard\libg_nano.a(lib_a-memcpy-stub.o)
 .data          0x00000000        0x0 c:/program files/microchip/xc32/v2.40/bin/bin/../../lib/gcc/pic32c/6.2.1/../../../../pic32c/lib/v7e-m/fpv4-sp/hard\libg_nano.a(lib_a-memcpy-stub.o)
 .bss           0x00000000        0x0 c:/program files/microchip/xc32/v2.40/bin/bin/../../lib/gcc/pic32c/6.2.1/../../../../pic32c/lib/v7e-m/fpv4-sp/hard\libg_nano.a(lib_a-memcpy-stub.o)
 .text          0x00000000        0x0 c:/program files/microchip/xc32/v2.40/bin/bin/../../lib/gcc/pic32c/6.2.1/../../../../pic32c/lib/v7e-m/fpv4-sp/hard\libg_nano.a(lib_a-memmove.o)
 .data          0x00000000        0x0 c:/program files/microchip/xc32/v2.40/bin/bin/../../lib/gcc/pic32c/6.2.1/../../../../pic32c/lib/v7e-m/fpv4-sp/hard\libg_nano.a(lib_a-memmove.o)
 .bss           0x00000000        0x0 c:/program files/microchip/xc32/v2.40/bin/bin/../../lib/gcc/pic32c/6.2.1/../../../../pic32c/lib/v7e-m/fpv4-sp/hard\libg_nano.a(lib_a-memmove.o)
 .text          0x00000000        0x0 c:/program files/microchip/xc32/v2.40/bin/bin/../../lib/gcc/pic32c/6.2.1/../../../../pic32c/lib/v7e-m/fpv4-sp/hard\libg_nano.a(lib_a-memset.o)
 .data          0x00000000        0x0 c:/program files/microchip/xc32/v2.40/bin/bin/../../lib/gcc/pic32c/6.2.1/../../../../pic32c/lib/v7e-m/fpv4-sp/hard\libg_nano.a(lib_a-memset.o)
 .bss           0x00000000        0x0 c:/program files/microchip/xc32/v2.40/bin/bin/../../lib/gcc/pic32c/6.2.1/../../../../pic32c/lib/v7e-m/fpv4-sp/hard\libg_nano.a(lib_a-memset.o)
 .text          0x00000000        0x0 c:/program files/microchip/xc32/v2.40/bin/bin/../../lib/gcc/pic32c/6.2.1/../../../../pic32c/lib/v7e-m/fpv4-sp/hard\libg_nano.a(lib_a-mktime.o)
 .data          0x00000000        0x0 c:/program files/microchip/xc32/v2.40/bin/bin/../../lib/gcc/pic32c/6.2.1/../../../../pic32c/lib/v7e-m/fpv4-sp/hard\libg_nano.a(lib_a-mktime.o)
 .bss           0x00000000        0x0 c:/program files/microchip/xc32/v2.40/bin/bin/../../lib/gcc/pic32c/6.2.1/../../../../pic32c/lib/v7e-m/fpv4-sp/hard\libg_nano.a(lib_a-mktime.o)
 .text          0x00000000        0x0 c:/program files/microchip/xc32/v2.40/bin/bin/../../lib/gcc/pic32c/6.2.1/../../../../pic32c/lib/v7e-m/fpv4-sp/hard\libg_nano.a(lib_a-nano-callocr.o)
 .data          0x00000000        0x0 c:/program files/microchip/xc32/v2.40/bin/bin/../../lib/gcc/pic32c/6.2.1/../../../../pic32c/lib/v7e-m/fpv4-sp/hard\libg_nano.a(lib_a-nano-callocr.o)
 .bss           0x00000000        0x0 c:/program files/microchip/xc32/v2.40/bin/bin/../../lib/gcc/pic32c/6.2.1/../../../../pic32c/lib/v7e-m/fpv4-sp/hard\libg_nano.a(lib_a-nano-callocr.o)
 .text          0x00000000        0x0 c:/program files/microchip/xc32/v2.40/bin/bin/../../lib/gcc/pic32c/6.2.1/../../../../pic32c/lib/v7e-m/fpv4-sp/hard\libg_nano.a(lib_a-nano-freer.o)
 .data          0x00000000        0x0 c:/program files/microchip/xc32/v2.40/bin/bin/../../lib/gcc/pic32c/6.2.1/../../../../pic32c/lib/v7e-m/fpv4-sp/hard\libg_nano.a(lib_a-nano-freer.o)
 .bss           0x00000000        0x0 c:/program files/microchip/xc32/v2.40/bin/bin/../../lib/gcc/pic32c/6.2.1/../../../../pic32c/lib/v7e-m/fpv4-sp/hard\libg_nano.a(lib_a-nano-freer.o)
 .text          0x00000000        0x0 c:/program files/microchip/xc32/v2.40/bin/bin/../../lib/gcc/pic32c/6.2.1/../../../../pic32c/lib/v7e-m/fpv4-sp/hard\libg_nano.a(lib_a-nano-mallocr.o)
 .data          0x00000000        0x0 c:/program files/microchip/xc32/v2.40/bin/bin/../../lib/gcc/pic32c/6.2.1/../../../../pic32c/lib/v7e-m/fpv4-sp/hard\libg_nano.a(lib_a-nano-mallocr.o)
 .bss           0x00000000        0x0 c:/program files/microchip/xc32/v2.40/bin/bin/../../lib/gcc/pic32c/6.2.1/../../../../pic32c/lib/v7e-m/fpv4-sp/hard\libg_nano.a(lib_a-nano-mallocr.o)
 .text          0x00000000        0x0 c:/program files/microchip/xc32/v2.40/bin/bin/../../lib/gcc/pic32c/6.2.1/../../../../pic32c/lib/v7e-m/fpv4-sp/hard\libg_nano.a(lib_a-nano-vfprintf.o)
 .data          0x00000000        0x0 c:/program files/microchip/xc32/v2.40/bin/bin/../../lib/gcc/pic32c/6.2.1/../../../../pic32c/lib/v7e-m/fpv4-sp/hard\libg_nano.a(lib_a-nano-vfprintf.o)
 .bss           0x00000000        0x0 c:/program files/microchip/xc32/v2.40/bin/bin/../../lib/gcc/pic32c/6.2.1/../../../../pic32c/lib/v7e-m/fpv4-sp/hard\libg_nano.a(lib_a-nano-vfprintf.o)
 .text.vfprintf
                0x00000000       0x14 c:/program files/microchip/xc32/v2.40/bin/bin/../../lib/gcc/pic32c/6.2.1/../../../../pic32c/lib/v7e-m/fpv4-sp/hard\libg_nano.a(lib_a-nano-vfprintf.o)
 .text          0x00000000        0x0 c:/program files/microchip/xc32/v2.40/bin/bin/../../lib/gcc/pic32c/6.2.1/../../../../pic32c/lib/v7e-m/fpv4-sp/hard\libg_nano.a(_lib_a-nano-vfprintf.s.o)
 .data          0x00000000        0x0 c:/program files/microchip/xc32/v2.40/bin/bin/../../lib/gcc/pic32c/6.2.1/../../../../pic32c/lib/v7e-m/fpv4-sp/hard\libg_nano.a(_lib_a-nano-vfprintf.s.o)
 .bss           0x00000000        0x0 c:/program files/microchip/xc32/v2.40/bin/bin/../../lib/gcc/pic32c/6.2.1/../../../../pic32c/lib/v7e-m/fpv4-sp/hard\libg_nano.a(_lib_a-nano-vfprintf.s.o)
 .text._vfprintf_r_s
                0x00000000      0x288 c:/program files/microchip/xc32/v2.40/bin/bin/../../lib/gcc/pic32c/6.2.1/../../../../pic32c/lib/v7e-m/fpv4-sp/hard\libg_nano.a(_lib_a-nano-vfprintf.s.o)
 .text._vfprintf_s
                0x00000000       0x14 c:/program files/microchip/xc32/v2.40/bin/bin/../../lib/gcc/pic32c/6.2.1/../../../../pic32c/lib/v7e-m/fpv4-sp/hard\libg_nano.a(_lib_a-nano-vfprintf.s.o)
 .rodata        0x00000000       0x11 c:/program files/microchip/xc32/v2.40/bin/bin/../../lib/gcc/pic32c/6.2.1/../../../../pic32c/lib/v7e-m/fpv4-sp/hard\libg_nano.a(_lib_a-nano-vfprintf.s.o)
 .text          0x00000000        0x0 c:/program files/microchip/xc32/v2.40/bin/bin/../../lib/gcc/pic32c/6.2.1/../../../../pic32c/lib/v7e-m/fpv4-sp/hard\libg_nano.a(lib_a-printf.o)
 .data          0x00000000        0x0 c:/program files/microchip/xc32/v2.40/bin/bin/../../lib/gcc/pic32c/6.2.1/../../../../pic32c/lib/v7e-m/fpv4-sp/hard\libg_nano.a(lib_a-printf.o)
 .bss           0x00000000        0x0 c:/program files/microchip/xc32/v2.40/bin/bin/../../lib/gcc/pic32c/6.2.1/../../../../pic32c/lib/v7e-m/fpv4-sp/hard\libg_nano.a(lib_a-printf.o)
 .text._printf_r
                0x00000000       0x28 c:/program files/microchip/xc32/v2.40/bin/bin/../../lib/gcc/pic32c/6.2.1/../../../../pic32c/lib/v7e-m/fpv4-sp/hard\libg_nano.a(lib_a-printf.o)
 .text          0x00000000        0x0 c:/program files/microchip/xc32/v2.40/bin/bin/../../lib/gcc/pic32c/6.2.1/../../../../pic32c/lib/v7e-m/fpv4-sp/hard\libg_nano.a(lib_a-putchar.o)
 .data          0x00000000        0x0 c:/program files/microchip/xc32/v2.40/bin/bin/../../lib/gcc/pic32c/6.2.1/../../../../pic32c/lib/v7e-m/fpv4-sp/hard\libg_nano.a(lib_a-putchar.o)
 .bss           0x00000000        0x0 c:/program files/microchip/xc32/v2.40/bin/bin/../../lib/gcc/pic32c/6.2.1/../../../../pic32c/lib/v7e-m/fpv4-sp/hard\libg_nano.a(lib_a-putchar.o)
 .text._putchar_r
                0x00000000       0x1e c:/program files/microchip/xc32/v2.40/bin/bin/../../lib/gcc/pic32c/6.2.1/../../../../pic32c/lib/v7e-m/fpv4-sp/hard\libg_nano.a(lib_a-putchar.o)
 .text          0x00000000        0x0 c:/program files/microchip/xc32/v2.40/bin/bin/../../lib/gcc/pic32c/6.2.1/../../../../pic32c/lib/v7e-m/fpv4-sp/hard\libg_nano.a(lib_a-putc.o)
 .data          0x00000000        0x0 c:/program files/microchip/xc32/v2.40/bin/bin/../../lib/gcc/pic32c/6.2.1/../../../../pic32c/lib/v7e-m/fpv4-sp/hard\libg_nano.a(lib_a-putc.o)
 .bss           0x00000000        0x0 c:/program files/microchip/xc32/v2.40/bin/bin/../../lib/gcc/pic32c/6.2.1/../../../../pic32c/lib/v7e-m/fpv4-sp/hard\libg_nano.a(lib_a-putc.o)
 .text.putc     0x00000000       0x10 c:/program files/microchip/xc32/v2.40/bin/bin/../../lib/gcc/pic32c/6.2.1/../../../../pic32c/lib/v7e-m/fpv4-sp/hard\libg_nano.a(lib_a-putc.o)
 .text          0x00000000        0x0 c:/program files/microchip/xc32/v2.40/bin/bin/../../lib/gcc/pic32c/6.2.1/../../../../pic32c/lib/v7e-m/fpv4-sp/hard\libg_nano.a(lib_a-puts.o)
 .data          0x00000000        0x0 c:/program files/microchip/xc32/v2.40/bin/bin/../../lib/gcc/pic32c/6.2.1/../../../../pic32c/lib/v7e-m/fpv4-sp/hard\libg_nano.a(lib_a-puts.o)
 .bss           0x00000000        0x0 c:/program files/microchip/xc32/v2.40/bin/bin/../../lib/gcc/pic32c/6.2.1/../../../../pic32c/lib/v7e-m/fpv4-sp/hard\libg_nano.a(lib_a-puts.o)
 .text          0x00000000        0x0 c:/program files/microchip/xc32/v2.40/bin/bin/../../lib/gcc/pic32c/6.2.1/../../../../pic32c/lib/v7e-m/fpv4-sp/hard\libg_nano.a(lib_a-rand.o)
 .data          0x00000000        0x0 c:/program files/microchip/xc32/v2.40/bin/bin/../../lib/gcc/pic32c/6.2.1/../../../../pic32c/lib/v7e-m/fpv4-sp/hard\libg_nano.a(lib_a-rand.o)
 .bss           0x00000000        0x0 c:/program files/microchip/xc32/v2.40/bin/bin/../../lib/gcc/pic32c/6.2.1/../../../../pic32c/lib/v7e-m/fpv4-sp/hard\libg_nano.a(lib_a-rand.o)
 .text.srand    0x00000000       0x50 c:/program files/microchip/xc32/v2.40/bin/bin/../../lib/gcc/pic32c/6.2.1/../../../../pic32c/lib/v7e-m/fpv4-sp/hard\libg_nano.a(lib_a-rand.o)
 .text          0x00000000        0x0 c:/program files/microchip/xc32/v2.40/bin/bin/../../lib/gcc/pic32c/6.2.1/../../../../pic32c/lib/v7e-m/fpv4-sp/hard\libg_nano.a(lib_a-sbrkr.o)
 .data          0x00000000        0x0 c:/program files/microchip/xc32/v2.40/bin/bin/../../lib/gcc/pic32c/6.2.1/../../../../pic32c/lib/v7e-m/fpv4-sp/hard\libg_nano.a(lib_a-sbrkr.o)
 .bss           0x00000000        0x0 c:/program files/microchip/xc32/v2.40/bin/bin/../../lib/gcc/pic32c/6.2.1/../../../../pic32c/lib/v7e-m/fpv4-sp/hard\libg_nano.a(lib_a-sbrkr.o)
 .text          0x00000000        0x0 c:/program files/microchip/xc32/v2.40/bin/bin/../../lib/gcc/pic32c/6.2.1/../../../../pic32c/lib/v7e-m/fpv4-sp/hard\libg_nano.a(lib_a-s_ldexp.o)
 .data          0x00000000        0x0 c:/program files/microchip/xc32/v2.40/bin/bin/../../lib/gcc/pic32c/6.2.1/../../../../pic32c/lib/v7e-m/fpv4-sp/hard\libg_nano.a(lib_a-s_ldexp.o)
 .bss           0x00000000        0x0 c:/program files/microchip/xc32/v2.40/bin/bin/../../lib/gcc/pic32c/6.2.1/../../../../pic32c/lib/v7e-m/fpv4-sp/hard\libg_nano.a(lib_a-s_ldexp.o)
 .text.ldexp    0x00000000       0x64 c:/program files/microchip/xc32/v2.40/bin/bin/../../lib/gcc/pic32c/6.2.1/../../../../pic32c/lib/v7e-m/fpv4-sp/hard\libg_nano.a(lib_a-s_ldexp.o)
 .debug_info    0x00000000      0xf7b c:/program files/microchip/xc32/v2.40/bin/bin/../../lib/gcc/pic32c/6.2.1/../../../../pic32c/lib/v7e-m/fpv4-sp/hard\libg_nano.a(lib_a-s_ldexp.o)
 .debug_abbrev  0x00000000      0x1cb c:/program files/microchip/xc32/v2.40/bin/bin/../../lib/gcc/pic32c/6.2.1/../../../../pic32c/lib/v7e-m/fpv4-sp/hard\libg_nano.a(lib_a-s_ldexp.o)
 .debug_loc     0x00000000       0xb8 c:/program files/microchip/xc32/v2.40/bin/bin/../../lib/gcc/pic32c/6.2.1/../../../../pic32c/lib/v7e-m/fpv4-sp/hard\libg_nano.a(lib_a-s_ldexp.o)
 .debug_aranges
                0x00000000       0x20 c:/program files/microchip/xc32/v2.40/bin/bin/../../lib/gcc/pic32c/6.2.1/../../../../pic32c/lib/v7e-m/fpv4-sp/hard\libg_nano.a(lib_a-s_ldexp.o)
 .debug_ranges  0x00000000       0x10 c:/program files/microchip/xc32/v2.40/bin/bin/../../lib/gcc/pic32c/6.2.1/../../../../pic32c/lib/v7e-m/fpv4-sp/hard\libg_nano.a(lib_a-s_ldexp.o)
 .debug_line    0x00000000      0x214 c:/program files/microchip/xc32/v2.40/bin/bin/../../lib/gcc/pic32c/6.2.1/../../../../pic32c/lib/v7e-m/fpv4-sp/hard\libg_nano.a(lib_a-s_ldexp.o)
 .debug_str     0x00000000        0x9 c:/program files/microchip/xc32/v2.40/bin/bin/../../lib/gcc/pic32c/6.2.1/../../../../pic32c/lib/v7e-m/fpv4-sp/hard\libg_nano.a(lib_a-s_ldexp.o)
 .comment       0x00000000       0x3d c:/program files/microchip/xc32/v2.40/bin/bin/../../lib/gcc/pic32c/6.2.1/../../../../pic32c/lib/v7e-m/fpv4-sp/hard\libg_nano.a(lib_a-s_ldexp.o)
 .debug_frame   0x00000000       0x38 c:/program files/microchip/xc32/v2.40/bin/bin/../../lib/gcc/pic32c/6.2.1/../../../../pic32c/lib/v7e-m/fpv4-sp/hard\libg_nano.a(lib_a-s_ldexp.o)
 .ARM.attributes
                0x00000000       0x34 c:/program files/microchip/xc32/v2.40/bin/bin/../../lib/gcc/pic32c/6.2.1/../../../../pic32c/lib/v7e-m/fpv4-sp/hard\libg_nano.a(lib_a-s_ldexp.o)
 .text          0x00000000        0x0 c:/program files/microchip/xc32/v2.40/bin/bin/../../lib/gcc/pic32c/6.2.1/../../../../pic32c/lib/v7e-m/fpv4-sp/hard\libg_nano.a(lib_a-snprintf.o)
 .data          0x00000000        0x0 c:/program files/microchip/xc32/v2.40/bin/bin/../../lib/gcc/pic32c/6.2.1/../../../../pic32c/lib/v7e-m/fpv4-sp/hard\libg_nano.a(lib_a-snprintf.o)
 .bss           0x00000000        0x0 c:/program files/microchip/xc32/v2.40/bin/bin/../../lib/gcc/pic32c/6.2.1/../../../../pic32c/lib/v7e-m/fpv4-sp/hard\libg_nano.a(lib_a-snprintf.o)
 .text._snprintf_r
                0x00000000       0x62 c:/program files/microchip/xc32/v2.40/bin/bin/../../lib/gcc/pic32c/6.2.1/../../../../pic32c/lib/v7e-m/fpv4-sp/hard\libg_nano.a(lib_a-snprintf.o)
 .text          0x00000000        0x0 c:/program files/microchip/xc32/v2.40/bin/bin/../../lib/gcc/pic32c/6.2.1/../../../../pic32c/lib/v7e-m/fpv4-sp/hard\libg_nano.a(lib_a-sprintf.o)
 .data          0x00000000        0x0 c:/program files/microchip/xc32/v2.40/bin/bin/../../lib/gcc/pic32c/6.2.1/../../../../pic32c/lib/v7e-m/fpv4-sp/hard\libg_nano.a(lib_a-sprintf.o)
 .bss           0x00000000        0x0 c:/program files/microchip/xc32/v2.40/bin/bin/../../lib/gcc/pic32c/6.2.1/../../../../pic32c/lib/v7e-m/fpv4-sp/hard\libg_nano.a(lib_a-sprintf.o)
 .text._sprintf_r
                0x00000000       0x42 c:/program files/microchip/xc32/v2.40/bin/bin/../../lib/gcc/pic32c/6.2.1/../../../../pic32c/lib/v7e-m/fpv4-sp/hard\libg_nano.a(lib_a-sprintf.o)
 .text          0x00000000        0x0 c:/program files/microchip/xc32/v2.40/bin/bin/../../lib/gcc/pic32c/6.2.1/../../../../pic32c/lib/v7e-m/fpv4-sp/hard\libg_nano.a(lib_a-s_scalbn.o)
 .data          0x00000000        0x0 c:/program files/microchip/xc32/v2.40/bin/bin/../../lib/gcc/pic32c/6.2.1/../../../../pic32c/lib/v7e-m/fpv4-sp/hard\libg_nano.a(lib_a-s_scalbn.o)
 .bss           0x00000000        0x0 c:/program files/microchip/xc32/v2.40/bin/bin/../../lib/gcc/pic32c/6.2.1/../../../../pic32c/lib/v7e-m/fpv4-sp/hard\libg_nano.a(lib_a-s_scalbn.o)
 .text.scalbn   0x00000000       0xf4 c:/program files/microchip/xc32/v2.40/bin/bin/../../lib/gcc/pic32c/6.2.1/../../../../pic32c/lib/v7e-m/fpv4-sp/hard\libg_nano.a(lib_a-s_scalbn.o)
 .debug_info    0x00000000     0x107e c:/program files/microchip/xc32/v2.40/bin/bin/../../lib/gcc/pic32c/6.2.1/../../../../pic32c/lib/v7e-m/fpv4-sp/hard\libg_nano.a(lib_a-s_scalbn.o)
 .debug_abbrev  0x00000000      0x209 c:/program files/microchip/xc32/v2.40/bin/bin/../../lib/gcc/pic32c/6.2.1/../../../../pic32c/lib/v7e-m/fpv4-sp/hard\libg_nano.a(lib_a-s_scalbn.o)
 .debug_loc     0x00000000      0x24b c:/program files/microchip/xc32/v2.40/bin/bin/../../lib/gcc/pic32c/6.2.1/../../../../pic32c/lib/v7e-m/fpv4-sp/hard\libg_nano.a(lib_a-s_scalbn.o)
 .debug_aranges
                0x00000000       0x20 c:/program files/microchip/xc32/v2.40/bin/bin/../../lib/gcc/pic32c/6.2.1/../../../../pic32c/lib/v7e-m/fpv4-sp/hard\libg_nano.a(lib_a-s_scalbn.o)
 .debug_ranges  0x00000000       0x28 c:/program files/microchip/xc32/v2.40/bin/bin/../../lib/gcc/pic32c/6.2.1/../../../../pic32c/lib/v7e-m/fpv4-sp/hard\libg_nano.a(lib_a-s_scalbn.o)
 .debug_line    0x00000000      0x2c1 c:/program files/microchip/xc32/v2.40/bin/bin/../../lib/gcc/pic32c/6.2.1/../../../../pic32c/lib/v7e-m/fpv4-sp/hard\libg_nano.a(lib_a-s_scalbn.o)
 .debug_str     0x00000000       0x12 c:/program files/microchip/xc32/v2.40/bin/bin/../../lib/gcc/pic32c/6.2.1/../../../../pic32c/lib/v7e-m/fpv4-sp/hard\libg_nano.a(lib_a-s_scalbn.o)
 .comment       0x00000000       0x3d c:/program files/microchip/xc32/v2.40/bin/bin/../../lib/gcc/pic32c/6.2.1/../../../../pic32c/lib/v7e-m/fpv4-sp/hard\libg_nano.a(lib_a-s_scalbn.o)
 .debug_frame   0x00000000       0x2c c:/program files/microchip/xc32/v2.40/bin/bin/../../lib/gcc/pic32c/6.2.1/../../../../pic32c/lib/v7e-m/fpv4-sp/hard\libg_nano.a(lib_a-s_scalbn.o)
 .ARM.attributes
                0x00000000       0x34 c:/program files/microchip/xc32/v2.40/bin/bin/../../lib/gcc/pic32c/6.2.1/../../../../pic32c/lib/v7e-m/fpv4-sp/hard\libg_nano.a(lib_a-s_scalbn.o)
 .text          0x00000000        0x0 c:/program files/microchip/xc32/v2.40/bin/bin/../../lib/gcc/pic32c/6.2.1/../../../../pic32c/lib/v7e-m/fpv4-sp/hard\libg_nano.a(_lib_a-sscanf.cdnopsuxX.o)
 .data          0x00000000        0x0 c:/program files/microchip/xc32/v2.40/bin/bin/../../lib/gcc/pic32c/6.2.1/../../../../pic32c/lib/v7e-m/fpv4-sp/hard\libg_nano.a(_lib_a-sscanf.cdnopsuxX.o)
 .bss           0x00000000        0x0 c:/program files/microchip/xc32/v2.40/bin/bin/../../lib/gcc/pic32c/6.2.1/../../../../pic32c/lib/v7e-m/fpv4-sp/hard\libg_nano.a(_lib_a-sscanf.cdnopsuxX.o)
 .text._sscanf_cdnopsuxX
                0x00000000       0x4c c:/program files/microchip/xc32/v2.40/bin/bin/../../lib/gcc/pic32c/6.2.1/../../../../pic32c/lib/v7e-m/fpv4-sp/hard\libg_nano.a(_lib_a-sscanf.cdnopsuxX.o)
 .debug_info    0x00000000     0x11eb c:/program files/microchip/xc32/v2.40/bin/bin/../../lib/gcc/pic32c/6.2.1/../../../../pic32c/lib/v7e-m/fpv4-sp/hard\libg_nano.a(_lib_a-sscanf.cdnopsuxX.o)
 .debug_abbrev  0x00000000      0x1ed c:/program files/microchip/xc32/v2.40/bin/bin/../../lib/gcc/pic32c/6.2.1/../../../../pic32c/lib/v7e-m/fpv4-sp/hard\libg_nano.a(_lib_a-sscanf.cdnopsuxX.o)
 .debug_loc     0x00000000       0x7e c:/program files/microchip/xc32/v2.40/bin/bin/../../lib/gcc/pic32c/6.2.1/../../../../pic32c/lib/v7e-m/fpv4-sp/hard\libg_nano.a(_lib_a-sscanf.cdnopsuxX.o)
 .debug_aranges
                0x00000000       0x20 c:/program files/microchip/xc32/v2.40/bin/bin/../../lib/gcc/pic32c/6.2.1/../../../../pic32c/lib/v7e-m/fpv4-sp/hard\libg_nano.a(_lib_a-sscanf.cdnopsuxX.o)
 .debug_ranges  0x00000000       0x10 c:/program files/microchip/xc32/v2.40/bin/bin/../../lib/gcc/pic32c/6.2.1/../../../../pic32c/lib/v7e-m/fpv4-sp/hard\libg_nano.a(_lib_a-sscanf.cdnopsuxX.o)
 .debug_line    0x00000000      0x264 c:/program files/microchip/xc32/v2.40/bin/bin/../../lib/gcc/pic32c/6.2.1/../../../../pic32c/lib/v7e-m/fpv4-sp/hard\libg_nano.a(_lib_a-sscanf.cdnopsuxX.o)
 .debug_str     0x00000000       0x1c c:/program files/microchip/xc32/v2.40/bin/bin/../../lib/gcc/pic32c/6.2.1/../../../../pic32c/lib/v7e-m/fpv4-sp/hard\libg_nano.a(_lib_a-sscanf.cdnopsuxX.o)
 .comment       0x00000000       0x3d c:/program files/microchip/xc32/v2.40/bin/bin/../../lib/gcc/pic32c/6.2.1/../../../../pic32c/lib/v7e-m/fpv4-sp/hard\libg_nano.a(_lib_a-sscanf.cdnopsuxX.o)
 .debug_frame   0x00000000       0x48 c:/program files/microchip/xc32/v2.40/bin/bin/../../lib/gcc/pic32c/6.2.1/../../../../pic32c/lib/v7e-m/fpv4-sp/hard\libg_nano.a(_lib_a-sscanf.cdnopsuxX.o)
 .ARM.attributes
                0x00000000       0x34 c:/program files/microchip/xc32/v2.40/bin/bin/../../lib/gcc/pic32c/6.2.1/../../../../pic32c/lib/v7e-m/fpv4-sp/hard\libg_nano.a(_lib_a-sscanf.cdnopsuxX.o)
 .text          0x00000000        0x0 c:/program files/microchip/xc32/v2.40/bin/bin/../../lib/gcc/pic32c/6.2.1/../../../../pic32c/lib/v7e-m/fpv4-sp/hard\libg_nano.a(lib_a-__ssfputs.o)
 .data          0x00000000        0x0 c:/program files/microchip/xc32/v2.40/bin/bin/../../lib/gcc/pic32c/6.2.1/../../../../pic32c/lib/v7e-m/fpv4-sp/hard\libg_nano.a(lib_a-__ssfputs.o)
 .bss           0x00000000        0x0 c:/program files/microchip/xc32/v2.40/bin/bin/../../lib/gcc/pic32c/6.2.1/../../../../pic32c/lib/v7e-m/fpv4-sp/hard\libg_nano.a(lib_a-__ssfputs.o)
 .text          0x00000000        0x0 c:/program files/microchip/xc32/v2.40/bin/bin/../../lib/gcc/pic32c/6.2.1/../../../../pic32c/lib/v7e-m/fpv4-sp/hard\libg_nano.a(lib_a-stdio.o)
 .data          0x00000000        0x0 c:/program files/microchip/xc32/v2.40/bin/bin/../../lib/gcc/pic32c/6.2.1/../../../../pic32c/lib/v7e-m/fpv4-sp/hard\libg_nano.a(lib_a-stdio.o)
 .bss           0x00000000        0x0 c:/program files/microchip/xc32/v2.40/bin/bin/../../lib/gcc/pic32c/6.2.1/../../../../pic32c/lib/v7e-m/fpv4-sp/hard\libg_nano.a(lib_a-stdio.o)
 .text          0x00000000        0x0 c:/program files/microchip/xc32/v2.40/bin/bin/../../lib/gcc/pic32c/6.2.1/../../../../pic32c/lib/v7e-m/fpv4-sp/hard\libg_nano.a(lib_a-strcat.o)
 .data          0x00000000        0x0 c:/program files/microchip/xc32/v2.40/bin/bin/../../lib/gcc/pic32c/6.2.1/../../../../pic32c/lib/v7e-m/fpv4-sp/hard\libg_nano.a(lib_a-strcat.o)
 .bss           0x00000000        0x0 c:/program files/microchip/xc32/v2.40/bin/bin/../../lib/gcc/pic32c/6.2.1/../../../../pic32c/lib/v7e-m/fpv4-sp/hard\libg_nano.a(lib_a-strcat.o)
 .text          0x00000000        0x0 c:/program files/microchip/xc32/v2.40/bin/bin/../../lib/gcc/pic32c/6.2.1/../../../../pic32c/lib/v7e-m/fpv4-sp/hard\libg_nano.a(lib_a-strchr.o)
 .data          0x00000000        0x0 c:/program files/microchip/xc32/v2.40/bin/bin/../../lib/gcc/pic32c/6.2.1/../../../../pic32c/lib/v7e-m/fpv4-sp/hard\libg_nano.a(lib_a-strchr.o)
 .bss           0x00000000        0x0 c:/program files/microchip/xc32/v2.40/bin/bin/../../lib/gcc/pic32c/6.2.1/../../../../pic32c/lib/v7e-m/fpv4-sp/hard\libg_nano.a(lib_a-strchr.o)
 .text.strchr   0x00000000       0x1c c:/program files/microchip/xc32/v2.40/bin/bin/../../lib/gcc/pic32c/6.2.1/../../../../pic32c/lib/v7e-m/fpv4-sp/hard\libg_nano.a(lib_a-strchr.o)
 .debug_info    0x00000000      0xe2c c:/program files/microchip/xc32/v2.40/bin/bin/../../lib/gcc/pic32c/6.2.1/../../../../pic32c/lib/v7e-m/fpv4-sp/hard\libg_nano.a(lib_a-strchr.o)
 .debug_abbrev  0x00000000      0x168 c:/program files/microchip/xc32/v2.40/bin/bin/../../lib/gcc/pic32c/6.2.1/../../../../pic32c/lib/v7e-m/fpv4-sp/hard\libg_nano.a(lib_a-strchr.o)
 .debug_loc     0x00000000       0x6b c:/program files/microchip/xc32/v2.40/bin/bin/../../lib/gcc/pic32c/6.2.1/../../../../pic32c/lib/v7e-m/fpv4-sp/hard\libg_nano.a(lib_a-strchr.o)
 .debug_aranges
                0x00000000       0x20 c:/program files/microchip/xc32/v2.40/bin/bin/../../lib/gcc/pic32c/6.2.1/../../../../pic32c/lib/v7e-m/fpv4-sp/hard\libg_nano.a(lib_a-strchr.o)
 .debug_ranges  0x00000000       0x10 c:/program files/microchip/xc32/v2.40/bin/bin/../../lib/gcc/pic32c/6.2.1/../../../../pic32c/lib/v7e-m/fpv4-sp/hard\libg_nano.a(lib_a-strchr.o)
 .debug_line    0x00000000      0x208 c:/program files/microchip/xc32/v2.40/bin/bin/../../lib/gcc/pic32c/6.2.1/../../../../pic32c/lib/v7e-m/fpv4-sp/hard\libg_nano.a(lib_a-strchr.o)
 .debug_str     0x00000000        0x9 c:/program files/microchip/xc32/v2.40/bin/bin/../../lib/gcc/pic32c/6.2.1/../../../../pic32c/lib/v7e-m/fpv4-sp/hard\libg_nano.a(lib_a-strchr.o)
 .comment       0x00000000       0x3d c:/program files/microchip/xc32/v2.40/bin/bin/../../lib/gcc/pic32c/6.2.1/../../../../pic32c/lib/v7e-m/fpv4-sp/hard\libg_nano.a(lib_a-strchr.o)
 .debug_frame   0x00000000       0x20 c:/program files/microchip/xc32/v2.40/bin/bin/../../lib/gcc/pic32c/6.2.1/../../../../pic32c/lib/v7e-m/fpv4-sp/hard\libg_nano.a(lib_a-strchr.o)
 .ARM.attributes
                0x00000000       0x34 c:/program files/microchip/xc32/v2.40/bin/bin/../../lib/gcc/pic32c/6.2.1/../../../../pic32c/lib/v7e-m/fpv4-sp/hard\libg_nano.a(lib_a-strchr.o)
 .data          0x00000000        0x0 c:/program files/microchip/xc32/v2.40/bin/bin/../../lib/gcc/pic32c/6.2.1/../../../../pic32c/lib/v7e-m/fpv4-sp/hard\libg_nano.a(lib_a-strcmp.o)
 .bss           0x00000000        0x0 c:/program files/microchip/xc32/v2.40/bin/bin/../../lib/gcc/pic32c/6.2.1/../../../../pic32c/lib/v7e-m/fpv4-sp/hard\libg_nano.a(lib_a-strcmp.o)
 .text          0x00000000        0x0 c:/program files/microchip/xc32/v2.40/bin/bin/../../lib/gcc/pic32c/6.2.1/../../../../pic32c/lib/v7e-m/fpv4-sp/hard\libg_nano.a(lib_a-strcpy.o)
 .data          0x00000000        0x0 c:/program files/microchip/xc32/v2.40/bin/bin/../../lib/gcc/pic32c/6.2.1/../../../../pic32c/lib/v7e-m/fpv4-sp/hard\libg_nano.a(lib_a-strcpy.o)
 .bss           0x00000000        0x0 c:/program files/microchip/xc32/v2.40/bin/bin/../../lib/gcc/pic32c/6.2.1/../../../../pic32c/lib/v7e-m/fpv4-sp/hard\libg_nano.a(lib_a-strcpy.o)
 .data          0x00000000        0x0 c:/program files/microchip/xc32/v2.40/bin/bin/../../lib/gcc/pic32c/6.2.1/../../../../pic32c/lib/v7e-m/fpv4-sp/hard\libg_nano.a(lib_a-strlen.o)
 .bss           0x00000000        0x0 c:/program files/microchip/xc32/v2.40/bin/bin/../../lib/gcc/pic32c/6.2.1/../../../../pic32c/lib/v7e-m/fpv4-sp/hard\libg_nano.a(lib_a-strlen.o)
 .text          0x00000000        0x0 c:/program files/microchip/xc32/v2.40/bin/bin/../../lib/gcc/pic32c/6.2.1/../../../../pic32c/lib/v7e-m/fpv4-sp/hard\libg_nano.a(lib_a-strncmp.o)
 .data          0x00000000        0x0 c:/program files/microchip/xc32/v2.40/bin/bin/../../lib/gcc/pic32c/6.2.1/../../../../pic32c/lib/v7e-m/fpv4-sp/hard\libg_nano.a(lib_a-strncmp.o)
 .bss           0x00000000        0x0 c:/program files/microchip/xc32/v2.40/bin/bin/../../lib/gcc/pic32c/6.2.1/../../../../pic32c/lib/v7e-m/fpv4-sp/hard\libg_nano.a(lib_a-strncmp.o)
 .text          0x00000000        0x0 c:/program files/microchip/xc32/v2.40/bin/bin/../../lib/gcc/pic32c/6.2.1/../../../../pic32c/lib/v7e-m/fpv4-sp/hard\libg_nano.a(lib_a-strncpy.o)
 .data          0x00000000        0x0 c:/program files/microchip/xc32/v2.40/bin/bin/../../lib/gcc/pic32c/6.2.1/../../../../pic32c/lib/v7e-m/fpv4-sp/hard\libg_nano.a(lib_a-strncpy.o)
 .bss           0x00000000        0x0 c:/program files/microchip/xc32/v2.40/bin/bin/../../lib/gcc/pic32c/6.2.1/../../../../pic32c/lib/v7e-m/fpv4-sp/hard\libg_nano.a(lib_a-strncpy.o)
 .text          0x00000000        0x0 c:/program files/microchip/xc32/v2.40/bin/bin/../../lib/gcc/pic32c/6.2.1/../../../../pic32c/lib/v7e-m/fpv4-sp/hard\libg_nano.a(lib_a-strstr.o)
 .data          0x00000000        0x0 c:/program files/microchip/xc32/v2.40/bin/bin/../../lib/gcc/pic32c/6.2.1/../../../../pic32c/lib/v7e-m/fpv4-sp/hard\libg_nano.a(lib_a-strstr.o)
 .bss           0x00000000        0x0 c:/program files/microchip/xc32/v2.40/bin/bin/../../lib/gcc/pic32c/6.2.1/../../../../pic32c/lib/v7e-m/fpv4-sp/hard\libg_nano.a(lib_a-strstr.o)
 .text          0x00000000        0x0 c:/program files/microchip/xc32/v2.40/bin/bin/../../lib/gcc/pic32c/6.2.1/../../../../pic32c/lib/v7e-m/fpv4-sp/hard\libg_nano.a(lib_a-strtol.o)
 .data          0x00000000        0x0 c:/program files/microchip/xc32/v2.40/bin/bin/../../lib/gcc/pic32c/6.2.1/../../../../pic32c/lib/v7e-m/fpv4-sp/hard\libg_nano.a(lib_a-strtol.o)
 .bss           0x00000000        0x0 c:/program files/microchip/xc32/v2.40/bin/bin/../../lib/gcc/pic32c/6.2.1/../../../../pic32c/lib/v7e-m/fpv4-sp/hard\libg_nano.a(lib_a-strtol.o)
 .text.strtol_l
                0x00000000       0x1c c:/program files/microchip/xc32/v2.40/bin/bin/../../lib/gcc/pic32c/6.2.1/../../../../pic32c/lib/v7e-m/fpv4-sp/hard\libg_nano.a(lib_a-strtol.o)
 .text.strtol   0x00000000       0x2c c:/program files/microchip/xc32/v2.40/bin/bin/../../lib/gcc/pic32c/6.2.1/../../../../pic32c/lib/v7e-m/fpv4-sp/hard\libg_nano.a(lib_a-strtol.o)
 .text          0x00000000        0x0 c:/program files/microchip/xc32/v2.40/bin/bin/../../lib/gcc/pic32c/6.2.1/../../../../pic32c/lib/v7e-m/fpv4-sp/hard\libg_nano.a(lib_a-strtoul.o)
 .data          0x00000000        0x0 c:/program files/microchip/xc32/v2.40/bin/bin/../../lib/gcc/pic32c/6.2.1/../../../../pic32c/lib/v7e-m/fpv4-sp/hard\libg_nano.a(lib_a-strtoul.o)
 .bss           0x00000000        0x0 c:/program files/microchip/xc32/v2.40/bin/bin/../../lib/gcc/pic32c/6.2.1/../../../../pic32c/lib/v7e-m/fpv4-sp/hard\libg_nano.a(lib_a-strtoul.o)
 .text.strtoul_l
                0x00000000       0x1c c:/program files/microchip/xc32/v2.40/bin/bin/../../lib/gcc/pic32c/6.2.1/../../../../pic32c/lib/v7e-m/fpv4-sp/hard\libg_nano.a(lib_a-strtoul.o)
 .text          0x00000000        0x0 c:/program files/microchip/xc32/v2.40/bin/bin/../../lib/gcc/pic32c/6.2.1/../../../../pic32c/lib/v7e-m/fpv4-sp/hard\libg_nano.a(lib_a-tzcalc_limits.o)
 .data          0x00000000        0x0 c:/program files/microchip/xc32/v2.40/bin/bin/../../lib/gcc/pic32c/6.2.1/../../../../pic32c/lib/v7e-m/fpv4-sp/hard\libg_nano.a(lib_a-tzcalc_limits.o)
 .bss           0x00000000        0x0 c:/program files/microchip/xc32/v2.40/bin/bin/../../lib/gcc/pic32c/6.2.1/../../../../pic32c/lib/v7e-m/fpv4-sp/hard\libg_nano.a(lib_a-tzcalc_limits.o)
 .text          0x00000000        0x0 c:/program files/microchip/xc32/v2.40/bin/bin/../../lib/gcc/pic32c/6.2.1/../../../../pic32c/lib/v7e-m/fpv4-sp/hard\libg_nano.a(lib_a-tzset.o)
 .data          0x00000000        0x0 c:/program files/microchip/xc32/v2.40/bin/bin/../../lib/gcc/pic32c/6.2.1/../../../../pic32c/lib/v7e-m/fpv4-sp/hard\libg_nano.a(lib_a-tzset.o)
 .bss           0x00000000        0x0 c:/program files/microchip/xc32/v2.40/bin/bin/../../lib/gcc/pic32c/6.2.1/../../../../pic32c/lib/v7e-m/fpv4-sp/hard\libg_nano.a(lib_a-tzset.o)
 .text          0x00000000        0x0 c:/program files/microchip/xc32/v2.40/bin/bin/../../lib/gcc/pic32c/6.2.1/../../../../pic32c/lib/v7e-m/fpv4-sp/hard\libg_nano.a(lib_a-tzset_r.o)
 .data          0x00000000        0x0 c:/program files/microchip/xc32/v2.40/bin/bin/../../lib/gcc/pic32c/6.2.1/../../../../pic32c/lib/v7e-m/fpv4-sp/hard\libg_nano.a(lib_a-tzset_r.o)
 .bss           0x00000000        0x0 c:/program files/microchip/xc32/v2.40/bin/bin/../../lib/gcc/pic32c/6.2.1/../../../../pic32c/lib/v7e-m/fpv4-sp/hard\libg_nano.a(lib_a-tzset_r.o)
 .text._tzset_r
                0x00000000        0x4 c:/program files/microchip/xc32/v2.40/bin/bin/../../lib/gcc/pic32c/6.2.1/../../../../pic32c/lib/v7e-m/fpv4-sp/hard\libg_nano.a(lib_a-tzset_r.o)
 .text          0x00000000        0x0 c:/program files/microchip/xc32/v2.40/bin/bin/../../lib/gcc/pic32c/6.2.1/../../../../pic32c/lib/v7e-m/fpv4-sp/hard\libg_nano.a(lib_a-tzvars.o)
 .data          0x00000000        0x0 c:/program files/microchip/xc32/v2.40/bin/bin/../../lib/gcc/pic32c/6.2.1/../../../../pic32c/lib/v7e-m/fpv4-sp/hard\libg_nano.a(lib_a-tzvars.o)
 .bss           0x00000000        0x0 c:/program files/microchip/xc32/v2.40/bin/bin/../../lib/gcc/pic32c/6.2.1/../../../../pic32c/lib/v7e-m/fpv4-sp/hard\libg_nano.a(lib_a-tzvars.o)
 .text          0x00000000        0x0 c:/program files/microchip/xc32/v2.40/bin/bin/../../lib/gcc/pic32c/6.2.1/../../../../pic32c/lib/v7e-m/fpv4-sp/hard\libg_nano.a(lib_a-vsnprintf.o)
 .data          0x00000000        0x0 c:/program files/microchip/xc32/v2.40/bin/bin/../../lib/gcc/pic32c/6.2.1/../../../../pic32c/lib/v7e-m/fpv4-sp/hard\libg_nano.a(lib_a-vsnprintf.o)
 .bss           0x00000000        0x0 c:/program files/microchip/xc32/v2.40/bin/bin/../../lib/gcc/pic32c/6.2.1/../../../../pic32c/lib/v7e-m/fpv4-sp/hard\libg_nano.a(lib_a-vsnprintf.o)
 .text          0x00000000        0x0 c:/program files/microchip/xc32/v2.40/bin/bin/../../lib/gcc/pic32c/6.2.1/../../../../pic32c/lib/v7e-m/fpv4-sp/hard\libg_nano.a(lib_a-wbuf.o)
 .data          0x00000000        0x0 c:/program files/microchip/xc32/v2.40/bin/bin/../../lib/gcc/pic32c/6.2.1/../../../../pic32c/lib/v7e-m/fpv4-sp/hard\libg_nano.a(lib_a-wbuf.o)
 .bss           0x00000000        0x0 c:/program files/microchip/xc32/v2.40/bin/bin/../../lib/gcc/pic32c/6.2.1/../../../../pic32c/lib/v7e-m/fpv4-sp/hard\libg_nano.a(lib_a-wbuf.o)
 .text.__swbuf  0x00000000       0x10 c:/program files/microchip/xc32/v2.40/bin/bin/../../lib/gcc/pic32c/6.2.1/../../../../pic32c/lib/v7e-m/fpv4-sp/hard\libg_nano.a(lib_a-wbuf.o)
 .text          0x00000000        0x0 c:/program files/microchip/xc32/v2.40/bin/bin/../../lib/gcc/pic32c/6.2.1/../../../../pic32c/lib/v7e-m/fpv4-sp/hard\libg_nano.a(lib_a-wctomb_r.o)
 .data          0x00000000        0x0 c:/program files/microchip/xc32/v2.40/bin/bin/../../lib/gcc/pic32c/6.2.1/../../../../pic32c/lib/v7e-m/fpv4-sp/hard\libg_nano.a(lib_a-wctomb_r.o)
 .bss           0x00000000        0x0 c:/program files/microchip/xc32/v2.40/bin/bin/../../lib/gcc/pic32c/6.2.1/../../../../pic32c/lib/v7e-m/fpv4-sp/hard\libg_nano.a(lib_a-wctomb_r.o)
 .text._wctomb_r
                0x00000000       0x24 c:/program files/microchip/xc32/v2.40/bin/bin/../../lib/gcc/pic32c/6.2.1/../../../../pic32c/lib/v7e-m/fpv4-sp/hard\libg_nano.a(lib_a-wctomb_r.o)
 .text          0x00000000        0x0 c:/program files/microchip/xc32/v2.40/bin/bin/../../lib/gcc/pic32c/6.2.1/../../../../pic32c/lib/v7e-m/fpv4-sp/hard\libg_nano.a(lib_a-writer.o)
 .data          0x00000000        0x0 c:/program files/microchip/xc32/v2.40/bin/bin/../../lib/gcc/pic32c/6.2.1/../../../../pic32c/lib/v7e-m/fpv4-sp/hard\libg_nano.a(lib_a-writer.o)
 .bss           0x00000000        0x0 c:/program files/microchip/xc32/v2.40/bin/bin/../../lib/gcc/pic32c/6.2.1/../../../../pic32c/lib/v7e-m/fpv4-sp/hard\libg_nano.a(lib_a-writer.o)
 .text          0x00000000        0x0 c:/program files/microchip/xc32/v2.40/bin/bin/../../lib/gcc/pic32c/6.2.1/../../../../pic32c/lib/v7e-m/fpv4-sp/hard\libg_nano.a(lib_a-wsetup.o)
 .data          0x00000000        0x0 c:/program files/microchip/xc32/v2.40/bin/bin/../../lib/gcc/pic32c/6.2.1/../../../../pic32c/lib/v7e-m/fpv4-sp/hard\libg_nano.a(lib_a-wsetup.o)
 .bss           0x00000000        0x0 c:/program files/microchip/xc32/v2.40/bin/bin/../../lib/gcc/pic32c/6.2.1/../../../../pic32c/lib/v7e-m/fpv4-sp/hard\libg_nano.a(lib_a-wsetup.o)
 .text          0x00000000        0x0 c:/program files/microchip/xc32/v2.40/bin/bin/../../lib/gcc/pic32c/6.2.1/../../../../pic32c/lib/v7e-m/fpv4-sp/hard\libg_nano.a(lib_a-abort.o)
 .data          0x00000000        0x0 c:/program files/microchip/xc32/v2.40/bin/bin/../../lib/gcc/pic32c/6.2.1/../../../../pic32c/lib/v7e-m/fpv4-sp/hard\libg_nano.a(lib_a-abort.o)
 .bss           0x00000000        0x0 c:/program files/microchip/xc32/v2.40/bin/bin/../../lib/gcc/pic32c/6.2.1/../../../../pic32c/lib/v7e-m/fpv4-sp/hard\libg_nano.a(lib_a-abort.o)
 .text.abort    0x00000000        0xe c:/program files/microchip/xc32/v2.40/bin/bin/../../lib/gcc/pic32c/6.2.1/../../../../pic32c/lib/v7e-m/fpv4-sp/hard\libg_nano.a(lib_a-abort.o)
 .debug_info    0x00000000      0xeaa c:/program files/microchip/xc32/v2.40/bin/bin/../../lib/gcc/pic32c/6.2.1/../../../../pic32c/lib/v7e-m/fpv4-sp/hard\libg_nano.a(lib_a-abort.o)
 .debug_abbrev  0x00000000      0x183 c:/program files/microchip/xc32/v2.40/bin/bin/../../lib/gcc/pic32c/6.2.1/../../../../pic32c/lib/v7e-m/fpv4-sp/hard\libg_nano.a(lib_a-abort.o)
 .debug_loc     0x00000000       0x20 c:/program files/microchip/xc32/v2.40/bin/bin/../../lib/gcc/pic32c/6.2.1/../../../../pic32c/lib/v7e-m/fpv4-sp/hard\libg_nano.a(lib_a-abort.o)
 .debug_aranges
                0x00000000       0x20 c:/program files/microchip/xc32/v2.40/bin/bin/../../lib/gcc/pic32c/6.2.1/../../../../pic32c/lib/v7e-m/fpv4-sp/hard\libg_nano.a(lib_a-abort.o)
 .debug_ranges  0x00000000       0x10 c:/program files/microchip/xc32/v2.40/bin/bin/../../lib/gcc/pic32c/6.2.1/../../../../pic32c/lib/v7e-m/fpv4-sp/hard\libg_nano.a(lib_a-abort.o)
 .debug_line    0x00000000      0x218 c:/program files/microchip/xc32/v2.40/bin/bin/../../lib/gcc/pic32c/6.2.1/../../../../pic32c/lib/v7e-m/fpv4-sp/hard\libg_nano.a(lib_a-abort.o)
 .debug_str     0x00000000        0x9 c:/program files/microchip/xc32/v2.40/bin/bin/../../lib/gcc/pic32c/6.2.1/../../../../pic32c/lib/v7e-m/fpv4-sp/hard\libg_nano.a(lib_a-abort.o)
 .comment       0x00000000       0x3d c:/program files/microchip/xc32/v2.40/bin/bin/../../lib/gcc/pic32c/6.2.1/../../../../pic32c/lib/v7e-m/fpv4-sp/hard\libg_nano.a(lib_a-abort.o)
 .debug_frame   0x00000000       0x28 c:/program files/microchip/xc32/v2.40/bin/bin/../../lib/gcc/pic32c/6.2.1/../../../../pic32c/lib/v7e-m/fpv4-sp/hard\libg_nano.a(lib_a-abort.o)
 .ARM.attributes
                0x00000000       0x34 c:/program files/microchip/xc32/v2.40/bin/bin/../../lib/gcc/pic32c/6.2.1/../../../../pic32c/lib/v7e-m/fpv4-sp/hard\libg_nano.a(lib_a-abort.o)
 .text          0x00000000        0x0 c:/program files/microchip/xc32/v2.40/bin/bin/../../lib/gcc/pic32c/6.2.1/../../../../pic32c/lib/v7e-m/fpv4-sp/hard\libg_nano.a(lib_a-closer.o)
 .data          0x00000000        0x0 c:/program files/microchip/xc32/v2.40/bin/bin/../../lib/gcc/pic32c/6.2.1/../../../../pic32c/lib/v7e-m/fpv4-sp/hard\libg_nano.a(lib_a-closer.o)
 .bss           0x00000000        0x0 c:/program files/microchip/xc32/v2.40/bin/bin/../../lib/gcc/pic32c/6.2.1/../../../../pic32c/lib/v7e-m/fpv4-sp/hard\libg_nano.a(lib_a-closer.o)
 .text          0x00000000        0x0 c:/program files/microchip/xc32/v2.40/bin/bin/../../lib/gcc/pic32c/6.2.1/../../../../pic32c/lib/v7e-m/fpv4-sp/hard\libg_nano.a(lib_a-ctype_.o)
 .data          0x00000000        0x0 c:/program files/microchip/xc32/v2.40/bin/bin/../../lib/gcc/pic32c/6.2.1/../../../../pic32c/lib/v7e-m/fpv4-sp/hard\libg_nano.a(lib_a-ctype_.o)
 .bss           0x00000000        0x0 c:/program files/microchip/xc32/v2.40/bin/bin/../../lib/gcc/pic32c/6.2.1/../../../../pic32c/lib/v7e-m/fpv4-sp/hard\libg_nano.a(lib_a-ctype_.o)
 .text          0x00000000        0x0 c:/program files/microchip/xc32/v2.40/bin/bin/../../lib/gcc/pic32c/6.2.1/../../../../pic32c/lib/v7e-m/fpv4-sp/hard\libg_nano.a(lib_a-div.o)
 .data          0x00000000        0x0 c:/program files/microchip/xc32/v2.40/bin/bin/../../lib/gcc/pic32c/6.2.1/../../../../pic32c/lib/v7e-m/fpv4-sp/hard\libg_nano.a(lib_a-div.o)
 .bss           0x00000000        0x0 c:/program files/microchip/xc32/v2.40/bin/bin/../../lib/gcc/pic32c/6.2.1/../../../../pic32c/lib/v7e-m/fpv4-sp/hard\libg_nano.a(lib_a-div.o)
 .text          0x00000000        0x0 c:/program files/microchip/xc32/v2.40/bin/bin/../../lib/gcc/pic32c/6.2.1/../../../../pic32c/lib/v7e-m/fpv4-sp/hard\libg_nano.a(lib_a-errno.o)
 .data          0x00000000        0x0 c:/program files/microchip/xc32/v2.40/bin/bin/../../lib/gcc/pic32c/6.2.1/../../../../pic32c/lib/v7e-m/fpv4-sp/hard\libg_nano.a(lib_a-errno.o)
 .bss           0x00000000        0x0 c:/program files/microchip/xc32/v2.40/bin/bin/../../lib/gcc/pic32c/6.2.1/../../../../pic32c/lib/v7e-m/fpv4-sp/hard\libg_nano.a(lib_a-errno.o)
 .text.__errno  0x00000000        0xc c:/program files/microchip/xc32/v2.40/bin/bin/../../lib/gcc/pic32c/6.2.1/../../../../pic32c/lib/v7e-m/fpv4-sp/hard\libg_nano.a(lib_a-errno.o)
 .debug_info    0x00000000      0xe2c c:/program files/microchip/xc32/v2.40/bin/bin/../../lib/gcc/pic32c/6.2.1/../../../../pic32c/lib/v7e-m/fpv4-sp/hard\libg_nano.a(lib_a-errno.o)
 .debug_abbrev  0x00000000      0x14f c:/program files/microchip/xc32/v2.40/bin/bin/../../lib/gcc/pic32c/6.2.1/../../../../pic32c/lib/v7e-m/fpv4-sp/hard\libg_nano.a(lib_a-errno.o)
 .debug_aranges
                0x00000000       0x20 c:/program files/microchip/xc32/v2.40/bin/bin/../../lib/gcc/pic32c/6.2.1/../../../../pic32c/lib/v7e-m/fpv4-sp/hard\libg_nano.a(lib_a-errno.o)
 .debug_ranges  0x00000000       0x10 c:/program files/microchip/xc32/v2.40/bin/bin/../../lib/gcc/pic32c/6.2.1/../../../../pic32c/lib/v7e-m/fpv4-sp/hard\libg_nano.a(lib_a-errno.o)
 .debug_line    0x00000000      0x198 c:/program files/microchip/xc32/v2.40/bin/bin/../../lib/gcc/pic32c/6.2.1/../../../../pic32c/lib/v7e-m/fpv4-sp/hard\libg_nano.a(lib_a-errno.o)
 .debug_str     0x00000000        0x9 c:/program files/microchip/xc32/v2.40/bin/bin/../../lib/gcc/pic32c/6.2.1/../../../../pic32c/lib/v7e-m/fpv4-sp/hard\libg_nano.a(lib_a-errno.o)
 .comment       0x00000000       0x3d c:/program files/microchip/xc32/v2.40/bin/bin/../../lib/gcc/pic32c/6.2.1/../../../../pic32c/lib/v7e-m/fpv4-sp/hard\libg_nano.a(lib_a-errno.o)
 .debug_frame   0x00000000       0x20 c:/program files/microchip/xc32/v2.40/bin/bin/../../lib/gcc/pic32c/6.2.1/../../../../pic32c/lib/v7e-m/fpv4-sp/hard\libg_nano.a(lib_a-errno.o)
 .ARM.attributes
                0x00000000       0x34 c:/program files/microchip/xc32/v2.40/bin/bin/../../lib/gcc/pic32c/6.2.1/../../../../pic32c/lib/v7e-m/fpv4-sp/hard\libg_nano.a(lib_a-errno.o)
 .text          0x00000000        0x0 c:/program files/microchip/xc32/v2.40/bin/bin/../../lib/gcc/pic32c/6.2.1/../../../../pic32c/lib/v7e-m/fpv4-sp/hard\libg_nano.a(lib_a-fflush.o)
 .data          0x00000000        0x0 c:/program files/microchip/xc32/v2.40/bin/bin/../../lib/gcc/pic32c/6.2.1/../../../../pic32c/lib/v7e-m/fpv4-sp/hard\libg_nano.a(lib_a-fflush.o)
 .bss           0x00000000        0x0 c:/program files/microchip/xc32/v2.40/bin/bin/../../lib/gcc/pic32c/6.2.1/../../../../pic32c/lib/v7e-m/fpv4-sp/hard\libg_nano.a(lib_a-fflush.o)
 .text.fflush   0x00000000       0x24 c:/program files/microchip/xc32/v2.40/bin/bin/../../lib/gcc/pic32c/6.2.1/../../../../pic32c/lib/v7e-m/fpv4-sp/hard\libg_nano.a(lib_a-fflush.o)
 .text          0x00000000        0x0 c:/program files/microchip/xc32/v2.40/bin/bin/../../lib/gcc/pic32c/6.2.1/../../../../pic32c/lib/v7e-m/fpv4-sp/hard\libg_nano.a(lib_a-findfp.o)
 .data          0x00000000        0x0 c:/program files/microchip/xc32/v2.40/bin/bin/../../lib/gcc/pic32c/6.2.1/../../../../pic32c/lib/v7e-m/fpv4-sp/hard\libg_nano.a(lib_a-findfp.o)
 .bss           0x00000000        0x0 c:/program files/microchip/xc32/v2.40/bin/bin/../../lib/gcc/pic32c/6.2.1/../../../../pic32c/lib/v7e-m/fpv4-sp/hard\libg_nano.a(lib_a-findfp.o)
 .text._cleanup
                0x00000000        0xc c:/program files/microchip/xc32/v2.40/bin/bin/../../lib/gcc/pic32c/6.2.1/../../../../pic32c/lib/v7e-m/fpv4-sp/hard\libg_nano.a(lib_a-findfp.o)
 .text          0x00000000        0x0 c:/program files/microchip/xc32/v2.40/bin/bin/../../lib/gcc/pic32c/6.2.1/../../../../pic32c/lib/v7e-m/fpv4-sp/hard\libg_nano.a(lib_a-fputwc.o)
 .data          0x00000000        0x0 c:/program files/microchip/xc32/v2.40/bin/bin/../../lib/gcc/pic32c/6.2.1/../../../../pic32c/lib/v7e-m/fpv4-sp/hard\libg_nano.a(lib_a-fputwc.o)
 .bss           0x00000000        0x0 c:/program files/microchip/xc32/v2.40/bin/bin/../../lib/gcc/pic32c/6.2.1/../../../../pic32c/lib/v7e-m/fpv4-sp/hard\libg_nano.a(lib_a-fputwc.o)
 .text.fputwc   0x00000000       0x50 c:/program files/microchip/xc32/v2.40/bin/bin/../../lib/gcc/pic32c/6.2.1/../../../../pic32c/lib/v7e-m/fpv4-sp/hard\libg_nano.a(lib_a-fputwc.o)
 .text          0x00000000        0x0 c:/program files/microchip/xc32/v2.40/bin/bin/../../lib/gcc/pic32c/6.2.1/../../../../pic32c/lib/v7e-m/fpv4-sp/hard\libg_nano.a(lib_a-fwalk.o)
 .data          0x00000000        0x0 c:/program files/microchip/xc32/v2.40/bin/bin/../../lib/gcc/pic32c/6.2.1/../../../../pic32c/lib/v7e-m/fpv4-sp/hard\libg_nano.a(lib_a-fwalk.o)
 .bss           0x00000000        0x0 c:/program files/microchip/xc32/v2.40/bin/bin/../../lib/gcc/pic32c/6.2.1/../../../../pic32c/lib/v7e-m/fpv4-sp/hard\libg_nano.a(lib_a-fwalk.o)
 .text._fwalk   0x00000000       0x38 c:/program files/microchip/xc32/v2.40/bin/bin/../../lib/gcc/pic32c/6.2.1/../../../../pic32c/lib/v7e-m/fpv4-sp/hard\libg_nano.a(lib_a-fwalk.o)
 .text          0x00000000        0x0 c:/program files/microchip/xc32/v2.40/bin/bin/../../lib/gcc/pic32c/6.2.1/../../../../pic32c/lib/v7e-m/fpv4-sp/hard\libg_nano.a(lib_a-getenv_r.o)
 .data          0x00000000        0x0 c:/program files/microchip/xc32/v2.40/bin/bin/../../lib/gcc/pic32c/6.2.1/../../../../pic32c/lib/v7e-m/fpv4-sp/hard\libg_nano.a(lib_a-getenv_r.o)
 .bss           0x00000000        0x0 c:/program files/microchip/xc32/v2.40/bin/bin/../../lib/gcc/pic32c/6.2.1/../../../../pic32c/lib/v7e-m/fpv4-sp/hard\libg_nano.a(lib_a-getenv_r.o)
 .text          0x00000000        0x0 c:/program files/microchip/xc32/v2.40/bin/bin/../../lib/gcc/pic32c/6.2.1/../../../../pic32c/lib/v7e-m/fpv4-sp/hard\libg_nano.a(lib_a-gettzinfo.o)
 .data          0x00000000        0x0 c:/program files/microchip/xc32/v2.40/bin/bin/../../lib/gcc/pic32c/6.2.1/../../../../pic32c/lib/v7e-m/fpv4-sp/hard\libg_nano.a(lib_a-gettzinfo.o)
 .bss           0x00000000        0x0 c:/program files/microchip/xc32/v2.40/bin/bin/../../lib/gcc/pic32c/6.2.1/../../../../pic32c/lib/v7e-m/fpv4-sp/hard\libg_nano.a(lib_a-gettzinfo.o)
 .text          0x00000000        0x0 c:/program files/microchip/xc32/v2.40/bin/bin/../../lib/gcc/pic32c/6.2.1/../../../../pic32c/lib/v7e-m/fpv4-sp/hard\libg_nano.a(lib_a-lseekr.o)
 .data          0x00000000        0x0 c:/program files/microchip/xc32/v2.40/bin/bin/../../lib/gcc/pic32c/6.2.1/../../../../pic32c/lib/v7e-m/fpv4-sp/hard\libg_nano.a(lib_a-lseekr.o)
 .bss           0x00000000        0x0 c:/program files/microchip/xc32/v2.40/bin/bin/../../lib/gcc/pic32c/6.2.1/../../../../pic32c/lib/v7e-m/fpv4-sp/hard\libg_nano.a(lib_a-lseekr.o)
 .text          0x00000000        0x0 c:/program files/microchip/xc32/v2.40/bin/bin/../../lib/gcc/pic32c/6.2.1/../../../../pic32c/lib/v7e-m/fpv4-sp/hard\libg_nano.a(lib_a-makebuf.o)
 .data          0x00000000        0x0 c:/program files/microchip/xc32/v2.40/bin/bin/../../lib/gcc/pic32c/6.2.1/../../../../pic32c/lib/v7e-m/fpv4-sp/hard\libg_nano.a(lib_a-makebuf.o)
 .bss           0x00000000        0x0 c:/program files/microchip/xc32/v2.40/bin/bin/../../lib/gcc/pic32c/6.2.1/../../../../pic32c/lib/v7e-m/fpv4-sp/hard\libg_nano.a(lib_a-makebuf.o)
 .text          0x00000000        0x0 c:/program files/microchip/xc32/v2.40/bin/bin/../../lib/gcc/pic32c/6.2.1/../../../../pic32c/lib/v7e-m/fpv4-sp/hard\libg_nano.a(lib_a-mlock.o)
 .data          0x00000000        0x0 c:/program files/microchip/xc32/v2.40/bin/bin/../../lib/gcc/pic32c/6.2.1/../../../../pic32c/lib/v7e-m/fpv4-sp/hard\libg_nano.a(lib_a-mlock.o)
 .bss           0x00000000        0x0 c:/program files/microchip/xc32/v2.40/bin/bin/../../lib/gcc/pic32c/6.2.1/../../../../pic32c/lib/v7e-m/fpv4-sp/hard\libg_nano.a(lib_a-mlock.o)
 .text          0x00000000        0x0 c:/program files/microchip/xc32/v2.40/bin/bin/../../lib/gcc/pic32c/6.2.1/../../../../pic32c/lib/v7e-m/fpv4-sp/hard\libg_nano.a(lib_a-month_lengths.o)
 .data          0x00000000        0x0 c:/program files/microchip/xc32/v2.40/bin/bin/../../lib/gcc/pic32c/6.2.1/../../../../pic32c/lib/v7e-m/fpv4-sp/hard\libg_nano.a(lib_a-month_lengths.o)
 .bss           0x00000000        0x0 c:/program files/microchip/xc32/v2.40/bin/bin/../../lib/gcc/pic32c/6.2.1/../../../../pic32c/lib/v7e-m/fpv4-sp/hard\libg_nano.a(lib_a-month_lengths.o)
 .text          0x00000000        0x0 c:/program files/microchip/xc32/v2.40/bin/bin/../../lib/gcc/pic32c/6.2.1/../../../../pic32c/lib/v7e-m/fpv4-sp/hard\libg_nano.a(lib_a-nano-svfprintf.o)
 .data          0x00000000        0x0 c:/program files/microchip/xc32/v2.40/bin/bin/../../lib/gcc/pic32c/6.2.1/../../../../pic32c/lib/v7e-m/fpv4-sp/hard\libg_nano.a(lib_a-nano-svfprintf.o)
 .bss           0x00000000        0x0 c:/program files/microchip/xc32/v2.40/bin/bin/../../lib/gcc/pic32c/6.2.1/../../../../pic32c/lib/v7e-m/fpv4-sp/hard\libg_nano.a(lib_a-nano-svfprintf.o)
 .text          0x00000000        0x0 c:/program files/microchip/xc32/v2.40/bin/bin/../../lib/gcc/pic32c/6.2.1/../../../../pic32c/lib/v7e-m/fpv4-sp/hard\libg_nano.a(lib_a-nano-vfprintf_i.o)
 .data          0x00000000        0x0 c:/program files/microchip/xc32/v2.40/bin/bin/../../lib/gcc/pic32c/6.2.1/../../../../pic32c/lib/v7e-m/fpv4-sp/hard\libg_nano.a(lib_a-nano-vfprintf_i.o)
 .bss           0x00000000        0x0 c:/program files/microchip/xc32/v2.40/bin/bin/../../lib/gcc/pic32c/6.2.1/../../../../pic32c/lib/v7e-m/fpv4-sp/hard\libg_nano.a(lib_a-nano-vfprintf_i.o)
 .text          0x00000000        0x0 c:/program files/microchip/xc32/v2.40/bin/bin/../../lib/gcc/pic32c/6.2.1/../../../../pic32c/lib/v7e-m/fpv4-sp/hard\libg_nano.a(_lib_a-nano-vfscanf.cdnopsuxX.o)
 .data          0x00000000        0x0 c:/program files/microchip/xc32/v2.40/bin/bin/../../lib/gcc/pic32c/6.2.1/../../../../pic32c/lib/v7e-m/fpv4-sp/hard\libg_nano.a(_lib_a-nano-vfscanf.cdnopsuxX.o)
 .bss           0x00000000        0x0 c:/program files/microchip/xc32/v2.40/bin/bin/../../lib/gcc/pic32c/6.2.1/../../../../pic32c/lib/v7e-m/fpv4-sp/hard\libg_nano.a(_lib_a-nano-vfscanf.cdnopsuxX.o)
 .text.___svfscanf_r_cdnopsuxX
                0x00000000      0x4dc c:/program files/microchip/xc32/v2.40/bin/bin/../../lib/gcc/pic32c/6.2.1/../../../../pic32c/lib/v7e-m/fpv4-sp/hard\libg_nano.a(_lib_a-nano-vfscanf.cdnopsuxX.o)
 .text._vfscanf_cdnopsuxX
                0x00000000       0x58 c:/program files/microchip/xc32/v2.40/bin/bin/../../lib/gcc/pic32c/6.2.1/../../../../pic32c/lib/v7e-m/fpv4-sp/hard\libg_nano.a(_lib_a-nano-vfscanf.cdnopsuxX.o)
 .text.__vfscanf_r_cdnopsuxX
                0x00000000       0x50 c:/program files/microchip/xc32/v2.40/bin/bin/../../lib/gcc/pic32c/6.2.1/../../../../pic32c/lib/v7e-m/fpv4-sp/hard\libg_nano.a(_lib_a-nano-vfscanf.cdnopsuxX.o)
 .rodata        0x00000000       0x2c c:/program files/microchip/xc32/v2.40/bin/bin/../../lib/gcc/pic32c/6.2.1/../../../../pic32c/lib/v7e-m/fpv4-sp/hard\libg_nano.a(_lib_a-nano-vfscanf.cdnopsuxX.o)
 .text          0x00000000        0x0 c:/program files/microchip/xc32/v2.40/bin/bin/../../lib/gcc/pic32c/6.2.1/../../../../pic32c/lib/v7e-m/fpv4-sp/hard\libg_nano.a(lib_a-readr.o)
 .data          0x00000000        0x0 c:/program files/microchip/xc32/v2.40/bin/bin/../../lib/gcc/pic32c/6.2.1/../../../../pic32c/lib/v7e-m/fpv4-sp/hard\libg_nano.a(lib_a-readr.o)
 .bss           0x00000000        0x0 c:/program files/microchip/xc32/v2.40/bin/bin/../../lib/gcc/pic32c/6.2.1/../../../../pic32c/lib/v7e-m/fpv4-sp/hard\libg_nano.a(lib_a-readr.o)
 .text          0x00000000        0x0 c:/program files/microchip/xc32/v2.40/bin/bin/../../lib/gcc/pic32c/6.2.1/../../../../pic32c/lib/v7e-m/fpv4-sp/hard\libg_nano.a(lib_a-reent.o)
 .data          0x00000000        0x0 c:/program files/microchip/xc32/v2.40/bin/bin/../../lib/gcc/pic32c/6.2.1/../../../../pic32c/lib/v7e-m/fpv4-sp/hard\libg_nano.a(lib_a-reent.o)
 .bss           0x00000000        0x0 c:/program files/microchip/xc32/v2.40/bin/bin/../../lib/gcc/pic32c/6.2.1/../../../../pic32c/lib/v7e-m/fpv4-sp/hard\libg_nano.a(lib_a-reent.o)
 .text.cleanup_glue
                0x00000000       0x1a c:/program files/microchip/xc32/v2.40/bin/bin/../../lib/gcc/pic32c/6.2.1/../../../../pic32c/lib/v7e-m/fpv4-sp/hard\libg_nano.a(lib_a-reent.o)
 .text._reclaim_reent
                0x00000000       0xb8 c:/program files/microchip/xc32/v2.40/bin/bin/../../lib/gcc/pic32c/6.2.1/../../../../pic32c/lib/v7e-m/fpv4-sp/hard\libg_nano.a(lib_a-reent.o)
 .text          0x00000000        0x0 c:/program files/microchip/xc32/v2.40/bin/bin/../../lib/gcc/pic32c/6.2.1/../../../../pic32c/lib/v7e-m/fpv4-sp/hard\libg_nano.a(lib_a-refill.o)
 .data          0x00000000        0x0 c:/program files/microchip/xc32/v2.40/bin/bin/../../lib/gcc/pic32c/6.2.1/../../../../pic32c/lib/v7e-m/fpv4-sp/hard\libg_nano.a(lib_a-refill.o)
 .bss           0x00000000        0x0 c:/program files/microchip/xc32/v2.40/bin/bin/../../lib/gcc/pic32c/6.2.1/../../../../pic32c/lib/v7e-m/fpv4-sp/hard\libg_nano.a(lib_a-refill.o)
 .text.lflush   0x00000000       0x12 c:/program files/microchip/xc32/v2.40/bin/bin/../../lib/gcc/pic32c/6.2.1/../../../../pic32c/lib/v7e-m/fpv4-sp/hard\libg_nano.a(lib_a-refill.o)
 .text.__srefill_r
                0x00000000      0x12c c:/program files/microchip/xc32/v2.40/bin/bin/../../lib/gcc/pic32c/6.2.1/../../../../pic32c/lib/v7e-m/fpv4-sp/hard\libg_nano.a(lib_a-refill.o)
 .debug_info    0x00000000     0x12f3 c:/program files/microchip/xc32/v2.40/bin/bin/../../lib/gcc/pic32c/6.2.1/../../../../pic32c/lib/v7e-m/fpv4-sp/hard\libg_nano.a(lib_a-refill.o)
 .debug_abbrev  0x00000000      0x23f c:/program files/microchip/xc32/v2.40/bin/bin/../../lib/gcc/pic32c/6.2.1/../../../../pic32c/lib/v7e-m/fpv4-sp/hard\libg_nano.a(lib_a-refill.o)
 .debug_loc     0x00000000       0xe3 c:/program files/microchip/xc32/v2.40/bin/bin/../../lib/gcc/pic32c/6.2.1/../../../../pic32c/lib/v7e-m/fpv4-sp/hard\libg_nano.a(lib_a-refill.o)
 .debug_aranges
                0x00000000       0x28 c:/program files/microchip/xc32/v2.40/bin/bin/../../lib/gcc/pic32c/6.2.1/../../../../pic32c/lib/v7e-m/fpv4-sp/hard\libg_nano.a(lib_a-refill.o)
 .debug_ranges  0x00000000       0x30 c:/program files/microchip/xc32/v2.40/bin/bin/../../lib/gcc/pic32c/6.2.1/../../../../pic32c/lib/v7e-m/fpv4-sp/hard\libg_nano.a(lib_a-refill.o)
 .debug_line    0x00000000      0x290 c:/program files/microchip/xc32/v2.40/bin/bin/../../lib/gcc/pic32c/6.2.1/../../../../pic32c/lib/v7e-m/fpv4-sp/hard\libg_nano.a(lib_a-refill.o)
 .debug_str     0x00000000       0x2b c:/program files/microchip/xc32/v2.40/bin/bin/../../lib/gcc/pic32c/6.2.1/../../../../pic32c/lib/v7e-m/fpv4-sp/hard\libg_nano.a(lib_a-refill.o)
 .comment       0x00000000       0x3d c:/program files/microchip/xc32/v2.40/bin/bin/../../lib/gcc/pic32c/6.2.1/../../../../pic32c/lib/v7e-m/fpv4-sp/hard\libg_nano.a(lib_a-refill.o)
 .debug_frame   0x00000000       0x40 c:/program files/microchip/xc32/v2.40/bin/bin/../../lib/gcc/pic32c/6.2.1/../../../../pic32c/lib/v7e-m/fpv4-sp/hard\libg_nano.a(lib_a-refill.o)
 .ARM.attributes
                0x00000000       0x34 c:/program files/microchip/xc32/v2.40/bin/bin/../../lib/gcc/pic32c/6.2.1/../../../../pic32c/lib/v7e-m/fpv4-sp/hard\libg_nano.a(lib_a-refill.o)
 .text          0x00000000        0x0 c:/program files/microchip/xc32/v2.40/bin/bin/../../lib/gcc/pic32c/6.2.1/../../../../pic32c/lib/v7e-m/fpv4-sp/hard\libg_nano.a(lib_a-sccl.o)
 .data          0x00000000        0x0 c:/program files/microchip/xc32/v2.40/bin/bin/../../lib/gcc/pic32c/6.2.1/../../../../pic32c/lib/v7e-m/fpv4-sp/hard\libg_nano.a(lib_a-sccl.o)
 .bss           0x00000000        0x0 c:/program files/microchip/xc32/v2.40/bin/bin/../../lib/gcc/pic32c/6.2.1/../../../../pic32c/lib/v7e-m/fpv4-sp/hard\libg_nano.a(lib_a-sccl.o)
 .text          0x00000000        0x0 c:/program files/microchip/xc32/v2.40/bin/bin/../../lib/gcc/pic32c/6.2.1/../../../../pic32c/lib/v7e-m/fpv4-sp/hard\libg_nano.a(lib_a-s_copysign.o)
 .data          0x00000000        0x0 c:/program files/microchip/xc32/v2.40/bin/bin/../../lib/gcc/pic32c/6.2.1/../../../../pic32c/lib/v7e-m/fpv4-sp/hard\libg_nano.a(lib_a-s_copysign.o)
 .bss           0x00000000        0x0 c:/program files/microchip/xc32/v2.40/bin/bin/../../lib/gcc/pic32c/6.2.1/../../../../pic32c/lib/v7e-m/fpv4-sp/hard\libg_nano.a(lib_a-s_copysign.o)
 .text.copysign
                0x00000000       0x1a c:/program files/microchip/xc32/v2.40/bin/bin/../../lib/gcc/pic32c/6.2.1/../../../../pic32c/lib/v7e-m/fpv4-sp/hard\libg_nano.a(lib_a-s_copysign.o)
 .debug_info    0x00000000      0xf76 c:/program files/microchip/xc32/v2.40/bin/bin/../../lib/gcc/pic32c/6.2.1/../../../../pic32c/lib/v7e-m/fpv4-sp/hard\libg_nano.a(lib_a-s_copysign.o)
 .debug_abbrev  0x00000000      0x1dc c:/program files/microchip/xc32/v2.40/bin/bin/../../lib/gcc/pic32c/6.2.1/../../../../pic32c/lib/v7e-m/fpv4-sp/hard\libg_nano.a(lib_a-s_copysign.o)
 .debug_loc     0x00000000       0x3d c:/program files/microchip/xc32/v2.40/bin/bin/../../lib/gcc/pic32c/6.2.1/../../../../pic32c/lib/v7e-m/fpv4-sp/hard\libg_nano.a(lib_a-s_copysign.o)
 .debug_aranges
                0x00000000       0x20 c:/program files/microchip/xc32/v2.40/bin/bin/../../lib/gcc/pic32c/6.2.1/../../../../pic32c/lib/v7e-m/fpv4-sp/hard\libg_nano.a(lib_a-s_copysign.o)
 .debug_ranges  0x00000000       0x10 c:/program files/microchip/xc32/v2.40/bin/bin/../../lib/gcc/pic32c/6.2.1/../../../../pic32c/lib/v7e-m/fpv4-sp/hard\libg_nano.a(lib_a-s_copysign.o)
 .debug_line    0x00000000      0x292 c:/program files/microchip/xc32/v2.40/bin/bin/../../lib/gcc/pic32c/6.2.1/../../../../pic32c/lib/v7e-m/fpv4-sp/hard\libg_nano.a(lib_a-s_copysign.o)
 .debug_str     0x00000000        0x9 c:/program files/microchip/xc32/v2.40/bin/bin/../../lib/gcc/pic32c/6.2.1/../../../../pic32c/lib/v7e-m/fpv4-sp/hard\libg_nano.a(lib_a-s_copysign.o)
 .comment       0x00000000       0x3d c:/program files/microchip/xc32/v2.40/bin/bin/../../lib/gcc/pic32c/6.2.1/../../../../pic32c/lib/v7e-m/fpv4-sp/hard\libg_nano.a(lib_a-s_copysign.o)
 .debug_frame   0x00000000       0x20 c:/program files/microchip/xc32/v2.40/bin/bin/../../lib/gcc/pic32c/6.2.1/../../../../pic32c/lib/v7e-m/fpv4-sp/hard\libg_nano.a(lib_a-s_copysign.o)
 .ARM.attributes
                0x00000000       0x34 c:/program files/microchip/xc32/v2.40/bin/bin/../../lib/gcc/pic32c/6.2.1/../../../../pic32c/lib/v7e-m/fpv4-sp/hard\libg_nano.a(lib_a-s_copysign.o)
 .text          0x00000000        0x0 c:/program files/microchip/xc32/v2.40/bin/bin/../../lib/gcc/pic32c/6.2.1/../../../../pic32c/lib/v7e-m/fpv4-sp/hard\libg_nano.a(lib_a-s_finite.o)
 .data          0x00000000        0x0 c:/program files/microchip/xc32/v2.40/bin/bin/../../lib/gcc/pic32c/6.2.1/../../../../pic32c/lib/v7e-m/fpv4-sp/hard\libg_nano.a(lib_a-s_finite.o)
 .bss           0x00000000        0x0 c:/program files/microchip/xc32/v2.40/bin/bin/../../lib/gcc/pic32c/6.2.1/../../../../pic32c/lib/v7e-m/fpv4-sp/hard\libg_nano.a(lib_a-s_finite.o)
 .text.finite   0x00000000       0x10 c:/program files/microchip/xc32/v2.40/bin/bin/../../lib/gcc/pic32c/6.2.1/../../../../pic32c/lib/v7e-m/fpv4-sp/hard\libg_nano.a(lib_a-s_finite.o)
 .debug_info    0x00000000      0xf34 c:/program files/microchip/xc32/v2.40/bin/bin/../../lib/gcc/pic32c/6.2.1/../../../../pic32c/lib/v7e-m/fpv4-sp/hard\libg_nano.a(lib_a-s_finite.o)
 .debug_abbrev  0x00000000      0x1a4 c:/program files/microchip/xc32/v2.40/bin/bin/../../lib/gcc/pic32c/6.2.1/../../../../pic32c/lib/v7e-m/fpv4-sp/hard\libg_nano.a(lib_a-s_finite.o)
 .debug_aranges
                0x00000000       0x20 c:/program files/microchip/xc32/v2.40/bin/bin/../../lib/gcc/pic32c/6.2.1/../../../../pic32c/lib/v7e-m/fpv4-sp/hard\libg_nano.a(lib_a-s_finite.o)
 .debug_ranges  0x00000000       0x10 c:/program files/microchip/xc32/v2.40/bin/bin/../../lib/gcc/pic32c/6.2.1/../../../../pic32c/lib/v7e-m/fpv4-sp/hard\libg_nano.a(lib_a-s_finite.o)
 .debug_line    0x00000000      0x28e c:/program files/microchip/xc32/v2.40/bin/bin/../../lib/gcc/pic32c/6.2.1/../../../../pic32c/lib/v7e-m/fpv4-sp/hard\libg_nano.a(lib_a-s_finite.o)
 .debug_str     0x00000000        0x9 c:/program files/microchip/xc32/v2.40/bin/bin/../../lib/gcc/pic32c/6.2.1/../../../../pic32c/lib/v7e-m/fpv4-sp/hard\libg_nano.a(lib_a-s_finite.o)
 .comment       0x00000000       0x3d c:/program files/microchip/xc32/v2.40/bin/bin/../../lib/gcc/pic32c/6.2.1/../../../../pic32c/lib/v7e-m/fpv4-sp/hard\libg_nano.a(lib_a-s_finite.o)
 .debug_frame   0x00000000       0x20 c:/program files/microchip/xc32/v2.40/bin/bin/../../lib/gcc/pic32c/6.2.1/../../../../pic32c/lib/v7e-m/fpv4-sp/hard\libg_nano.a(lib_a-s_finite.o)
 .ARM.attributes
                0x00000000       0x34 c:/program files/microchip/xc32/v2.40/bin/bin/../../lib/gcc/pic32c/6.2.1/../../../../pic32c/lib/v7e-m/fpv4-sp/hard\libg_nano.a(lib_a-s_finite.o)
 .text          0x00000000        0x0 c:/program files/microchip/xc32/v2.40/bin/bin/../../lib/gcc/pic32c/6.2.1/../../../../pic32c/lib/v7e-m/fpv4-sp/hard\libg_nano.a(lib_a-signal.o)
 .data          0x00000000        0x0 c:/program files/microchip/xc32/v2.40/bin/bin/../../lib/gcc/pic32c/6.2.1/../../../../pic32c/lib/v7e-m/fpv4-sp/hard\libg_nano.a(lib_a-signal.o)
 .bss           0x00000000        0x0 c:/program files/microchip/xc32/v2.40/bin/bin/../../lib/gcc/pic32c/6.2.1/../../../../pic32c/lib/v7e-m/fpv4-sp/hard\libg_nano.a(lib_a-signal.o)
 .text._init_signal_r
                0x00000000       0x2a c:/program files/microchip/xc32/v2.40/bin/bin/../../lib/gcc/pic32c/6.2.1/../../../../pic32c/lib/v7e-m/fpv4-sp/hard\libg_nano.a(lib_a-signal.o)
 .text._signal_r
                0x00000000       0x30 c:/program files/microchip/xc32/v2.40/bin/bin/../../lib/gcc/pic32c/6.2.1/../../../../pic32c/lib/v7e-m/fpv4-sp/hard\libg_nano.a(lib_a-signal.o)
 .text._raise_r
                0x00000000       0x50 c:/program files/microchip/xc32/v2.40/bin/bin/../../lib/gcc/pic32c/6.2.1/../../../../pic32c/lib/v7e-m/fpv4-sp/hard\libg_nano.a(lib_a-signal.o)
 .text.__sigtramp_r
                0x00000000       0x48 c:/program files/microchip/xc32/v2.40/bin/bin/../../lib/gcc/pic32c/6.2.1/../../../../pic32c/lib/v7e-m/fpv4-sp/hard\libg_nano.a(lib_a-signal.o)
 .text.raise    0x00000000       0x10 c:/program files/microchip/xc32/v2.40/bin/bin/../../lib/gcc/pic32c/6.2.1/../../../../pic32c/lib/v7e-m/fpv4-sp/hard\libg_nano.a(lib_a-signal.o)
 .text.signal   0x00000000       0x10 c:/program files/microchip/xc32/v2.40/bin/bin/../../lib/gcc/pic32c/6.2.1/../../../../pic32c/lib/v7e-m/fpv4-sp/hard\libg_nano.a(lib_a-signal.o)
 .text._init_signal
                0x00000000        0xc c:/program files/microchip/xc32/v2.40/bin/bin/../../lib/gcc/pic32c/6.2.1/../../../../pic32c/lib/v7e-m/fpv4-sp/hard\libg_nano.a(lib_a-signal.o)
 .text.__sigtramp
                0x00000000       0x10 c:/program files/microchip/xc32/v2.40/bin/bin/../../lib/gcc/pic32c/6.2.1/../../../../pic32c/lib/v7e-m/fpv4-sp/hard\libg_nano.a(lib_a-signal.o)
 .debug_info    0x00000000     0x11a4 c:/program files/microchip/xc32/v2.40/bin/bin/../../lib/gcc/pic32c/6.2.1/../../../../pic32c/lib/v7e-m/fpv4-sp/hard\libg_nano.a(lib_a-signal.o)
 .debug_abbrev  0x00000000      0x288 c:/program files/microchip/xc32/v2.40/bin/bin/../../lib/gcc/pic32c/6.2.1/../../../../pic32c/lib/v7e-m/fpv4-sp/hard\libg_nano.a(lib_a-signal.o)
 .debug_loc     0x00000000      0x4d2 c:/program files/microchip/xc32/v2.40/bin/bin/../../lib/gcc/pic32c/6.2.1/../../../../pic32c/lib/v7e-m/fpv4-sp/hard\libg_nano.a(lib_a-signal.o)
 .debug_aranges
                0x00000000       0x58 c:/program files/microchip/xc32/v2.40/bin/bin/../../lib/gcc/pic32c/6.2.1/../../../../pic32c/lib/v7e-m/fpv4-sp/hard\libg_nano.a(lib_a-signal.o)
 .debug_ranges  0x00000000       0x60 c:/program files/microchip/xc32/v2.40/bin/bin/../../lib/gcc/pic32c/6.2.1/../../../../pic32c/lib/v7e-m/fpv4-sp/hard\libg_nano.a(lib_a-signal.o)
 .debug_line    0x00000000      0x2f2 c:/program files/microchip/xc32/v2.40/bin/bin/../../lib/gcc/pic32c/6.2.1/../../../../pic32c/lib/v7e-m/fpv4-sp/hard\libg_nano.a(lib_a-signal.o)
 .debug_str     0x00000000       0x1d c:/program files/microchip/xc32/v2.40/bin/bin/../../lib/gcc/pic32c/6.2.1/../../../../pic32c/lib/v7e-m/fpv4-sp/hard\libg_nano.a(lib_a-signal.o)
 .comment       0x00000000       0x3d c:/program files/microchip/xc32/v2.40/bin/bin/../../lib/gcc/pic32c/6.2.1/../../../../pic32c/lib/v7e-m/fpv4-sp/hard\libg_nano.a(lib_a-signal.o)
 .debug_frame   0x00000000       0xcc c:/program files/microchip/xc32/v2.40/bin/bin/../../lib/gcc/pic32c/6.2.1/../../../../pic32c/lib/v7e-m/fpv4-sp/hard\libg_nano.a(lib_a-signal.o)
 .ARM.attributes
                0x00000000       0x34 c:/program files/microchip/xc32/v2.40/bin/bin/../../lib/gcc/pic32c/6.2.1/../../../../pic32c/lib/v7e-m/fpv4-sp/hard\libg_nano.a(lib_a-signal.o)
 .text          0x00000000        0x0 c:/program files/microchip/xc32/v2.40/bin/bin/../../lib/gcc/pic32c/6.2.1/../../../../pic32c/lib/v7e-m/fpv4-sp/hard\libg_nano.a(lib_a-signalr.o)
 .data          0x00000000        0x0 c:/program files/microchip/xc32/v2.40/bin/bin/../../lib/gcc/pic32c/6.2.1/../../../../pic32c/lib/v7e-m/fpv4-sp/hard\libg_nano.a(lib_a-signalr.o)
 .bss           0x00000000        0x0 c:/program files/microchip/xc32/v2.40/bin/bin/../../lib/gcc/pic32c/6.2.1/../../../../pic32c/lib/v7e-m/fpv4-sp/hard\libg_nano.a(lib_a-signalr.o)
 .text._kill_r  0x00000000       0x24 c:/program files/microchip/xc32/v2.40/bin/bin/../../lib/gcc/pic32c/6.2.1/../../../../pic32c/lib/v7e-m/fpv4-sp/hard\libg_nano.a(lib_a-signalr.o)
 .text._getpid_r
                0x00000000        0x4 c:/program files/microchip/xc32/v2.40/bin/bin/../../lib/gcc/pic32c/6.2.1/../../../../pic32c/lib/v7e-m/fpv4-sp/hard\libg_nano.a(lib_a-signalr.o)
 .debug_info    0x00000000      0xf43 c:/program files/microchip/xc32/v2.40/bin/bin/../../lib/gcc/pic32c/6.2.1/../../../../pic32c/lib/v7e-m/fpv4-sp/hard\libg_nano.a(lib_a-signalr.o)
 .debug_abbrev  0x00000000      0x1e9 c:/program files/microchip/xc32/v2.40/bin/bin/../../lib/gcc/pic32c/6.2.1/../../../../pic32c/lib/v7e-m/fpv4-sp/hard\libg_nano.a(lib_a-signalr.o)
 .debug_loc     0x00000000       0xba c:/program files/microchip/xc32/v2.40/bin/bin/../../lib/gcc/pic32c/6.2.1/../../../../pic32c/lib/v7e-m/fpv4-sp/hard\libg_nano.a(lib_a-signalr.o)
 .debug_aranges
                0x00000000       0x28 c:/program files/microchip/xc32/v2.40/bin/bin/../../lib/gcc/pic32c/6.2.1/../../../../pic32c/lib/v7e-m/fpv4-sp/hard\libg_nano.a(lib_a-signalr.o)
 .debug_ranges  0x00000000       0x30 c:/program files/microchip/xc32/v2.40/bin/bin/../../lib/gcc/pic32c/6.2.1/../../../../pic32c/lib/v7e-m/fpv4-sp/hard\libg_nano.a(lib_a-signalr.o)
 .debug_line    0x00000000      0x226 c:/program files/microchip/xc32/v2.40/bin/bin/../../lib/gcc/pic32c/6.2.1/../../../../pic32c/lib/v7e-m/fpv4-sp/hard\libg_nano.a(lib_a-signalr.o)
 .debug_str     0x00000000        0x9 c:/program files/microchip/xc32/v2.40/bin/bin/../../lib/gcc/pic32c/6.2.1/../../../../pic32c/lib/v7e-m/fpv4-sp/hard\libg_nano.a(lib_a-signalr.o)
 .comment       0x00000000       0x3d c:/program files/microchip/xc32/v2.40/bin/bin/../../lib/gcc/pic32c/6.2.1/../../../../pic32c/lib/v7e-m/fpv4-sp/hard\libg_nano.a(lib_a-signalr.o)
 .debug_frame   0x00000000       0x3c c:/program files/microchip/xc32/v2.40/bin/bin/../../lib/gcc/pic32c/6.2.1/../../../../pic32c/lib/v7e-m/fpv4-sp/hard\libg_nano.a(lib_a-signalr.o)
 .ARM.attributes
                0x00000000       0x34 c:/program files/microchip/xc32/v2.40/bin/bin/../../lib/gcc/pic32c/6.2.1/../../../../pic32c/lib/v7e-m/fpv4-sp/hard\libg_nano.a(lib_a-signalr.o)
 .text          0x00000000        0x0 c:/program files/microchip/xc32/v2.40/bin/bin/../../lib/gcc/pic32c/6.2.1/../../../../pic32c/lib/v7e-m/fpv4-sp/hard\libg_nano.a(lib_a-sscanf.o)
 .data          0x00000000        0x0 c:/program files/microchip/xc32/v2.40/bin/bin/../../lib/gcc/pic32c/6.2.1/../../../../pic32c/lib/v7e-m/fpv4-sp/hard\libg_nano.a(lib_a-sscanf.o)
 .bss           0x00000000        0x0 c:/program files/microchip/xc32/v2.40/bin/bin/../../lib/gcc/pic32c/6.2.1/../../../../pic32c/lib/v7e-m/fpv4-sp/hard\libg_nano.a(lib_a-sscanf.o)
 .text._sscanf_r
                0x00000000       0x54 c:/program files/microchip/xc32/v2.40/bin/bin/../../lib/gcc/pic32c/6.2.1/../../../../pic32c/lib/v7e-m/fpv4-sp/hard\libg_nano.a(lib_a-sscanf.o)
 .text          0x00000000        0x0 c:/program files/microchip/xc32/v2.40/bin/bin/../../lib/gcc/pic32c/6.2.1/../../../../pic32c/lib/v7e-m/fpv4-sp/hard\libg_nano.a(lib_a-__ssputs.o)
 .data          0x00000000        0x0 c:/program files/microchip/xc32/v2.40/bin/bin/../../lib/gcc/pic32c/6.2.1/../../../../pic32c/lib/v7e-m/fpv4-sp/hard\libg_nano.a(lib_a-__ssputs.o)
 .bss           0x00000000        0x0 c:/program files/microchip/xc32/v2.40/bin/bin/../../lib/gcc/pic32c/6.2.1/../../../../pic32c/lib/v7e-m/fpv4-sp/hard\libg_nano.a(lib_a-__ssputs.o)
 .text          0x00000000        0x0 c:/program files/microchip/xc32/v2.40/bin/bin/../../lib/gcc/pic32c/6.2.1/../../../../pic32c/lib/v7e-m/fpv4-sp/hard\libg_nano.a(lib_a-ungetc.o)
 .data          0x00000000        0x0 c:/program files/microchip/xc32/v2.40/bin/bin/../../lib/gcc/pic32c/6.2.1/../../../../pic32c/lib/v7e-m/fpv4-sp/hard\libg_nano.a(lib_a-ungetc.o)
 .bss           0x00000000        0x0 c:/program files/microchip/xc32/v2.40/bin/bin/../../lib/gcc/pic32c/6.2.1/../../../../pic32c/lib/v7e-m/fpv4-sp/hard\libg_nano.a(lib_a-ungetc.o)
 .text._ungetc_r
                0x00000000       0xf8 c:/program files/microchip/xc32/v2.40/bin/bin/../../lib/gcc/pic32c/6.2.1/../../../../pic32c/lib/v7e-m/fpv4-sp/hard\libg_nano.a(lib_a-ungetc.o)
 .text.ungetc   0x00000000       0x10 c:/program files/microchip/xc32/v2.40/bin/bin/../../lib/gcc/pic32c/6.2.1/../../../../pic32c/lib/v7e-m/fpv4-sp/hard\libg_nano.a(lib_a-ungetc.o)
 .text          0x00000000        0x0 c:/program files/microchip/xc32/v2.40/bin/bin/../../lib/gcc/pic32c/6.2.1/../../../../pic32c/lib/v7e-m/fpv4-sp/hard\libg_nano.a(lib_a-wcrtomb.o)
 .data          0x00000000        0x0 c:/program files/microchip/xc32/v2.40/bin/bin/../../lib/gcc/pic32c/6.2.1/../../../../pic32c/lib/v7e-m/fpv4-sp/hard\libg_nano.a(lib_a-wcrtomb.o)
 .bss           0x00000000        0x0 c:/program files/microchip/xc32/v2.40/bin/bin/../../lib/gcc/pic32c/6.2.1/../../../../pic32c/lib/v7e-m/fpv4-sp/hard\libg_nano.a(lib_a-wcrtomb.o)
 .text.wcrtomb  0x00000000       0x14 c:/program files/microchip/xc32/v2.40/bin/bin/../../lib/gcc/pic32c/6.2.1/../../../../pic32c/lib/v7e-m/fpv4-sp/hard\libg_nano.a(lib_a-wcrtomb.o)
 .text          0x00000000        0x0 c:/program files/microchip/xc32/v2.40/bin/bin/../../lib/gcc/pic32c/6.2.1/../../../../pic32c/lib/v7e-m/fpv4-sp/hard\libg_nano.a(lib_a-environ.o)
 .data          0x00000000        0x0 c:/program files/microchip/xc32/v2.40/bin/bin/../../lib/gcc/pic32c/6.2.1/../../../../pic32c/lib/v7e-m/fpv4-sp/hard\libg_nano.a(lib_a-environ.o)
 .bss           0x00000000        0x0 c:/program files/microchip/xc32/v2.40/bin/bin/../../lib/gcc/pic32c/6.2.1/../../../../pic32c/lib/v7e-m/fpv4-sp/hard\libg_nano.a(lib_a-environ.o)
 .text          0x00000000        0x0 c:/program files/microchip/xc32/v2.40/bin/bin/../../lib/gcc/pic32c/6.2.1/../../../../pic32c/lib/v7e-m/fpv4-sp/hard\libg_nano.a(lib_a-envlock.o)
 .data          0x00000000        0x0 c:/program files/microchip/xc32/v2.40/bin/bin/../../lib/gcc/pic32c/6.2.1/../../../../pic32c/lib/v7e-m/fpv4-sp/hard\libg_nano.a(lib_a-envlock.o)
 .bss           0x00000000        0x0 c:/program files/microchip/xc32/v2.40/bin/bin/../../lib/gcc/pic32c/6.2.1/../../../../pic32c/lib/v7e-m/fpv4-sp/hard\libg_nano.a(lib_a-envlock.o)
 .text          0x00000000        0x0 c:/program files/microchip/xc32/v2.40/bin/bin/../../lib/gcc/pic32c/6.2.1/../../../../pic32c/lib/v7e-m/fpv4-sp/hard\libg_nano.a(lib_a-fstatr.o)
 .data          0x00000000        0x0 c:/program files/microchip/xc32/v2.40/bin/bin/../../lib/gcc/pic32c/6.2.1/../../../../pic32c/lib/v7e-m/fpv4-sp/hard\libg_nano.a(lib_a-fstatr.o)
 .bss           0x00000000        0x0 c:/program files/microchip/xc32/v2.40/bin/bin/../../lib/gcc/pic32c/6.2.1/../../../../pic32c/lib/v7e-m/fpv4-sp/hard\libg_nano.a(lib_a-fstatr.o)
 .text          0x00000000        0x0 c:/program files/microchip/xc32/v2.40/bin/bin/../../lib/gcc/pic32c/6.2.1/../../../../pic32c/lib/v7e-m/fpv4-sp/hard\libg_nano.a(lib_a-isattyr.o)
 .data          0x00000000        0x0 c:/program files/microchip/xc32/v2.40/bin/bin/../../lib/gcc/pic32c/6.2.1/../../../../pic32c/lib/v7e-m/fpv4-sp/hard\libg_nano.a(lib_a-isattyr.o)
 .bss           0x00000000        0x0 c:/program files/microchip/xc32/v2.40/bin/bin/../../lib/gcc/pic32c/6.2.1/../../../../pic32c/lib/v7e-m/fpv4-sp/hard\libg_nano.a(lib_a-isattyr.o)
 .text          0x00000000        0x0 c:/program files/microchip/xc32/v2.40/bin/bin/../../lib/gcc/pic32c/6.2.1/../../../../pic32c/lib/v7e-m/fpv4-sp/hard\libg_nano.a(lib_a-nano-reallocr.o)
 .data          0x00000000        0x0 c:/program files/microchip/xc32/v2.40/bin/bin/../../lib/gcc/pic32c/6.2.1/../../../../pic32c/lib/v7e-m/fpv4-sp/hard\libg_nano.a(lib_a-nano-reallocr.o)
 .bss           0x00000000        0x0 c:/program files/microchip/xc32/v2.40/bin/bin/../../lib/gcc/pic32c/6.2.1/../../../../pic32c/lib/v7e-m/fpv4-sp/hard\libg_nano.a(lib_a-nano-reallocr.o)
 .text          0x00000000        0x0 c:/program files/microchip/xc32/v2.40/bin/bin/../../lib/gcc/pic32c/6.2.1/../../../../pic32c/lib/v7e-m/fpv4-sp/hard\libg_nano.a(lib_a-nano-svfscanf.o)
 .data          0x00000000        0x0 c:/program files/microchip/xc32/v2.40/bin/bin/../../lib/gcc/pic32c/6.2.1/../../../../pic32c/lib/v7e-m/fpv4-sp/hard\libg_nano.a(lib_a-nano-svfscanf.o)
 .bss           0x00000000        0x0 c:/program files/microchip/xc32/v2.40/bin/bin/../../lib/gcc/pic32c/6.2.1/../../../../pic32c/lib/v7e-m/fpv4-sp/hard\libg_nano.a(lib_a-nano-svfscanf.o)
 .text          0x00000000        0x0 c:/program files/microchip/xc32/v2.40/bin/bin/../../lib/gcc/pic32c/6.2.1/../../../../pic32c/lib/v7e-m/fpv4-sp/hard\libg_nano.a(lib_a-nano-vfscanf_i.o)
 .data          0x00000000        0x0 c:/program files/microchip/xc32/v2.40/bin/bin/../../lib/gcc/pic32c/6.2.1/../../../../pic32c/lib/v7e-m/fpv4-sp/hard\libg_nano.a(lib_a-nano-vfscanf_i.o)
 .bss           0x00000000        0x0 c:/program files/microchip/xc32/v2.40/bin/bin/../../lib/gcc/pic32c/6.2.1/../../../../pic32c/lib/v7e-m/fpv4-sp/hard\libg_nano.a(lib_a-nano-vfscanf_i.o)
 .text          0x00000000        0x0 c:/program files/microchip/xc32/v2.40/bin/bin/../../lib/gcc/pic32c/6.2.1/../../../../pic32c/lib/v7e-m/fpv4-sp/hard\libg_nano.a(lib_a-nano-msizer.o)
 .data          0x00000000        0x0 c:/program files/microchip/xc32/v2.40/bin/bin/../../lib/gcc/pic32c/6.2.1/../../../../pic32c/lib/v7e-m/fpv4-sp/hard\libg_nano.a(lib_a-nano-msizer.o)
 .bss           0x00000000        0x0 c:/program files/microchip/xc32/v2.40/bin/bin/../../lib/gcc/pic32c/6.2.1/../../../../pic32c/lib/v7e-m/fpv4-sp/hard\libg_nano.a(lib_a-nano-msizer.o)
 .text          0x00000000        0x0 c:/program files/microchip/xc32/v2.40/bin/bin/../../lib/gcc/pic32c/6.2.1/../../../../pic32c/lib/v7e-m/fpv4-sp/hard\libpic32c.a(_close.o)
 .data          0x00000000        0x0 c:/program files/microchip/xc32/v2.40/bin/bin/../../lib/gcc/pic32c/6.2.1/../../../../pic32c/lib/v7e-m/fpv4-sp/hard\libpic32c.a(_close.o)
 .bss           0x00000000        0x0 c:/program files/microchip/xc32/v2.40/bin/bin/../../lib/gcc/pic32c/6.2.1/../../../../pic32c/lib/v7e-m/fpv4-sp/hard\libpic32c.a(_close.o)
 .text          0x00000000        0x0 c:/program files/microchip/xc32/v2.40/bin/bin/../../lib/gcc/pic32c/6.2.1/../../../../pic32c/lib/v7e-m/fpv4-sp/hard\libpic32c.a(_fstat.o)
 .data          0x00000000        0x0 c:/program files/microchip/xc32/v2.40/bin/bin/../../lib/gcc/pic32c/6.2.1/../../../../pic32c/lib/v7e-m/fpv4-sp/hard\libpic32c.a(_fstat.o)
 .bss           0x00000000        0x0 c:/program files/microchip/xc32/v2.40/bin/bin/../../lib/gcc/pic32c/6.2.1/../../../../pic32c/lib/v7e-m/fpv4-sp/hard\libpic32c.a(_fstat.o)
 .text          0x00000000        0x0 c:/program files/microchip/xc32/v2.40/bin/bin/../../lib/gcc/pic32c/6.2.1/../../../../pic32c/lib/v7e-m/fpv4-sp/hard\libpic32c.a(_getpid.o)
 .data          0x00000000        0x0 c:/program files/microchip/xc32/v2.40/bin/bin/../../lib/gcc/pic32c/6.2.1/../../../../pic32c/lib/v7e-m/fpv4-sp/hard\libpic32c.a(_getpid.o)
 .bss           0x00000000        0x0 c:/program files/microchip/xc32/v2.40/bin/bin/../../lib/gcc/pic32c/6.2.1/../../../../pic32c/lib/v7e-m/fpv4-sp/hard\libpic32c.a(_getpid.o)
 .text._getpid  0x00000000        0x4 c:/program files/microchip/xc32/v2.40/bin/bin/../../lib/gcc/pic32c/6.2.1/../../../../pic32c/lib/v7e-m/fpv4-sp/hard\libpic32c.a(_getpid.o)
 .debug_info    0x00000000      0x28a c:/program files/microchip/xc32/v2.40/bin/bin/../../lib/gcc/pic32c/6.2.1/../../../../pic32c/lib/v7e-m/fpv4-sp/hard\libpic32c.a(_getpid.o)
 .debug_abbrev  0x00000000       0x27 c:/program files/microchip/xc32/v2.40/bin/bin/../../lib/gcc/pic32c/6.2.1/../../../../pic32c/lib/v7e-m/fpv4-sp/hard\libpic32c.a(_getpid.o)
 .debug_aranges
                0x00000000       0x20 c:/program files/microchip/xc32/v2.40/bin/bin/../../lib/gcc/pic32c/6.2.1/../../../../pic32c/lib/v7e-m/fpv4-sp/hard\libpic32c.a(_getpid.o)
 .debug_ranges  0x00000000       0x10 c:/program files/microchip/xc32/v2.40/bin/bin/../../lib/gcc/pic32c/6.2.1/../../../../pic32c/lib/v7e-m/fpv4-sp/hard\libpic32c.a(_getpid.o)
 .debug_line    0x00000000       0x9d c:/program files/microchip/xc32/v2.40/bin/bin/../../lib/gcc/pic32c/6.2.1/../../../../pic32c/lib/v7e-m/fpv4-sp/hard\libpic32c.a(_getpid.o)
 .debug_str     0x00000000        0x0 c:/program files/microchip/xc32/v2.40/bin/bin/../../lib/gcc/pic32c/6.2.1/../../../../pic32c/lib/v7e-m/fpv4-sp/hard\libpic32c.a(_getpid.o)
 .comment       0x00000000       0x3d c:/program files/microchip/xc32/v2.40/bin/bin/../../lib/gcc/pic32c/6.2.1/../../../../pic32c/lib/v7e-m/fpv4-sp/hard\libpic32c.a(_getpid.o)
 .debug_frame   0x00000000       0x20 c:/program files/microchip/xc32/v2.40/bin/bin/../../lib/gcc/pic32c/6.2.1/../../../../pic32c/lib/v7e-m/fpv4-sp/hard\libpic32c.a(_getpid.o)
 .ARM.attributes
                0x00000000       0x34 c:/program files/microchip/xc32/v2.40/bin/bin/../../lib/gcc/pic32c/6.2.1/../../../../pic32c/lib/v7e-m/fpv4-sp/hard\libpic32c.a(_getpid.o)
 .text          0x00000000        0x0 c:/program files/microchip/xc32/v2.40/bin/bin/../../lib/gcc/pic32c/6.2.1/../../../../pic32c/lib/v7e-m/fpv4-sp/hard\libpic32c.a(_isatty.o)
 .data          0x00000000        0x0 c:/program files/microchip/xc32/v2.40/bin/bin/../../lib/gcc/pic32c/6.2.1/../../../../pic32c/lib/v7e-m/fpv4-sp/hard\libpic32c.a(_isatty.o)
 .bss           0x00000000        0x0 c:/program files/microchip/xc32/v2.40/bin/bin/../../lib/gcc/pic32c/6.2.1/../../../../pic32c/lib/v7e-m/fpv4-sp/hard\libpic32c.a(_isatty.o)
 .text          0x00000000        0x0 c:/program files/microchip/xc32/v2.40/bin/bin/../../lib/gcc/pic32c/6.2.1/../../../../pic32c/lib/v7e-m/fpv4-sp/hard\libpic32c.a(_kill.o)
 .data          0x00000000        0x0 c:/program files/microchip/xc32/v2.40/bin/bin/../../lib/gcc/pic32c/6.2.1/../../../../pic32c/lib/v7e-m/fpv4-sp/hard\libpic32c.a(_kill.o)
 .bss           0x00000000        0x0 c:/program files/microchip/xc32/v2.40/bin/bin/../../lib/gcc/pic32c/6.2.1/../../../../pic32c/lib/v7e-m/fpv4-sp/hard\libpic32c.a(_kill.o)
 .text._kill    0x00000000        0x4 c:/program files/microchip/xc32/v2.40/bin/bin/../../lib/gcc/pic32c/6.2.1/../../../../pic32c/lib/v7e-m/fpv4-sp/hard\libpic32c.a(_kill.o)
 .debug_info    0x00000000      0x286 c:/program files/microchip/xc32/v2.40/bin/bin/../../lib/gcc/pic32c/6.2.1/../../../../pic32c/lib/v7e-m/fpv4-sp/hard\libpic32c.a(_kill.o)
 .debug_abbrev  0x00000000       0x27 c:/program files/microchip/xc32/v2.40/bin/bin/../../lib/gcc/pic32c/6.2.1/../../../../pic32c/lib/v7e-m/fpv4-sp/hard\libpic32c.a(_kill.o)
 .debug_aranges
                0x00000000       0x20 c:/program files/microchip/xc32/v2.40/bin/bin/../../lib/gcc/pic32c/6.2.1/../../../../pic32c/lib/v7e-m/fpv4-sp/hard\libpic32c.a(_kill.o)
 .debug_ranges  0x00000000       0x10 c:/program files/microchip/xc32/v2.40/bin/bin/../../lib/gcc/pic32c/6.2.1/../../../../pic32c/lib/v7e-m/fpv4-sp/hard\libpic32c.a(_kill.o)
 .debug_line    0x00000000       0x9b c:/program files/microchip/xc32/v2.40/bin/bin/../../lib/gcc/pic32c/6.2.1/../../../../pic32c/lib/v7e-m/fpv4-sp/hard\libpic32c.a(_kill.o)
 .debug_str     0x00000000        0x0 c:/program files/microchip/xc32/v2.40/bin/bin/../../lib/gcc/pic32c/6.2.1/../../../../pic32c/lib/v7e-m/fpv4-sp/hard\libpic32c.a(_kill.o)
 .comment       0x00000000       0x3d c:/program files/microchip/xc32/v2.40/bin/bin/../../lib/gcc/pic32c/6.2.1/../../../../pic32c/lib/v7e-m/fpv4-sp/hard\libpic32c.a(_kill.o)
 .debug_frame   0x00000000       0x20 c:/program files/microchip/xc32/v2.40/bin/bin/../../lib/gcc/pic32c/6.2.1/../../../../pic32c/lib/v7e-m/fpv4-sp/hard\libpic32c.a(_kill.o)
 .ARM.attributes
                0x00000000       0x34 c:/program files/microchip/xc32/v2.40/bin/bin/../../lib/gcc/pic32c/6.2.1/../../../../pic32c/lib/v7e-m/fpv4-sp/hard\libpic32c.a(_kill.o)
 .text          0x00000000        0x0 c:/program files/microchip/xc32/v2.40/bin/bin/../../lib/gcc/pic32c/6.2.1/../../../../pic32c/lib/v7e-m/fpv4-sp/hard\libpic32c.a(_lseek.o)
 .data          0x00000000        0x0 c:/program files/microchip/xc32/v2.40/bin/bin/../../lib/gcc/pic32c/6.2.1/../../../../pic32c/lib/v7e-m/fpv4-sp/hard\libpic32c.a(_lseek.o)
 .bss           0x00000000        0x0 c:/program files/microchip/xc32/v2.40/bin/bin/../../lib/gcc/pic32c/6.2.1/../../../../pic32c/lib/v7e-m/fpv4-sp/hard\libpic32c.a(_lseek.o)
 .text          0x00000000        0x0 c:/program files/microchip/xc32/v2.40/bin/bin/../../lib/gcc/pic32c/6.2.1/../../../../pic32c/lib/v7e-m/fpv4-sp/hard\libpic32c.a(_read.o)
 .data          0x00000000        0x0 c:/program files/microchip/xc32/v2.40/bin/bin/../../lib/gcc/pic32c/6.2.1/../../../../pic32c/lib/v7e-m/fpv4-sp/hard\libpic32c.a(_read.o)
 .bss           0x00000000        0x0 c:/program files/microchip/xc32/v2.40/bin/bin/../../lib/gcc/pic32c/6.2.1/../../../../pic32c/lib/v7e-m/fpv4-sp/hard\libpic32c.a(_read.o)
 .text          0x00000000        0x0 c:/program files/microchip/xc32/v2.40/bin/bin/../../lib/gcc/pic32c/6.2.1/../../../../pic32c/lib/v7e-m/fpv4-sp/hard\libpic32c.a(sbrk.o)
 .data          0x00000000        0x0 c:/program files/microchip/xc32/v2.40/bin/bin/../../lib/gcc/pic32c/6.2.1/../../../../pic32c/lib/v7e-m/fpv4-sp/hard\libpic32c.a(sbrk.o)
 .text          0x00000000        0x0 c:/program files/microchip/xc32/v2.40/bin/bin/../../lib/gcc/pic32c/6.2.1/../../../../pic32c/lib/v7e-m/fpv4-sp/hard\libpic32c.a(_write.o)
 .data          0x00000000        0x0 c:/program files/microchip/xc32/v2.40/bin/bin/../../lib/gcc/pic32c/6.2.1/../../../../pic32c/lib/v7e-m/fpv4-sp/hard\libpic32c.a(_write.o)
 .bss           0x00000000        0x0 c:/program files/microchip/xc32/v2.40/bin/bin/../../lib/gcc/pic32c/6.2.1/../../../../pic32c/lib/v7e-m/fpv4-sp/hard\libpic32c.a(_write.o)
 .text          0x00000000        0x0 c:/program files/microchip/xc32/v2.40/bin/bin/../../lib/gcc/pic32c/6.2.1/../../../../pic32c/lib/v7e-m/fpv4-sp/hard\libpic32c.a(fstat.o)
 .data          0x00000000        0x0 c:/program files/microchip/xc32/v2.40/bin/bin/../../lib/gcc/pic32c/6.2.1/../../../../pic32c/lib/v7e-m/fpv4-sp/hard\libpic32c.a(fstat.o)
 .bss           0x00000000        0x0 c:/program files/microchip/xc32/v2.40/bin/bin/../../lib/gcc/pic32c/6.2.1/../../../../pic32c/lib/v7e-m/fpv4-sp/hard\libpic32c.a(fstat.o)
 .text          0x00000000        0x0 c:/program files/microchip/xc32/v2.40/bin/bin/../../lib/gcc/pic32c/6.2.1/../../../../pic32c/lib/v7e-m/fpv4-sp/hard\libpic32c.a(getpid.o)
 .data          0x00000000        0x0 c:/program files/microchip/xc32/v2.40/bin/bin/../../lib/gcc/pic32c/6.2.1/../../../../pic32c/lib/v7e-m/fpv4-sp/hard\libpic32c.a(getpid.o)
 .bss           0x00000000        0x0 c:/program files/microchip/xc32/v2.40/bin/bin/../../lib/gcc/pic32c/6.2.1/../../../../pic32c/lib/v7e-m/fpv4-sp/hard\libpic32c.a(getpid.o)
 .text.getpid   0x00000000        0x4 c:/program files/microchip/xc32/v2.40/bin/bin/../../lib/gcc/pic32c/6.2.1/../../../../pic32c/lib/v7e-m/fpv4-sp/hard\libpic32c.a(getpid.o)
 .debug_info    0x00000000      0x289 c:/program files/microchip/xc32/v2.40/bin/bin/../../lib/gcc/pic32c/6.2.1/../../../../pic32c/lib/v7e-m/fpv4-sp/hard\libpic32c.a(getpid.o)
 .debug_abbrev  0x00000000       0x2a c:/program files/microchip/xc32/v2.40/bin/bin/../../lib/gcc/pic32c/6.2.1/../../../../pic32c/lib/v7e-m/fpv4-sp/hard\libpic32c.a(getpid.o)
 .debug_aranges
                0x00000000       0x20 c:/program files/microchip/xc32/v2.40/bin/bin/../../lib/gcc/pic32c/6.2.1/../../../../pic32c/lib/v7e-m/fpv4-sp/hard\libpic32c.a(getpid.o)
 .debug_ranges  0x00000000       0x10 c:/program files/microchip/xc32/v2.40/bin/bin/../../lib/gcc/pic32c/6.2.1/../../../../pic32c/lib/v7e-m/fpv4-sp/hard\libpic32c.a(getpid.o)
 .debug_line    0x00000000       0x9c c:/program files/microchip/xc32/v2.40/bin/bin/../../lib/gcc/pic32c/6.2.1/../../../../pic32c/lib/v7e-m/fpv4-sp/hard\libpic32c.a(getpid.o)
 .debug_str     0x00000000        0x0 c:/program files/microchip/xc32/v2.40/bin/bin/../../lib/gcc/pic32c/6.2.1/../../../../pic32c/lib/v7e-m/fpv4-sp/hard\libpic32c.a(getpid.o)
 .comment       0x00000000       0x3d c:/program files/microchip/xc32/v2.40/bin/bin/../../lib/gcc/pic32c/6.2.1/../../../../pic32c/lib/v7e-m/fpv4-sp/hard\libpic32c.a(getpid.o)
 .debug_frame   0x00000000       0x20 c:/program files/microchip/xc32/v2.40/bin/bin/../../lib/gcc/pic32c/6.2.1/../../../../pic32c/lib/v7e-m/fpv4-sp/hard\libpic32c.a(getpid.o)
 .ARM.attributes
                0x00000000       0x34 c:/program files/microchip/xc32/v2.40/bin/bin/../../lib/gcc/pic32c/6.2.1/../../../../pic32c/lib/v7e-m/fpv4-sp/hard\libpic32c.a(getpid.o)
 .text          0x00000000        0x0 c:/program files/microchip/xc32/v2.40/bin/bin/../../lib/gcc/pic32c/6.2.1/../../../../pic32c/lib/v7e-m/fpv4-sp/hard\libpic32c.a(isatty.o)
 .data          0x00000000        0x0 c:/program files/microchip/xc32/v2.40/bin/bin/../../lib/gcc/pic32c/6.2.1/../../../../pic32c/lib/v7e-m/fpv4-sp/hard\libpic32c.a(isatty.o)
 .bss           0x00000000        0x0 c:/program files/microchip/xc32/v2.40/bin/bin/../../lib/gcc/pic32c/6.2.1/../../../../pic32c/lib/v7e-m/fpv4-sp/hard\libpic32c.a(isatty.o)
 .text          0x00000000        0x0 c:/program files/microchip/xc32/v2.40/bin/bin/../../lib/gcc/pic32c/6.2.1/../../../../pic32c/lib/v7e-m/fpv4-sp/hard\libpic32c.a(kill.o)
 .data          0x00000000        0x0 c:/program files/microchip/xc32/v2.40/bin/bin/../../lib/gcc/pic32c/6.2.1/../../../../pic32c/lib/v7e-m/fpv4-sp/hard\libpic32c.a(kill.o)
 .bss           0x00000000        0x0 c:/program files/microchip/xc32/v2.40/bin/bin/../../lib/gcc/pic32c/6.2.1/../../../../pic32c/lib/v7e-m/fpv4-sp/hard\libpic32c.a(kill.o)
 .text.kill     0x00000000        0x4 c:/program files/microchip/xc32/v2.40/bin/bin/../../lib/gcc/pic32c/6.2.1/../../../../pic32c/lib/v7e-m/fpv4-sp/hard\libpic32c.a(kill.o)
 .debug_info    0x00000000      0x285 c:/program files/microchip/xc32/v2.40/bin/bin/../../lib/gcc/pic32c/6.2.1/../../../../pic32c/lib/v7e-m/fpv4-sp/hard\libpic32c.a(kill.o)
 .debug_abbrev  0x00000000       0x2a c:/program files/microchip/xc32/v2.40/bin/bin/../../lib/gcc/pic32c/6.2.1/../../../../pic32c/lib/v7e-m/fpv4-sp/hard\libpic32c.a(kill.o)
 .debug_aranges
                0x00000000       0x20 c:/program files/microchip/xc32/v2.40/bin/bin/../../lib/gcc/pic32c/6.2.1/../../../../pic32c/lib/v7e-m/fpv4-sp/hard\libpic32c.a(kill.o)
 .debug_ranges  0x00000000       0x10 c:/program files/microchip/xc32/v2.40/bin/bin/../../lib/gcc/pic32c/6.2.1/../../../../pic32c/lib/v7e-m/fpv4-sp/hard\libpic32c.a(kill.o)
 .debug_line    0x00000000       0x99 c:/program files/microchip/xc32/v2.40/bin/bin/../../lib/gcc/pic32c/6.2.1/../../../../pic32c/lib/v7e-m/fpv4-sp/hard\libpic32c.a(kill.o)
 .debug_str     0x00000000        0x0 c:/program files/microchip/xc32/v2.40/bin/bin/../../lib/gcc/pic32c/6.2.1/../../../../pic32c/lib/v7e-m/fpv4-sp/hard\libpic32c.a(kill.o)
 .comment       0x00000000       0x3d c:/program files/microchip/xc32/v2.40/bin/bin/../../lib/gcc/pic32c/6.2.1/../../../../pic32c/lib/v7e-m/fpv4-sp/hard\libpic32c.a(kill.o)
 .debug_frame   0x00000000       0x20 c:/program files/microchip/xc32/v2.40/bin/bin/../../lib/gcc/pic32c/6.2.1/../../../../pic32c/lib/v7e-m/fpv4-sp/hard\libpic32c.a(kill.o)
 .ARM.attributes
                0x00000000       0x34 c:/program files/microchip/xc32/v2.40/bin/bin/../../lib/gcc/pic32c/6.2.1/../../../../pic32c/lib/v7e-m/fpv4-sp/hard\libpic32c.a(kill.o)
 .text          0x00000000        0x0 c:/program files/microchip/xc32/v2.40/bin/bin/../../lib/gcc/pic32c/6.2.1/../../../../pic32c/lib/v7e-m/fpv4-sp/hard\libpic32c.a(lseek.o)
 .data          0x00000000        0x0 c:/program files/microchip/xc32/v2.40/bin/bin/../../lib/gcc/pic32c/6.2.1/../../../../pic32c/lib/v7e-m/fpv4-sp/hard\libpic32c.a(lseek.o)
 .bss           0x00000000        0x0 c:/program files/microchip/xc32/v2.40/bin/bin/../../lib/gcc/pic32c/6.2.1/../../../../pic32c/lib/v7e-m/fpv4-sp/hard\libpic32c.a(lseek.o)
 .text          0x00000000        0x0 c:/program files/microchip/xc32/v2.40/bin/bin/../../lib/gcc/pic32c/6.2.1/../../../../pic32c/lib/v7e-m/fpv4-sp/hard\libpic32c.a(read.o)
 .data          0x00000000        0x0 c:/program files/microchip/xc32/v2.40/bin/bin/../../lib/gcc/pic32c/6.2.1/../../../../pic32c/lib/v7e-m/fpv4-sp/hard\libpic32c.a(read.o)
 .bss           0x00000000        0x0 c:/program files/microchip/xc32/v2.40/bin/bin/../../lib/gcc/pic32c/6.2.1/../../../../pic32c/lib/v7e-m/fpv4-sp/hard\libpic32c.a(read.o)
 .text          0x00000000        0x0 c:/program files/microchip/xc32/v2.40/bin/bin/../../lib/gcc/pic32c/6.2.1/../../../../pic32c/lib/v7e-m/fpv4-sp/hard\libpic32c.a(write.o)
 .data          0x00000000        0x0 c:/program files/microchip/xc32/v2.40/bin/bin/../../lib/gcc/pic32c/6.2.1/../../../../pic32c/lib/v7e-m/fpv4-sp/hard\libpic32c.a(write.o)
 .bss           0x00000000        0x0 c:/program files/microchip/xc32/v2.40/bin/bin/../../lib/gcc/pic32c/6.2.1/../../../../pic32c/lib/v7e-m/fpv4-sp/hard\libpic32c.a(write.o)
 .text          0x00000000        0x0 c:/program files/microchip/xc32/v2.40/bin/bin/../../lib/gcc/pic32c/6.2.1/v7e-m/fpv4-sp/hard/crtend.o
 .data          0x00000000        0x0 c:/program files/microchip/xc32/v2.40/bin/bin/../../lib/gcc/pic32c/6.2.1/v7e-m/fpv4-sp/hard/crtend.o
 .bss           0x00000000        0x0 c:/program files/microchip/xc32/v2.40/bin/bin/../../lib/gcc/pic32c/6.2.1/v7e-m/fpv4-sp/hard/crtend.o
 .eh_frame      0x00000000        0x4 c:/program files/microchip/xc32/v2.40/bin/bin/../../lib/gcc/pic32c/6.2.1/v7e-m/fpv4-sp/hard/crtend.o
 .comment       0x00000000       0x3d c:/program files/microchip/xc32/v2.40/bin/bin/../../lib/gcc/pic32c/6.2.1/v7e-m/fpv4-sp/hard/crtend.o
 .ARM.attributes
                0x00000000       0x34 c:/program files/microchip/xc32/v2.40/bin/bin/../../lib/gcc/pic32c/6.2.1/v7e-m/fpv4-sp/hard/crtend.o
 .text          0x00000000        0x0 c:/program files/microchip/xc32/v2.40/bin/bin/../../lib/gcc/pic32c/6.2.1/v7e-m/fpv4-sp/hard/crtn.o
 .data          0x00000000        0x0 c:/program files/microchip/xc32/v2.40/bin/bin/../../lib/gcc/pic32c/6.2.1/v7e-m/fpv4-sp/hard/crtn.o
 .bss           0x00000000        0x0 c:/program files/microchip/xc32/v2.40/bin/bin/../../lib/gcc/pic32c/6.2.1/v7e-m/fpv4-sp/hard/crtn.o

Memory Configuration

Name             Origin             Length             Attributes
rom              0x00000000         0x00100000         xrl
ram              0x20000100         0x0003fe00         xw !r
config_00804000  0x00804000         0x00000004
config_00804004  0x00804004         0x00000004
config_00804008  0x00804008         0x00000004
*default*        0x00000000         0xffffffff

Linker script and memory map

LOAD c:/program files/microchip/xc32/v2.40/bin/bin/../../lib/gcc/pic32c/6.2.1/v7e-m/fpv4-sp/hard/crti.o
LOAD c:/program files/microchip/xc32/v2.40/bin/bin/../../lib/gcc/pic32c/6.2.1/v7e-m/fpv4-sp/hard/crtbegin.o
LOAD build/aws_demos/debug/_ext/665618993/plib_nvmctrl.o
LOAD build/aws_demos/debug/_ext/1385882503/port.o
LOAD build/aws_demos/debug/_ext/1168480030/heap_4.o
LOAD build/aws_demos/debug/_ext/1778494626/BufferAllocation_2.o
LOAD build/aws_demos/debug/_ext/1778494626/NetworkInterface_wifi.o
LOAD build/aws_demos/debug/_ext/787859085/atca_cert_chain.o
LOAD build/aws_demos/debug/_ext/766474417/aws_ota_pal.o
LOAD build/aws_demos/debug/_ext/1972722184/iot_pkcs11_secure_element.o
LOAD build/aws_demos/debug/_ext/1972722184/pkcs11_nvm.o
LOAD build/aws_demos/debug/_ext/2009324866/aws_wifi.o
LOAD build/aws_demos/debug/_ext/2009324866/iot_secure_sockets.o
LOAD build/aws_demos/debug/_ext/1456806047/atcacert_client.o
LOAD build/aws_demos/debug/_ext/1456806047/atcacert_date.o
LOAD build/aws_demos/debug/_ext/1456806047/atcacert_def.o
LOAD build/aws_demos/debug/_ext/1456806047/atcacert_der.o
LOAD build/aws_demos/debug/_ext/1456806047/atcacert_host_hw.o
LOAD build/aws_demos/debug/_ext/1456806047/atcacert_host_sw.o
LOAD build/aws_demos/debug/_ext/1456806047/atcacert_pem.o
LOAD build/aws_demos/debug/_ext/1009855837/atca_command.o
LOAD build/aws_demos/debug/_ext/1009855837/atca_device.o
LOAD build/aws_demos/debug/_ext/1009855837/atca_execution.o
LOAD build/aws_demos/debug/_ext/1009855837/atca_iface.o
LOAD build/aws_demos/debug/_ext/306685378/atca_basic.o
LOAD build/aws_demos/debug/_ext/306685378/atca_basic_aes.o
LOAD build/aws_demos/debug/_ext/306685378/atca_basic_aes_cbc.o
LOAD build/aws_demos/debug/_ext/306685378/atca_basic_aes_cmac.o
LOAD build/aws_demos/debug/_ext/306685378/atca_basic_aes_ctr.o
LOAD build/aws_demos/debug/_ext/306685378/atca_basic_aes_gcm.o
LOAD build/aws_demos/debug/_ext/306685378/atca_basic_checkmac.o
LOAD build/aws_demos/debug/_ext/306685378/atca_basic_counter.o
LOAD build/aws_demos/debug/_ext/306685378/atca_basic_derivekey.o
LOAD build/aws_demos/debug/_ext/306685378/atca_basic_ecdh.o
LOAD build/aws_demos/debug/_ext/306685378/atca_basic_gendig.o
LOAD build/aws_demos/debug/_ext/306685378/atca_basic_genkey.o
LOAD build/aws_demos/debug/_ext/306685378/atca_basic_hmac.o
LOAD build/aws_demos/debug/_ext/306685378/atca_basic_info.o
LOAD build/aws_demos/debug/_ext/306685378/atca_basic_kdf.o
LOAD build/aws_demos/debug/_ext/306685378/atca_basic_lock.o
LOAD build/aws_demos/debug/_ext/306685378/atca_basic_mac.o
LOAD build/aws_demos/debug/_ext/306685378/atca_basic_nonce.o
LOAD build/aws_demos/debug/_ext/306685378/atca_basic_privwrite.o
LOAD build/aws_demos/debug/_ext/306685378/atca_basic_random.o
LOAD build/aws_demos/debug/_ext/306685378/atca_basic_read.o
LOAD build/aws_demos/debug/_ext/306685378/atca_basic_secureboot.o
LOAD build/aws_demos/debug/_ext/306685378/atca_basic_selftest.o
LOAD build/aws_demos/debug/_ext/306685378/atca_basic_sha.o
LOAD build/aws_demos/debug/_ext/306685378/atca_basic_sign.o
LOAD build/aws_demos/debug/_ext/306685378/atca_basic_updateextra.o
LOAD build/aws_demos/debug/_ext/306685378/atca_basic_verify.o
LOAD build/aws_demos/debug/_ext/306685378/atca_basic_write.o
LOAD build/aws_demos/debug/_ext/306685378/atca_helpers.o
LOAD build/aws_demos/debug/_ext/961827245/atca_crypto_sw_ecdsa.o
LOAD build/aws_demos/debug/_ext/961827245/atca_crypto_sw_rand.o
LOAD build/aws_demos/debug/_ext/961827245/atca_crypto_sw_sha1.o
LOAD build/aws_demos/debug/_ext/961827245/atca_crypto_sw_sha2.o
LOAD build/aws_demos/debug/_ext/1070826718/sha1_routines.o
LOAD build/aws_demos/debug/_ext/1070826718/sha2_routines.o
LOAD build/aws_demos/debug/_ext/544104044/atca_host.o
LOAD build/aws_demos/debug/_ext/987380901/atca_jwt.o
LOAD build/aws_demos/debug/_ext/439918565/atca_mbedtls_ecdh.o
LOAD build/aws_demos/debug/_ext/439918565/atca_mbedtls_ecdsa.o
LOAD build/aws_demos/debug/_ext/439918565/atca_mbedtls_wrap.o
LOAD build/aws_demos/debug/_ext/1326886903/pkcs11_attrib.o
LOAD build/aws_demos/debug/_ext/1326886903/pkcs11_cert.o
LOAD build/aws_demos/debug/_ext/1326886903/pkcs11_config.o
LOAD build/aws_demos/debug/_ext/1326886903/pkcs11_debug.o
LOAD build/aws_demos/debug/_ext/1326886903/pkcs11_digest.o
LOAD build/aws_demos/debug/_ext/1326886903/pkcs11_find.o
LOAD build/aws_demos/debug/_ext/1326886903/pkcs11_info.o
LOAD build/aws_demos/debug/_ext/1326886903/pkcs11_init.o
LOAD build/aws_demos/debug/_ext/1326886903/pkcs11_key.o
LOAD build/aws_demos/debug/_ext/1326886903/pkcs11_main.o
LOAD build/aws_demos/debug/_ext/1326886903/pkcs11_mech.o
LOAD build/aws_demos/debug/_ext/1326886903/pkcs11_object.o
LOAD build/aws_demos/debug/_ext/1326886903/pkcs11_os.o
LOAD build/aws_demos/debug/_ext/1326886903/pkcs11_session.o
LOAD build/aws_demos/debug/_ext/1326886903/pkcs11_signature.o
LOAD build/aws_demos/debug/_ext/1326886903/pkcs11_slot.o
LOAD build/aws_demos/debug/_ext/1326886903/pkcs11_token.o
LOAD build/aws_demos/debug/_ext/1326886903/pkcs11_util.o
LOAD build/aws_demos/debug/_ext/1110296786/plib_tc3.o
LOAD build/aws_demos/debug/_ext/484134862/sys_time.o
LOAD build/aws_demos/debug/_ext/1843304010/plib_trng.o
LOAD build/aws_demos/debug/_ext/1534684544/sys_console_uart.o
LOAD build/aws_demos/debug/_ext/2104392270/drv_spi.o
LOAD build/aws_demos/debug/_ext/2146650376/ATECC608A_0.o
LOAD build/aws_demos/debug/_ext/1762024984/sys_int.o
LOAD build/aws_demos/debug/_ext/959252812/sys_dma.o
LOAD build/aws_demos/debug/_ext/1149029443/osal_freertos.o
LOAD build/aws_demos/debug/_ext/1360937237/app.o
LOAD build/aws_demos/debug/_ext/1534096987/tasks.o
LOAD build/aws_demos/debug/_ext/731420310/plib_sercom2_usart.o
LOAD build/aws_demos/debug/_ext/1321577635/plib_evsys.o
LOAD build/aws_demos/debug/_ext/1833802790/wdrv_winc.o
LOAD build/aws_demos/debug/_ext/1833802790/wdrv_winc_assoc.o
LOAD build/aws_demos/debug/_ext/1833802790/wdrv_winc_authctx.o
LOAD build/aws_demos/debug/_ext/1833802790/wdrv_winc_bssctx.o
LOAD build/aws_demos/debug/_ext/1833802790/wdrv_winc_bssfind.o
LOAD build/aws_demos/debug/_ext/1833802790/wdrv_winc_custie.o
LOAD build/aws_demos/debug/_ext/1833802790/wdrv_winc_httpprovctx.o
LOAD build/aws_demos/debug/_ext/1833802790/wdrv_winc_nvm.o
LOAD build/aws_demos/debug/_ext/1833802790/wdrv_winc_powersave.o
LOAD build/aws_demos/debug/_ext/1833802790/wdrv_winc_socket.o
LOAD build/aws_demos/debug/_ext/1833802790/wdrv_winc_softap.o
LOAD build/aws_demos/debug/_ext/1833802790/wdrv_winc_ssl.o
LOAD build/aws_demos/debug/_ext/1833802790/wdrv_winc_sta.o
LOAD build/aws_demos/debug/_ext/1833802790/wdrv_winc_systime.o
LOAD build/aws_demos/debug/_ext/1833802790/wdrv_winc_wps.o
LOAD build/aws_demos/debug/_ext/978667550/wdrv_winc_eint.o
LOAD build/aws_demos/debug/_ext/978667550/wdrv_winc_gpio.o
LOAD build/aws_demos/debug/_ext/384060547/wdrv_winc_spi.o
LOAD build/aws_demos/debug/_ext/1289849308/wdrv_winc_osal.o
LOAD build/aws_demos/debug/_ext/2059254151/nm_common.o
LOAD build/aws_demos/debug/_ext/2090543044/m2m_flash.o
LOAD build/aws_demos/debug/_ext/2090543044/m2m_hif.o
LOAD build/aws_demos/debug/_ext/2090543044/m2m_periph.o
LOAD build/aws_demos/debug/_ext/2090543044/m2m_wifi.o
LOAD build/aws_demos/debug/_ext/2090543044/nmasic.o
LOAD build/aws_demos/debug/_ext/2090543044/nmbus.o
LOAD build/aws_demos/debug/_ext/2090543044/nmdrv.o
LOAD build/aws_demos/debug/_ext/2090543044/nmflash.o
LOAD build/aws_demos/debug/_ext/2090543044/nmspi.o
LOAD build/aws_demos/debug/_ext/1151736449/spi_flash.o
LOAD build/aws_demos/debug/_ext/2090543044/m2m_ota.o
LOAD build/aws_demos/debug/_ext/2090543044/m2m_ssl.o
LOAD build/aws_demos/debug/_ext/1777946865/socket.o
LOAD build/aws_demos/debug/_ext/1777946865/inet_ntop.o
LOAD build/aws_demos/debug/_ext/1777946865/inet_addr.o
LOAD build/aws_demos/debug/_ext/230789302/plib_sercom7_i2c_master.o
LOAD build/aws_demos/debug/_ext/1991396724/sys_command.o
LOAD build/aws_demos/debug/_ext/731420310/plib_sercom6_usart.o
LOAD build/aws_demos/debug/_ext/1360937237/main.o
LOAD build/aws_demos/debug/_ext/1534096987/initialization.o
LOAD build/aws_demos/debug/_ext/1534096987/interrupts.o
LOAD build/aws_demos/debug/_ext/1534096987/exceptions.o
LOAD build/aws_demos/debug/_ext/1263901141/xc32_monitor.o
LOAD build/aws_demos/debug/_ext/1843425920/plib_port.o
LOAD build/aws_demos/debug/_ext/1323727121/plib_clock.o
LOAD build/aws_demos/debug/_ext/1843479071/plib_nvic.o
LOAD build/aws_demos/debug/_ext/1843785878/plib_dmac.o
LOAD build/aws_demos/debug/_ext/1534096987/startup_xc32.o
LOAD build/aws_demos/debug/_ext/1534096987/libc_syscalls.o
LOAD build/aws_demos/debug/_ext/1916130672/plib_sercom4_spi.o
LOAD build/aws_demos/debug/_ext/59476128/plib_eic.o
LOAD build/aws_demos/debug/_ext/1931625852/sys_debug.o
LOAD build/aws_demos/debug/_ext/988341903/aws_iot_demo_defender.o
LOAD build/aws_demos/debug/_ext/1223942466/aws_demo.o
LOAD build/aws_demos/debug/_ext/1223942466/aws_demo_network_addr.o
LOAD build/aws_demos/debug/_ext/1223942466/aws_demo_version.o
LOAD build/aws_demos/debug/_ext/1223942466/iot_demo_freertos.o
LOAD build/aws_demos/debug/_ext/1223942466/iot_demo_runner.o
LOAD build/aws_demos/debug/_ext/198771642/aws_dev_mode_key_provisioning.o
LOAD build/aws_demos/debug/_ext/905468053/aws_greengrass_discovery_demo.o
LOAD build/aws_demos/debug/_ext/1741632483/iot_demo_https_common.o
LOAD build/aws_demos/debug/_ext/1741632483/iot_demo_https_s3_download_async.o
LOAD build/aws_demos/debug/_ext/1741632483/iot_demo_https_s3_download_sync.o
LOAD build/aws_demos/debug/_ext/1741632483/iot_demo_https_s3_upload_async.o
LOAD build/aws_demos/debug/_ext/1741632483/iot_demo_https_s3_upload_sync.o
LOAD build/aws_demos/debug/_ext/1441508942/iot_demo_mqtt.o
LOAD build/aws_demos/debug/_ext/2040524622/aws_iot_demo_network.o
LOAD build/aws_demos/debug/_ext/2040524622/aws_iot_network_manager.o
LOAD build/aws_demos/debug/_ext/1986160946/aws_iot_ota_update_demo.o
LOAD build/aws_demos/debug/_ext/2147228718/aws_iot_demo_shadow.o
LOAD build/aws_demos/debug/_ext/1986156653/aws_tcp_echo_client_single_task.o
LOAD build/aws_demos/debug/_ext/811507611/croutine.o
LOAD build/aws_demos/debug/_ext/811507611/event_groups.o
LOAD build/aws_demos/debug/_ext/811507611/list.o
LOAD build/aws_demos/debug/_ext/811507611/queue.o
LOAD build/aws_demos/debug/_ext/811507611/stream_buffer.o
LOAD build/aws_demos/debug/_ext/811507611/tasks.o
LOAD build/aws_demos/debug/_ext/811507611/timers.o
LOAD build/aws_demos/debug/_ext/490551821/http_parser.o
LOAD build/aws_demos/debug/_ext/1206754867/jsmn.o
LOAD build/aws_demos/debug/_ext/684768522/aes.o
LOAD build/aws_demos/debug/_ext/684768522/aesni.o
LOAD build/aws_demos/debug/_ext/684768522/arc4.o
LOAD build/aws_demos/debug/_ext/684768522/asn1parse.o
LOAD build/aws_demos/debug/_ext/684768522/asn1write.o
LOAD build/aws_demos/debug/_ext/684768522/base64.o
LOAD build/aws_demos/debug/_ext/684768522/bignum.o
LOAD build/aws_demos/debug/_ext/684768522/blowfish.o
LOAD build/aws_demos/debug/_ext/684768522/camellia.o
LOAD build/aws_demos/debug/_ext/684768522/ccm.o
LOAD build/aws_demos/debug/_ext/684768522/certs.o
LOAD build/aws_demos/debug/_ext/684768522/cipher.o
LOAD build/aws_demos/debug/_ext/684768522/cipher_wrap.o
LOAD build/aws_demos/debug/_ext/684768522/cmac.o
LOAD build/aws_demos/debug/_ext/684768522/ctr_drbg.o
LOAD build/aws_demos/debug/_ext/684768522/debug.o
LOAD build/aws_demos/debug/_ext/684768522/des.o
LOAD build/aws_demos/debug/_ext/684768522/dhm.o
LOAD build/aws_demos/debug/_ext/684768522/ecdh.o
LOAD build/aws_demos/debug/_ext/684768522/ecdsa.o
LOAD build/aws_demos/debug/_ext/684768522/ecjpake.o
LOAD build/aws_demos/debug/_ext/684768522/ecp.o
LOAD build/aws_demos/debug/_ext/684768522/ecp_curves.o
LOAD build/aws_demos/debug/_ext/684768522/entropy.o
LOAD build/aws_demos/debug/_ext/684768522/entropy_poll.o
LOAD build/aws_demos/debug/_ext/684768522/error.o
LOAD build/aws_demos/debug/_ext/684768522/gcm.o
LOAD build/aws_demos/debug/_ext/684768522/havege.o
LOAD build/aws_demos/debug/_ext/684768522/hmac_drbg.o
LOAD build/aws_demos/debug/_ext/684768522/md.o
LOAD build/aws_demos/debug/_ext/684768522/md2.o
LOAD build/aws_demos/debug/_ext/684768522/md4.o
LOAD build/aws_demos/debug/_ext/684768522/md5.o
LOAD build/aws_demos/debug/_ext/684768522/md_wrap.o
LOAD build/aws_demos/debug/_ext/684768522/memory_buffer_alloc.o
LOAD build/aws_demos/debug/_ext/684768522/net_sockets.o
LOAD build/aws_demos/debug/_ext/684768522/oid.o
LOAD build/aws_demos/debug/_ext/684768522/padlock.o
LOAD build/aws_demos/debug/_ext/684768522/pem.o
LOAD build/aws_demos/debug/_ext/684768522/pk.o
LOAD build/aws_demos/debug/_ext/684768522/pkcs12.o
LOAD build/aws_demos/debug/_ext/684768522/pkcs5.o
LOAD build/aws_demos/debug/_ext/684768522/pkparse.o
LOAD build/aws_demos/debug/_ext/684768522/pkwrite.o
LOAD build/aws_demos/debug/_ext/684768522/pk_wrap.o
LOAD build/aws_demos/debug/_ext/684768522/platform.o
LOAD build/aws_demos/debug/_ext/684768522/platform_util.o
LOAD build/aws_demos/debug/_ext/684768522/ripemd160.o
LOAD build/aws_demos/debug/_ext/684768522/rsa.o
LOAD build/aws_demos/debug/_ext/684768522/rsa_internal.o
LOAD build/aws_demos/debug/_ext/684768522/sha1.o
LOAD build/aws_demos/debug/_ext/684768522/sha256.o
LOAD build/aws_demos/debug/_ext/684768522/sha512.o
LOAD build/aws_demos/debug/_ext/684768522/ssl_cache.o
LOAD build/aws_demos/debug/_ext/684768522/ssl_ciphersuites.o
LOAD build/aws_demos/debug/_ext/684768522/ssl_cli.o
LOAD build/aws_demos/debug/_ext/684768522/ssl_cookie.o
LOAD build/aws_demos/debug/_ext/684768522/ssl_srv.o
LOAD build/aws_demos/debug/_ext/684768522/ssl_ticket.o
LOAD build/aws_demos/debug/_ext/684768522/ssl_tls.o
LOAD build/aws_demos/debug/_ext/684768522/threading.o
LOAD build/aws_demos/debug/_ext/684768522/timing.o
LOAD build/aws_demos/debug/_ext/684768522/version.o
LOAD build/aws_demos/debug/_ext/684768522/version_features.o
LOAD build/aws_demos/debug/_ext/684768522/x509.o
LOAD build/aws_demos/debug/_ext/684768522/x509write_crt.o
LOAD build/aws_demos/debug/_ext/684768522/x509write_csr.o
LOAD build/aws_demos/debug/_ext/684768522/x509_create.o
LOAD build/aws_demos/debug/_ext/684768522/x509_crl.o
LOAD build/aws_demos/debug/_ext/684768522/x509_crt.o
LOAD build/aws_demos/debug/_ext/684768522/x509_csr.o
LOAD build/aws_demos/debug/_ext/684768522/xtea.o
LOAD build/aws_demos/debug/_ext/2077790016/mbedtls_utils.o
LOAD build/aws_demos/debug/_ext/1057560203/cborencoder.o
LOAD build/aws_demos/debug/_ext/1057560203/cborencoder_close_container_checked.o
LOAD build/aws_demos/debug/_ext/1057560203/cborerrorstrings.o
LOAD build/aws_demos/debug/_ext/1057560203/cborparser.o
LOAD build/aws_demos/debug/_ext/1057560203/cborparser_dup_string.o
LOAD build/aws_demos/debug/_ext/1057560203/cborpretty.o
LOAD build/aws_demos/debug/_ext/1057560203/cborpretty_stdio.o
LOAD build/aws_demos/debug/_ext/1057560203/cborvalidation.o
LOAD build/aws_demos/debug/_ext/1193839791/aes_decrypt.o
LOAD build/aws_demos/debug/_ext/1193839791/aes_encrypt.o
LOAD build/aws_demos/debug/_ext/1193839791/cbc_mode.o
LOAD build/aws_demos/debug/_ext/1193839791/ccm_mode.o
LOAD build/aws_demos/debug/_ext/1193839791/cmac_mode.o
LOAD build/aws_demos/debug/_ext/1193839791/ctr_mode.o
LOAD build/aws_demos/debug/_ext/1193839791/ctr_prng.o
LOAD build/aws_demos/debug/_ext/1193839791/ecc.o
LOAD build/aws_demos/debug/_ext/1193839791/ecc_dh.o
LOAD build/aws_demos/debug/_ext/1193839791/ecc_dsa.o
LOAD build/aws_demos/debug/_ext/1193839791/ecc_platform_specific.o
LOAD build/aws_demos/debug/_ext/1193839791/hmac.o
LOAD build/aws_demos/debug/_ext/1193839791/hmac_prng.o
LOAD build/aws_demos/debug/_ext/1193839791/sha256.o
LOAD build/aws_demos/debug/_ext/1193839791/utils.o
LOAD build/aws_demos/debug/_ext/520142351/iot_clock_freertos.o
LOAD build/aws_demos/debug/_ext/520142351/iot_metrics.o
LOAD build/aws_demos/debug/_ext/520142351/iot_network_freertos.o
LOAD build/aws_demos/debug/_ext/520142351/iot_threads_freertos.o
LOAD build/aws_demos/debug/_ext/1901419232/aws_iot_defender_api.o
LOAD build/aws_demos/debug/_ext/1901419232/aws_iot_defender_collector.o
LOAD build/aws_demos/debug/_ext/1901419232/aws_iot_defender_mqtt.o
LOAD build/aws_demos/debug/_ext/1901419232/aws_iot_defender_v1.o
LOAD build/aws_demos/debug/_ext/1647995491/aws_iot_shadow_api.o
LOAD build/aws_demos/debug/_ext/1647995491/aws_iot_shadow_operation.o
LOAD build/aws_demos/debug/_ext/1647995491/aws_iot_shadow_parser.o
LOAD build/aws_demos/debug/_ext/1647995491/aws_iot_shadow_static_memory.o
LOAD build/aws_demos/debug/_ext/1647995491/aws_iot_shadow_subscription.o
LOAD build/aws_demos/debug/_ext/1647995491/aws_shadow.o
LOAD build/aws_demos/debug/_ext/13066905/iot_device_metrics.o
LOAD build/aws_demos/debug/_ext/13066905/iot_init.o
LOAD build/aws_demos/debug/_ext/13066905/iot_static_memory_common.o
LOAD build/aws_demos/debug/_ext/227692215/iot_logging.o
LOAD build/aws_demos/debug/_ext/227692215/iot_logging_task_dynamic_buffers.o
LOAD build/aws_demos/debug/_ext/333408969/iot_taskpool.o
LOAD build/aws_demos/debug/_ext/333408969/iot_taskpool_static_memory.o
LOAD build/aws_demos/debug/_ext/1046953532/iot_https_client.o
LOAD build/aws_demos/debug/_ext/1046953532/iot_https_utils.o
LOAD build/aws_demos/debug/_ext/1739149067/iot_mqtt_agent.o
LOAD build/aws_demos/debug/_ext/1739149067/iot_mqtt_api.o
LOAD build/aws_demos/debug/_ext/1739149067/iot_mqtt_network.o
LOAD build/aws_demos/debug/_ext/1739149067/iot_mqtt_operation.o
LOAD build/aws_demos/debug/_ext/1739149067/iot_mqtt_serialize.o
LOAD build/aws_demos/debug/_ext/1739149067/iot_mqtt_static_memory.o
LOAD build/aws_demos/debug/_ext/1739149067/iot_mqtt_subscription.o
LOAD build/aws_demos/debug/_ext/1739149067/iot_mqtt_validate.o
LOAD build/aws_demos/debug/_ext/255083950/iot_serializer_tinycbor_decoder.o
LOAD build/aws_demos/debug/_ext/255083950/iot_serializer_tinycbor_encoder.o
LOAD build/aws_demos/debug/_ext/2051690653/iot_json_utils.o
LOAD build/aws_demos/debug/_ext/2051690653/iot_serializer_static_memory.o
LOAD build/aws_demos/debug/_ext/255308820/iot_serializer_json_decoder.o
LOAD build/aws_demos/debug/_ext/255308820/iot_serializer_json_encoder.o
LOAD build/aws_demos/debug/_ext/524897113/aws_greengrass_discovery.o
LOAD build/aws_demos/debug/_ext/524897113/aws_helper_secure_connect.o
LOAD build/aws_demos/debug/_ext/350635301/iot_crypto.o
LOAD build/aws_demos/debug/_ext/1682906662/FreeRTOS_ARP.o
LOAD build/aws_demos/debug/_ext/1682906662/FreeRTOS_DHCP.o
LOAD build/aws_demos/debug/_ext/1682906662/FreeRTOS_DNS.o
LOAD build/aws_demos/debug/_ext/1682906662/FreeRTOS_IP.o
LOAD build/aws_demos/debug/_ext/1682906662/FreeRTOS_Sockets.o
LOAD build/aws_demos/debug/_ext/1682906662/FreeRTOS_Stream_Buffer.o
LOAD build/aws_demos/debug/_ext/1682906662/FreeRTOS_TCP_IP.o
LOAD build/aws_demos/debug/_ext/1682906662/FreeRTOS_TCP_WIN.o
LOAD build/aws_demos/debug/_ext/1682906662/FreeRTOS_UDP_IP.o
LOAD build/aws_demos/debug/_ext/2138053595/iot_pkcs11.o
LOAD build/aws_demos/debug/_ext/2039890517/iot_tls.o
LOAD build/aws_demos/debug/_ext/1120274527/iot_pki_utils.o
LOAD build/aws_demos/debug/_ext/1120274527/iot_system_init.o
LOAD build/aws_demos/debug/_ext/1534684544/sys_console.o
LOAD build/aws_demos/debug/_ext/2146650376/hal_i2c_harmony.o
LOAD build/aws_demos/debug/_ext/2146650376/atca_hal.o
LOAD build/aws_demos/debug/_ext/2146650376/hal_freertos.o
LOAD build/aws_demos/debug/_ext/2146650376/hal_i2c_harmony_init.o
LOAD build/aws_demos/debug/_ext/2146650376/hal_cortex_m_delay.o
                0x00000001                __MPLAB_BUILD = 0x1
                0x00000001                __ICD2RAM = 0x1
                0x00000001                __MPLAB_DEBUG = 0x1
                0x00000001                __DEBUG = 0x1
                0x00000200                _min_heap_size = 0x200
                0x000003e8                _min_stack_size = 0x3e8
START GROUP
LOAD c:/program files/microchip/xc32/v2.40/bin/bin/../../lib/gcc/pic32c/6.2.1/../../../../pic32c/lib/v7e-m/fpv4-sp/hard\libpic32c.a
LOAD c:/program files/microchip/xc32/v2.40/bin/bin/../../lib/gcc/pic32c/6.2.1/v7e-m/fpv4-sp/hard\libgcc.a
LOAD c:/program files/microchip/xc32/v2.40/bin/bin/../../lib/gcc/pic32c/6.2.1/../../../../pic32c/lib/v7e-m/fpv4-sp/hard\libg_nano.a
LOAD c:/program files/microchip/xc32/v2.40/bin/bin/../../lib/gcc/pic32c/6.2.1/../../../../pic32c/lib/v7e-m/fpv4-sp/hard\libm_nano.a
LOAD c:/program files/microchip/xc32/v2.40/bin/bin/../../lib/gcc/pic32c/6.2.1/../../../../pic32c/lib/v7e-m/fpv4-sp/hard\libc_nano.a
END GROUP
LOAD c:/program files/microchip/xc32/v2.40/bin/bin/../../lib/gcc/pic32c/6.2.1/v7e-m/fpv4-sp/hard/crtend.o
LOAD c:/program files/microchip/xc32/v2.40/bin/bin/../../lib/gcc/pic32c/6.2.1/v7e-m/fpv4-sp/hard/crtn.o
                0x00100000                __rom_end = (ORIGIN (rom) + LENGTH (rom))
                0x2003ff00                __ram_end = (ORIGIN (ram) + LENGTH (ram))

.config_00804000
                0x00804000        0x4
 *(.config_00804000)
 .config_00804000
                0x00804000        0x4 build/aws_demos/debug/_ext/1534096987/initialization.o

.config_00804004
                0x00804004        0x4
 *(.config_00804004)
 .config_00804004
                0x00804004        0x4 build/aws_demos/debug/_ext/1534096987/initialization.o

.config_00804008
                0x00804008        0x4
 *(.config_00804008)
 .config_00804008
                0x00804008        0x4 build/aws_demos/debug/_ext/1534096987/initialization.o

.vectors        0x00000000      0x264
                0x00000000                . = ALIGN (0x4)
                0x00000000                _sfixed = .
 *(.vectors .vectors.* .vectors_default .vectors_default.*)
 .vectors       0x00000000      0x264 build/aws_demos/debug/_ext/1534096987/interrupts.o
                0x00000000                exception_table
 *(.isr_vector)
 *(.reset*)
 *(.after_vectors)

.text           0x00000264       0x20
                0x00000264                . = ALIGN (0x4)
 *(.glue_7t)
 .glue_7t       0x00000264        0x0 linker stubs
 *(.glue_7)
 .glue_7        0x00000264        0x0 linker stubs
 *(.gnu.linkonce.r.*)
 *(.ARM.extab* .gnu.linkonce.armextab.*)
                0x00000264                . = ALIGN (0x4)
 *(.init)
 .init          0x00000264        0x4 c:/program files/microchip/xc32/v2.40/bin/bin/../../lib/gcc/pic32c/6.2.1/v7e-m/fpv4-sp/hard/crti.o
                0x00000264                _init
 .init          0x00000268        0x8 c:/program files/microchip/xc32/v2.40/bin/bin/../../lib/gcc/pic32c/6.2.1/v7e-m/fpv4-sp/hard/crtn.o
                0x00000270                . = ALIGN (0x4)
                0x00000270                __preinit_array_start = .
 *(.preinit_array)
                0x00000270                __preinit_array_end = .
                0x00000270                . = ALIGN (0x4)
                0x00000270                __init_array_start = .
 *(SORT(.init_array.*))
 *(.init_array)
 .init_array    0x00000270        0x4 c:/program files/microchip/xc32/v2.40/bin/bin/../../lib/gcc/pic32c/6.2.1/v7e-m/fpv4-sp/hard/crtbegin.o
                0x00000274                __init_array_end = .
                0x00000274                . = ALIGN (0x4)
 *crtbegin.o(.ctors)
 *(EXCLUDE_FILE(*crtend.o) .ctors)
 *(SORT(.ctors.*))
 *crtend.o(.ctors)
                0x00000274                . = ALIGN (0x4)
 *(.fini)
 .fini          0x00000274        0x4 c:/program files/microchip/xc32/v2.40/bin/bin/../../lib/gcc/pic32c/6.2.1/v7e-m/fpv4-sp/hard/crti.o
                0x00000274                _fini
 .fini          0x00000278        0x8 c:/program files/microchip/xc32/v2.40/bin/bin/../../lib/gcc/pic32c/6.2.1/v7e-m/fpv4-sp/hard/crtn.o
                0x00000280                . = ALIGN (0x4)
                0x00000280                __fini_array_start = .
 *(.fini_array)
 .fini_array    0x00000280        0x4 c:/program files/microchip/xc32/v2.40/bin/bin/../../lib/gcc/pic32c/6.2.1/v7e-m/fpv4-sp/hard/crtbegin.o
 *(SORT(.fini_array.*))
                0x00000284                __fini_array_end = .
 *crtbegin.o(.dtors)
 *(EXCLUDE_FILE(*crtend.o) .dtors)
 *(SORT(.dtors.*))
 *crtend.o(.dtors)
                0x00000284                . = ALIGN (0x4)
                0x00000284                _efixed = .
                [!provide]                PROVIDE (__exidx_start, .)

.ARM.exidx      0x00000284        0x8
 *(.ARM.exidx* .gnu.linkonce.armexidx.*)
 .ARM.exidx     0x00000284        0x8 c:/program files/microchip/xc32/v2.40/bin/bin/../../lib/gcc/pic32c/6.2.1/v7e-m/fpv4-sp/hard\libgcc.a(_udivmoddi4.o)
                [!provide]                PROVIDE (__exidx_end, .)
                0x0000028c                . = ALIGN (0x4)
                0x0000028c                _etext = .

.bss            0x20000100      0x564
                0x20000100                . = ALIGN (0x4)
                0x20000100                __bss_start__ = .
                0x20000100                _sbss = .
                0x20000100                _szero = .
 *(COMMON)
 COMMON         0x20000100      0x204 build/aws_demos/debug/_ext/2009324866/aws_wifi.o
                0x20000100                g_network_param
                0x20000300                waiting_task
 COMMON         0x20000304       0x34 build/aws_demos/debug/_ext/306685378/atca_basic.o
                0x20000304                g_atcab_device
                0x2000030c                g_atcab_iface
                0x20000334                g_atcab_command
 COMMON         0x20000338       0x80 build/aws_demos/debug/_ext/1326886903/pkcs11_object.o
                0x20000338                pkcs11_object_cache
 COMMON         0x200003b8        0x8 build/aws_demos/debug/_ext/1110296786/plib_tc3.o
                0x200003b8                TC3_CallbackObject
 COMMON         0x200003c0        0x1 build/aws_demos/debug/_ext/1360937237/app.o
                0x200003c0                appData
 *fill*         0x200003c1        0x3 
 COMMON         0x200003c4        0x4 build/aws_demos/debug/_ext/1534096987/tasks.o
                0x200003c4                xAPP_Tasks
 COMMON         0x200003c8       0x30 build/aws_demos/debug/_ext/731420310/plib_sercom2_usart.o
                0x200003c8                sercom2USARTObj
 COMMON         0x200003f8        0x4 build/aws_demos/debug/_ext/1833802790/wdrv_winc.o
                0x200003f8                pfWINCDebugPrintCb
 COMMON         0x200003fc       0xb8 build/aws_demos/debug/_ext/1777946865/socket.o
                0x200003fc                gastrSockets
                0x200004ac                gpfAppSocketCb
                0x200004b0                gpfAppResolveCb
 COMMON         0x200004b4       0x38 build/aws_demos/debug/_ext/731420310/plib_sercom6_usart.o
                0x200004b4                sercom6USARTObj
 COMMON         0x200004ec       0x30 build/aws_demos/debug/_ext/1360937237/main.o
                0x200004ec                cfg_ateccx08a_i2c_default
 COMMON         0x2000051c       0x14 build/aws_demos/debug/_ext/1534096987/initialization.o
                0x2000051c                sysObj
 COMMON         0x20000530       0x40 build/aws_demos/debug/_ext/1843785878/plib_dmac.o
                0x20000530                dmacChannelObj
 COMMON         0x20000570       0x2c build/aws_demos/debug/_ext/1916130672/plib_sercom4_spi.o
                0x20000570                sercom4SPIObj
 COMMON         0x2000059c       0xc0 build/aws_demos/debug/_ext/59476128/plib_eic.o
                0x2000059c                eicCallbackObject
 COMMON         0x2000065c        0x1 build/aws_demos/debug/_ext/1931625852/sys_debug.o
                0x2000065c                gblErrLvl
 *fill*         0x2000065d        0x3 
 COMMON         0x20000660        0x4 c:/program files/microchip/xc32/v2.40/bin/bin/../../lib/gcc/pic32c/6.2.1/../../../../pic32c/lib/v7e-m/fpv4-sp/hard\libg_nano.a(lib_a-reent.o)
                0x20000660                errno
                0x20000664                . = ALIGN (0x4)
                0x20000664                __bss_end__ = .
                0x20000664                _ebss = .
                0x20000664                _ezero = .
                0x20000664                . = ALIGN (0x4)
                0x20000664                _end = .
                0x2003feff                _ram_end_ = ((ORIGIN (ram) + LENGTH (ram)) - 0x1)
OUTPUT(dist/aws_demos/debug/aws_demos.X.debug.elf elf32-littlearm)
LOAD stack
LOAD data_init

.ARM.attributes
                0x00000000       0x30
 .ARM.attributes
                0x00000000       0x22 c:/program files/microchip/xc32/v2.40/bin/bin/../../lib/gcc/pic32c/6.2.1/v7e-m/fpv4-sp/hard/crti.o
 .ARM.attributes
                0x00000022       0x34 c:/program files/microchip/xc32/v2.40/bin/bin/../../lib/gcc/pic32c/6.2.1/v7e-m/fpv4-sp/hard/crtbegin.o
 .ARM.attributes
                0x00000056       0x39 build/aws_demos/debug/_ext/665618993/plib_nvmctrl.o
 .ARM.attributes
                0x0000008f       0x39 build/aws_demos/debug/_ext/1385882503/port.o
 .ARM.attributes
                0x000000c8       0x39 build/aws_demos/debug/_ext/1168480030/heap_4.o
 .ARM.attributes
                0x00000101       0x39 build/aws_demos/debug/_ext/787859085/atca_cert_chain.o
 .ARM.attributes
                0x0000013a       0x39 build/aws_demos/debug/_ext/1972722184/iot_pkcs11_secure_element.o
 .ARM.attributes
                0x00000173       0x39 build/aws_demos/debug/_ext/2009324866/aws_wifi.o
 .ARM.attributes
                0x000001ac       0x39 build/aws_demos/debug/_ext/2009324866/iot_secure_sockets.o
 .ARM.attributes
                0x000001e5       0x39 build/aws_demos/debug/_ext/1456806047/atcacert_client.o
 .ARM.attributes
                0x0000021e       0x39 build/aws_demos/debug/_ext/1456806047/atcacert_date.o
 .ARM.attributes
                0x00000257       0x39 build/aws_demos/debug/_ext/1456806047/atcacert_def.o
 .ARM.attributes
                0x00000290       0x39 build/aws_demos/debug/_ext/1456806047/atcacert_der.o
 .ARM.attributes
                0x000002c9       0x39 build/aws_demos/debug/_ext/1456806047/atcacert_pem.o
 .ARM.attributes
                0x00000302       0x39 build/aws_demos/debug/_ext/1009855837/atca_command.o
 .ARM.attributes
                0x0000033b       0x39 build/aws_demos/debug/_ext/1009855837/atca_device.o
 .ARM.attributes
                0x00000374       0x39 build/aws_demos/debug/_ext/1009855837/atca_execution.o
 .ARM.attributes
                0x000003ad       0x39 build/aws_demos/debug/_ext/1009855837/atca_iface.o
 .ARM.attributes
                0x000003e6       0x39 build/aws_demos/debug/_ext/306685378/atca_basic.o
 .ARM.attributes
                0x0000041f       0x39 build/aws_demos/debug/_ext/306685378/atca_basic_checkmac.o
 .ARM.attributes
                0x00000458       0x39 build/aws_demos/debug/_ext/306685378/atca_basic_ecdh.o
 .ARM.attributes
                0x00000491       0x39 build/aws_demos/debug/_ext/306685378/atca_basic_gendig.o
 .ARM.attributes
                0x000004ca       0x39 build/aws_demos/debug/_ext/306685378/atca_basic_genkey.o
 .ARM.attributes
                0x00000503       0x39 build/aws_demos/debug/_ext/306685378/atca_basic_info.o
 .ARM.attributes
                0x0000053c       0x39 build/aws_demos/debug/_ext/306685378/atca_basic_lock.o
 .ARM.attributes
                0x00000575       0x39 build/aws_demos/debug/_ext/306685378/atca_basic_nonce.o
 .ARM.attributes
                0x000005ae       0x39 build/aws_demos/debug/_ext/306685378/atca_basic_privwrite.o
 .ARM.attributes
                0x000005e7       0x39 build/aws_demos/debug/_ext/306685378/atca_basic_random.o
 .ARM.attributes
                0x00000620       0x39 build/aws_demos/debug/_ext/306685378/atca_basic_read.o
 .ARM.attributes
                0x00000659       0x39 build/aws_demos/debug/_ext/306685378/atca_basic_sign.o
 .ARM.attributes
                0x00000692       0x39 build/aws_demos/debug/_ext/306685378/atca_basic_updateextra.o
 .ARM.attributes
                0x000006cb       0x39 build/aws_demos/debug/_ext/306685378/atca_basic_verify.o
 .ARM.attributes
                0x00000704       0x39 build/aws_demos/debug/_ext/306685378/atca_basic_write.o
 .ARM.attributes
                0x0000073d       0x39 build/aws_demos/debug/_ext/306685378/atca_helpers.o
 .ARM.attributes
                0x00000776       0x39 build/aws_demos/debug/_ext/961827245/atca_crypto_sw_sha1.o
 .ARM.attributes
                0x000007af       0x39 build/aws_demos/debug/_ext/961827245/atca_crypto_sw_sha2.o
 .ARM.attributes
                0x000007e8       0x39 build/aws_demos/debug/_ext/1070826718/sha1_routines.o
 .ARM.attributes
                0x00000821       0x39 build/aws_demos/debug/_ext/1070826718/sha2_routines.o
 .ARM.attributes
                0x0000085a       0x39 build/aws_demos/debug/_ext/544104044/atca_host.o
 .ARM.attributes
                0x00000893       0x39 build/aws_demos/debug/_ext/1326886903/pkcs11_attrib.o
 .ARM.attributes
                0x000008cc       0x39 build/aws_demos/debug/_ext/1326886903/pkcs11_cert.o
 .ARM.attributes
                0x00000905       0x39 build/aws_demos/debug/_ext/1326886903/pkcs11_config.o
 .ARM.attributes
                0x0000093e       0x39 build/aws_demos/debug/_ext/1326886903/pkcs11_digest.o
 .ARM.attributes
                0x00000977       0x39 build/aws_demos/debug/_ext/1326886903/pkcs11_find.o
 .ARM.attributes
                0x000009b0       0x39 build/aws_demos/debug/_ext/1326886903/pkcs11_info.o
 .ARM.attributes
                0x000009e9       0x39 build/aws_demos/debug/_ext/1326886903/pkcs11_init.o
 .ARM.attributes
                0x00000a22       0x39 build/aws_demos/debug/_ext/1326886903/pkcs11_key.o
 .ARM.attributes
                0x00000a5b       0x39 build/aws_demos/debug/_ext/1326886903/pkcs11_main.o
 .ARM.attributes
                0x00000a94       0x39 build/aws_demos/debug/_ext/1326886903/pkcs11_mech.o
 .ARM.attributes
                0x00000acd       0x39 build/aws_demos/debug/_ext/1326886903/pkcs11_object.o
 .ARM.attributes
                0x00000b06       0x39 build/aws_demos/debug/_ext/1326886903/pkcs11_os.o
 .ARM.attributes
                0x00000b3f       0x39 build/aws_demos/debug/_ext/1326886903/pkcs11_session.o
 .ARM.attributes
                0x00000b78       0x39 build/aws_demos/debug/_ext/1326886903/pkcs11_signature.o
 .ARM.attributes
                0x00000bb1       0x39 build/aws_demos/debug/_ext/1326886903/pkcs11_slot.o
 .ARM.attributes
                0x00000bea       0x39 build/aws_demos/debug/_ext/1326886903/pkcs11_token.o
 .ARM.attributes
                0x00000c23       0x39 build/aws_demos/debug/_ext/1326886903/pkcs11_util.o
 .ARM.attributes
                0x00000c5c       0x39 build/aws_demos/debug/_ext/1110296786/plib_tc3.o
 .ARM.attributes
                0x00000c95       0x39 build/aws_demos/debug/_ext/484134862/sys_time.o
 .ARM.attributes
                0x00000cce       0x39 build/aws_demos/debug/_ext/1843304010/plib_trng.o
 .ARM.attributes
                0x00000d07       0x39 build/aws_demos/debug/_ext/1534684544/sys_console_uart.o
 .ARM.attributes
                0x00000d40       0x39 build/aws_demos/debug/_ext/2104392270/drv_spi.o
 .ARM.attributes
                0x00000d79       0x39 build/aws_demos/debug/_ext/2146650376/ATECC608A_0.o
 .ARM.attributes
                0x00000db2       0x39 build/aws_demos/debug/_ext/1762024984/sys_int.o
 .ARM.attributes
                0x00000deb       0x39 build/aws_demos/debug/_ext/959252812/sys_dma.o
 .ARM.attributes
                0x00000e24       0x39 build/aws_demos/debug/_ext/1149029443/osal_freertos.o
 .ARM.attributes
                0x00000e5d       0x39 build/aws_demos/debug/_ext/1360937237/app.o
 .ARM.attributes
                0x00000e96       0x39 build/aws_demos/debug/_ext/1534096987/tasks.o
 .ARM.attributes
                0x00000ecf       0x39 build/aws_demos/debug/_ext/731420310/plib_sercom2_usart.o
 .ARM.attributes
                0x00000f08       0x39 build/aws_demos/debug/_ext/1321577635/plib_evsys.o
 .ARM.attributes
                0x00000f41       0x39 build/aws_demos/debug/_ext/1833802790/wdrv_winc.o
 .ARM.attributes
                0x00000f7a       0x39 build/aws_demos/debug/_ext/1833802790/wdrv_winc_authctx.o
 .ARM.attributes
                0x00000fb3       0x39 build/aws_demos/debug/_ext/1833802790/wdrv_winc_bssctx.o
 .ARM.attributes
                0x00000fec       0x39 build/aws_demos/debug/_ext/1833802790/wdrv_winc_socket.o
 .ARM.attributes
                0x00001025       0x39 build/aws_demos/debug/_ext/1833802790/wdrv_winc_sta.o
 .ARM.attributes
                0x0000105e       0x39 build/aws_demos/debug/_ext/1833802790/wdrv_winc_systime.o
 .ARM.attributes
                0x00001097       0x39 build/aws_demos/debug/_ext/978667550/wdrv_winc_eint.o
 .ARM.attributes
                0x000010d0       0x39 build/aws_demos/debug/_ext/978667550/wdrv_winc_gpio.o
 .ARM.attributes
                0x00001109       0x39 build/aws_demos/debug/_ext/384060547/wdrv_winc_spi.o
 .ARM.attributes
                0x00001142       0x39 build/aws_demos/debug/_ext/1289849308/wdrv_winc_osal.o
 .ARM.attributes
                0x0000117b       0x39 build/aws_demos/debug/_ext/2059254151/nm_common.o
 .ARM.attributes
                0x000011b4       0x39 build/aws_demos/debug/_ext/2090543044/m2m_flash.o
 .ARM.attributes
                0x000011ed       0x39 build/aws_demos/debug/_ext/2090543044/m2m_hif.o
 .ARM.attributes
                0x00001226       0x39 build/aws_demos/debug/_ext/2090543044/m2m_wifi.o
 .ARM.attributes
                0x0000125f       0x39 build/aws_demos/debug/_ext/2090543044/nmasic.o
 .ARM.attributes
                0x00001298       0x39 build/aws_demos/debug/_ext/2090543044/nmbus.o
 .ARM.attributes
                0x000012d1       0x39 build/aws_demos/debug/_ext/2090543044/nmdrv.o
 .ARM.attributes
                0x0000130a       0x39 build/aws_demos/debug/_ext/2090543044/nmflash.o
 .ARM.attributes
                0x00001343       0x39 build/aws_demos/debug/_ext/2090543044/nmspi.o
 .ARM.attributes
                0x0000137c       0x39 build/aws_demos/debug/_ext/1151736449/spi_flash.o
 .ARM.attributes
                0x000013b5       0x39 build/aws_demos/debug/_ext/2090543044/m2m_ota.o
 .ARM.attributes
                0x000013ee       0x39 build/aws_demos/debug/_ext/2090543044/m2m_ssl.o
 .ARM.attributes
                0x00001427       0x39 build/aws_demos/debug/_ext/1777946865/socket.o
 .ARM.attributes
                0x00001460       0x39 build/aws_demos/debug/_ext/230789302/plib_sercom7_i2c_master.o
 .ARM.attributes
                0x00001499       0x39 build/aws_demos/debug/_ext/1991396724/sys_command.o
 .ARM.attributes
                0x000014d2       0x39 build/aws_demos/debug/_ext/731420310/plib_sercom6_usart.o
 .ARM.attributes
                0x0000150b       0x39 build/aws_demos/debug/_ext/1360937237/main.o
 .ARM.attributes
                0x00001544       0x39 build/aws_demos/debug/_ext/1534096987/initialization.o
 .ARM.attributes
                0x0000157d       0x39 build/aws_demos/debug/_ext/1534096987/interrupts.o
 .ARM.attributes
                0x000015b6       0x39 build/aws_demos/debug/_ext/1534096987/exceptions.o
 .ARM.attributes
                0x000015ef       0x39 build/aws_demos/debug/_ext/1263901141/xc32_monitor.o
 .ARM.attributes
                0x00001628       0x39 build/aws_demos/debug/_ext/1843425920/plib_port.o
 .ARM.attributes
                0x00001661       0x39 build/aws_demos/debug/_ext/1323727121/plib_clock.o
 .ARM.attributes
                0x0000169a       0x39 build/aws_demos/debug/_ext/1843479071/plib_nvic.o
 .ARM.attributes
                0x000016d3       0x39 build/aws_demos/debug/_ext/1843785878/plib_dmac.o
 .ARM.attributes
                0x0000170c       0x39 build/aws_demos/debug/_ext/1534096987/startup_xc32.o
 .ARM.attributes
                0x00001745       0x39 build/aws_demos/debug/_ext/1916130672/plib_sercom4_spi.o
 .ARM.attributes
                0x0000177e       0x39 build/aws_demos/debug/_ext/59476128/plib_eic.o
 .ARM.attributes
                0x000017b7       0x39 build/aws_demos/debug/_ext/1931625852/sys_debug.o
 .ARM.attributes
                0x000017f0       0x39 build/aws_demos/debug/_ext/1223942466/aws_demo.o
 .ARM.attributes
                0x00001829       0x39 build/aws_demos/debug/_ext/1223942466/iot_demo_freertos.o
 .ARM.attributes
                0x00001862       0x39 build/aws_demos/debug/_ext/1223942466/iot_demo_runner.o
 .ARM.attributes
                0x0000189b       0x39 build/aws_demos/debug/_ext/198771642/aws_dev_mode_key_provisioning.o
 .ARM.attributes
                0x000018d4       0x39 build/aws_demos/debug/_ext/1441508942/iot_demo_mqtt.o
 .ARM.attributes
                0x0000190d       0x39 build/aws_demos/debug/_ext/2040524622/aws_iot_network_manager.o
 .ARM.attributes
                0x00001946       0x39 build/aws_demos/debug/_ext/811507611/event_groups.o
 .ARM.attributes
                0x0000197f       0x39 build/aws_demos/debug/_ext/811507611/list.o
 .ARM.attributes
                0x000019b8       0x39 build/aws_demos/debug/_ext/811507611/queue.o
 .ARM.attributes
                0x000019f1       0x39 build/aws_demos/debug/_ext/811507611/tasks.o
 .ARM.attributes
                0x00001a2a       0x39 build/aws_demos/debug/_ext/811507611/timers.o
 .ARM.attributes
                0x00001a63       0x39 build/aws_demos/debug/_ext/684768522/asn1parse.o
 .ARM.attributes
                0x00001a9c       0x39 build/aws_demos/debug/_ext/684768522/asn1write.o
 .ARM.attributes
                0x00001ad5       0x39 build/aws_demos/debug/_ext/684768522/base64.o
 .ARM.attributes
                0x00001b0e       0x39 build/aws_demos/debug/_ext/684768522/bignum.o
 .ARM.attributes
                0x00001b47       0x39 build/aws_demos/debug/_ext/684768522/ecdsa.o
 .ARM.attributes
                0x00001b80       0x39 build/aws_demos/debug/_ext/684768522/ecp.o
 .ARM.attributes
                0x00001bb9       0x39 build/aws_demos/debug/_ext/684768522/ecp_curves.o
 .ARM.attributes
                0x00001bf2       0x39 build/aws_demos/debug/_ext/684768522/md.o
 .ARM.attributes
                0x00001c2b       0x39 build/aws_demos/debug/_ext/684768522/md_wrap.o
 .ARM.attributes
                0x00001c64       0x39 build/aws_demos/debug/_ext/684768522/oid.o
 .ARM.attributes
                0x00001c9d       0x39 build/aws_demos/debug/_ext/684768522/pem.o
 .ARM.attributes
                0x00001cd6       0x39 build/aws_demos/debug/_ext/684768522/pk.o
 .ARM.attributes
                0x00001d0f       0x39 build/aws_demos/debug/_ext/684768522/pkparse.o
 .ARM.attributes
                0x00001d48       0x39 build/aws_demos/debug/_ext/684768522/pk_wrap.o
 .ARM.attributes
                0x00001d81       0x39 build/aws_demos/debug/_ext/684768522/platform.o
 .ARM.attributes
                0x00001dba       0x39 build/aws_demos/debug/_ext/684768522/platform_util.o
 .ARM.attributes
                0x00001df3       0x39 build/aws_demos/debug/_ext/684768522/rsa.o
 .ARM.attributes
                0x00001e2c       0x39 build/aws_demos/debug/_ext/684768522/rsa_internal.o
 .ARM.attributes
                0x00001e65       0x39 build/aws_demos/debug/_ext/684768522/sha1.o
 .ARM.attributes
                0x00001e9e       0x39 build/aws_demos/debug/_ext/684768522/sha256.o
 .ARM.attributes
                0x00001ed7       0x39 build/aws_demos/debug/_ext/684768522/threading.o
 .ARM.attributes
                0x00001f10       0x39 build/aws_demos/debug/_ext/684768522/x509.o
 .ARM.attributes
                0x00001f49       0x39 build/aws_demos/debug/_ext/684768522/x509_crt.o
 .ARM.attributes
                0x00001f82       0x39 build/aws_demos/debug/_ext/2077790016/mbedtls_utils.o
 .ARM.attributes
                0x00001fbb       0x39 build/aws_demos/debug/_ext/520142351/iot_clock_freertos.o
 .ARM.attributes
                0x00001ff4       0x39 build/aws_demos/debug/_ext/520142351/iot_network_freertos.o
 .ARM.attributes
                0x0000202d       0x39 build/aws_demos/debug/_ext/520142351/iot_threads_freertos.o
 .ARM.attributes
                0x00002066       0x39 build/aws_demos/debug/_ext/13066905/iot_device_metrics.o
 .ARM.attributes
                0x0000209f       0x39 build/aws_demos/debug/_ext/13066905/iot_init.o
 .ARM.attributes
                0x000020d8       0x39 build/aws_demos/debug/_ext/227692215/iot_logging.o
 .ARM.attributes
                0x00002111       0x39 build/aws_demos/debug/_ext/227692215/iot_logging_task_dynamic_buffers.o
 .ARM.attributes
                0x0000214a       0x39 build/aws_demos/debug/_ext/333408969/iot_taskpool.o
 .ARM.attributes
                0x00002183       0x39 build/aws_demos/debug/_ext/1739149067/iot_mqtt_api.o
 .ARM.attributes
                0x000021bc       0x39 build/aws_demos/debug/_ext/1739149067/iot_mqtt_network.o
 .ARM.attributes
                0x000021f5       0x39 build/aws_demos/debug/_ext/1739149067/iot_mqtt_operation.o
 .ARM.attributes
                0x0000222e       0x39 build/aws_demos/debug/_ext/1739149067/iot_mqtt_serialize.o
 .ARM.attributes
                0x00002267       0x39 build/aws_demos/debug/_ext/1739149067/iot_mqtt_subscription.o
 .ARM.attributes
                0x000022a0       0x39 build/aws_demos/debug/_ext/1739149067/iot_mqtt_validate.o
 .ARM.attributes
                0x000022d9       0x39 build/aws_demos/debug/_ext/350635301/iot_crypto.o
 .ARM.attributes
                0x00002312       0x39 build/aws_demos/debug/_ext/2138053595/iot_pkcs11.o
 .ARM.attributes
                0x0000234b       0x39 build/aws_demos/debug/_ext/1120274527/iot_system_init.o
 .ARM.attributes
                0x00002384       0x39 build/aws_demos/debug/_ext/1534684544/sys_console.o
 .ARM.attributes
                0x000023bd       0x39 build/aws_demos/debug/_ext/2146650376/hal_i2c_harmony.o
 .ARM.attributes
                0x000023f6       0x39 build/aws_demos/debug/_ext/2146650376/atca_hal.o
 .ARM.attributes
                0x0000242f       0x39 build/aws_demos/debug/_ext/2146650376/hal_freertos.o
 .ARM.attributes
                0x00002468       0x39 build/aws_demos/debug/_ext/2146650376/hal_i2c_harmony_init.o
 .ARM.attributes
                0x000024a1       0x39 build/aws_demos/debug/_ext/2146650376/hal_cortex_m_delay.o
 .ARM.attributes
                0x000024da       0x34 c:/program files/microchip/xc32/v2.40/bin/bin/../../lib/gcc/pic32c/6.2.1/../../../../pic32c/lib/v7e-m/fpv4-sp/hard\libpic32c.a(close.o)
 .ARM.attributes
                0x0000250e       0x34 c:/program files/microchip/xc32/v2.40/bin/bin/../../lib/gcc/pic32c/6.2.1/../../../../pic32c/lib/v7e-m/fpv4-sp/hard\libpic32c.a(data_init.o)
 .ARM.attributes
                0x00002542       0x22 c:/program files/microchip/xc32/v2.40/bin/bin/../../lib/gcc/pic32c/6.2.1/v7e-m/fpv4-sp/hard\libgcc.a(_arm_addsubdf3.o)
 .ARM.attributes
                0x00002564       0x22 c:/program files/microchip/xc32/v2.40/bin/bin/../../lib/gcc/pic32c/6.2.1/v7e-m/fpv4-sp/hard\libgcc.a(_arm_muldivdf3.o)
 .ARM.attributes
                0x00002586       0x22 c:/program files/microchip/xc32/v2.40/bin/bin/../../lib/gcc/pic32c/6.2.1/v7e-m/fpv4-sp/hard\libgcc.a(_arm_fixunsdfsi.o)
 .ARM.attributes
                0x000025a8       0x22 c:/program files/microchip/xc32/v2.40/bin/bin/../../lib/gcc/pic32c/6.2.1/v7e-m/fpv4-sp/hard\libgcc.a(_aeabi_uldivmod.o)
 .ARM.attributes
                0x000025ca       0x34 c:/program files/microchip/xc32/v2.40/bin/bin/../../lib/gcc/pic32c/6.2.1/v7e-m/fpv4-sp/hard\libgcc.a(_udivmoddi4.o)
 .ARM.attributes
                0x000025fe       0x22 c:/program files/microchip/xc32/v2.40/bin/bin/../../lib/gcc/pic32c/6.2.1/v7e-m/fpv4-sp/hard\libgcc.a(_dvmd_tls.o)
 .ARM.attributes
                0x00002620       0x34 c:/program files/microchip/xc32/v2.40/bin/bin/../../lib/gcc/pic32c/6.2.1/../../../../pic32c/lib/v7e-m/fpv4-sp/hard\libg_nano.a(lib_a-calloc.o)
 .ARM.attributes
                0x00002654       0x34 c:/program files/microchip/xc32/v2.40/bin/bin/../../lib/gcc/pic32c/6.2.1/../../../../pic32c/lib/v7e-m/fpv4-sp/hard\libg_nano.a(lib_a-gmtime.o)
 .ARM.attributes
                0x00002688       0x34 c:/program files/microchip/xc32/v2.40/bin/bin/../../lib/gcc/pic32c/6.2.1/../../../../pic32c/lib/v7e-m/fpv4-sp/hard\libg_nano.a(lib_a-gmtime_r.o)
 .ARM.attributes
                0x000026bc       0x34 c:/program files/microchip/xc32/v2.40/bin/bin/../../lib/gcc/pic32c/6.2.1/../../../../pic32c/lib/v7e-m/fpv4-sp/hard\libg_nano.a(lib_a-impure.o)
 .ARM.attributes
                0x000026f0       0x34 c:/program files/microchip/xc32/v2.40/bin/bin/../../lib/gcc/pic32c/6.2.1/../../../../pic32c/lib/v7e-m/fpv4-sp/hard\libg_nano.a(lib_a-init.o)
 .ARM.attributes
                0x00002724       0x34 c:/program files/microchip/xc32/v2.40/bin/bin/../../lib/gcc/pic32c/6.2.1/../../../../pic32c/lib/v7e-m/fpv4-sp/hard\libg_nano.a(lib_a-locale.o)
 .ARM.attributes
                0x00002758       0x34 c:/program files/microchip/xc32/v2.40/bin/bin/../../lib/gcc/pic32c/6.2.1/../../../../pic32c/lib/v7e-m/fpv4-sp/hard\libg_nano.a(lib_a-malloc.o)
 .ARM.attributes
                0x0000278c       0x34 c:/program files/microchip/xc32/v2.40/bin/bin/../../lib/gcc/pic32c/6.2.1/../../../../pic32c/lib/v7e-m/fpv4-sp/hard\libg_nano.a(lib_a-mbtowc_r.o)
 .ARM.attributes
                0x000027c0       0x20 c:/program files/microchip/xc32/v2.40/bin/bin/../../lib/gcc/pic32c/6.2.1/../../../../pic32c/lib/v7e-m/fpv4-sp/hard\libg_nano.a(lib_a-memchr.o)
 .ARM.attributes
                0x000027e0       0x34 c:/program files/microchip/xc32/v2.40/bin/bin/../../lib/gcc/pic32c/6.2.1/../../../../pic32c/lib/v7e-m/fpv4-sp/hard\libg_nano.a(lib_a-memcmp.o)
 .ARM.attributes
                0x00002814       0x34 c:/program files/microchip/xc32/v2.40/bin/bin/../../lib/gcc/pic32c/6.2.1/../../../../pic32c/lib/v7e-m/fpv4-sp/hard\libg_nano.a(lib_a-memcpy-stub.o)
 .ARM.attributes
                0x00002848       0x34 c:/program files/microchip/xc32/v2.40/bin/bin/../../lib/gcc/pic32c/6.2.1/../../../../pic32c/lib/v7e-m/fpv4-sp/hard\libg_nano.a(lib_a-memmove.o)
 .ARM.attributes
                0x0000287c       0x34 c:/program files/microchip/xc32/v2.40/bin/bin/../../lib/gcc/pic32c/6.2.1/../../../../pic32c/lib/v7e-m/fpv4-sp/hard\libg_nano.a(lib_a-memset.o)
 .ARM.attributes
                0x000028b0       0x34 c:/program files/microchip/xc32/v2.40/bin/bin/../../lib/gcc/pic32c/6.2.1/../../../../pic32c/lib/v7e-m/fpv4-sp/hard\libg_nano.a(lib_a-mktime.o)
 .ARM.attributes
                0x000028e4       0x34 c:/program files/microchip/xc32/v2.40/bin/bin/../../lib/gcc/pic32c/6.2.1/../../../../pic32c/lib/v7e-m/fpv4-sp/hard\libg_nano.a(lib_a-nano-callocr.o)
 .ARM.attributes
                0x00002918       0x34 c:/program files/microchip/xc32/v2.40/bin/bin/../../lib/gcc/pic32c/6.2.1/../../../../pic32c/lib/v7e-m/fpv4-sp/hard\libg_nano.a(lib_a-nano-freer.o)
 .ARM.attributes
                0x0000294c       0x34 c:/program files/microchip/xc32/v2.40/bin/bin/../../lib/gcc/pic32c/6.2.1/../../../../pic32c/lib/v7e-m/fpv4-sp/hard\libg_nano.a(lib_a-nano-mallocr.o)
 .ARM.attributes
                0x00002980       0x34 c:/program files/microchip/xc32/v2.40/bin/bin/../../lib/gcc/pic32c/6.2.1/../../../../pic32c/lib/v7e-m/fpv4-sp/hard\libg_nano.a(lib_a-nano-vfprintf.o)
 .ARM.attributes
                0x000029b4       0x34 c:/program files/microchip/xc32/v2.40/bin/bin/../../lib/gcc/pic32c/6.2.1/../../../../pic32c/lib/v7e-m/fpv4-sp/hard\libg_nano.a(_lib_a-nano-vfprintf.s.o)
 .ARM.attributes
                0x000029e8       0x34 c:/program files/microchip/xc32/v2.40/bin/bin/../../lib/gcc/pic32c/6.2.1/../../../../pic32c/lib/v7e-m/fpv4-sp/hard\libg_nano.a(lib_a-printf.o)
 .ARM.attributes
                0x00002a1c       0x34 c:/program files/microchip/xc32/v2.40/bin/bin/../../lib/gcc/pic32c/6.2.1/../../../../pic32c/lib/v7e-m/fpv4-sp/hard\libg_nano.a(lib_a-putchar.o)
 .ARM.attributes
                0x00002a50       0x34 c:/program files/microchip/xc32/v2.40/bin/bin/../../lib/gcc/pic32c/6.2.1/../../../../pic32c/lib/v7e-m/fpv4-sp/hard\libg_nano.a(lib_a-putc.o)
 .ARM.attributes
                0x00002a84       0x34 c:/program files/microchip/xc32/v2.40/bin/bin/../../lib/gcc/pic32c/6.2.1/../../../../pic32c/lib/v7e-m/fpv4-sp/hard\libg_nano.a(lib_a-puts.o)
 .ARM.attributes
                0x00002ab8       0x34 c:/program files/microchip/xc32/v2.40/bin/bin/../../lib/gcc/pic32c/6.2.1/../../../../pic32c/lib/v7e-m/fpv4-sp/hard\libg_nano.a(lib_a-rand.o)
 .ARM.attributes
                0x00002aec       0x34 c:/program files/microchip/xc32/v2.40/bin/bin/../../lib/gcc/pic32c/6.2.1/../../../../pic32c/lib/v7e-m/fpv4-sp/hard\libg_nano.a(lib_a-sbrkr.o)
 .ARM.attributes
                0x00002b20       0x34 c:/program files/microchip/xc32/v2.40/bin/bin/../../lib/gcc/pic32c/6.2.1/../../../../pic32c/lib/v7e-m/fpv4-sp/hard\libg_nano.a(lib_a-snprintf.o)
 .ARM.attributes
                0x00002b54       0x34 c:/program files/microchip/xc32/v2.40/bin/bin/../../lib/gcc/pic32c/6.2.1/../../../../pic32c/lib/v7e-m/fpv4-sp/hard\libg_nano.a(lib_a-sprintf.o)
 .ARM.attributes
                0x00002b88       0x34 c:/program files/microchip/xc32/v2.40/bin/bin/../../lib/gcc/pic32c/6.2.1/../../../../pic32c/lib/v7e-m/fpv4-sp/hard\libg_nano.a(lib_a-__ssfputs.o)
 .ARM.attributes
                0x00002bbc       0x34 c:/program files/microchip/xc32/v2.40/bin/bin/../../lib/gcc/pic32c/6.2.1/../../../../pic32c/lib/v7e-m/fpv4-sp/hard\libg_nano.a(lib_a-stdio.o)
 .ARM.attributes
                0x00002bf0       0x34 c:/program files/microchip/xc32/v2.40/bin/bin/../../lib/gcc/pic32c/6.2.1/../../../../pic32c/lib/v7e-m/fpv4-sp/hard\libg_nano.a(lib_a-strcat.o)
 .ARM.attributes
                0x00002c24       0x20 c:/program files/microchip/xc32/v2.40/bin/bin/../../lib/gcc/pic32c/6.2.1/../../../../pic32c/lib/v7e-m/fpv4-sp/hard\libg_nano.a(lib_a-strcmp.o)
 .ARM.attributes
                0x00002c44       0x34 c:/program files/microchip/xc32/v2.40/bin/bin/../../lib/gcc/pic32c/6.2.1/../../../../pic32c/lib/v7e-m/fpv4-sp/hard\libg_nano.a(lib_a-strcpy.o)
 .ARM.attributes
                0x00002c78       0x1b c:/program files/microchip/xc32/v2.40/bin/bin/../../lib/gcc/pic32c/6.2.1/../../../../pic32c/lib/v7e-m/fpv4-sp/hard\libg_nano.a(lib_a-strlen.o)
 .ARM.attributes
                0x00002c93       0x34 c:/program files/microchip/xc32/v2.40/bin/bin/../../lib/gcc/pic32c/6.2.1/../../../../pic32c/lib/v7e-m/fpv4-sp/hard\libg_nano.a(lib_a-strncmp.o)
 .ARM.attributes
                0x00002cc7       0x34 c:/program files/microchip/xc32/v2.40/bin/bin/../../lib/gcc/pic32c/6.2.1/../../../../pic32c/lib/v7e-m/fpv4-sp/hard\libg_nano.a(lib_a-strncpy.o)
 .ARM.attributes
                0x00002cfb       0x34 c:/program files/microchip/xc32/v2.40/bin/bin/../../lib/gcc/pic32c/6.2.1/../../../../pic32c/lib/v7e-m/fpv4-sp/hard\libg_nano.a(lib_a-strstr.o)
 .ARM.attributes
                0x00002d2f       0x34 c:/program files/microchip/xc32/v2.40/bin/bin/../../lib/gcc/pic32c/6.2.1/../../../../pic32c/lib/v7e-m/fpv4-sp/hard\libg_nano.a(lib_a-strtol.o)
 .ARM.attributes
                0x00002d63       0x34 c:/program files/microchip/xc32/v2.40/bin/bin/../../lib/gcc/pic32c/6.2.1/../../../../pic32c/lib/v7e-m/fpv4-sp/hard\libg_nano.a(lib_a-strtoul.o)
 .ARM.attributes
                0x00002d97       0x34 c:/program files/microchip/xc32/v2.40/bin/bin/../../lib/gcc/pic32c/6.2.1/../../../../pic32c/lib/v7e-m/fpv4-sp/hard\libg_nano.a(lib_a-tzcalc_limits.o)
 .ARM.attributes
                0x00002dcb       0x34 c:/program files/microchip/xc32/v2.40/bin/bin/../../lib/gcc/pic32c/6.2.1/../../../../pic32c/lib/v7e-m/fpv4-sp/hard\libg_nano.a(lib_a-tzset.o)
 .ARM.attributes
                0x00002dff       0x34 c:/program files/microchip/xc32/v2.40/bin/bin/../../lib/gcc/pic32c/6.2.1/../../../../pic32c/lib/v7e-m/fpv4-sp/hard\libg_nano.a(lib_a-tzset_r.o)
 .ARM.attributes
                0x00002e33       0x34 c:/program files/microchip/xc32/v2.40/bin/bin/../../lib/gcc/pic32c/6.2.1/../../../../pic32c/lib/v7e-m/fpv4-sp/hard\libg_nano.a(lib_a-tzvars.o)
 .ARM.attributes
                0x00002e67       0x34 c:/program files/microchip/xc32/v2.40/bin/bin/../../lib/gcc/pic32c/6.2.1/../../../../pic32c/lib/v7e-m/fpv4-sp/hard\libg_nano.a(lib_a-vsnprintf.o)
 .ARM.attributes
                0x00002e9b       0x34 c:/program files/microchip/xc32/v2.40/bin/bin/../../lib/gcc/pic32c/6.2.1/../../../../pic32c/lib/v7e-m/fpv4-sp/hard\libg_nano.a(lib_a-wbuf.o)
 .ARM.attributes
                0x00002ecf       0x34 c:/program files/microchip/xc32/v2.40/bin/bin/../../lib/gcc/pic32c/6.2.1/../../../../pic32c/lib/v7e-m/fpv4-sp/hard\libg_nano.a(lib_a-wctomb_r.o)
 .ARM.attributes
                0x00002f03       0x34 c:/program files/microchip/xc32/v2.40/bin/bin/../../lib/gcc/pic32c/6.2.1/../../../../pic32c/lib/v7e-m/fpv4-sp/hard\libg_nano.a(lib_a-writer.o)
 .ARM.attributes
                0x00002f37       0x34 c:/program files/microchip/xc32/v2.40/bin/bin/../../lib/gcc/pic32c/6.2.1/../../../../pic32c/lib/v7e-m/fpv4-sp/hard\libg_nano.a(lib_a-wsetup.o)
 .ARM.attributes
                0x00002f6b       0x34 c:/program files/microchip/xc32/v2.40/bin/bin/../../lib/gcc/pic32c/6.2.1/../../../../pic32c/lib/v7e-m/fpv4-sp/hard\libg_nano.a(lib_a-closer.o)
 .ARM.attributes
                0x00002f9f       0x34 c:/program files/microchip/xc32/v2.40/bin/bin/../../lib/gcc/pic32c/6.2.1/../../../../pic32c/lib/v7e-m/fpv4-sp/hard\libg_nano.a(lib_a-ctype_.o)
 .ARM.attributes
                0x00002fd3       0x34 c:/program files/microchip/xc32/v2.40/bin/bin/../../lib/gcc/pic32c/6.2.1/../../../../pic32c/lib/v7e-m/fpv4-sp/hard\libg_nano.a(lib_a-div.o)
 .ARM.attributes
                0x00003007       0x34 c:/program files/microchip/xc32/v2.40/bin/bin/../../lib/gcc/pic32c/6.2.1/../../../../pic32c/lib/v7e-m/fpv4-sp/hard\libg_nano.a(lib_a-fflush.o)
 .ARM.attributes
                0x0000303b       0x34 c:/program files/microchip/xc32/v2.40/bin/bin/../../lib/gcc/pic32c/6.2.1/../../../../pic32c/lib/v7e-m/fpv4-sp/hard\libg_nano.a(lib_a-findfp.o)
 .ARM.attributes
                0x0000306f       0x34 c:/program files/microchip/xc32/v2.40/bin/bin/../../lib/gcc/pic32c/6.2.1/../../../../pic32c/lib/v7e-m/fpv4-sp/hard\libg_nano.a(lib_a-fputwc.o)
 .ARM.attributes
                0x000030a3       0x34 c:/program files/microchip/xc32/v2.40/bin/bin/../../lib/gcc/pic32c/6.2.1/../../../../pic32c/lib/v7e-m/fpv4-sp/hard\libg_nano.a(lib_a-fwalk.o)
 .ARM.attributes
                0x000030d7       0x34 c:/program files/microchip/xc32/v2.40/bin/bin/../../lib/gcc/pic32c/6.2.1/../../../../pic32c/lib/v7e-m/fpv4-sp/hard\libg_nano.a(lib_a-getenv_r.o)
 .ARM.attributes
                0x0000310b       0x34 c:/program files/microchip/xc32/v2.40/bin/bin/../../lib/gcc/pic32c/6.2.1/../../../../pic32c/lib/v7e-m/fpv4-sp/hard\libg_nano.a(lib_a-gettzinfo.o)
 .ARM.attributes
                0x0000313f       0x34 c:/program files/microchip/xc32/v2.40/bin/bin/../../lib/gcc/pic32c/6.2.1/../../../../pic32c/lib/v7e-m/fpv4-sp/hard\libg_nano.a(lib_a-lseekr.o)
 .ARM.attributes
                0x00003173       0x34 c:/program files/microchip/xc32/v2.40/bin/bin/../../lib/gcc/pic32c/6.2.1/../../../../pic32c/lib/v7e-m/fpv4-sp/hard\libg_nano.a(lib_a-makebuf.o)
 .ARM.attributes
                0x000031a7       0x34 c:/program files/microchip/xc32/v2.40/bin/bin/../../lib/gcc/pic32c/6.2.1/../../../../pic32c/lib/v7e-m/fpv4-sp/hard\libg_nano.a(lib_a-mlock.o)
 .ARM.attributes
                0x000031db       0x34 c:/program files/microchip/xc32/v2.40/bin/bin/../../lib/gcc/pic32c/6.2.1/../../../../pic32c/lib/v7e-m/fpv4-sp/hard\libg_nano.a(lib_a-month_lengths.o)
 .ARM.attributes
                0x0000320f       0x34 c:/program files/microchip/xc32/v2.40/bin/bin/../../lib/gcc/pic32c/6.2.1/../../../../pic32c/lib/v7e-m/fpv4-sp/hard\libg_nano.a(lib_a-nano-svfprintf.o)
 .ARM.attributes
                0x00003243       0x34 c:/program files/microchip/xc32/v2.40/bin/bin/../../lib/gcc/pic32c/6.2.1/../../../../pic32c/lib/v7e-m/fpv4-sp/hard\libg_nano.a(lib_a-nano-vfprintf_i.o)
 .ARM.attributes
                0x00003277       0x34 c:/program files/microchip/xc32/v2.40/bin/bin/../../lib/gcc/pic32c/6.2.1/../../../../pic32c/lib/v7e-m/fpv4-sp/hard\libg_nano.a(_lib_a-nano-vfscanf.cdnopsuxX.o)
 .ARM.attributes
                0x000032ab       0x34 c:/program files/microchip/xc32/v2.40/bin/bin/../../lib/gcc/pic32c/6.2.1/../../../../pic32c/lib/v7e-m/fpv4-sp/hard\libg_nano.a(lib_a-readr.o)
 .ARM.attributes
                0x000032df       0x34 c:/program files/microchip/xc32/v2.40/bin/bin/../../lib/gcc/pic32c/6.2.1/../../../../pic32c/lib/v7e-m/fpv4-sp/hard\libg_nano.a(lib_a-reent.o)
 .ARM.attributes
                0x00003313       0x34 c:/program files/microchip/xc32/v2.40/bin/bin/../../lib/gcc/pic32c/6.2.1/../../../../pic32c/lib/v7e-m/fpv4-sp/hard\libg_nano.a(lib_a-sccl.o)
 .ARM.attributes
                0x00003347       0x34 c:/program files/microchip/xc32/v2.40/bin/bin/../../lib/gcc/pic32c/6.2.1/../../../../pic32c/lib/v7e-m/fpv4-sp/hard\libg_nano.a(lib_a-sscanf.o)
 .ARM.attributes
                0x0000337b       0x34 c:/program files/microchip/xc32/v2.40/bin/bin/../../lib/gcc/pic32c/6.2.1/../../../../pic32c/lib/v7e-m/fpv4-sp/hard\libg_nano.a(lib_a-__ssputs.o)
 .ARM.attributes
                0x000033af       0x34 c:/program files/microchip/xc32/v2.40/bin/bin/../../lib/gcc/pic32c/6.2.1/../../../../pic32c/lib/v7e-m/fpv4-sp/hard\libg_nano.a(lib_a-ungetc.o)
 .ARM.attributes
                0x000033e3       0x34 c:/program files/microchip/xc32/v2.40/bin/bin/../../lib/gcc/pic32c/6.2.1/../../../../pic32c/lib/v7e-m/fpv4-sp/hard\libg_nano.a(lib_a-wcrtomb.o)
 .ARM.attributes
                0x00003417       0x34 c:/program files/microchip/xc32/v2.40/bin/bin/../../lib/gcc/pic32c/6.2.1/../../../../pic32c/lib/v7e-m/fpv4-sp/hard\libg_nano.a(lib_a-environ.o)
 .ARM.attributes
                0x0000344b       0x34 c:/program files/microchip/xc32/v2.40/bin/bin/../../lib/gcc/pic32c/6.2.1/../../../../pic32c/lib/v7e-m/fpv4-sp/hard\libg_nano.a(lib_a-envlock.o)
 .ARM.attributes
                0x0000347f       0x34 c:/program files/microchip/xc32/v2.40/bin/bin/../../lib/gcc/pic32c/6.2.1/../../../../pic32c/lib/v7e-m/fpv4-sp/hard\libg_nano.a(lib_a-fstatr.o)
 .ARM.attributes
                0x000034b3       0x34 c:/program files/microchip/xc32/v2.40/bin/bin/../../lib/gcc/pic32c/6.2.1/../../../../pic32c/lib/v7e-m/fpv4-sp/hard\libg_nano.a(lib_a-isattyr.o)
 .ARM.attributes
                0x000034e7       0x34 c:/program files/microchip/xc32/v2.40/bin/bin/../../lib/gcc/pic32c/6.2.1/../../../../pic32c/lib/v7e-m/fpv4-sp/hard\libg_nano.a(lib_a-nano-reallocr.o)
 .ARM.attributes
                0x0000351b       0x34 c:/program files/microchip/xc32/v2.40/bin/bin/../../lib/gcc/pic32c/6.2.1/../../../../pic32c/lib/v7e-m/fpv4-sp/hard\libg_nano.a(lib_a-nano-svfscanf.o)
 .ARM.attributes
                0x0000354f       0x34 c:/program files/microchip/xc32/v2.40/bin/bin/../../lib/gcc/pic32c/6.2.1/../../../../pic32c/lib/v7e-m/fpv4-sp/hard\libg_nano.a(lib_a-nano-vfscanf_i.o)
 .ARM.attributes
                0x00003583       0x34 c:/program files/microchip/xc32/v2.40/bin/bin/../../lib/gcc/pic32c/6.2.1/../../../../pic32c/lib/v7e-m/fpv4-sp/hard\libg_nano.a(lib_a-nano-msizer.o)
 .ARM.attributes
                0x000035b7       0x34 c:/program files/microchip/xc32/v2.40/bin/bin/../../lib/gcc/pic32c/6.2.1/../../../../pic32c/lib/v7e-m/fpv4-sp/hard\libpic32c.a(_close.o)
 .ARM.attributes
                0x000035eb       0x34 c:/program files/microchip/xc32/v2.40/bin/bin/../../lib/gcc/pic32c/6.2.1/../../../../pic32c/lib/v7e-m/fpv4-sp/hard\libpic32c.a(_fstat.o)
 .ARM.attributes
                0x0000361f       0x34 c:/program files/microchip/xc32/v2.40/bin/bin/../../lib/gcc/pic32c/6.2.1/../../../../pic32c/lib/v7e-m/fpv4-sp/hard\libpic32c.a(_isatty.o)
 .ARM.attributes
                0x00003653       0x34 c:/program files/microchip/xc32/v2.40/bin/bin/../../lib/gcc/pic32c/6.2.1/../../../../pic32c/lib/v7e-m/fpv4-sp/hard\libpic32c.a(_lseek.o)
 .ARM.attributes
                0x00003687       0x34 c:/program files/microchip/xc32/v2.40/bin/bin/../../lib/gcc/pic32c/6.2.1/../../../../pic32c/lib/v7e-m/fpv4-sp/hard\libpic32c.a(_read.o)
 .ARM.attributes
                0x000036bb       0x34 c:/program files/microchip/xc32/v2.40/bin/bin/../../lib/gcc/pic32c/6.2.1/../../../../pic32c/lib/v7e-m/fpv4-sp/hard\libpic32c.a(sbrk.o)
 .ARM.attributes
                0x000036ef       0x34 c:/program files/microchip/xc32/v2.40/bin/bin/../../lib/gcc/pic32c/6.2.1/../../../../pic32c/lib/v7e-m/fpv4-sp/hard\libpic32c.a(_write.o)
 .ARM.attributes
                0x00003723       0x34 c:/program files/microchip/xc32/v2.40/bin/bin/../../lib/gcc/pic32c/6.2.1/../../../../pic32c/lib/v7e-m/fpv4-sp/hard\libpic32c.a(fstat.o)
 .ARM.attributes
                0x00003757       0x34 c:/program files/microchip/xc32/v2.40/bin/bin/../../lib/gcc/pic32c/6.2.1/../../../../pic32c/lib/v7e-m/fpv4-sp/hard\libpic32c.a(isatty.o)
 .ARM.attributes
                0x0000378b       0x34 c:/program files/microchip/xc32/v2.40/bin/bin/../../lib/gcc/pic32c/6.2.1/../../../../pic32c/lib/v7e-m/fpv4-sp/hard\libpic32c.a(lseek.o)
 .ARM.attributes
                0x000037bf       0x34 c:/program files/microchip/xc32/v2.40/bin/bin/../../lib/gcc/pic32c/6.2.1/../../../../pic32c/lib/v7e-m/fpv4-sp/hard\libpic32c.a(read.o)
 .ARM.attributes
                0x000037f3       0x34 c:/program files/microchip/xc32/v2.40/bin/bin/../../lib/gcc/pic32c/6.2.1/../../../../pic32c/lib/v7e-m/fpv4-sp/hard\libpic32c.a(write.o)
 .ARM.attributes
                0x00003827       0x22 c:/program files/microchip/xc32/v2.40/bin/bin/../../lib/gcc/pic32c/6.2.1/v7e-m/fpv4-sp/hard/crtn.o

.comment        0x00000000       0x3c
 .comment       0x00000000       0x3c c:/program files/microchip/xc32/v2.40/bin/bin/../../lib/gcc/pic32c/6.2.1/v7e-m/fpv4-sp/hard/crtbegin.o
                                 0x3d (size before relaxing)
 .comment       0x0000003c       0x3d build/aws_demos/debug/_ext/665618993/plib_nvmctrl.o
 .comment       0x0000003c       0x3d build/aws_demos/debug/_ext/1385882503/port.o
 .comment       0x0000003c       0x3d build/aws_demos/debug/_ext/1168480030/heap_4.o
 .comment       0x0000003c       0x3d build/aws_demos/debug/_ext/787859085/atca_cert_chain.o
 .comment       0x0000003c       0x3d build/aws_demos/debug/_ext/1972722184/iot_pkcs11_secure_element.o
 .comment       0x0000003c       0x3d build/aws_demos/debug/_ext/2009324866/aws_wifi.o
 .comment       0x0000003c       0x3d build/aws_demos/debug/_ext/2009324866/iot_secure_sockets.o
 .comment       0x0000003c       0x3d build/aws_demos/debug/_ext/1456806047/atcacert_client.o
 .comment       0x0000003c       0x3d build/aws_demos/debug/_ext/1456806047/atcacert_date.o
 .comment       0x0000003c       0x3d build/aws_demos/debug/_ext/1456806047/atcacert_def.o
 .comment       0x0000003c       0x3d build/aws_demos/debug/_ext/1456806047/atcacert_der.o
 .comment       0x0000003c       0x3d build/aws_demos/debug/_ext/1456806047/atcacert_pem.o
 .comment       0x0000003c       0x3d build/aws_demos/debug/_ext/1009855837/atca_command.o
 .comment       0x0000003c       0x3d build/aws_demos/debug/_ext/1009855837/atca_device.o
 .comment       0x0000003c       0x3d build/aws_demos/debug/_ext/1009855837/atca_execution.o
 .comment       0x0000003c       0x3d build/aws_demos/debug/_ext/1009855837/atca_iface.o
 .comment       0x0000003c       0x3d build/aws_demos/debug/_ext/306685378/atca_basic.o
 .comment       0x0000003c       0x3d build/aws_demos/debug/_ext/306685378/atca_basic_checkmac.o
 .comment       0x0000003c       0x3d build/aws_demos/debug/_ext/306685378/atca_basic_ecdh.o
 .comment       0x0000003c       0x3d build/aws_demos/debug/_ext/306685378/atca_basic_gendig.o
 .comment       0x0000003c       0x3d build/aws_demos/debug/_ext/306685378/atca_basic_genkey.o
 .comment       0x0000003c       0x3d build/aws_demos/debug/_ext/306685378/atca_basic_info.o
 .comment       0x0000003c       0x3d build/aws_demos/debug/_ext/306685378/atca_basic_lock.o
 .comment       0x0000003c       0x3d build/aws_demos/debug/_ext/306685378/atca_basic_nonce.o
 .comment       0x0000003c       0x3d build/aws_demos/debug/_ext/306685378/atca_basic_privwrite.o
 .comment       0x0000003c       0x3d build/aws_demos/debug/_ext/306685378/atca_basic_random.o
 .comment       0x0000003c       0x3d build/aws_demos/debug/_ext/306685378/atca_basic_read.o
 .comment       0x0000003c       0x3d build/aws_demos/debug/_ext/306685378/atca_basic_sign.o
 .comment       0x0000003c       0x3d build/aws_demos/debug/_ext/306685378/atca_basic_updateextra.o
 .comment       0x0000003c       0x3d build/aws_demos/debug/_ext/306685378/atca_basic_verify.o
 .comment       0x0000003c       0x3d build/aws_demos/debug/_ext/306685378/atca_basic_write.o
 .comment       0x0000003c       0x3d build/aws_demos/debug/_ext/306685378/atca_helpers.o
 .comment       0x0000003c       0x3d build/aws_demos/debug/_ext/961827245/atca_crypto_sw_sha1.o
 .comment       0x0000003c       0x3d build/aws_demos/debug/_ext/961827245/atca_crypto_sw_sha2.o
 .comment       0x0000003c       0x3d build/aws_demos/debug/_ext/1070826718/sha1_routines.o
 .comment       0x0000003c       0x3d build/aws_demos/debug/_ext/1070826718/sha2_routines.o
 .comment       0x0000003c       0x3d build/aws_demos/debug/_ext/544104044/atca_host.o
 .comment       0x0000003c       0x3d build/aws_demos/debug/_ext/1326886903/pkcs11_attrib.o
 .comment       0x0000003c       0x3d build/aws_demos/debug/_ext/1326886903/pkcs11_cert.o
 .comment       0x0000003c       0x3d build/aws_demos/debug/_ext/1326886903/pkcs11_config.o
 .comment       0x0000003c       0x3d build/aws_demos/debug/_ext/1326886903/pkcs11_digest.o
 .comment       0x0000003c       0x3d build/aws_demos/debug/_ext/1326886903/pkcs11_find.o
 .comment       0x0000003c       0x3d build/aws_demos/debug/_ext/1326886903/pkcs11_info.o
 .comment       0x0000003c       0x3d build/aws_demos/debug/_ext/1326886903/pkcs11_init.o
 .comment       0x0000003c       0x3d build/aws_demos/debug/_ext/1326886903/pkcs11_key.o
 .comment       0x0000003c       0x3d build/aws_demos/debug/_ext/1326886903/pkcs11_main.o
 .comment       0x0000003c       0x3d build/aws_demos/debug/_ext/1326886903/pkcs11_mech.o
 .comment       0x0000003c       0x3d build/aws_demos/debug/_ext/1326886903/pkcs11_object.o
 .comment       0x0000003c       0x3d build/aws_demos/debug/_ext/1326886903/pkcs11_os.o
 .comment       0x0000003c       0x3d build/aws_demos/debug/_ext/1326886903/pkcs11_session.o
 .comment       0x0000003c       0x3d build/aws_demos/debug/_ext/1326886903/pkcs11_signature.o
 .comment       0x0000003c       0x3d build/aws_demos/debug/_ext/1326886903/pkcs11_slot.o
 .comment       0x0000003c       0x3d build/aws_demos/debug/_ext/1326886903/pkcs11_token.o
 .comment       0x0000003c       0x3d build/aws_demos/debug/_ext/1326886903/pkcs11_util.o
 .comment       0x0000003c       0x3d build/aws_demos/debug/_ext/1110296786/plib_tc3.o
 .comment       0x0000003c       0x3d build/aws_demos/debug/_ext/484134862/sys_time.o
 .comment       0x0000003c       0x3d build/aws_demos/debug/_ext/1843304010/plib_trng.o
 .comment       0x0000003c       0x3d build/aws_demos/debug/_ext/1534684544/sys_console_uart.o
 .comment       0x0000003c       0x3d build/aws_demos/debug/_ext/2104392270/drv_spi.o
 .comment       0x0000003c       0x3d build/aws_demos/debug/_ext/2146650376/ATECC608A_0.o
 .comment       0x0000003c       0x3d build/aws_demos/debug/_ext/1762024984/sys_int.o
 .comment       0x0000003c       0x3d build/aws_demos/debug/_ext/959252812/sys_dma.o
 .comment       0x0000003c       0x3d build/aws_demos/debug/_ext/1149029443/osal_freertos.o
 .comment       0x0000003c       0x3d build/aws_demos/debug/_ext/1360937237/app.o
 .comment       0x0000003c       0x3d build/aws_demos/debug/_ext/1534096987/tasks.o
 .comment       0x0000003c       0x3d build/aws_demos/debug/_ext/731420310/plib_sercom2_usart.o
 .comment       0x0000003c       0x3d build/aws_demos/debug/_ext/1321577635/plib_evsys.o
 .comment       0x0000003c       0x3d build/aws_demos/debug/_ext/1833802790/wdrv_winc.o
 .comment       0x0000003c       0x3d build/aws_demos/debug/_ext/1833802790/wdrv_winc_authctx.o
 .comment       0x0000003c       0x3d build/aws_demos/debug/_ext/1833802790/wdrv_winc_bssctx.o
 .comment       0x0000003c       0x3d build/aws_demos/debug/_ext/1833802790/wdrv_winc_socket.o
 .comment       0x0000003c       0x3d build/aws_demos/debug/_ext/1833802790/wdrv_winc_sta.o
 .comment       0x0000003c       0x3d build/aws_demos/debug/_ext/1833802790/wdrv_winc_systime.o
 .comment       0x0000003c       0x3d build/aws_demos/debug/_ext/978667550/wdrv_winc_eint.o
 .comment       0x0000003c       0x3d build/aws_demos/debug/_ext/978667550/wdrv_winc_gpio.o
 .comment       0x0000003c       0x3d build/aws_demos/debug/_ext/384060547/wdrv_winc_spi.o
 .comment       0x0000003c       0x3d build/aws_demos/debug/_ext/1289849308/wdrv_winc_osal.o
 .comment       0x0000003c       0x3d build/aws_demos/debug/_ext/2059254151/nm_common.o
 .comment       0x0000003c       0x3d build/aws_demos/debug/_ext/2090543044/m2m_flash.o
 .comment       0x0000003c       0x3d build/aws_demos/debug/_ext/2090543044/m2m_hif.o
 .comment       0x0000003c       0x3d build/aws_demos/debug/_ext/2090543044/m2m_wifi.o
 .comment       0x0000003c       0x3d build/aws_demos/debug/_ext/2090543044/nmasic.o
 .comment       0x0000003c       0x3d build/aws_demos/debug/_ext/2090543044/nmbus.o
 .comment       0x0000003c       0x3d build/aws_demos/debug/_ext/2090543044/nmdrv.o
 .comment       0x0000003c       0x3d build/aws_demos/debug/_ext/2090543044/nmflash.o
 .comment       0x0000003c       0x3d build/aws_demos/debug/_ext/2090543044/nmspi.o
 .comment       0x0000003c       0x3d build/aws_demos/debug/_ext/1151736449/spi_flash.o
 .comment       0x0000003c       0x3d build/aws_demos/debug/_ext/2090543044/m2m_ota.o
 .comment       0x0000003c       0x3d build/aws_demos/debug/_ext/2090543044/m2m_ssl.o
 .comment       0x0000003c       0x3d build/aws_demos/debug/_ext/1777946865/socket.o
 .comment       0x0000003c       0x3d build/aws_demos/debug/_ext/230789302/plib_sercom7_i2c_master.o
 .comment       0x0000003c       0x3d build/aws_demos/debug/_ext/1991396724/sys_command.o
 .comment       0x0000003c       0x3d build/aws_demos/debug/_ext/731420310/plib_sercom6_usart.o
 .comment       0x0000003c       0x3d build/aws_demos/debug/_ext/1360937237/main.o
 .comment       0x0000003c       0x3d build/aws_demos/debug/_ext/1534096987/initialization.o
 .comment       0x0000003c       0x3d build/aws_demos/debug/_ext/1534096987/interrupts.o
 .comment       0x0000003c       0x3d build/aws_demos/debug/_ext/1534096987/exceptions.o
 .comment       0x0000003c       0x3d build/aws_demos/debug/_ext/1263901141/xc32_monitor.o
 .comment       0x0000003c       0x3d build/aws_demos/debug/_ext/1843425920/plib_port.o
 .comment       0x0000003c       0x3d build/aws_demos/debug/_ext/1323727121/plib_clock.o
 .comment       0x0000003c       0x3d build/aws_demos/debug/_ext/1843479071/plib_nvic.o
 .comment       0x0000003c       0x3d build/aws_demos/debug/_ext/1843785878/plib_dmac.o
 .comment       0x0000003c       0x3d build/aws_demos/debug/_ext/1534096987/startup_xc32.o
 .comment       0x0000003c       0x3d build/aws_demos/debug/_ext/1916130672/plib_sercom4_spi.o
 .comment       0x0000003c       0x3d build/aws_demos/debug/_ext/59476128/plib_eic.o
 .comment       0x0000003c       0x3d build/aws_demos/debug/_ext/1931625852/sys_debug.o
 .comment       0x0000003c       0x3d build/aws_demos/debug/_ext/1223942466/aws_demo.o
 .comment       0x0000003c       0x3d build/aws_demos/debug/_ext/1223942466/iot_demo_freertos.o
 .comment       0x0000003c       0x3d build/aws_demos/debug/_ext/1223942466/iot_demo_runner.o
 .comment       0x0000003c       0x3d build/aws_demos/debug/_ext/198771642/aws_dev_mode_key_provisioning.o
 .comment       0x0000003c       0x3d build/aws_demos/debug/_ext/1441508942/iot_demo_mqtt.o
 .comment       0x0000003c       0x3d build/aws_demos/debug/_ext/2040524622/aws_iot_network_manager.o
 .comment       0x0000003c       0x3d build/aws_demos/debug/_ext/811507611/event_groups.o
 .comment       0x0000003c       0x3d build/aws_demos/debug/_ext/811507611/list.o
 .comment       0x0000003c       0x3d build/aws_demos/debug/_ext/811507611/queue.o
 .comment       0x0000003c       0x3d build/aws_demos/debug/_ext/811507611/tasks.o
 .comment       0x0000003c       0x3d build/aws_demos/debug/_ext/811507611/timers.o
 .comment       0x0000003c       0x3d build/aws_demos/debug/_ext/684768522/asn1parse.o
 .comment       0x0000003c       0x3d build/aws_demos/debug/_ext/684768522/asn1write.o
 .comment       0x0000003c       0x3d build/aws_demos/debug/_ext/684768522/base64.o
 .comment       0x0000003c       0x3d build/aws_demos/debug/_ext/684768522/bignum.o
 .comment       0x0000003c       0x3d build/aws_demos/debug/_ext/684768522/ecdsa.o
 .comment       0x0000003c       0x3d build/aws_demos/debug/_ext/684768522/ecp.o
 .comment       0x0000003c       0x3d build/aws_demos/debug/_ext/684768522/ecp_curves.o
 .comment       0x0000003c       0x3d build/aws_demos/debug/_ext/684768522/md.o
 .comment       0x0000003c       0x3d build/aws_demos/debug/_ext/684768522/md_wrap.o
 .comment       0x0000003c       0x3d build/aws_demos/debug/_ext/684768522/oid.o
 .comment       0x0000003c       0x3d build/aws_demos/debug/_ext/684768522/pem.o
 .comment       0x0000003c       0x3d build/aws_demos/debug/_ext/684768522/pk.o
 .comment       0x0000003c       0x3d build/aws_demos/debug/_ext/684768522/pkparse.o
 .comment       0x0000003c       0x3d build/aws_demos/debug/_ext/684768522/pk_wrap.o
 .comment       0x0000003c       0x3d build/aws_demos/debug/_ext/684768522/platform.o
 .comment       0x0000003c       0x3d build/aws_demos/debug/_ext/684768522/platform_util.o
 .comment       0x0000003c       0x3d build/aws_demos/debug/_ext/684768522/rsa.o
 .comment       0x0000003c       0x3d build/aws_demos/debug/_ext/684768522/rsa_internal.o
 .comment       0x0000003c       0x3d build/aws_demos/debug/_ext/684768522/sha1.o
 .comment       0x0000003c       0x3d build/aws_demos/debug/_ext/684768522/sha256.o
 .comment       0x0000003c       0x3d build/aws_demos/debug/_ext/684768522/threading.o
 .comment       0x0000003c       0x3d build/aws_demos/debug/_ext/684768522/x509.o
 .comment       0x0000003c       0x3d build/aws_demos/debug/_ext/684768522/x509_crt.o
 .comment       0x0000003c       0x3d build/aws_demos/debug/_ext/2077790016/mbedtls_utils.o
 .comment       0x0000003c       0x3d build/aws_demos/debug/_ext/520142351/iot_clock_freertos.o
 .comment       0x0000003c       0x3d build/aws_demos/debug/_ext/520142351/iot_network_freertos.o
 .comment       0x0000003c       0x3d build/aws_demos/debug/_ext/520142351/iot_threads_freertos.o
 .comment       0x0000003c       0x3d build/aws_demos/debug/_ext/13066905/iot_device_metrics.o
 .comment       0x0000003c       0x3d build/aws_demos/debug/_ext/13066905/iot_init.o
 .comment       0x0000003c       0x3d build/aws_demos/debug/_ext/227692215/iot_logging.o
 .comment       0x0000003c       0x3d build/aws_demos/debug/_ext/227692215/iot_logging_task_dynamic_buffers.o
 .comment       0x0000003c       0x3d build/aws_demos/debug/_ext/333408969/iot_taskpool.o
 .comment       0x0000003c       0x3d build/aws_demos/debug/_ext/1739149067/iot_mqtt_api.o
 .comment       0x0000003c       0x3d build/aws_demos/debug/_ext/1739149067/iot_mqtt_network.o
 .comment       0x0000003c       0x3d build/aws_demos/debug/_ext/1739149067/iot_mqtt_operation.o
 .comment       0x0000003c       0x3d build/aws_demos/debug/_ext/1739149067/iot_mqtt_serialize.o
 .comment       0x0000003c       0x3d build/aws_demos/debug/_ext/1739149067/iot_mqtt_subscription.o
 .comment       0x0000003c       0x3d build/aws_demos/debug/_ext/1739149067/iot_mqtt_validate.o
 .comment       0x0000003c       0x3d build/aws_demos/debug/_ext/350635301/iot_crypto.o
 .comment       0x0000003c       0x3d build/aws_demos/debug/_ext/2138053595/iot_pkcs11.o
 .comment       0x0000003c       0x3d build/aws_demos/debug/_ext/1120274527/iot_system_init.o
 .comment       0x0000003c       0x3d build/aws_demos/debug/_ext/1534684544/sys_console.o
 .comment       0x0000003c       0x3d build/aws_demos/debug/_ext/2146650376/hal_i2c_harmony.o
 .comment       0x0000003c       0x3d build/aws_demos/debug/_ext/2146650376/atca_hal.o
 .comment       0x0000003c       0x3d build/aws_demos/debug/_ext/2146650376/hal_freertos.o
 .comment       0x0000003c       0x3d build/aws_demos/debug/_ext/2146650376/hal_i2c_harmony_init.o
 .comment       0x0000003c       0x3d build/aws_demos/debug/_ext/2146650376/hal_cortex_m_delay.o
 .comment       0x0000003c       0x3d c:/program files/microchip/xc32/v2.40/bin/bin/../../lib/gcc/pic32c/6.2.1/../../../../pic32c/lib/v7e-m/fpv4-sp/hard\libpic32c.a(close.o)
 .comment       0x0000003c       0x3d c:/program files/microchip/xc32/v2.40/bin/bin/../../lib/gcc/pic32c/6.2.1/../../../../pic32c/lib/v7e-m/fpv4-sp/hard\libpic32c.a(data_init.o)
 .comment       0x0000003c       0x3d c:/program files/microchip/xc32/v2.40/bin/bin/../../lib/gcc/pic32c/6.2.1/v7e-m/fpv4-sp/hard\libgcc.a(_udivmoddi4.o)
 .comment       0x0000003c       0x3d c:/program files/microchip/xc32/v2.40/bin/bin/../../lib/gcc/pic32c/6.2.1/../../../../pic32c/lib/v7e-m/fpv4-sp/hard\libg_nano.a(lib_a-calloc.o)
 .comment       0x0000003c       0x3d c:/program files/microchip/xc32/v2.40/bin/bin/../../lib/gcc/pic32c/6.2.1/../../../../pic32c/lib/v7e-m/fpv4-sp/hard\libg_nano.a(lib_a-gmtime.o)
 .comment       0x0000003c       0x3d c:/program files/microchip/xc32/v2.40/bin/bin/../../lib/gcc/pic32c/6.2.1/../../../../pic32c/lib/v7e-m/fpv4-sp/hard\libg_nano.a(lib_a-gmtime_r.o)
 .comment       0x0000003c       0x3d c:/program files/microchip/xc32/v2.40/bin/bin/../../lib/gcc/pic32c/6.2.1/../../../../pic32c/lib/v7e-m/fpv4-sp/hard\libg_nano.a(lib_a-impure.o)
 .comment       0x0000003c       0x3d c:/program files/microchip/xc32/v2.40/bin/bin/../../lib/gcc/pic32c/6.2.1/../../../../pic32c/lib/v7e-m/fpv4-sp/hard\libg_nano.a(lib_a-init.o)
 .comment       0x0000003c       0x3d c:/program files/microchip/xc32/v2.40/bin/bin/../../lib/gcc/pic32c/6.2.1/../../../../pic32c/lib/v7e-m/fpv4-sp/hard\libg_nano.a(lib_a-locale.o)
 .comment       0x0000003c       0x3d c:/program files/microchip/xc32/v2.40/bin/bin/../../lib/gcc/pic32c/6.2.1/../../../../pic32c/lib/v7e-m/fpv4-sp/hard\libg_nano.a(lib_a-malloc.o)
 .comment       0x0000003c       0x3d c:/program files/microchip/xc32/v2.40/bin/bin/../../lib/gcc/pic32c/6.2.1/../../../../pic32c/lib/v7e-m/fpv4-sp/hard\libg_nano.a(lib_a-mbtowc_r.o)
 .comment       0x0000003c       0x3d c:/program files/microchip/xc32/v2.40/bin/bin/../../lib/gcc/pic32c/6.2.1/../../../../pic32c/lib/v7e-m/fpv4-sp/hard\libg_nano.a(lib_a-memcmp.o)
 .comment       0x0000003c       0x3d c:/program files/microchip/xc32/v2.40/bin/bin/../../lib/gcc/pic32c/6.2.1/../../../../pic32c/lib/v7e-m/fpv4-sp/hard\libg_nano.a(lib_a-memcpy-stub.o)
 .comment       0x0000003c       0x3d c:/program files/microchip/xc32/v2.40/bin/bin/../../lib/gcc/pic32c/6.2.1/../../../../pic32c/lib/v7e-m/fpv4-sp/hard\libg_nano.a(lib_a-memmove.o)
 .comment       0x0000003c       0x3d c:/program files/microchip/xc32/v2.40/bin/bin/../../lib/gcc/pic32c/6.2.1/../../../../pic32c/lib/v7e-m/fpv4-sp/hard\libg_nano.a(lib_a-memset.o)
 .comment       0x0000003c       0x3d c:/program files/microchip/xc32/v2.40/bin/bin/../../lib/gcc/pic32c/6.2.1/../../../../pic32c/lib/v7e-m/fpv4-sp/hard\libg_nano.a(lib_a-mktime.o)
 .comment       0x0000003c       0x3d c:/program files/microchip/xc32/v2.40/bin/bin/../../lib/gcc/pic32c/6.2.1/../../../../pic32c/lib/v7e-m/fpv4-sp/hard\libg_nano.a(lib_a-nano-callocr.o)
 .comment       0x0000003c       0x3d c:/program files/microchip/xc32/v2.40/bin/bin/../../lib/gcc/pic32c/6.2.1/../../../../pic32c/lib/v7e-m/fpv4-sp/hard\libg_nano.a(lib_a-nano-freer.o)
 .comment       0x0000003c       0x3d c:/program files/microchip/xc32/v2.40/bin/bin/../../lib/gcc/pic32c/6.2.1/../../../../pic32c/lib/v7e-m/fpv4-sp/hard\libg_nano.a(lib_a-nano-mallocr.o)
 .comment       0x0000003c       0x3d c:/program files/microchip/xc32/v2.40/bin/bin/../../lib/gcc/pic32c/6.2.1/../../../../pic32c/lib/v7e-m/fpv4-sp/hard\libg_nano.a(lib_a-nano-vfprintf.o)
 .comment       0x0000003c       0x3d c:/program files/microchip/xc32/v2.40/bin/bin/../../lib/gcc/pic32c/6.2.1/../../../../pic32c/lib/v7e-m/fpv4-sp/hard\libg_nano.a(_lib_a-nano-vfprintf.s.o)
 .comment       0x0000003c       0x3d c:/program files/microchip/xc32/v2.40/bin/bin/../../lib/gcc/pic32c/6.2.1/../../../../pic32c/lib/v7e-m/fpv4-sp/hard\libg_nano.a(lib_a-printf.o)
 .comment       0x0000003c       0x3d c:/program files/microchip/xc32/v2.40/bin/bin/../../lib/gcc/pic32c/6.2.1/../../../../pic32c/lib/v7e-m/fpv4-sp/hard\libg_nano.a(lib_a-putchar.o)
 .comment       0x0000003c       0x3d c:/program files/microchip/xc32/v2.40/bin/bin/../../lib/gcc/pic32c/6.2.1/../../../../pic32c/lib/v7e-m/fpv4-sp/hard\libg_nano.a(lib_a-putc.o)
 .comment       0x0000003c       0x3d c:/program files/microchip/xc32/v2.40/bin/bin/../../lib/gcc/pic32c/6.2.1/../../../../pic32c/lib/v7e-m/fpv4-sp/hard\libg_nano.a(lib_a-puts.o)
 .comment       0x0000003c       0x3d c:/program files/microchip/xc32/v2.40/bin/bin/../../lib/gcc/pic32c/6.2.1/../../../../pic32c/lib/v7e-m/fpv4-sp/hard\libg_nano.a(lib_a-rand.o)
 .comment       0x0000003c       0x3d c:/program files/microchip/xc32/v2.40/bin/bin/../../lib/gcc/pic32c/6.2.1/../../../../pic32c/lib/v7e-m/fpv4-sp/hard\libg_nano.a(lib_a-sbrkr.o)
 .comment       0x0000003c       0x3d c:/program files/microchip/xc32/v2.40/bin/bin/../../lib/gcc/pic32c/6.2.1/../../../../pic32c/lib/v7e-m/fpv4-sp/hard\libg_nano.a(lib_a-snprintf.o)
 .comment       0x0000003c       0x3d c:/program files/microchip/xc32/v2.40/bin/bin/../../lib/gcc/pic32c/6.2.1/../../../../pic32c/lib/v7e-m/fpv4-sp/hard\libg_nano.a(lib_a-sprintf.o)
 .comment       0x0000003c       0x3d c:/program files/microchip/xc32/v2.40/bin/bin/../../lib/gcc/pic32c/6.2.1/../../../../pic32c/lib/v7e-m/fpv4-sp/hard\libg_nano.a(lib_a-__ssfputs.o)
 .comment       0x0000003c       0x3d c:/program files/microchip/xc32/v2.40/bin/bin/../../lib/gcc/pic32c/6.2.1/../../../../pic32c/lib/v7e-m/fpv4-sp/hard\libg_nano.a(lib_a-stdio.o)
 .comment       0x0000003c       0x3d c:/program files/microchip/xc32/v2.40/bin/bin/../../lib/gcc/pic32c/6.2.1/../../../../pic32c/lib/v7e-m/fpv4-sp/hard\libg_nano.a(lib_a-strcat.o)
 .comment       0x0000003c       0x3d c:/program files/microchip/xc32/v2.40/bin/bin/../../lib/gcc/pic32c/6.2.1/../../../../pic32c/lib/v7e-m/fpv4-sp/hard\libg_nano.a(lib_a-strcpy.o)
 .comment       0x0000003c       0x3d c:/program files/microchip/xc32/v2.40/bin/bin/../../lib/gcc/pic32c/6.2.1/../../../../pic32c/lib/v7e-m/fpv4-sp/hard\libg_nano.a(lib_a-strncmp.o)
 .comment       0x0000003c       0x3d c:/program files/microchip/xc32/v2.40/bin/bin/../../lib/gcc/pic32c/6.2.1/../../../../pic32c/lib/v7e-m/fpv4-sp/hard\libg_nano.a(lib_a-strncpy.o)
 .comment       0x0000003c       0x3d c:/program files/microchip/xc32/v2.40/bin/bin/../../lib/gcc/pic32c/6.2.1/../../../../pic32c/lib/v7e-m/fpv4-sp/hard\libg_nano.a(lib_a-strstr.o)
 .comment       0x0000003c       0x3d c:/program files/microchip/xc32/v2.40/bin/bin/../../lib/gcc/pic32c/6.2.1/../../../../pic32c/lib/v7e-m/fpv4-sp/hard\libg_nano.a(lib_a-strtol.o)
 .comment       0x0000003c       0x3d c:/program files/microchip/xc32/v2.40/bin/bin/../../lib/gcc/pic32c/6.2.1/../../../../pic32c/lib/v7e-m/fpv4-sp/hard\libg_nano.a(lib_a-strtoul.o)
 .comment       0x0000003c       0x3d c:/program files/microchip/xc32/v2.40/bin/bin/../../lib/gcc/pic32c/6.2.1/../../../../pic32c/lib/v7e-m/fpv4-sp/hard\libg_nano.a(lib_a-tzcalc_limits.o)
 .comment       0x0000003c       0x3d c:/program files/microchip/xc32/v2.40/bin/bin/../../lib/gcc/pic32c/6.2.1/../../../../pic32c/lib/v7e-m/fpv4-sp/hard\libg_nano.a(lib_a-tzset.o)
 .comment       0x0000003c       0x3d c:/program files/microchip/xc32/v2.40/bin/bin/../../lib/gcc/pic32c/6.2.1/../../../../pic32c/lib/v7e-m/fpv4-sp/hard\libg_nano.a(lib_a-tzset_r.o)
 .comment       0x0000003c       0x3d c:/program files/microchip/xc32/v2.40/bin/bin/../../lib/gcc/pic32c/6.2.1/../../../../pic32c/lib/v7e-m/fpv4-sp/hard\libg_nano.a(lib_a-tzvars.o)
 .comment       0x0000003c       0x3d c:/program files/microchip/xc32/v2.40/bin/bin/../../lib/gcc/pic32c/6.2.1/../../../../pic32c/lib/v7e-m/fpv4-sp/hard\libg_nano.a(lib_a-vsnprintf.o)
 .comment       0x0000003c       0x3d c:/program files/microchip/xc32/v2.40/bin/bin/../../lib/gcc/pic32c/6.2.1/../../../../pic32c/lib/v7e-m/fpv4-sp/hard\libg_nano.a(lib_a-wbuf.o)
 .comment       0x0000003c       0x3d c:/program files/microchip/xc32/v2.40/bin/bin/../../lib/gcc/pic32c/6.2.1/../../../../pic32c/lib/v7e-m/fpv4-sp/hard\libg_nano.a(lib_a-wctomb_r.o)
 .comment       0x0000003c       0x3d c:/program files/microchip/xc32/v2.40/bin/bin/../../lib/gcc/pic32c/6.2.1/../../../../pic32c/lib/v7e-m/fpv4-sp/hard\libg_nano.a(lib_a-writer.o)
 .comment       0x0000003c       0x3d c:/program files/microchip/xc32/v2.40/bin/bin/../../lib/gcc/pic32c/6.2.1/../../../../pic32c/lib/v7e-m/fpv4-sp/hard\libg_nano.a(lib_a-wsetup.o)
 .comment       0x0000003c       0x3d c:/program files/microchip/xc32/v2.40/bin/bin/../../lib/gcc/pic32c/6.2.1/../../../../pic32c/lib/v7e-m/fpv4-sp/hard\libg_nano.a(lib_a-closer.o)
 .comment       0x0000003c       0x3d c:/program files/microchip/xc32/v2.40/bin/bin/../../lib/gcc/pic32c/6.2.1/../../../../pic32c/lib/v7e-m/fpv4-sp/hard\libg_nano.a(lib_a-ctype_.o)
 .comment       0x0000003c       0x3d c:/program files/microchip/xc32/v2.40/bin/bin/../../lib/gcc/pic32c/6.2.1/../../../../pic32c/lib/v7e-m/fpv4-sp/hard\libg_nano.a(lib_a-div.o)
 .comment       0x0000003c       0x3d c:/program files/microchip/xc32/v2.40/bin/bin/../../lib/gcc/pic32c/6.2.1/../../../../pic32c/lib/v7e-m/fpv4-sp/hard\libg_nano.a(lib_a-fflush.o)
 .comment       0x0000003c       0x3d c:/program files/microchip/xc32/v2.40/bin/bin/../../lib/gcc/pic32c/6.2.1/../../../../pic32c/lib/v7e-m/fpv4-sp/hard\libg_nano.a(lib_a-findfp.o)
 .comment       0x0000003c       0x3d c:/program files/microchip/xc32/v2.40/bin/bin/../../lib/gcc/pic32c/6.2.1/../../../../pic32c/lib/v7e-m/fpv4-sp/hard\libg_nano.a(lib_a-fputwc.o)
 .comment       0x0000003c       0x3d c:/program files/microchip/xc32/v2.40/bin/bin/../../lib/gcc/pic32c/6.2.1/../../../../pic32c/lib/v7e-m/fpv4-sp/hard\libg_nano.a(lib_a-fwalk.o)
 .comment       0x0000003c       0x3d c:/program files/microchip/xc32/v2.40/bin/bin/../../lib/gcc/pic32c/6.2.1/../../../../pic32c/lib/v7e-m/fpv4-sp/hard\libg_nano.a(lib_a-getenv_r.o)
 .comment       0x0000003c       0x3d c:/program files/microchip/xc32/v2.40/bin/bin/../../lib/gcc/pic32c/6.2.1/../../../../pic32c/lib/v7e-m/fpv4-sp/hard\libg_nano.a(lib_a-gettzinfo.o)
 .comment       0x0000003c       0x3d c:/program files/microchip/xc32/v2.40/bin/bin/../../lib/gcc/pic32c/6.2.1/../../../../pic32c/lib/v7e-m/fpv4-sp/hard\libg_nano.a(lib_a-lseekr.o)
 .comment       0x0000003c       0x3d c:/program files/microchip/xc32/v2.40/bin/bin/../../lib/gcc/pic32c/6.2.1/../../../../pic32c/lib/v7e-m/fpv4-sp/hard\libg_nano.a(lib_a-makebuf.o)
 .comment       0x0000003c       0x3d c:/program files/microchip/xc32/v2.40/bin/bin/../../lib/gcc/pic32c/6.2.1/../../../../pic32c/lib/v7e-m/fpv4-sp/hard\libg_nano.a(lib_a-mlock.o)
 .comment       0x0000003c       0x3d c:/program files/microchip/xc32/v2.40/bin/bin/../../lib/gcc/pic32c/6.2.1/../../../../pic32c/lib/v7e-m/fpv4-sp/hard\libg_nano.a(lib_a-month_lengths.o)
 .comment       0x0000003c       0x3d c:/program files/microchip/xc32/v2.40/bin/bin/../../lib/gcc/pic32c/6.2.1/../../../../pic32c/lib/v7e-m/fpv4-sp/hard\libg_nano.a(lib_a-nano-svfprintf.o)
 .comment       0x0000003c       0x3d c:/program files/microchip/xc32/v2.40/bin/bin/../../lib/gcc/pic32c/6.2.1/../../../../pic32c/lib/v7e-m/fpv4-sp/hard\libg_nano.a(lib_a-nano-vfprintf_i.o)
 .comment       0x0000003c       0x3d c:/program files/microchip/xc32/v2.40/bin/bin/../../lib/gcc/pic32c/6.2.1/../../../../pic32c/lib/v7e-m/fpv4-sp/hard\libg_nano.a(_lib_a-nano-vfscanf.cdnopsuxX.o)
 .comment       0x0000003c       0x3d c:/program files/microchip/xc32/v2.40/bin/bin/../../lib/gcc/pic32c/6.2.1/../../../../pic32c/lib/v7e-m/fpv4-sp/hard\libg_nano.a(lib_a-readr.o)
 .comment       0x0000003c       0x3d c:/program files/microchip/xc32/v2.40/bin/bin/../../lib/gcc/pic32c/6.2.1/../../../../pic32c/lib/v7e-m/fpv4-sp/hard\libg_nano.a(lib_a-reent.o)
 .comment       0x0000003c       0x3d c:/program files/microchip/xc32/v2.40/bin/bin/../../lib/gcc/pic32c/6.2.1/../../../../pic32c/lib/v7e-m/fpv4-sp/hard\libg_nano.a(lib_a-sccl.o)
 .comment       0x0000003c       0x3d c:/program files/microchip/xc32/v2.40/bin/bin/../../lib/gcc/pic32c/6.2.1/../../../../pic32c/lib/v7e-m/fpv4-sp/hard\libg_nano.a(lib_a-sscanf.o)
 .comment       0x0000003c       0x3d c:/program files/microchip/xc32/v2.40/bin/bin/../../lib/gcc/pic32c/6.2.1/../../../../pic32c/lib/v7e-m/fpv4-sp/hard\libg_nano.a(lib_a-__ssputs.o)
 .comment       0x0000003c       0x3d c:/program files/microchip/xc32/v2.40/bin/bin/../../lib/gcc/pic32c/6.2.1/../../../../pic32c/lib/v7e-m/fpv4-sp/hard\libg_nano.a(lib_a-ungetc.o)
 .comment       0x0000003c       0x3d c:/program files/microchip/xc32/v2.40/bin/bin/../../lib/gcc/pic32c/6.2.1/../../../../pic32c/lib/v7e-m/fpv4-sp/hard\libg_nano.a(lib_a-wcrtomb.o)
 .comment       0x0000003c       0x3d c:/program files/microchip/xc32/v2.40/bin/bin/../../lib/gcc/pic32c/6.2.1/../../../../pic32c/lib/v7e-m/fpv4-sp/hard\libg_nano.a(lib_a-environ.o)
 .comment       0x0000003c       0x3d c:/program files/microchip/xc32/v2.40/bin/bin/../../lib/gcc/pic32c/6.2.1/../../../../pic32c/lib/v7e-m/fpv4-sp/hard\libg_nano.a(lib_a-envlock.o)
 .comment       0x0000003c       0x3d c:/program files/microchip/xc32/v2.40/bin/bin/../../lib/gcc/pic32c/6.2.1/../../../../pic32c/lib/v7e-m/fpv4-sp/hard\libg_nano.a(lib_a-fstatr.o)
 .comment       0x0000003c       0x3d c:/program files/microchip/xc32/v2.40/bin/bin/../../lib/gcc/pic32c/6.2.1/../../../../pic32c/lib/v7e-m/fpv4-sp/hard\libg_nano.a(lib_a-isattyr.o)
 .comment       0x0000003c       0x3d c:/program files/microchip/xc32/v2.40/bin/bin/../../lib/gcc/pic32c/6.2.1/../../../../pic32c/lib/v7e-m/fpv4-sp/hard\libg_nano.a(lib_a-nano-reallocr.o)
 .comment       0x0000003c       0x3d c:/program files/microchip/xc32/v2.40/bin/bin/../../lib/gcc/pic32c/6.2.1/../../../../pic32c/lib/v7e-m/fpv4-sp/hard\libg_nano.a(lib_a-nano-svfscanf.o)
 .comment       0x0000003c       0x3d c:/program files/microchip/xc32/v2.40/bin/bin/../../lib/gcc/pic32c/6.2.1/../../../../pic32c/lib/v7e-m/fpv4-sp/hard\libg_nano.a(lib_a-nano-vfscanf_i.o)
 .comment       0x0000003c       0x3d c:/program files/microchip/xc32/v2.40/bin/bin/../../lib/gcc/pic32c/6.2.1/../../../../pic32c/lib/v7e-m/fpv4-sp/hard\libg_nano.a(lib_a-nano-msizer.o)
 .comment       0x0000003c       0x3d c:/program files/microchip/xc32/v2.40/bin/bin/../../lib/gcc/pic32c/6.2.1/../../../../pic32c/lib/v7e-m/fpv4-sp/hard\libpic32c.a(_close.o)
 .comment       0x0000003c       0x3d c:/program files/microchip/xc32/v2.40/bin/bin/../../lib/gcc/pic32c/6.2.1/../../../../pic32c/lib/v7e-m/fpv4-sp/hard\libpic32c.a(_fstat.o)
 .comment       0x0000003c       0x3d c:/program files/microchip/xc32/v2.40/bin/bin/../../lib/gcc/pic32c/6.2.1/../../../../pic32c/lib/v7e-m/fpv4-sp/hard\libpic32c.a(_isatty.o)
 .comment       0x0000003c       0x3d c:/program files/microchip/xc32/v2.40/bin/bin/../../lib/gcc/pic32c/6.2.1/../../../../pic32c/lib/v7e-m/fpv4-sp/hard\libpic32c.a(_lseek.o)
 .comment       0x0000003c       0x3d c:/program files/microchip/xc32/v2.40/bin/bin/../../lib/gcc/pic32c/6.2.1/../../../../pic32c/lib/v7e-m/fpv4-sp/hard\libpic32c.a(_read.o)
 .comment       0x0000003c       0x3d c:/program files/microchip/xc32/v2.40/bin/bin/../../lib/gcc/pic32c/6.2.1/../../../../pic32c/lib/v7e-m/fpv4-sp/hard\libpic32c.a(sbrk.o)
 .comment       0x0000003c       0x3d c:/program files/microchip/xc32/v2.40/bin/bin/../../lib/gcc/pic32c/6.2.1/../../../../pic32c/lib/v7e-m/fpv4-sp/hard\libpic32c.a(_write.o)
 .comment       0x0000003c       0x3d c:/program files/microchip/xc32/v2.40/bin/bin/../../lib/gcc/pic32c/6.2.1/../../../../pic32c/lib/v7e-m/fpv4-sp/hard\libpic32c.a(fstat.o)
 .comment       0x0000003c       0x3d c:/program files/microchip/xc32/v2.40/bin/bin/../../lib/gcc/pic32c/6.2.1/../../../../pic32c/lib/v7e-m/fpv4-sp/hard\libpic32c.a(isatty.o)
 .comment       0x0000003c       0x3d c:/program files/microchip/xc32/v2.40/bin/bin/../../lib/gcc/pic32c/6.2.1/../../../../pic32c/lib/v7e-m/fpv4-sp/hard\libpic32c.a(lseek.o)
 .comment       0x0000003c       0x3d c:/program files/microchip/xc32/v2.40/bin/bin/../../lib/gcc/pic32c/6.2.1/../../../../pic32c/lib/v7e-m/fpv4-sp/hard\libpic32c.a(read.o)
 .comment       0x0000003c       0x3d c:/program files/microchip/xc32/v2.40/bin/bin/../../lib/gcc/pic32c/6.2.1/../../../../pic32c/lib/v7e-m/fpv4-sp/hard\libpic32c.a(write.o)

.debug_info     0x00000000   0x205982
 .debug_info    0x00000000     0x1702 build/aws_demos/debug/_ext/665618993/plib_nvmctrl.o
 .debug_info    0x00001702      0x9aa build/aws_demos/debug/_ext/1385882503/port.o
 .debug_info    0x000020ac     0x153a build/aws_demos/debug/_ext/1168480030/heap_4.o
 .debug_info    0x000035e6     0x332d build/aws_demos/debug/_ext/787859085/atca_cert_chain.o
 .debug_info    0x00006913     0x5c4b build/aws_demos/debug/_ext/1972722184/iot_pkcs11_secure_element.o
 .debug_info    0x0000c55e     0x9257 build/aws_demos/debug/_ext/2009324866/aws_wifi.o
 .debug_info    0x000157b5     0x5b25 build/aws_demos/debug/_ext/2009324866/iot_secure_sockets.o
 .debug_info    0x0001b2da     0x3ca2 build/aws_demos/debug/_ext/1456806047/atcacert_client.o
 .debug_info    0x0001ef7c     0x2189 build/aws_demos/debug/_ext/1456806047/atcacert_date.o
 .debug_info    0x00021105     0x5ada build/aws_demos/debug/_ext/1456806047/atcacert_def.o
 .debug_info    0x00026bdf     0x16a6 build/aws_demos/debug/_ext/1456806047/atcacert_der.o
 .debug_info    0x00028285     0x2db3 build/aws_demos/debug/_ext/1456806047/atcacert_pem.o
 .debug_info    0x0002b038     0x1f1e build/aws_demos/debug/_ext/1009855837/atca_command.o
 .debug_info    0x0002cf56     0x1abc build/aws_demos/debug/_ext/1009855837/atca_device.o
 .debug_info    0x0002ea12     0x2878 build/aws_demos/debug/_ext/1009855837/atca_execution.o
 .debug_info    0x0003128a     0x29f5 build/aws_demos/debug/_ext/1009855837/atca_iface.o
 .debug_info    0x00033c7f     0x2e11 build/aws_demos/debug/_ext/306685378/atca_basic.o
 .debug_info    0x00036a90     0x29a2 build/aws_demos/debug/_ext/306685378/atca_basic_checkmac.o
 .debug_info    0x00039432     0x2d8c build/aws_demos/debug/_ext/306685378/atca_basic_ecdh.o
 .debug_info    0x0003c1be     0x2978 build/aws_demos/debug/_ext/306685378/atca_basic_gendig.o
 .debug_info    0x0003eb36     0x2a47 build/aws_demos/debug/_ext/306685378/atca_basic_genkey.o
 .debug_info    0x0004157d     0x2a67 build/aws_demos/debug/_ext/306685378/atca_basic_info.o
 .debug_info    0x00043fe4     0x2ae2 build/aws_demos/debug/_ext/306685378/atca_basic_lock.o
 .debug_info    0x00046ac6     0x2b8d build/aws_demos/debug/_ext/306685378/atca_basic_nonce.o
 .debug_info    0x00049653     0x2f33 build/aws_demos/debug/_ext/306685378/atca_basic_privwrite.o
 .debug_info    0x0004c586     0x290f build/aws_demos/debug/_ext/306685378/atca_basic_random.o
 .debug_info    0x0004ee95     0x3727 build/aws_demos/debug/_ext/306685378/atca_basic_read.o
 .debug_info    0x000525bc     0x2b0d build/aws_demos/debug/_ext/306685378/atca_basic_sign.o
 .debug_info    0x000550c9     0x295e build/aws_demos/debug/_ext/306685378/atca_basic_updateextra.o
 .debug_info    0x00057a27     0x31f3 build/aws_demos/debug/_ext/306685378/atca_basic_verify.o
 .debug_info    0x0005ac1a     0x3596 build/aws_demos/debug/_ext/306685378/atca_basic_write.o
 .debug_info    0x0005e1b0     0x36ef build/aws_demos/debug/_ext/306685378/atca_helpers.o
 .debug_info    0x0006189f     0x14e9 build/aws_demos/debug/_ext/961827245/atca_crypto_sw_sha1.o
 .debug_info    0x00062d88      0x9d0 build/aws_demos/debug/_ext/961827245/atca_crypto_sw_sha2.o
 .debug_info    0x00063758     0x12d1 build/aws_demos/debug/_ext/1070826718/sha1_routines.o
 .debug_info    0x00064a29     0x13e6 build/aws_demos/debug/_ext/1070826718/sha2_routines.o
 .debug_info    0x00065e0f     0x4191 build/aws_demos/debug/_ext/544104044/atca_host.o
 .debug_info    0x00069fa0     0x2be9 build/aws_demos/debug/_ext/1326886903/pkcs11_attrib.o
 .debug_info    0x0006cb89     0x39d4 build/aws_demos/debug/_ext/1326886903/pkcs11_cert.o
 .debug_info    0x0007055d     0x32ef build/aws_demos/debug/_ext/1326886903/pkcs11_config.o
 .debug_info    0x0007384c     0x32c2 build/aws_demos/debug/_ext/1326886903/pkcs11_digest.o
 .debug_info    0x00076b0e     0x3aa4 build/aws_demos/debug/_ext/1326886903/pkcs11_find.o
 .debug_info    0x0007a5b2     0x2c77 build/aws_demos/debug/_ext/1326886903/pkcs11_info.o
 .debug_info    0x0007d229     0x3506 build/aws_demos/debug/_ext/1326886903/pkcs11_init.o
 .debug_info    0x0008072f     0x40c2 build/aws_demos/debug/_ext/1326886903/pkcs11_key.o
 .debug_info    0x000847f1     0x6323 build/aws_demos/debug/_ext/1326886903/pkcs11_main.o
 .debug_info    0x0008ab14     0x329a build/aws_demos/debug/_ext/1326886903/pkcs11_mech.o
 .debug_info    0x0008ddae     0x3bd7 build/aws_demos/debug/_ext/1326886903/pkcs11_object.o
 .debug_info    0x00091985     0x2a5e build/aws_demos/debug/_ext/1326886903/pkcs11_os.o
 .debug_info    0x000943e3     0x3f4c build/aws_demos/debug/_ext/1326886903/pkcs11_session.o
 .debug_info    0x0009832f     0x3816 build/aws_demos/debug/_ext/1326886903/pkcs11_signature.o
 .debug_info    0x0009bb45     0x365f build/aws_demos/debug/_ext/1326886903/pkcs11_slot.o
 .debug_info    0x0009f1a4     0x4288 build/aws_demos/debug/_ext/1326886903/pkcs11_token.o
 .debug_info    0x000a342c     0x28b9 build/aws_demos/debug/_ext/1326886903/pkcs11_util.o
 .debug_info    0x000a5ce5      0xc2b build/aws_demos/debug/_ext/1110296786/plib_tc3.o
 .debug_info    0x000a6910     0x3a06 build/aws_demos/debug/_ext/484134862/sys_time.o
 .debug_info    0x000aa316      0x4be build/aws_demos/debug/_ext/1843304010/plib_trng.o
 .debug_info    0x000aa7d4     0x2986 build/aws_demos/debug/_ext/1534684544/sys_console_uart.o
 .debug_info    0x000ad15a     0x57b8 build/aws_demos/debug/_ext/2104392270/drv_spi.o
 .debug_info    0x000b2912     0x287b build/aws_demos/debug/_ext/2146650376/ATECC608A_0.o
 .debug_info    0x000b518d     0x11cd build/aws_demos/debug/_ext/1762024984/sys_int.o
 .debug_info    0x000b635a     0x14ae build/aws_demos/debug/_ext/959252812/sys_dma.o
 .debug_info    0x000b7808      0xa84 build/aws_demos/debug/_ext/1149029443/osal_freertos.o
 .debug_info    0x000b828c      0xefa build/aws_demos/debug/_ext/1360937237/app.o
 .debug_info    0x000b9186     0x1d7e build/aws_demos/debug/_ext/1534096987/tasks.o
 .debug_info    0x000baf04     0x1672 build/aws_demos/debug/_ext/731420310/plib_sercom2_usart.o
 .debug_info    0x000bc576      0x32c build/aws_demos/debug/_ext/1321577635/plib_evsys.o
 .debug_info    0x000bc8a2     0x5aac build/aws_demos/debug/_ext/1833802790/wdrv_winc.o
 .debug_info    0x000c234e     0x2077 build/aws_demos/debug/_ext/1833802790/wdrv_winc_authctx.o
 .debug_info    0x000c43c5     0x1fc1 build/aws_demos/debug/_ext/1833802790/wdrv_winc_bssctx.o
 .debug_info    0x000c6386     0x32e6 build/aws_demos/debug/_ext/1833802790/wdrv_winc_socket.o
 .debug_info    0x000c966c     0x305a build/aws_demos/debug/_ext/1833802790/wdrv_winc_sta.o
 .debug_info    0x000cc6c6     0x307d build/aws_demos/debug/_ext/1833802790/wdrv_winc_systime.o
 .debug_info    0x000cf743     0x1b68 build/aws_demos/debug/_ext/978667550/wdrv_winc_eint.o
 .debug_info    0x000d12ab     0x1d32 build/aws_demos/debug/_ext/978667550/wdrv_winc_gpio.o
 .debug_info    0x000d2fdd     0x2390 build/aws_demos/debug/_ext/384060547/wdrv_winc_spi.o
 .debug_info    0x000d536d     0x1b89 build/aws_demos/debug/_ext/1289849308/wdrv_winc_osal.o
 .debug_info    0x000d6ef6     0x1c1f build/aws_demos/debug/_ext/2059254151/nm_common.o
 .debug_info    0x000d8b15     0x3352 build/aws_demos/debug/_ext/2090543044/m2m_flash.o
 .debug_info    0x000dbe67     0x3205 build/aws_demos/debug/_ext/2090543044/m2m_hif.o
 .debug_info    0x000df06c     0x6467 build/aws_demos/debug/_ext/2090543044/m2m_wifi.o
 .debug_info    0x000e54d3     0x2ccc build/aws_demos/debug/_ext/2090543044/nmasic.o
 .debug_info    0x000e819f     0x216c build/aws_demos/debug/_ext/2090543044/nmbus.o
 .debug_info    0x000ea30b     0x2250 build/aws_demos/debug/_ext/2090543044/nmdrv.o
 .debug_info    0x000ec55b     0x3b1c build/aws_demos/debug/_ext/2090543044/nmflash.o
 .debug_info    0x000f0077     0x2df2 build/aws_demos/debug/_ext/2090543044/nmspi.o
 .debug_info    0x000f2e69     0x290f build/aws_demos/debug/_ext/1151736449/spi_flash.o
 .debug_info    0x000f5778     0x22cc build/aws_demos/debug/_ext/2090543044/m2m_ota.o
 .debug_info    0x000f7a44     0x2985 build/aws_demos/debug/_ext/2090543044/m2m_ssl.o
 .debug_info    0x000fa3c9     0x3e18 build/aws_demos/debug/_ext/1777946865/socket.o
 .debug_info    0x000fe1e1     0x142f build/aws_demos/debug/_ext/230789302/plib_sercom7_i2c_master.o
 .debug_info    0x000ff610     0x2ed7 build/aws_demos/debug/_ext/1991396724/sys_command.o
 .debug_info    0x001024e7     0x1db0 build/aws_demos/debug/_ext/731420310/plib_sercom6_usart.o
 .debug_info    0x00104297     0x34b2 build/aws_demos/debug/_ext/1360937237/main.o
 .debug_info    0x00107749     0x5366 build/aws_demos/debug/_ext/1534096987/initialization.o
 .debug_info    0x0010caaf     0x2e96 build/aws_demos/debug/_ext/1534096987/interrupts.o
 .debug_info    0x0010f945     0x1b32 build/aws_demos/debug/_ext/1534096987/exceptions.o
 .debug_info    0x00111477     0x1b27 build/aws_demos/debug/_ext/1263901141/xc32_monitor.o
 .debug_info    0x00112f9e      0x7f8 build/aws_demos/debug/_ext/1843425920/plib_port.o
 .debug_info    0x00113796      0xb62 build/aws_demos/debug/_ext/1323727121/plib_clock.o
 .debug_info    0x001142f8     0x1798 build/aws_demos/debug/_ext/1843479071/plib_nvic.o
 .debug_info    0x00115a90     0x19e0 build/aws_demos/debug/_ext/1843785878/plib_dmac.o
 .debug_info    0x00117470     0x1fc2 build/aws_demos/debug/_ext/1534096987/startup_xc32.o
 .debug_info    0x00119432     0x139a build/aws_demos/debug/_ext/1916130672/plib_sercom4_spi.o
 .debug_info    0x0011a7cc      0x736 build/aws_demos/debug/_ext/59476128/plib_eic.o
 .debug_info    0x0011af02     0x1273 build/aws_demos/debug/_ext/1931625852/sys_debug.o
 .debug_info    0x0011c175      0x6ad build/aws_demos/debug/_ext/1223942466/aws_demo.o
 .debug_info    0x0011c822     0x1fae build/aws_demos/debug/_ext/1223942466/iot_demo_freertos.o
 .debug_info    0x0011e7d0     0x12a7 build/aws_demos/debug/_ext/1223942466/iot_demo_runner.o
 .debug_info    0x0011fa77     0x5288 build/aws_demos/debug/_ext/198771642/aws_dev_mode_key_provisioning.o
 .debug_info    0x00124cff     0x2c5f build/aws_demos/debug/_ext/1441508942/iot_demo_mqtt.o
 .debug_info    0x0012795e     0x2ead build/aws_demos/debug/_ext/2040524622/aws_iot_network_manager.o
 .debug_info    0x0012a80b     0x1f9f build/aws_demos/debug/_ext/811507611/event_groups.o
 .debug_info    0x0012c7aa     0x1111 build/aws_demos/debug/_ext/811507611/list.o
 .debug_info    0x0012d8bb     0x3633 build/aws_demos/debug/_ext/811507611/queue.o
 .debug_info    0x00130eee     0x486f build/aws_demos/debug/_ext/811507611/tasks.o
 .debug_info    0x0013575d     0x2cd6 build/aws_demos/debug/_ext/811507611/timers.o
 .debug_info    0x00138433     0x1890 build/aws_demos/debug/_ext/684768522/asn1parse.o
 .debug_info    0x00139cc3     0x1d90 build/aws_demos/debug/_ext/684768522/asn1write.o
 .debug_info    0x0013ba53     0x13b0 build/aws_demos/debug/_ext/684768522/base64.o
 .debug_info    0x0013ce03     0x59f2 build/aws_demos/debug/_ext/684768522/bignum.o
 .debug_info    0x001427f5     0x2928 build/aws_demos/debug/_ext/684768522/ecdsa.o
 .debug_info    0x0014511d     0x65c3 build/aws_demos/debug/_ext/684768522/ecp.o
 .debug_info    0x0014b6e0     0x2518 build/aws_demos/debug/_ext/684768522/ecp_curves.o
 .debug_info    0x0014dbf8     0x1bee build/aws_demos/debug/_ext/684768522/md.o
 .debug_info    0x0014f7e6     0x1a43 build/aws_demos/debug/_ext/684768522/md_wrap.o
 .debug_info    0x00151229     0x2c47 build/aws_demos/debug/_ext/684768522/oid.o
 .debug_info    0x00153e70     0x11d7 build/aws_demos/debug/_ext/684768522/pem.o
 .debug_info    0x00155047     0x214f build/aws_demos/debug/_ext/684768522/pk.o
 .debug_info    0x00157196     0x2c9f build/aws_demos/debug/_ext/684768522/pkparse.o
 .debug_info    0x00159e35     0x2ec6 build/aws_demos/debug/_ext/684768522/pk_wrap.o
 .debug_info    0x0015ccfb     0x107d build/aws_demos/debug/_ext/684768522/platform.o
 .debug_info    0x0015dd78     0x1003 build/aws_demos/debug/_ext/684768522/platform_util.o
 .debug_info    0x0015ed7b     0x53c3 build/aws_demos/debug/_ext/684768522/rsa.o
 .debug_info    0x0016413e     0x1eee build/aws_demos/debug/_ext/684768522/rsa_internal.o
 .debug_info    0x0016602c     0x17b5 build/aws_demos/debug/_ext/684768522/sha1.o
 .debug_info    0x001677e1     0x18c0 build/aws_demos/debug/_ext/684768522/sha256.o
 .debug_info    0x001690a1     0x1082 build/aws_demos/debug/_ext/684768522/threading.o
 .debug_info    0x0016a123     0x2973 build/aws_demos/debug/_ext/684768522/x509.o
 .debug_info    0x0016ca96     0x542a build/aws_demos/debug/_ext/684768522/x509_crt.o
 .debug_info    0x00171ec0     0x13c7 build/aws_demos/debug/_ext/2077790016/mbedtls_utils.o
 .debug_info    0x00173287     0x17d7 build/aws_demos/debug/_ext/520142351/iot_clock_freertos.o
 .debug_info    0x00174a5e     0x2894 build/aws_demos/debug/_ext/520142351/iot_network_freertos.o
 .debug_info    0x001772f2     0x1464 build/aws_demos/debug/_ext/520142351/iot_threads_freertos.o
 .debug_info    0x00178756     0x18db build/aws_demos/debug/_ext/13066905/iot_device_metrics.o
 .debug_info    0x0017a031      0x613 build/aws_demos/debug/_ext/13066905/iot_init.o
 .debug_info    0x0017a644     0x1539 build/aws_demos/debug/_ext/227692215/iot_logging.o
 .debug_info    0x0017bb7d     0x1471 build/aws_demos/debug/_ext/227692215/iot_logging_task_dynamic_buffers.o
 .debug_info    0x0017cfee     0x50e3 build/aws_demos/debug/_ext/333408969/iot_taskpool.o
 .debug_info    0x001820d1     0x4f39 build/aws_demos/debug/_ext/1739149067/iot_mqtt_api.o
 .debug_info    0x0018700a     0x3506 build/aws_demos/debug/_ext/1739149067/iot_mqtt_network.o
 .debug_info    0x0018a510     0x462c build/aws_demos/debug/_ext/1739149067/iot_mqtt_operation.o
 .debug_info    0x0018eb3c     0x423a build/aws_demos/debug/_ext/1739149067/iot_mqtt_serialize.o
 .debug_info    0x00192d76     0x31cb build/aws_demos/debug/_ext/1739149067/iot_mqtt_subscription.o
 .debug_info    0x00195f41     0x2bb1 build/aws_demos/debug/_ext/1739149067/iot_mqtt_validate.o
 .debug_info    0x00198af2     0x2148 build/aws_demos/debug/_ext/350635301/iot_crypto.o
 .debug_info    0x0019ac3a     0x30a0 build/aws_demos/debug/_ext/2138053595/iot_pkcs11.o
 .debug_info    0x0019dcda      0x35a build/aws_demos/debug/_ext/1120274527/iot_system_init.o
 .debug_info    0x0019e034     0x1e8b build/aws_demos/debug/_ext/1534684544/sys_console.o
 .debug_info    0x0019febf     0x2ba5 build/aws_demos/debug/_ext/2146650376/hal_i2c_harmony.o
 .debug_info    0x001a2a64     0x29f7 build/aws_demos/debug/_ext/2146650376/atca_hal.o
 .debug_info    0x001a545b     0x21fa build/aws_demos/debug/_ext/2146650376/hal_freertos.o
 .debug_info    0x001a7655     0x286d build/aws_demos/debug/_ext/2146650376/hal_i2c_harmony_init.o
 .debug_info    0x001a9ec2      0x570 build/aws_demos/debug/_ext/2146650376/hal_cortex_m_delay.o
 .debug_info    0x001aa432      0x287 c:/program files/microchip/xc32/v2.40/bin/bin/../../lib/gcc/pic32c/6.2.1/../../../../pic32c/lib/v7e-m/fpv4-sp/hard\libpic32c.a(close.o)
 .debug_info    0x001aa6b9      0x2a2 c:/program files/microchip/xc32/v2.40/bin/bin/../../lib/gcc/pic32c/6.2.1/../../../../pic32c/lib/v7e-m/fpv4-sp/hard\libpic32c.a(data_init.o)
 .debug_info    0x001aa95b      0x102 c:/program files/microchip/xc32/v2.40/bin/bin/../../lib/gcc/pic32c/6.2.1/v7e-m/fpv4-sp/hard\libgcc.a(_arm_addsubdf3.o)
 .debug_info    0x001aaa5d      0x102 c:/program files/microchip/xc32/v2.40/bin/bin/../../lib/gcc/pic32c/6.2.1/v7e-m/fpv4-sp/hard\libgcc.a(_arm_muldivdf3.o)
 .debug_info    0x001aab5f      0x102 c:/program files/microchip/xc32/v2.40/bin/bin/../../lib/gcc/pic32c/6.2.1/v7e-m/fpv4-sp/hard\libgcc.a(_arm_fixunsdfsi.o)
 .debug_info    0x001aac61       0xfd c:/program files/microchip/xc32/v2.40/bin/bin/../../lib/gcc/pic32c/6.2.1/v7e-m/fpv4-sp/hard\libgcc.a(_aeabi_uldivmod.o)
 .debug_info    0x001aad5e     0x1696 c:/program files/microchip/xc32/v2.40/bin/bin/../../lib/gcc/pic32c/6.2.1/v7e-m/fpv4-sp/hard\libgcc.a(_udivmoddi4.o)
 .debug_info    0x001ac3f4      0x101 c:/program files/microchip/xc32/v2.40/bin/bin/../../lib/gcc/pic32c/6.2.1/v7e-m/fpv4-sp/hard\libgcc.a(_dvmd_tls.o)
 .debug_info    0x001ac4f5      0xe53 c:/program files/microchip/xc32/v2.40/bin/bin/../../lib/gcc/pic32c/6.2.1/../../../../pic32c/lib/v7e-m/fpv4-sp/hard\libg_nano.a(lib_a-calloc.o)
 .debug_info    0x001ad348      0xf8e c:/program files/microchip/xc32/v2.40/bin/bin/../../lib/gcc/pic32c/6.2.1/../../../../pic32c/lib/v7e-m/fpv4-sp/hard\libg_nano.a(lib_a-gmtime.o)
 .debug_info    0x001ae2d6     0x1092 c:/program files/microchip/xc32/v2.40/bin/bin/../../lib/gcc/pic32c/6.2.1/../../../../pic32c/lib/v7e-m/fpv4-sp/hard\libg_nano.a(lib_a-gmtime_r.o)
 .debug_info    0x001af368      0xdef c:/program files/microchip/xc32/v2.40/bin/bin/../../lib/gcc/pic32c/6.2.1/../../../../pic32c/lib/v7e-m/fpv4-sp/hard\libg_nano.a(lib_a-impure.o)
 .debug_info    0x001b0157      0x41f c:/program files/microchip/xc32/v2.40/bin/bin/../../lib/gcc/pic32c/6.2.1/../../../../pic32c/lib/v7e-m/fpv4-sp/hard\libg_nano.a(lib_a-init.o)
 .debug_info    0x001b0576     0x189e c:/program files/microchip/xc32/v2.40/bin/bin/../../lib/gcc/pic32c/6.2.1/../../../../pic32c/lib/v7e-m/fpv4-sp/hard\libg_nano.a(lib_a-locale.o)
 .debug_info    0x001b1e14      0xe92 c:/program files/microchip/xc32/v2.40/bin/bin/../../lib/gcc/pic32c/6.2.1/../../../../pic32c/lib/v7e-m/fpv4-sp/hard\libg_nano.a(lib_a-malloc.o)
 .debug_info    0x001b2ca6     0x1782 c:/program files/microchip/xc32/v2.40/bin/bin/../../lib/gcc/pic32c/6.2.1/../../../../pic32c/lib/v7e-m/fpv4-sp/hard\libg_nano.a(lib_a-mbtowc_r.o)
 .debug_info    0x001b4428      0x120 c:/program files/microchip/xc32/v2.40/bin/bin/../../lib/gcc/pic32c/6.2.1/../../../../pic32c/lib/v7e-m/fpv4-sp/hard\libg_nano.a(lib_a-memchr.o)
 .debug_info    0x001b4548      0xe49 c:/program files/microchip/xc32/v2.40/bin/bin/../../lib/gcc/pic32c/6.2.1/../../../../pic32c/lib/v7e-m/fpv4-sp/hard\libg_nano.a(lib_a-memcmp.o)
 .debug_info    0x001b5391      0xe68 c:/program files/microchip/xc32/v2.40/bin/bin/../../lib/gcc/pic32c/6.2.1/../../../../pic32c/lib/v7e-m/fpv4-sp/hard\libg_nano.a(lib_a-memcpy-stub.o)
 .debug_info    0x001b61f9     0x15de c:/program files/microchip/xc32/v2.40/bin/bin/../../lib/gcc/pic32c/6.2.1/../../../../pic32c/lib/v7e-m/fpv4-sp/hard\libg_nano.a(lib_a-memmove.o)
 .debug_info    0x001b77d7     0x15ae c:/program files/microchip/xc32/v2.40/bin/bin/../../lib/gcc/pic32c/6.2.1/../../../../pic32c/lib/v7e-m/fpv4-sp/hard\libg_nano.a(lib_a-memset.o)
 .debug_info    0x001b8d85     0x12ff c:/program files/microchip/xc32/v2.40/bin/bin/../../lib/gcc/pic32c/6.2.1/../../../../pic32c/lib/v7e-m/fpv4-sp/hard\libg_nano.a(lib_a-mktime.o)
 .debug_info    0x001ba084     0x10e1 c:/program files/microchip/xc32/v2.40/bin/bin/../../lib/gcc/pic32c/6.2.1/../../../../pic32c/lib/v7e-m/fpv4-sp/hard\libg_nano.a(lib_a-nano-callocr.o)
 .debug_info    0x001bb165     0x11c1 c:/program files/microchip/xc32/v2.40/bin/bin/../../lib/gcc/pic32c/6.2.1/../../../../pic32c/lib/v7e-m/fpv4-sp/hard\libg_nano.a(lib_a-nano-freer.o)
 .debug_info    0x001bc326     0x1259 c:/program files/microchip/xc32/v2.40/bin/bin/../../lib/gcc/pic32c/6.2.1/../../../../pic32c/lib/v7e-m/fpv4-sp/hard\libg_nano.a(lib_a-nano-mallocr.o)
 .debug_info    0x001bd57f     0x1d56 c:/program files/microchip/xc32/v2.40/bin/bin/../../lib/gcc/pic32c/6.2.1/../../../../pic32c/lib/v7e-m/fpv4-sp/hard\libg_nano.a(lib_a-nano-vfprintf.o)
 .debug_info    0x001bf2d5     0x1f41 c:/program files/microchip/xc32/v2.40/bin/bin/../../lib/gcc/pic32c/6.2.1/../../../../pic32c/lib/v7e-m/fpv4-sp/hard\libg_nano.a(_lib_a-nano-vfprintf.s.o)
 .debug_info    0x001c1216     0x124c c:/program files/microchip/xc32/v2.40/bin/bin/../../lib/gcc/pic32c/6.2.1/../../../../pic32c/lib/v7e-m/fpv4-sp/hard\libg_nano.a(lib_a-printf.o)
 .debug_info    0x001c2462     0x11cc c:/program files/microchip/xc32/v2.40/bin/bin/../../lib/gcc/pic32c/6.2.1/../../../../pic32c/lib/v7e-m/fpv4-sp/hard\libg_nano.a(lib_a-putchar.o)
 .debug_info    0x001c362e     0x1260 c:/program files/microchip/xc32/v2.40/bin/bin/../../lib/gcc/pic32c/6.2.1/../../../../pic32c/lib/v7e-m/fpv4-sp/hard\libg_nano.a(lib_a-putc.o)
 .debug_info    0x001c488e     0x12e5 c:/program files/microchip/xc32/v2.40/bin/bin/../../lib/gcc/pic32c/6.2.1/../../../../pic32c/lib/v7e-m/fpv4-sp/hard\libg_nano.a(lib_a-puts.o)
 .debug_info    0x001c5b73      0xeda c:/program files/microchip/xc32/v2.40/bin/bin/../../lib/gcc/pic32c/6.2.1/../../../../pic32c/lib/v7e-m/fpv4-sp/hard\libg_nano.a(lib_a-rand.o)
 .debug_info    0x001c6a4d      0xedf c:/program files/microchip/xc32/v2.40/bin/bin/../../lib/gcc/pic32c/6.2.1/../../../../pic32c/lib/v7e-m/fpv4-sp/hard\libg_nano.a(lib_a-sbrkr.o)
 .debug_info    0x001c792c     0x12cf c:/program files/microchip/xc32/v2.40/bin/bin/../../lib/gcc/pic32c/6.2.1/../../../../pic32c/lib/v7e-m/fpv4-sp/hard\libg_nano.a(lib_a-snprintf.o)
 .debug_info    0x001c8bfb     0x125c c:/program files/microchip/xc32/v2.40/bin/bin/../../lib/gcc/pic32c/6.2.1/../../../../pic32c/lib/v7e-m/fpv4-sp/hard\libg_nano.a(lib_a-sprintf.o)
 .debug_info    0x001c9e57     0x1954 c:/program files/microchip/xc32/v2.40/bin/bin/../../lib/gcc/pic32c/6.2.1/../../../../pic32c/lib/v7e-m/fpv4-sp/hard\libg_nano.a(lib_a-__ssfputs.o)
 .debug_info    0x001cb7ab     0x1422 c:/program files/microchip/xc32/v2.40/bin/bin/../../lib/gcc/pic32c/6.2.1/../../../../pic32c/lib/v7e-m/fpv4-sp/hard\libg_nano.a(lib_a-stdio.o)
 .debug_info    0x001ccbcd      0xe12 c:/program files/microchip/xc32/v2.40/bin/bin/../../lib/gcc/pic32c/6.2.1/../../../../pic32c/lib/v7e-m/fpv4-sp/hard\libg_nano.a(lib_a-strcat.o)
 .debug_info    0x001cd9df      0x129 c:/program files/microchip/xc32/v2.40/bin/bin/../../lib/gcc/pic32c/6.2.1/../../../../pic32c/lib/v7e-m/fpv4-sp/hard\libg_nano.a(lib_a-strcmp.o)
 .debug_info    0x001cdb08      0xe0b c:/program files/microchip/xc32/v2.40/bin/bin/../../lib/gcc/pic32c/6.2.1/../../../../pic32c/lib/v7e-m/fpv4-sp/hard\libg_nano.a(lib_a-strcpy.o)
 .debug_info    0x001ce913      0x12a c:/program files/microchip/xc32/v2.40/bin/bin/../../lib/gcc/pic32c/6.2.1/../../../../pic32c/lib/v7e-m/fpv4-sp/hard\libg_nano.a(lib_a-strlen.o)
 .debug_info    0x001cea3d      0xe24 c:/program files/microchip/xc32/v2.40/bin/bin/../../lib/gcc/pic32c/6.2.1/../../../../pic32c/lib/v7e-m/fpv4-sp/hard\libg_nano.a(lib_a-strncmp.o)
 .debug_info    0x001cf861      0xe4c c:/program files/microchip/xc32/v2.40/bin/bin/../../lib/gcc/pic32c/6.2.1/../../../../pic32c/lib/v7e-m/fpv4-sp/hard\libg_nano.a(lib_a-strncpy.o)
 .debug_info    0x001d06ad      0xe31 c:/program files/microchip/xc32/v2.40/bin/bin/../../lib/gcc/pic32c/6.2.1/../../../../pic32c/lib/v7e-m/fpv4-sp/hard\libg_nano.a(lib_a-strstr.o)
 .debug_info    0x001d14de     0x1936 c:/program files/microchip/xc32/v2.40/bin/bin/../../lib/gcc/pic32c/6.2.1/../../../../pic32c/lib/v7e-m/fpv4-sp/hard\libg_nano.a(lib_a-strtol.o)
 .debug_info    0x001d2e14     0x193b c:/program files/microchip/xc32/v2.40/bin/bin/../../lib/gcc/pic32c/6.2.1/../../../../pic32c/lib/v7e-m/fpv4-sp/hard\libg_nano.a(lib_a-strtoul.o)
 .debug_info    0x001d474f     0x1109 c:/program files/microchip/xc32/v2.40/bin/bin/../../lib/gcc/pic32c/6.2.1/../../../../pic32c/lib/v7e-m/fpv4-sp/hard\libg_nano.a(lib_a-tzcalc_limits.o)
 .debug_info    0x001d5858      0xe92 c:/program files/microchip/xc32/v2.40/bin/bin/../../lib/gcc/pic32c/6.2.1/../../../../pic32c/lib/v7e-m/fpv4-sp/hard\libg_nano.a(lib_a-tzset.o)
 .debug_info    0x001d66ea     0x1439 c:/program files/microchip/xc32/v2.40/bin/bin/../../lib/gcc/pic32c/6.2.1/../../../../pic32c/lib/v7e-m/fpv4-sp/hard\libg_nano.a(lib_a-tzset_r.o)
 .debug_info    0x001d7b23      0xea5 c:/program files/microchip/xc32/v2.40/bin/bin/../../lib/gcc/pic32c/6.2.1/../../../../pic32c/lib/v7e-m/fpv4-sp/hard\libg_nano.a(lib_a-tzvars.o)
 .debug_info    0x001d89c8     0x12aa c:/program files/microchip/xc32/v2.40/bin/bin/../../lib/gcc/pic32c/6.2.1/../../../../pic32c/lib/v7e-m/fpv4-sp/hard\libg_nano.a(lib_a-vsnprintf.o)
 .debug_info    0x001d9c72     0x1279 c:/program files/microchip/xc32/v2.40/bin/bin/../../lib/gcc/pic32c/6.2.1/../../../../pic32c/lib/v7e-m/fpv4-sp/hard\libg_nano.a(lib_a-wbuf.o)
 .debug_info    0x001daeeb     0x174d c:/program files/microchip/xc32/v2.40/bin/bin/../../lib/gcc/pic32c/6.2.1/../../../../pic32c/lib/v7e-m/fpv4-sp/hard\libg_nano.a(lib_a-wctomb_r.o)
 .debug_info    0x001dc638      0xefe c:/program files/microchip/xc32/v2.40/bin/bin/../../lib/gcc/pic32c/6.2.1/../../../../pic32c/lib/v7e-m/fpv4-sp/hard\libg_nano.a(lib_a-writer.o)
 .debug_info    0x001dd536     0x11f4 c:/program files/microchip/xc32/v2.40/bin/bin/../../lib/gcc/pic32c/6.2.1/../../../../pic32c/lib/v7e-m/fpv4-sp/hard\libg_nano.a(lib_a-wsetup.o)
 .debug_info    0x001de72a      0xead c:/program files/microchip/xc32/v2.40/bin/bin/../../lib/gcc/pic32c/6.2.1/../../../../pic32c/lib/v7e-m/fpv4-sp/hard\libg_nano.a(lib_a-closer.o)
 .debug_info    0x001df5d7     0x157f c:/program files/microchip/xc32/v2.40/bin/bin/../../lib/gcc/pic32c/6.2.1/../../../../pic32c/lib/v7e-m/fpv4-sp/hard\libg_nano.a(lib_a-ctype_.o)
 .debug_info    0x001e0b56      0xe54 c:/program files/microchip/xc32/v2.40/bin/bin/../../lib/gcc/pic32c/6.2.1/../../../../pic32c/lib/v7e-m/fpv4-sp/hard\libg_nano.a(lib_a-div.o)
 .debug_info    0x001e19aa     0x135a c:/program files/microchip/xc32/v2.40/bin/bin/../../lib/gcc/pic32c/6.2.1/../../../../pic32c/lib/v7e-m/fpv4-sp/hard\libg_nano.a(lib_a-fflush.o)
 .debug_info    0x001e2d04     0x1534 c:/program files/microchip/xc32/v2.40/bin/bin/../../lib/gcc/pic32c/6.2.1/../../../../pic32c/lib/v7e-m/fpv4-sp/hard\libg_nano.a(lib_a-findfp.o)
 .debug_info    0x001e4238     0x139e c:/program files/microchip/xc32/v2.40/bin/bin/../../lib/gcc/pic32c/6.2.1/../../../../pic32c/lib/v7e-m/fpv4-sp/hard\libg_nano.a(lib_a-fputwc.o)
 .debug_info    0x001e55d6     0x1263 c:/program files/microchip/xc32/v2.40/bin/bin/../../lib/gcc/pic32c/6.2.1/../../../../pic32c/lib/v7e-m/fpv4-sp/hard\libg_nano.a(lib_a-fwalk.o)
 .debug_info    0x001e6839      0xf8a c:/program files/microchip/xc32/v2.40/bin/bin/../../lib/gcc/pic32c/6.2.1/../../../../pic32c/lib/v7e-m/fpv4-sp/hard\libg_nano.a(lib_a-getenv_r.o)
 .debug_info    0x001e77c3     0x101a c:/program files/microchip/xc32/v2.40/bin/bin/../../lib/gcc/pic32c/6.2.1/../../../../pic32c/lib/v7e-m/fpv4-sp/hard\libg_nano.a(lib_a-gettzinfo.o)
 .debug_info    0x001e87dd      0xee5 c:/program files/microchip/xc32/v2.40/bin/bin/../../lib/gcc/pic32c/6.2.1/../../../../pic32c/lib/v7e-m/fpv4-sp/hard\libg_nano.a(lib_a-lseekr.o)
 .debug_info    0x001e96c2     0x15ab c:/program files/microchip/xc32/v2.40/bin/bin/../../lib/gcc/pic32c/6.2.1/../../../../pic32c/lib/v7e-m/fpv4-sp/hard\libg_nano.a(lib_a-makebuf.o)
 .debug_info    0x001eac6d      0xe2c c:/program files/microchip/xc32/v2.40/bin/bin/../../lib/gcc/pic32c/6.2.1/../../../../pic32c/lib/v7e-m/fpv4-sp/hard\libg_nano.a(lib_a-mlock.o)
 .debug_info    0x001eba99      0xed1 c:/program files/microchip/xc32/v2.40/bin/bin/../../lib/gcc/pic32c/6.2.1/../../../../pic32c/lib/v7e-m/fpv4-sp/hard\libg_nano.a(lib_a-month_lengths.o)
 .debug_info    0x001ec96a     0x1c97 c:/program files/microchip/xc32/v2.40/bin/bin/../../lib/gcc/pic32c/6.2.1/../../../../pic32c/lib/v7e-m/fpv4-sp/hard\libg_nano.a(lib_a-nano-svfprintf.o)
 .debug_info    0x001ee601     0x1db8 c:/program files/microchip/xc32/v2.40/bin/bin/../../lib/gcc/pic32c/6.2.1/../../../../pic32c/lib/v7e-m/fpv4-sp/hard\libg_nano.a(lib_a-nano-vfprintf_i.o)
 .debug_info    0x001f03b9     0x211d c:/program files/microchip/xc32/v2.40/bin/bin/../../lib/gcc/pic32c/6.2.1/../../../../pic32c/lib/v7e-m/fpv4-sp/hard\libg_nano.a(_lib_a-nano-vfscanf.cdnopsuxX.o)
 .debug_info    0x001f24d6      0xefc c:/program files/microchip/xc32/v2.40/bin/bin/../../lib/gcc/pic32c/6.2.1/../../../../pic32c/lib/v7e-m/fpv4-sp/hard\libg_nano.a(lib_a-readr.o)
 .debug_info    0x001f33d2      0xfe7 c:/program files/microchip/xc32/v2.40/bin/bin/../../lib/gcc/pic32c/6.2.1/../../../../pic32c/lib/v7e-m/fpv4-sp/hard\libg_nano.a(lib_a-reent.o)
 .debug_info    0x001f43b9     0x1152 c:/program files/microchip/xc32/v2.40/bin/bin/../../lib/gcc/pic32c/6.2.1/../../../../pic32c/lib/v7e-m/fpv4-sp/hard\libg_nano.a(lib_a-sccl.o)
 .debug_info    0x001f550b     0x1293 c:/program files/microchip/xc32/v2.40/bin/bin/../../lib/gcc/pic32c/6.2.1/../../../../pic32c/lib/v7e-m/fpv4-sp/hard\libg_nano.a(lib_a-sscanf.o)
 .debug_info    0x001f679e     0x1a76 c:/program files/microchip/xc32/v2.40/bin/bin/../../lib/gcc/pic32c/6.2.1/../../../../pic32c/lib/v7e-m/fpv4-sp/hard\libg_nano.a(lib_a-__ssputs.o)
 .debug_info    0x001f8214     0x1338 c:/program files/microchip/xc32/v2.40/bin/bin/../../lib/gcc/pic32c/6.2.1/../../../../pic32c/lib/v7e-m/fpv4-sp/hard\libg_nano.a(lib_a-ungetc.o)
 .debug_info    0x001f954c     0x175e c:/program files/microchip/xc32/v2.40/bin/bin/../../lib/gcc/pic32c/6.2.1/../../../../pic32c/lib/v7e-m/fpv4-sp/hard\libg_nano.a(lib_a-wcrtomb.o)
 .debug_info    0x001facaa      0x23c c:/program files/microchip/xc32/v2.40/bin/bin/../../lib/gcc/pic32c/6.2.1/../../../../pic32c/lib/v7e-m/fpv4-sp/hard\libg_nano.a(lib_a-environ.o)
 .debug_info    0x001faee6      0xe2a c:/program files/microchip/xc32/v2.40/bin/bin/../../lib/gcc/pic32c/6.2.1/../../../../pic32c/lib/v7e-m/fpv4-sp/hard\libg_nano.a(lib_a-envlock.o)
 .debug_info    0x001fbd10     0x11a8 c:/program files/microchip/xc32/v2.40/bin/bin/../../lib/gcc/pic32c/6.2.1/../../../../pic32c/lib/v7e-m/fpv4-sp/hard\libg_nano.a(lib_a-fstatr.o)
 .debug_info    0x001fceb8      0xeba c:/program files/microchip/xc32/v2.40/bin/bin/../../lib/gcc/pic32c/6.2.1/../../../../pic32c/lib/v7e-m/fpv4-sp/hard\libg_nano.a(lib_a-isattyr.o)
 .debug_info    0x001fdd72     0x1164 c:/program files/microchip/xc32/v2.40/bin/bin/../../lib/gcc/pic32c/6.2.1/../../../../pic32c/lib/v7e-m/fpv4-sp/hard\libg_nano.a(lib_a-nano-reallocr.o)
 .debug_info    0x001feed6     0x1e8b c:/program files/microchip/xc32/v2.40/bin/bin/../../lib/gcc/pic32c/6.2.1/../../../../pic32c/lib/v7e-m/fpv4-sp/hard\libg_nano.a(lib_a-nano-svfscanf.o)
 .debug_info    0x00200d61     0x1d2c c:/program files/microchip/xc32/v2.40/bin/bin/../../lib/gcc/pic32c/6.2.1/../../../../pic32c/lib/v7e-m/fpv4-sp/hard\libg_nano.a(lib_a-nano-vfscanf_i.o)
 .debug_info    0x00202a8d     0x109a c:/program files/microchip/xc32/v2.40/bin/bin/../../lib/gcc/pic32c/6.2.1/../../../../pic32c/lib/v7e-m/fpv4-sp/hard\libg_nano.a(lib_a-nano-msizer.o)
 .debug_info    0x00203b27      0x288 c:/program files/microchip/xc32/v2.40/bin/bin/../../lib/gcc/pic32c/6.2.1/../../../../pic32c/lib/v7e-m/fpv4-sp/hard\libpic32c.a(_close.o)
 .debug_info    0x00203daf      0x288 c:/program files/microchip/xc32/v2.40/bin/bin/../../lib/gcc/pic32c/6.2.1/../../../../pic32c/lib/v7e-m/fpv4-sp/hard\libpic32c.a(_fstat.o)
 .debug_info    0x00204037      0x28a c:/program files/microchip/xc32/v2.40/bin/bin/../../lib/gcc/pic32c/6.2.1/../../../../pic32c/lib/v7e-m/fpv4-sp/hard\libpic32c.a(_isatty.o)
 .debug_info    0x002042c1      0x288 c:/program files/microchip/xc32/v2.40/bin/bin/../../lib/gcc/pic32c/6.2.1/../../../../pic32c/lib/v7e-m/fpv4-sp/hard\libpic32c.a(_lseek.o)
 .debug_info    0x00204549      0x286 c:/program files/microchip/xc32/v2.40/bin/bin/../../lib/gcc/pic32c/6.2.1/../../../../pic32c/lib/v7e-m/fpv4-sp/hard\libpic32c.a(_read.o)
 .debug_info    0x002047cf      0x286 c:/program files/microchip/xc32/v2.40/bin/bin/../../lib/gcc/pic32c/6.2.1/../../../../pic32c/lib/v7e-m/fpv4-sp/hard\libpic32c.a(sbrk.o)
 .debug_info    0x00204a55      0x288 c:/program files/microchip/xc32/v2.40/bin/bin/../../lib/gcc/pic32c/6.2.1/../../../../pic32c/lib/v7e-m/fpv4-sp/hard\libpic32c.a(_write.o)
 .debug_info    0x00204cdd      0x287 c:/program files/microchip/xc32/v2.40/bin/bin/../../lib/gcc/pic32c/6.2.1/../../../../pic32c/lib/v7e-m/fpv4-sp/hard\libpic32c.a(fstat.o)
 .debug_info    0x00204f64      0x289 c:/program files/microchip/xc32/v2.40/bin/bin/../../lib/gcc/pic32c/6.2.1/../../../../pic32c/lib/v7e-m/fpv4-sp/hard\libpic32c.a(isatty.o)
 .debug_info    0x002051ed      0x287 c:/program files/microchip/xc32/v2.40/bin/bin/../../lib/gcc/pic32c/6.2.1/../../../../pic32c/lib/v7e-m/fpv4-sp/hard\libpic32c.a(lseek.o)
 .debug_info    0x00205474      0x286 c:/program files/microchip/xc32/v2.40/bin/bin/../../lib/gcc/pic32c/6.2.1/../../../../pic32c/lib/v7e-m/fpv4-sp/hard\libpic32c.a(read.o)
 .debug_info    0x002056fa      0x288 c:/program files/microchip/xc32/v2.40/bin/bin/../../lib/gcc/pic32c/6.2.1/../../../../pic32c/lib/v7e-m/fpv4-sp/hard\libpic32c.a(write.o)

.debug_abbrev   0x00000000    0x282a2
 .debug_abbrev  0x00000000      0x2b8 build/aws_demos/debug/_ext/665618993/plib_nvmctrl.o
 .debug_abbrev  0x000002b8      0x226 build/aws_demos/debug/_ext/1385882503/port.o
 .debug_abbrev  0x000004de      0x30c build/aws_demos/debug/_ext/1168480030/heap_4.o
 .debug_abbrev  0x000007ea      0x24b build/aws_demos/debug/_ext/787859085/atca_cert_chain.o
 .debug_abbrev  0x00000a35      0x3c2 build/aws_demos/debug/_ext/1972722184/iot_pkcs11_secure_element.o
 .debug_abbrev  0x00000df7      0x605 build/aws_demos/debug/_ext/2009324866/aws_wifi.o
 .debug_abbrev  0x000013fc      0x47d build/aws_demos/debug/_ext/2009324866/iot_secure_sockets.o
 .debug_abbrev  0x00001879      0x3d7 build/aws_demos/debug/_ext/1456806047/atcacert_client.o
 .debug_abbrev  0x00001c50      0x427 build/aws_demos/debug/_ext/1456806047/atcacert_date.o
 .debug_abbrev  0x00002077      0x45c build/aws_demos/debug/_ext/1456806047/atcacert_def.o
 .debug_abbrev  0x000024d3      0x289 build/aws_demos/debug/_ext/1456806047/atcacert_der.o
 .debug_abbrev  0x0000275c      0x2a7 build/aws_demos/debug/_ext/1456806047/atcacert_pem.o
 .debug_abbrev  0x00002a03      0x329 build/aws_demos/debug/_ext/1009855837/atca_command.o
 .debug_abbrev  0x00002d2c      0x277 build/aws_demos/debug/_ext/1009855837/atca_device.o
 .debug_abbrev  0x00002fa3      0x2a0 build/aws_demos/debug/_ext/1009855837/atca_execution.o
 .debug_abbrev  0x00003243      0x327 build/aws_demos/debug/_ext/1009855837/atca_iface.o
 .debug_abbrev  0x0000356a      0x35a build/aws_demos/debug/_ext/306685378/atca_basic.o
 .debug_abbrev  0x000038c4      0x286 build/aws_demos/debug/_ext/306685378/atca_basic_checkmac.o
 .debug_abbrev  0x00003b4a      0x2d8 build/aws_demos/debug/_ext/306685378/atca_basic_ecdh.o
 .debug_abbrev  0x00003e22      0x278 build/aws_demos/debug/_ext/306685378/atca_basic_gendig.o
 .debug_abbrev  0x0000409a      0x295 build/aws_demos/debug/_ext/306685378/atca_basic_genkey.o
 .debug_abbrev  0x0000432f      0x2b7 build/aws_demos/debug/_ext/306685378/atca_basic_info.o
 .debug_abbrev  0x000045e6      0x2a7 build/aws_demos/debug/_ext/306685378/atca_basic_lock.o
 .debug_abbrev  0x0000488d      0x299 build/aws_demos/debug/_ext/306685378/atca_basic_nonce.o
 .debug_abbrev  0x00004b26      0x2ec build/aws_demos/debug/_ext/306685378/atca_basic_privwrite.o
 .debug_abbrev  0x00004e12      0x278 build/aws_demos/debug/_ext/306685378/atca_basic_random.o
 .debug_abbrev  0x0000508a      0x39e build/aws_demos/debug/_ext/306685378/atca_basic_read.o
 .debug_abbrev  0x00005428      0x2b6 build/aws_demos/debug/_ext/306685378/atca_basic_sign.o
 .debug_abbrev  0x000056de      0x286 build/aws_demos/debug/_ext/306685378/atca_basic_updateextra.o
 .debug_abbrev  0x00005964      0x34f build/aws_demos/debug/_ext/306685378/atca_basic_verify.o
 .debug_abbrev  0x00005cb3      0x38b build/aws_demos/debug/_ext/306685378/atca_basic_write.o
 .debug_abbrev  0x0000603e      0x44b build/aws_demos/debug/_ext/306685378/atca_helpers.o
 .debug_abbrev  0x00006489      0x276 build/aws_demos/debug/_ext/961827245/atca_crypto_sw_sha1.o
 .debug_abbrev  0x000066ff      0x16b build/aws_demos/debug/_ext/961827245/atca_crypto_sw_sha2.o
 .debug_abbrev  0x0000686a      0x1fd build/aws_demos/debug/_ext/1070826718/sha1_routines.o
 .debug_abbrev  0x00006a67      0x243 build/aws_demos/debug/_ext/1070826718/sha2_routines.o
 .debug_abbrev  0x00006caa      0x382 build/aws_demos/debug/_ext/544104044/atca_host.o
 .debug_abbrev  0x0000702c      0x274 build/aws_demos/debug/_ext/1326886903/pkcs11_attrib.o
 .debug_abbrev  0x000072a0      0x2f8 build/aws_demos/debug/_ext/1326886903/pkcs11_cert.o
 .debug_abbrev  0x00007598      0x2af build/aws_demos/debug/_ext/1326886903/pkcs11_config.o
 .debug_abbrev  0x00007847      0x296 build/aws_demos/debug/_ext/1326886903/pkcs11_digest.o
 .debug_abbrev  0x00007add      0x425 build/aws_demos/debug/_ext/1326886903/pkcs11_find.o
 .debug_abbrev  0x00007f02      0x2a1 build/aws_demos/debug/_ext/1326886903/pkcs11_info.o
 .debug_abbrev  0x000081a3      0x348 build/aws_demos/debug/_ext/1326886903/pkcs11_init.o
 .debug_abbrev  0x000084eb      0x39d build/aws_demos/debug/_ext/1326886903/pkcs11_key.o
 .debug_abbrev  0x00008888      0x351 build/aws_demos/debug/_ext/1326886903/pkcs11_main.o
 .debug_abbrev  0x00008bd9      0x32d build/aws_demos/debug/_ext/1326886903/pkcs11_mech.o
 .debug_abbrev  0x00008f06      0x381 build/aws_demos/debug/_ext/1326886903/pkcs11_object.o
 .debug_abbrev  0x00009287      0x2a1 build/aws_demos/debug/_ext/1326886903/pkcs11_os.o
 .debug_abbrev  0x00009528      0x43b build/aws_demos/debug/_ext/1326886903/pkcs11_session.o
 .debug_abbrev  0x00009963      0x32f build/aws_demos/debug/_ext/1326886903/pkcs11_signature.o
 .debug_abbrev  0x00009c92      0x3e7 build/aws_demos/debug/_ext/1326886903/pkcs11_slot.o
 .debug_abbrev  0x0000a079      0x3d0 build/aws_demos/debug/_ext/1326886903/pkcs11_token.o
 .debug_abbrev  0x0000a449      0x254 build/aws_demos/debug/_ext/1326886903/pkcs11_util.o
 .debug_abbrev  0x0000a69d      0x1c1 build/aws_demos/debug/_ext/1110296786/plib_tc3.o
 .debug_abbrev  0x0000a85e      0x59e build/aws_demos/debug/_ext/484134862/sys_time.o
 .debug_abbrev  0x0000adfc       0xab build/aws_demos/debug/_ext/1843304010/plib_trng.o
 .debug_abbrev  0x0000aea7      0x3ce build/aws_demos/debug/_ext/1534684544/sys_console_uart.o
 .debug_abbrev  0x0000b275      0x4ef build/aws_demos/debug/_ext/2104392270/drv_spi.o
 .debug_abbrev  0x0000b764      0x206 build/aws_demos/debug/_ext/2146650376/ATECC608A_0.o
 .debug_abbrev  0x0000b96a      0x1fe build/aws_demos/debug/_ext/1762024984/sys_int.o
 .debug_abbrev  0x0000bb68      0x203 build/aws_demos/debug/_ext/959252812/sys_dma.o
 .debug_abbrev  0x0000bd6b      0x19d build/aws_demos/debug/_ext/1149029443/osal_freertos.o
 .debug_abbrev  0x0000bf08      0x21d build/aws_demos/debug/_ext/1360937237/app.o
 .debug_abbrev  0x0000c125      0x28c build/aws_demos/debug/_ext/1534096987/tasks.o
 .debug_abbrev  0x0000c3b1      0x335 build/aws_demos/debug/_ext/731420310/plib_sercom2_usart.o
 .debug_abbrev  0x0000c6e6       0x5c build/aws_demos/debug/_ext/1321577635/plib_evsys.o
 .debug_abbrev  0x0000c742      0x436 build/aws_demos/debug/_ext/1833802790/wdrv_winc.o
 .debug_abbrev  0x0000cb78      0x285 build/aws_demos/debug/_ext/1833802790/wdrv_winc_authctx.o
 .debug_abbrev  0x0000cdfd      0x2ce build/aws_demos/debug/_ext/1833802790/wdrv_winc_bssctx.o
 .debug_abbrev  0x0000d0cb      0x34d build/aws_demos/debug/_ext/1833802790/wdrv_winc_socket.o
 .debug_abbrev  0x0000d418      0x319 build/aws_demos/debug/_ext/1833802790/wdrv_winc_sta.o
 .debug_abbrev  0x0000d731      0x2b9 build/aws_demos/debug/_ext/1833802790/wdrv_winc_systime.o
 .debug_abbrev  0x0000d9ea      0x249 build/aws_demos/debug/_ext/978667550/wdrv_winc_eint.o
 .debug_abbrev  0x0000dc33      0x20c build/aws_demos/debug/_ext/978667550/wdrv_winc_gpio.o
 .debug_abbrev  0x0000de3f      0x2e5 build/aws_demos/debug/_ext/384060547/wdrv_winc_spi.o
 .debug_abbrev  0x0000e124      0x25a build/aws_demos/debug/_ext/1289849308/wdrv_winc_osal.o
 .debug_abbrev  0x0000e37e      0x298 build/aws_demos/debug/_ext/2059254151/nm_common.o
 .debug_abbrev  0x0000e616      0x4a1 build/aws_demos/debug/_ext/2090543044/m2m_flash.o
 .debug_abbrev  0x0000eab7      0x49d build/aws_demos/debug/_ext/2090543044/m2m_hif.o
 .debug_abbrev  0x0000ef54      0x489 build/aws_demos/debug/_ext/2090543044/m2m_wifi.o
 .debug_abbrev  0x0000f3dd      0x3bf build/aws_demos/debug/_ext/2090543044/nmasic.o
 .debug_abbrev  0x0000f79c      0x328 build/aws_demos/debug/_ext/2090543044/nmbus.o
 .debug_abbrev  0x0000fac4      0x2e4 build/aws_demos/debug/_ext/2090543044/nmdrv.o
 .debug_abbrev  0x0000fda8      0x4ae build/aws_demos/debug/_ext/2090543044/nmflash.o
 .debug_abbrev  0x00010256      0x440 build/aws_demos/debug/_ext/2090543044/nmspi.o
 .debug_abbrev  0x00010696      0x40e build/aws_demos/debug/_ext/1151736449/spi_flash.o
 .debug_abbrev  0x00010aa4      0x2bf build/aws_demos/debug/_ext/2090543044/m2m_ota.o
 .debug_abbrev  0x00010d63      0x388 build/aws_demos/debug/_ext/2090543044/m2m_ssl.o
 .debug_abbrev  0x000110eb      0x4a9 build/aws_demos/debug/_ext/1777946865/socket.o
 .debug_abbrev  0x00011594      0x28f build/aws_demos/debug/_ext/230789302/plib_sercom7_i2c_master.o
 .debug_abbrev  0x00011823      0x47c build/aws_demos/debug/_ext/1991396724/sys_command.o
 .debug_abbrev  0x00011c9f      0x447 build/aws_demos/debug/_ext/731420310/plib_sercom6_usart.o
 .debug_abbrev  0x000120e6      0x3da build/aws_demos/debug/_ext/1360937237/main.o
 .debug_abbrev  0x000124c0      0x2b7 build/aws_demos/debug/_ext/1534096987/initialization.o
 .debug_abbrev  0x00012777      0x212 build/aws_demos/debug/_ext/1534096987/interrupts.o
 .debug_abbrev  0x00012989      0x1ff build/aws_demos/debug/_ext/1534096987/exceptions.o
 .debug_abbrev  0x00012b88      0x273 build/aws_demos/debug/_ext/1263901141/xc32_monitor.o
 .debug_abbrev  0x00012dfb      0x15e build/aws_demos/debug/_ext/1843425920/plib_port.o
 .debug_abbrev  0x00012f59      0x112 build/aws_demos/debug/_ext/1323727121/plib_clock.o
 .debug_abbrev  0x0001306b      0x184 build/aws_demos/debug/_ext/1843479071/plib_nvic.o
 .debug_abbrev  0x000131ef      0x336 build/aws_demos/debug/_ext/1843785878/plib_dmac.o
 .debug_abbrev  0x00013525      0x2d4 build/aws_demos/debug/_ext/1534096987/startup_xc32.o
 .debug_abbrev  0x000137f9      0x24a build/aws_demos/debug/_ext/1916130672/plib_sercom4_spi.o
 .debug_abbrev  0x00013a43      0x184 build/aws_demos/debug/_ext/59476128/plib_eic.o
 .debug_abbrev  0x00013bc7      0x235 build/aws_demos/debug/_ext/1931625852/sys_debug.o
 .debug_abbrev  0x00013dfc       0xd2 build/aws_demos/debug/_ext/1223942466/aws_demo.o
 .debug_abbrev  0x00013ece      0x3c8 build/aws_demos/debug/_ext/1223942466/iot_demo_freertos.o
 .debug_abbrev  0x00014296      0x1e1 build/aws_demos/debug/_ext/1223942466/iot_demo_runner.o
 .debug_abbrev  0x00014477      0x445 build/aws_demos/debug/_ext/198771642/aws_dev_mode_key_provisioning.o
 .debug_abbrev  0x000148bc      0x3a0 build/aws_demos/debug/_ext/1441508942/iot_demo_mqtt.o
 .debug_abbrev  0x00014c5c      0x3c4 build/aws_demos/debug/_ext/2040524622/aws_iot_network_manager.o
 .debug_abbrev  0x00015020      0x3ed build/aws_demos/debug/_ext/811507611/event_groups.o
 .debug_abbrev  0x0001540d      0x22f build/aws_demos/debug/_ext/811507611/list.o
 .debug_abbrev  0x0001563c      0x434 build/aws_demos/debug/_ext/811507611/queue.o
 .debug_abbrev  0x00015a70      0x4c4 build/aws_demos/debug/_ext/811507611/tasks.o
 .debug_abbrev  0x00015f34      0x41a build/aws_demos/debug/_ext/811507611/timers.o
 .debug_abbrev  0x0001634e      0x2b1 build/aws_demos/debug/_ext/684768522/asn1parse.o
 .debug_abbrev  0x000165ff      0x32f build/aws_demos/debug/_ext/684768522/asn1write.o
 .debug_abbrev  0x0001692e      0x21f build/aws_demos/debug/_ext/684768522/base64.o
 .debug_abbrev  0x00016b4d      0x500 build/aws_demos/debug/_ext/684768522/bignum.o
 .debug_abbrev  0x0001704d      0x384 build/aws_demos/debug/_ext/684768522/ecdsa.o
 .debug_abbrev  0x000173d1      0x48b build/aws_demos/debug/_ext/684768522/ecp.o
 .debug_abbrev  0x0001785c      0x31b build/aws_demos/debug/_ext/684768522/ecp_curves.o
 .debug_abbrev  0x00017b77      0x3d4 build/aws_demos/debug/_ext/684768522/md.o
 .debug_abbrev  0x00017f4b      0x259 build/aws_demos/debug/_ext/684768522/md_wrap.o
 .debug_abbrev  0x000181a4      0x3b6 build/aws_demos/debug/_ext/684768522/oid.o
 .debug_abbrev  0x0001855a      0x27f build/aws_demos/debug/_ext/684768522/pem.o
 .debug_abbrev  0x000187d9      0x3e6 build/aws_demos/debug/_ext/684768522/pk.o
 .debug_abbrev  0x00018bbf      0x354 build/aws_demos/debug/_ext/684768522/pkparse.o
 .debug_abbrev  0x00018f13      0x45a build/aws_demos/debug/_ext/684768522/pk_wrap.o
 .debug_abbrev  0x0001936d      0x277 build/aws_demos/debug/_ext/684768522/platform.o
 .debug_abbrev  0x000195e4      0x1c7 build/aws_demos/debug/_ext/684768522/platform_util.o
 .debug_abbrev  0x000197ab      0x51c build/aws_demos/debug/_ext/684768522/rsa.o
 .debug_abbrev  0x00019cc7      0x29f build/aws_demos/debug/_ext/684768522/rsa_internal.o
 .debug_abbrev  0x00019f66      0x2d9 build/aws_demos/debug/_ext/684768522/sha1.o
 .debug_abbrev  0x0001a23f      0x2ee build/aws_demos/debug/_ext/684768522/sha256.o
 .debug_abbrev  0x0001a52d      0x202 build/aws_demos/debug/_ext/684768522/threading.o
 .debug_abbrev  0x0001a72f      0x34e build/aws_demos/debug/_ext/684768522/x509.o
 .debug_abbrev  0x0001aa7d      0x4a8 build/aws_demos/debug/_ext/684768522/x509_crt.o
 .debug_abbrev  0x0001af25      0x263 build/aws_demos/debug/_ext/2077790016/mbedtls_utils.o
 .debug_abbrev  0x0001b188      0x25e build/aws_demos/debug/_ext/520142351/iot_clock_freertos.o
 .debug_abbrev  0x0001b3e6      0x370 build/aws_demos/debug/_ext/520142351/iot_network_freertos.o
 .debug_abbrev  0x0001b756      0x239 build/aws_demos/debug/_ext/520142351/iot_threads_freertos.o
 .debug_abbrev  0x0001b98f      0x396 build/aws_demos/debug/_ext/13066905/iot_device_metrics.o
 .debug_abbrev  0x0001bd25      0x111 build/aws_demos/debug/_ext/13066905/iot_init.o
 .debug_abbrev  0x0001be36      0x2ef build/aws_demos/debug/_ext/227692215/iot_logging.o
 .debug_abbrev  0x0001c125      0x28d build/aws_demos/debug/_ext/227692215/iot_logging_task_dynamic_buffers.o
 .debug_abbrev  0x0001c3b2      0x44d build/aws_demos/debug/_ext/333408969/iot_taskpool.o
 .debug_abbrev  0x0001c7ff      0x4b7 build/aws_demos/debug/_ext/1739149067/iot_mqtt_api.o
 .debug_abbrev  0x0001ccb6      0x406 build/aws_demos/debug/_ext/1739149067/iot_mqtt_network.o
 .debug_abbrev  0x0001d0bc      0x3ec build/aws_demos/debug/_ext/1739149067/iot_mqtt_operation.o
 .debug_abbrev  0x0001d4a8      0x429 build/aws_demos/debug/_ext/1739149067/iot_mqtt_serialize.o
 .debug_abbrev  0x0001d8d1      0x3c3 build/aws_demos/debug/_ext/1739149067/iot_mqtt_subscription.o
 .debug_abbrev  0x0001dc94      0x2b2 build/aws_demos/debug/_ext/1739149067/iot_mqtt_validate.o
 .debug_abbrev  0x0001df46      0x38b build/aws_demos/debug/_ext/350635301/iot_crypto.o
 .debug_abbrev  0x0001e2d1      0x30d build/aws_demos/debug/_ext/2138053595/iot_pkcs11.o
 .debug_abbrev  0x0001e5de       0x74 build/aws_demos/debug/_ext/1120274527/iot_system_init.o
 .debug_abbrev  0x0001e652      0x3ca build/aws_demos/debug/_ext/1534684544/sys_console.o
 .debug_abbrev  0x0001ea1c      0x37a build/aws_demos/debug/_ext/2146650376/hal_i2c_harmony.o
 .debug_abbrev  0x0001ed96      0x2c4 build/aws_demos/debug/_ext/2146650376/atca_hal.o
 .debug_abbrev  0x0001f05a      0x27f build/aws_demos/debug/_ext/2146650376/hal_freertos.o
 .debug_abbrev  0x0001f2d9      0x202 build/aws_demos/debug/_ext/2146650376/hal_i2c_harmony_init.o
 .debug_abbrev  0x0001f4db      0x12a build/aws_demos/debug/_ext/2146650376/hal_cortex_m_delay.o
 .debug_abbrev  0x0001f605       0x2a c:/program files/microchip/xc32/v2.40/bin/bin/../../lib/gcc/pic32c/6.2.1/../../../../pic32c/lib/v7e-m/fpv4-sp/hard\libpic32c.a(close.o)
 .debug_abbrev  0x0001f62f       0x2a c:/program files/microchip/xc32/v2.40/bin/bin/../../lib/gcc/pic32c/6.2.1/../../../../pic32c/lib/v7e-m/fpv4-sp/hard\libpic32c.a(data_init.o)
 .debug_abbrev  0x0001f659       0x14 c:/program files/microchip/xc32/v2.40/bin/bin/../../lib/gcc/pic32c/6.2.1/v7e-m/fpv4-sp/hard\libgcc.a(_arm_addsubdf3.o)
 .debug_abbrev  0x0001f66d       0x14 c:/program files/microchip/xc32/v2.40/bin/bin/../../lib/gcc/pic32c/6.2.1/v7e-m/fpv4-sp/hard\libgcc.a(_arm_muldivdf3.o)
 .debug_abbrev  0x0001f681       0x14 c:/program files/microchip/xc32/v2.40/bin/bin/../../lib/gcc/pic32c/6.2.1/v7e-m/fpv4-sp/hard\libgcc.a(_arm_fixunsdfsi.o)
 .debug_abbrev  0x0001f695       0x14 c:/program files/microchip/xc32/v2.40/bin/bin/../../lib/gcc/pic32c/6.2.1/v7e-m/fpv4-sp/hard\libgcc.a(_aeabi_uldivmod.o)
 .debug_abbrev  0x0001f6a9      0x163 c:/program files/microchip/xc32/v2.40/bin/bin/../../lib/gcc/pic32c/6.2.1/v7e-m/fpv4-sp/hard\libgcc.a(_udivmoddi4.o)
 .debug_abbrev  0x0001f80c       0x14 c:/program files/microchip/xc32/v2.40/bin/bin/../../lib/gcc/pic32c/6.2.1/v7e-m/fpv4-sp/hard\libgcc.a(_dvmd_tls.o)
 .debug_abbrev  0x0001f820      0x187 c:/program files/microchip/xc32/v2.40/bin/bin/../../lib/gcc/pic32c/6.2.1/../../../../pic32c/lib/v7e-m/fpv4-sp/hard\libg_nano.a(lib_a-calloc.o)
 .debug_abbrev  0x0001f9a7      0x1bc c:/program files/microchip/xc32/v2.40/bin/bin/../../lib/gcc/pic32c/6.2.1/../../../../pic32c/lib/v7e-m/fpv4-sp/hard\libg_nano.a(lib_a-gmtime.o)
 .debug_abbrev  0x0001fb63      0x18a c:/program files/microchip/xc32/v2.40/bin/bin/../../lib/gcc/pic32c/6.2.1/../../../../pic32c/lib/v7e-m/fpv4-sp/hard\libg_nano.a(lib_a-gmtime_r.o)
 .debug_abbrev  0x0001fced      0x131 c:/program files/microchip/xc32/v2.40/bin/bin/../../lib/gcc/pic32c/6.2.1/../../../../pic32c/lib/v7e-m/fpv4-sp/hard\libg_nano.a(lib_a-impure.o)
 .debug_abbrev  0x0001fe1e       0xa3 c:/program files/microchip/xc32/v2.40/bin/bin/../../lib/gcc/pic32c/6.2.1/../../../../pic32c/lib/v7e-m/fpv4-sp/hard\libg_nano.a(lib_a-init.o)
 .debug_abbrev  0x0001fec1      0x256 c:/program files/microchip/xc32/v2.40/bin/bin/../../lib/gcc/pic32c/6.2.1/../../../../pic32c/lib/v7e-m/fpv4-sp/hard\libg_nano.a(lib_a-locale.o)
 .debug_abbrev  0x00020117      0x1b3 c:/program files/microchip/xc32/v2.40/bin/bin/../../lib/gcc/pic32c/6.2.1/../../../../pic32c/lib/v7e-m/fpv4-sp/hard\libg_nano.a(lib_a-malloc.o)
 .debug_abbrev  0x000202ca      0x1be c:/program files/microchip/xc32/v2.40/bin/bin/../../lib/gcc/pic32c/6.2.1/../../../../pic32c/lib/v7e-m/fpv4-sp/hard\libg_nano.a(lib_a-mbtowc_r.o)
 .debug_abbrev  0x00020488       0x14 c:/program files/microchip/xc32/v2.40/bin/bin/../../lib/gcc/pic32c/6.2.1/../../../../pic32c/lib/v7e-m/fpv4-sp/hard\libg_nano.a(lib_a-memchr.o)
 .debug_abbrev  0x0002049c      0x15e c:/program files/microchip/xc32/v2.40/bin/bin/../../lib/gcc/pic32c/6.2.1/../../../../pic32c/lib/v7e-m/fpv4-sp/hard\libg_nano.a(lib_a-memcmp.o)
 .debug_abbrev  0x000205fa      0x17c c:/program files/microchip/xc32/v2.40/bin/bin/../../lib/gcc/pic32c/6.2.1/../../../../pic32c/lib/v7e-m/fpv4-sp/hard\libg_nano.a(lib_a-memcpy-stub.o)
 .debug_abbrev  0x00020776      0x175 c:/program files/microchip/xc32/v2.40/bin/bin/../../lib/gcc/pic32c/6.2.1/../../../../pic32c/lib/v7e-m/fpv4-sp/hard\libg_nano.a(lib_a-memmove.o)
 .debug_abbrev  0x000208eb      0x170 c:/program files/microchip/xc32/v2.40/bin/bin/../../lib/gcc/pic32c/6.2.1/../../../../pic32c/lib/v7e-m/fpv4-sp/hard\libg_nano.a(lib_a-memset.o)
 .debug_abbrev  0x00020a5b      0x205 c:/program files/microchip/xc32/v2.40/bin/bin/../../lib/gcc/pic32c/6.2.1/../../../../pic32c/lib/v7e-m/fpv4-sp/hard\libg_nano.a(lib_a-mktime.o)
 .debug_abbrev  0x00020c60      0x1b9 c:/program files/microchip/xc32/v2.40/bin/bin/../../lib/gcc/pic32c/6.2.1/../../../../pic32c/lib/v7e-m/fpv4-sp/hard\libg_nano.a(lib_a-nano-callocr.o)
 .debug_abbrev  0x00020e19      0x242 c:/program files/microchip/xc32/v2.40/bin/bin/../../lib/gcc/pic32c/6.2.1/../../../../pic32c/lib/v7e-m/fpv4-sp/hard\libg_nano.a(lib_a-nano-freer.o)
 .debug_abbrev  0x0002105b      0x281 c:/program files/microchip/xc32/v2.40/bin/bin/../../lib/gcc/pic32c/6.2.1/../../../../pic32c/lib/v7e-m/fpv4-sp/hard\libg_nano.a(lib_a-nano-mallocr.o)
 .debug_abbrev  0x000212dc      0x25a c:/program files/microchip/xc32/v2.40/bin/bin/../../lib/gcc/pic32c/6.2.1/../../../../pic32c/lib/v7e-m/fpv4-sp/hard\libg_nano.a(lib_a-nano-vfprintf.o)
 .debug_abbrev  0x00021536      0x31d c:/program files/microchip/xc32/v2.40/bin/bin/../../lib/gcc/pic32c/6.2.1/../../../../pic32c/lib/v7e-m/fpv4-sp/hard\libg_nano.a(_lib_a-nano-vfprintf.s.o)
 .debug_abbrev  0x00021853      0x218 c:/program files/microchip/xc32/v2.40/bin/bin/../../lib/gcc/pic32c/6.2.1/../../../../pic32c/lib/v7e-m/fpv4-sp/hard\libg_nano.a(lib_a-printf.o)
 .debug_abbrev  0x00021a6b      0x1eb c:/program files/microchip/xc32/v2.40/bin/bin/../../lib/gcc/pic32c/6.2.1/../../../../pic32c/lib/v7e-m/fpv4-sp/hard\libg_nano.a(lib_a-putchar.o)
 .debug_abbrev  0x00021c56      0x237 c:/program files/microchip/xc32/v2.40/bin/bin/../../lib/gcc/pic32c/6.2.1/../../../../pic32c/lib/v7e-m/fpv4-sp/hard\libg_nano.a(lib_a-putc.o)
 .debug_abbrev  0x00021e8d      0x25f c:/program files/microchip/xc32/v2.40/bin/bin/../../lib/gcc/pic32c/6.2.1/../../../../pic32c/lib/v7e-m/fpv4-sp/hard\libg_nano.a(lib_a-puts.o)
 .debug_abbrev  0x000220ec      0x1c6 c:/program files/microchip/xc32/v2.40/bin/bin/../../lib/gcc/pic32c/6.2.1/../../../../pic32c/lib/v7e-m/fpv4-sp/hard\libg_nano.a(lib_a-rand.o)
 .debug_abbrev  0x000222b2      0x1a8 c:/program files/microchip/xc32/v2.40/bin/bin/../../lib/gcc/pic32c/6.2.1/../../../../pic32c/lib/v7e-m/fpv4-sp/hard\libg_nano.a(lib_a-sbrkr.o)
 .debug_abbrev  0x0002245a      0x1e2 c:/program files/microchip/xc32/v2.40/bin/bin/../../lib/gcc/pic32c/6.2.1/../../../../pic32c/lib/v7e-m/fpv4-sp/hard\libg_nano.a(lib_a-snprintf.o)
 .debug_abbrev  0x0002263c      0x1ea c:/program files/microchip/xc32/v2.40/bin/bin/../../lib/gcc/pic32c/6.2.1/../../../../pic32c/lib/v7e-m/fpv4-sp/hard\libg_nano.a(lib_a-sprintf.o)
 .debug_abbrev  0x00022826      0x1f9 c:/program files/microchip/xc32/v2.40/bin/bin/../../lib/gcc/pic32c/6.2.1/../../../../pic32c/lib/v7e-m/fpv4-sp/hard\libg_nano.a(lib_a-__ssfputs.o)
 .debug_abbrev  0x00022a1f      0x23f c:/program files/microchip/xc32/v2.40/bin/bin/../../lib/gcc/pic32c/6.2.1/../../../../pic32c/lib/v7e-m/fpv4-sp/hard\libg_nano.a(lib_a-stdio.o)
 .debug_abbrev  0x00022c5e      0x157 c:/program files/microchip/xc32/v2.40/bin/bin/../../lib/gcc/pic32c/6.2.1/../../../../pic32c/lib/v7e-m/fpv4-sp/hard\libg_nano.a(lib_a-strcat.o)
 .debug_abbrev  0x00022db5       0x14 c:/program files/microchip/xc32/v2.40/bin/bin/../../lib/gcc/pic32c/6.2.1/../../../../pic32c/lib/v7e-m/fpv4-sp/hard\libg_nano.a(lib_a-strcmp.o)
 .debug_abbrev  0x00022dc9      0x157 c:/program files/microchip/xc32/v2.40/bin/bin/../../lib/gcc/pic32c/6.2.1/../../../../pic32c/lib/v7e-m/fpv4-sp/hard\libg_nano.a(lib_a-strcpy.o)
 .debug_abbrev  0x00022f20       0x14 c:/program files/microchip/xc32/v2.40/bin/bin/../../lib/gcc/pic32c/6.2.1/../../../../pic32c/lib/v7e-m/fpv4-sp/hard\libg_nano.a(lib_a-strlen.o)
 .debug_abbrev  0x00022f34      0x148 c:/program files/microchip/xc32/v2.40/bin/bin/../../lib/gcc/pic32c/6.2.1/../../../../pic32c/lib/v7e-m/fpv4-sp/hard\libg_nano.a(lib_a-strncmp.o)
 .debug_abbrev  0x0002307c      0x166 c:/program files/microchip/xc32/v2.40/bin/bin/../../lib/gcc/pic32c/6.2.1/../../../../pic32c/lib/v7e-m/fpv4-sp/hard\libg_nano.a(lib_a-strncpy.o)
 .debug_abbrev  0x000231e2      0x16d c:/program files/microchip/xc32/v2.40/bin/bin/../../lib/gcc/pic32c/6.2.1/../../../../pic32c/lib/v7e-m/fpv4-sp/hard\libg_nano.a(lib_a-strstr.o)
 .debug_abbrev  0x0002334f      0x217 c:/program files/microchip/xc32/v2.40/bin/bin/../../lib/gcc/pic32c/6.2.1/../../../../pic32c/lib/v7e-m/fpv4-sp/hard\libg_nano.a(lib_a-strtol.o)
 .debug_abbrev  0x00023566      0x217 c:/program files/microchip/xc32/v2.40/bin/bin/../../lib/gcc/pic32c/6.2.1/../../../../pic32c/lib/v7e-m/fpv4-sp/hard\libg_nano.a(lib_a-strtoul.o)
 .debug_abbrev  0x0002377d      0x192 c:/program files/microchip/xc32/v2.40/bin/bin/../../lib/gcc/pic32c/6.2.1/../../../../pic32c/lib/v7e-m/fpv4-sp/hard\libg_nano.a(lib_a-tzcalc_limits.o)
 .debug_abbrev  0x0002390f      0x179 c:/program files/microchip/xc32/v2.40/bin/bin/../../lib/gcc/pic32c/6.2.1/../../../../pic32c/lib/v7e-m/fpv4-sp/hard\libg_nano.a(lib_a-tzset.o)
 .debug_abbrev  0x00023a88      0x223 c:/program files/microchip/xc32/v2.40/bin/bin/../../lib/gcc/pic32c/6.2.1/../../../../pic32c/lib/v7e-m/fpv4-sp/hard\libg_nano.a(lib_a-tzset_r.o)
 .debug_abbrev  0x00023cab      0x135 c:/program files/microchip/xc32/v2.40/bin/bin/../../lib/gcc/pic32c/6.2.1/../../../../pic32c/lib/v7e-m/fpv4-sp/hard\libg_nano.a(lib_a-tzvars.o)
 .debug_abbrev  0x00023de0      0x1ce c:/program files/microchip/xc32/v2.40/bin/bin/../../lib/gcc/pic32c/6.2.1/../../../../pic32c/lib/v7e-m/fpv4-sp/hard\libg_nano.a(lib_a-vsnprintf.o)
 .debug_abbrev  0x00023fae      0x216 c:/program files/microchip/xc32/v2.40/bin/bin/../../lib/gcc/pic32c/6.2.1/../../../../pic32c/lib/v7e-m/fpv4-sp/hard\libg_nano.a(lib_a-wbuf.o)
 .debug_abbrev  0x000241c4      0x1da c:/program files/microchip/xc32/v2.40/bin/bin/../../lib/gcc/pic32c/6.2.1/../../../../pic32c/lib/v7e-m/fpv4-sp/hard\libg_nano.a(lib_a-wctomb_r.o)
 .debug_abbrev  0x0002439e      0x198 c:/program files/microchip/xc32/v2.40/bin/bin/../../lib/gcc/pic32c/6.2.1/../../../../pic32c/lib/v7e-m/fpv4-sp/hard\libg_nano.a(lib_a-writer.o)
 .debug_abbrev  0x00024536      0x1ec c:/program files/microchip/xc32/v2.40/bin/bin/../../lib/gcc/pic32c/6.2.1/../../../../pic32c/lib/v7e-m/fpv4-sp/hard\libg_nano.a(lib_a-wsetup.o)
 .debug_abbrev  0x00024722      0x193 c:/program files/microchip/xc32/v2.40/bin/bin/../../lib/gcc/pic32c/6.2.1/../../../../pic32c/lib/v7e-m/fpv4-sp/hard\libg_nano.a(lib_a-closer.o)
 .debug_abbrev  0x000248b5      0x131 c:/program files/microchip/xc32/v2.40/bin/bin/../../lib/gcc/pic32c/6.2.1/../../../../pic32c/lib/v7e-m/fpv4-sp/hard\libg_nano.a(lib_a-ctype_.o)
 .debug_abbrev  0x000249e6      0x168 c:/program files/microchip/xc32/v2.40/bin/bin/../../lib/gcc/pic32c/6.2.1/../../../../pic32c/lib/v7e-m/fpv4-sp/hard\libg_nano.a(lib_a-div.o)
 .debug_abbrev  0x00024b4e      0x29e c:/program files/microchip/xc32/v2.40/bin/bin/../../lib/gcc/pic32c/6.2.1/../../../../pic32c/lib/v7e-m/fpv4-sp/hard\libg_nano.a(lib_a-fflush.o)
 .debug_abbrev  0x00024dec      0x2b5 c:/program files/microchip/xc32/v2.40/bin/bin/../../lib/gcc/pic32c/6.2.1/../../../../pic32c/lib/v7e-m/fpv4-sp/hard\libg_nano.a(lib_a-findfp.o)
 .debug_abbrev  0x000250a1      0x27f c:/program files/microchip/xc32/v2.40/bin/bin/../../lib/gcc/pic32c/6.2.1/../../../../pic32c/lib/v7e-m/fpv4-sp/hard\libg_nano.a(lib_a-fputwc.o)
 .debug_abbrev  0x00025320      0x1ad c:/program files/microchip/xc32/v2.40/bin/bin/../../lib/gcc/pic32c/6.2.1/../../../../pic32c/lib/v7e-m/fpv4-sp/hard\libg_nano.a(lib_a-fwalk.o)
 .debug_abbrev  0x000254cd      0x1dd c:/program files/microchip/xc32/v2.40/bin/bin/../../lib/gcc/pic32c/6.2.1/../../../../pic32c/lib/v7e-m/fpv4-sp/hard\libg_nano.a(lib_a-getenv_r.o)
 .debug_abbrev  0x000256aa      0x15b c:/program files/microchip/xc32/v2.40/bin/bin/../../lib/gcc/pic32c/6.2.1/../../../../pic32c/lib/v7e-m/fpv4-sp/hard\libg_nano.a(lib_a-gettzinfo.o)
 .debug_abbrev  0x00025805      0x193 c:/program files/microchip/xc32/v2.40/bin/bin/../../lib/gcc/pic32c/6.2.1/../../../../pic32c/lib/v7e-m/fpv4-sp/hard\libg_nano.a(lib_a-lseekr.o)
 .debug_abbrev  0x00025998      0x268 c:/program files/microchip/xc32/v2.40/bin/bin/../../lib/gcc/pic32c/6.2.1/../../../../pic32c/lib/v7e-m/fpv4-sp/hard\libg_nano.a(lib_a-makebuf.o)
 .debug_abbrev  0x00025c00      0x165 c:/program files/microchip/xc32/v2.40/bin/bin/../../lib/gcc/pic32c/6.2.1/../../../../pic32c/lib/v7e-m/fpv4-sp/hard\libg_nano.a(lib_a-mlock.o)
 .debug_abbrev  0x00025d65      0x139 c:/program files/microchip/xc32/v2.40/bin/bin/../../lib/gcc/pic32c/6.2.1/../../../../pic32c/lib/v7e-m/fpv4-sp/hard\libg_nano.a(lib_a-month_lengths.o)
 .debug_abbrev  0x00025e9e      0x239 c:/program files/microchip/xc32/v2.40/bin/bin/../../lib/gcc/pic32c/6.2.1/../../../../pic32c/lib/v7e-m/fpv4-sp/hard\libg_nano.a(lib_a-nano-svfprintf.o)
 .debug_abbrev  0x000260d7      0x225 c:/program files/microchip/xc32/v2.40/bin/bin/../../lib/gcc/pic32c/6.2.1/../../../../pic32c/lib/v7e-m/fpv4-sp/hard\libg_nano.a(lib_a-nano-vfprintf_i.o)
 .debug_abbrev  0x000262fc      0x2ee c:/program files/microchip/xc32/v2.40/bin/bin/../../lib/gcc/pic32c/6.2.1/../../../../pic32c/lib/v7e-m/fpv4-sp/hard\libg_nano.a(_lib_a-nano-vfscanf.cdnopsuxX.o)
 .debug_abbrev  0x000265ea      0x193 c:/program files/microchip/xc32/v2.40/bin/bin/../../lib/gcc/pic32c/6.2.1/../../../../pic32c/lib/v7e-m/fpv4-sp/hard\libg_nano.a(lib_a-readr.o)
 .debug_abbrev  0x0002677d      0x1f8 c:/program files/microchip/xc32/v2.40/bin/bin/../../lib/gcc/pic32c/6.2.1/../../../../pic32c/lib/v7e-m/fpv4-sp/hard\libg_nano.a(lib_a-reent.o)
 .debug_abbrev  0x00026975      0x191 c:/program files/microchip/xc32/v2.40/bin/bin/../../lib/gcc/pic32c/6.2.1/../../../../pic32c/lib/v7e-m/fpv4-sp/hard\libg_nano.a(lib_a-sccl.o)
 .debug_abbrev  0x00026b06      0x209 c:/program files/microchip/xc32/v2.40/bin/bin/../../lib/gcc/pic32c/6.2.1/../../../../pic32c/lib/v7e-m/fpv4-sp/hard\libg_nano.a(lib_a-sscanf.o)
 .debug_abbrev  0x00026d0f      0x20a c:/program files/microchip/xc32/v2.40/bin/bin/../../lib/gcc/pic32c/6.2.1/../../../../pic32c/lib/v7e-m/fpv4-sp/hard\libg_nano.a(lib_a-__ssputs.o)
 .debug_abbrev  0x00026f19      0x27d c:/program files/microchip/xc32/v2.40/bin/bin/../../lib/gcc/pic32c/6.2.1/../../../../pic32c/lib/v7e-m/fpv4-sp/hard\libg_nano.a(lib_a-ungetc.o)
 .debug_abbrev  0x00027196      0x1dc c:/program files/microchip/xc32/v2.40/bin/bin/../../lib/gcc/pic32c/6.2.1/../../../../pic32c/lib/v7e-m/fpv4-sp/hard\libg_nano.a(lib_a-wcrtomb.o)
 .debug_abbrev  0x00027372       0x54 c:/program files/microchip/xc32/v2.40/bin/bin/../../lib/gcc/pic32c/6.2.1/../../../../pic32c/lib/v7e-m/fpv4-sp/hard\libg_nano.a(lib_a-environ.o)
 .debug_abbrev  0x000273c6      0x169 c:/program files/microchip/xc32/v2.40/bin/bin/../../lib/gcc/pic32c/6.2.1/../../../../pic32c/lib/v7e-m/fpv4-sp/hard\libg_nano.a(lib_a-envlock.o)
 .debug_abbrev  0x0002752f      0x193 c:/program files/microchip/xc32/v2.40/bin/bin/../../lib/gcc/pic32c/6.2.1/../../../../pic32c/lib/v7e-m/fpv4-sp/hard\libg_nano.a(lib_a-fstatr.o)
 .debug_abbrev  0x000276c2      0x193 c:/program files/microchip/xc32/v2.40/bin/bin/../../lib/gcc/pic32c/6.2.1/../../../../pic32c/lib/v7e-m/fpv4-sp/hard\libg_nano.a(lib_a-isattyr.o)
 .debug_abbrev  0x00027855      0x1e1 c:/program files/microchip/xc32/v2.40/bin/bin/../../lib/gcc/pic32c/6.2.1/../../../../pic32c/lib/v7e-m/fpv4-sp/hard\libg_nano.a(lib_a-nano-reallocr.o)
 .debug_abbrev  0x00027a36      0x2cb c:/program files/microchip/xc32/v2.40/bin/bin/../../lib/gcc/pic32c/6.2.1/../../../../pic32c/lib/v7e-m/fpv4-sp/hard\libg_nano.a(lib_a-nano-svfscanf.o)
 .debug_abbrev  0x00027d01      0x23d c:/program files/microchip/xc32/v2.40/bin/bin/../../lib/gcc/pic32c/6.2.1/../../../../pic32c/lib/v7e-m/fpv4-sp/hard\libg_nano.a(lib_a-nano-vfscanf_i.o)
 .debug_abbrev  0x00027f3e      0x17e c:/program files/microchip/xc32/v2.40/bin/bin/../../lib/gcc/pic32c/6.2.1/../../../../pic32c/lib/v7e-m/fpv4-sp/hard\libg_nano.a(lib_a-nano-msizer.o)
 .debug_abbrev  0x000280bc       0x27 c:/program files/microchip/xc32/v2.40/bin/bin/../../lib/gcc/pic32c/6.2.1/../../../../pic32c/lib/v7e-m/fpv4-sp/hard\libpic32c.a(_close.o)
 .debug_abbrev  0x000280e3       0x27 c:/program files/microchip/xc32/v2.40/bin/bin/../../lib/gcc/pic32c/6.2.1/../../../../pic32c/lib/v7e-m/fpv4-sp/hard\libpic32c.a(_fstat.o)
 .debug_abbrev  0x0002810a       0x27 c:/program files/microchip/xc32/v2.40/bin/bin/../../lib/gcc/pic32c/6.2.1/../../../../pic32c/lib/v7e-m/fpv4-sp/hard\libpic32c.a(_isatty.o)
 .debug_abbrev  0x00028131       0x27 c:/program files/microchip/xc32/v2.40/bin/bin/../../lib/gcc/pic32c/6.2.1/../../../../pic32c/lib/v7e-m/fpv4-sp/hard\libpic32c.a(_lseek.o)
 .debug_abbrev  0x00028158       0x27 c:/program files/microchip/xc32/v2.40/bin/bin/../../lib/gcc/pic32c/6.2.1/../../../../pic32c/lib/v7e-m/fpv4-sp/hard\libpic32c.a(_read.o)
 .debug_abbrev  0x0002817f       0x2a c:/program files/microchip/xc32/v2.40/bin/bin/../../lib/gcc/pic32c/6.2.1/../../../../pic32c/lib/v7e-m/fpv4-sp/hard\libpic32c.a(sbrk.o)
 .debug_abbrev  0x000281a9       0x27 c:/program files/microchip/xc32/v2.40/bin/bin/../../lib/gcc/pic32c/6.2.1/../../../../pic32c/lib/v7e-m/fpv4-sp/hard\libpic32c.a(_write.o)
 .debug_abbrev  0x000281d0       0x2a c:/program files/microchip/xc32/v2.40/bin/bin/../../lib/gcc/pic32c/6.2.1/../../../../pic32c/lib/v7e-m/fpv4-sp/hard\libpic32c.a(fstat.o)
 .debug_abbrev  0x000281fa       0x2a c:/program files/microchip/xc32/v2.40/bin/bin/../../lib/gcc/pic32c/6.2.1/../../../../pic32c/lib/v7e-m/fpv4-sp/hard\libpic32c.a(isatty.o)
 .debug_abbrev  0x00028224       0x2a c:/program files/microchip/xc32/v2.40/bin/bin/../../lib/gcc/pic32c/6.2.1/../../../../pic32c/lib/v7e-m/fpv4-sp/hard\libpic32c.a(lseek.o)
 .debug_abbrev  0x0002824e       0x2a c:/program files/microchip/xc32/v2.40/bin/bin/../../lib/gcc/pic32c/6.2.1/../../../../pic32c/lib/v7e-m/fpv4-sp/hard\libpic32c.a(read.o)
 .debug_abbrev  0x00028278       0x2a c:/program files/microchip/xc32/v2.40/bin/bin/../../lib/gcc/pic32c/6.2.1/../../../../pic32c/lib/v7e-m/fpv4-sp/hard\libpic32c.a(write.o)

.debug_loc      0x00000000    0x7fef1
 .debug_loc     0x00000000      0x42c build/aws_demos/debug/_ext/665618993/plib_nvmctrl.o
 .debug_loc     0x0000042c      0x21f build/aws_demos/debug/_ext/1385882503/port.o
 .debug_loc     0x0000064b      0x489 build/aws_demos/debug/_ext/1168480030/heap_4.o
 .debug_loc     0x00000ad4      0x44e build/aws_demos/debug/_ext/1972722184/iot_pkcs11_secure_element.o
 .debug_loc     0x00000f22     0x1766 build/aws_demos/debug/_ext/2009324866/aws_wifi.o
 .debug_loc     0x00002688     0x160c build/aws_demos/debug/_ext/2009324866/iot_secure_sockets.o
 .debug_loc     0x00003c94      0xcc7 build/aws_demos/debug/_ext/1456806047/atcacert_client.o
 .debug_loc     0x0000495b     0x2715 build/aws_demos/debug/_ext/1456806047/atcacert_date.o
 .debug_loc     0x00007070     0x48e3 build/aws_demos/debug/_ext/1456806047/atcacert_def.o
 .debug_loc     0x0000b953      0xd67 build/aws_demos/debug/_ext/1456806047/atcacert_der.o
 .debug_loc     0x0000c6ba      0x88e build/aws_demos/debug/_ext/1456806047/atcacert_pem.o
 .debug_loc     0x0000cf48      0xfe1 build/aws_demos/debug/_ext/1009855837/atca_command.o
 .debug_loc     0x0000df29      0x2b9 build/aws_demos/debug/_ext/1009855837/atca_device.o
 .debug_loc     0x0000e1e2      0x15c build/aws_demos/debug/_ext/1009855837/atca_execution.o
 .debug_loc     0x0000e33e      0x45d build/aws_demos/debug/_ext/1009855837/atca_iface.o
 .debug_loc     0x0000e79b      0x56d build/aws_demos/debug/_ext/306685378/atca_basic.o
 .debug_loc     0x0000ed08      0x258 build/aws_demos/debug/_ext/306685378/atca_basic_checkmac.o
 .debug_loc     0x0000ef60      0x688 build/aws_demos/debug/_ext/306685378/atca_basic_ecdh.o
 .debug_loc     0x0000f5e8      0x2b3 build/aws_demos/debug/_ext/306685378/atca_basic_gendig.o
 .debug_loc     0x0000f89b      0x21a build/aws_demos/debug/_ext/306685378/atca_basic_genkey.o
 .debug_loc     0x0000fab5      0x29b build/aws_demos/debug/_ext/306685378/atca_basic_info.o
 .debug_loc     0x0000fd50      0x1cc build/aws_demos/debug/_ext/306685378/atca_basic_lock.o
 .debug_loc     0x0000ff1c      0x505 build/aws_demos/debug/_ext/306685378/atca_basic_nonce.o
 .debug_loc     0x00010421      0x1a3 build/aws_demos/debug/_ext/306685378/atca_basic_privwrite.o
 .debug_loc     0x000105c4       0xb8 build/aws_demos/debug/_ext/306685378/atca_basic_random.o
 .debug_loc     0x0001067c     0x1120 build/aws_demos/debug/_ext/306685378/atca_basic_read.o
 .debug_loc     0x0001179c      0x34a build/aws_demos/debug/_ext/306685378/atca_basic_sign.o
 .debug_loc     0x00011ae6       0xc9 build/aws_demos/debug/_ext/306685378/atca_basic_updateextra.o
 .debug_loc     0x00011baf      0xf14 build/aws_demos/debug/_ext/306685378/atca_basic_verify.o
 .debug_loc     0x00012ac3      0xcb0 build/aws_demos/debug/_ext/306685378/atca_basic_write.o
 .debug_loc     0x00013773     0x1b24 build/aws_demos/debug/_ext/306685378/atca_helpers.o
 .debug_loc     0x00015297      0x22b build/aws_demos/debug/_ext/961827245/atca_crypto_sw_sha1.o
 .debug_loc     0x000154c2      0x22b build/aws_demos/debug/_ext/961827245/atca_crypto_sw_sha2.o
 .debug_loc     0x000156ed      0x816 build/aws_demos/debug/_ext/1070826718/sha1_routines.o
 .debug_loc     0x00015f03      0xa1a build/aws_demos/debug/_ext/1070826718/sha2_routines.o
 .debug_loc     0x0001691d     0x1f50 build/aws_demos/debug/_ext/544104044/atca_host.o
 .debug_loc     0x0001886d      0x2b1 build/aws_demos/debug/_ext/1326886903/pkcs11_attrib.o
 .debug_loc     0x00018b1e      0x64a build/aws_demos/debug/_ext/1326886903/pkcs11_cert.o
 .debug_loc     0x00019168      0x2af build/aws_demos/debug/_ext/1326886903/pkcs11_config.o
 .debug_loc     0x00019417      0x3e7 build/aws_demos/debug/_ext/1326886903/pkcs11_digest.o
 .debug_loc     0x000197fe      0xc1c build/aws_demos/debug/_ext/1326886903/pkcs11_find.o
 .debug_loc     0x0001a41a       0x80 build/aws_demos/debug/_ext/1326886903/pkcs11_info.o
 .debug_loc     0x0001a49a      0x4a4 build/aws_demos/debug/_ext/1326886903/pkcs11_init.o
 .debug_loc     0x0001a93e      0xe3d build/aws_demos/debug/_ext/1326886903/pkcs11_key.o
 .debug_loc     0x0001b77b     0x168f build/aws_demos/debug/_ext/1326886903/pkcs11_main.o
 .debug_loc     0x0001ce0a      0x436 build/aws_demos/debug/_ext/1326886903/pkcs11_mech.o
 .debug_loc     0x0001d240      0xe90 build/aws_demos/debug/_ext/1326886903/pkcs11_object.o
 .debug_loc     0x0001e0d0      0x17c build/aws_demos/debug/_ext/1326886903/pkcs11_os.o
 .debug_loc     0x0001e24c      0xa8e build/aws_demos/debug/_ext/1326886903/pkcs11_session.o
 .debug_loc     0x0001ecda      0x585 build/aws_demos/debug/_ext/1326886903/pkcs11_signature.o
 .debug_loc     0x0001f25f      0x649 build/aws_demos/debug/_ext/1326886903/pkcs11_slot.o
 .debug_loc     0x0001f8a8      0xa39 build/aws_demos/debug/_ext/1326886903/pkcs11_token.o
 .debug_loc     0x000202e1       0xa0 build/aws_demos/debug/_ext/1326886903/pkcs11_util.o
 .debug_loc     0x00020381       0x38 build/aws_demos/debug/_ext/1110296786/plib_tc3.o
 .debug_loc     0x000203b9     0x2021 build/aws_demos/debug/_ext/484134862/sys_time.o
 .debug_loc     0x000223da      0x77c build/aws_demos/debug/_ext/1534684544/sys_console_uart.o
 .debug_loc     0x00022b56     0x1809 build/aws_demos/debug/_ext/2104392270/drv_spi.o
 .debug_loc     0x0002435f       0xe9 build/aws_demos/debug/_ext/1762024984/sys_int.o
 .debug_loc     0x00024448      0x148 build/aws_demos/debug/_ext/959252812/sys_dma.o
 .debug_loc     0x00024590      0x5b4 build/aws_demos/debug/_ext/1149029443/osal_freertos.o
 .debug_loc     0x00024b44       0x20 build/aws_demos/debug/_ext/1360937237/app.o
 .debug_loc     0x00024b64       0xfb build/aws_demos/debug/_ext/1534096987/tasks.o
 .debug_loc     0x00024c5f      0x5b0 build/aws_demos/debug/_ext/731420310/plib_sercom2_usart.o
 .debug_loc     0x0002520f     0x150e build/aws_demos/debug/_ext/1833802790/wdrv_winc.o
 .debug_loc     0x0002671d      0x30e build/aws_demos/debug/_ext/1833802790/wdrv_winc_authctx.o
 .debug_loc     0x00026a2b      0x2f2 build/aws_demos/debug/_ext/1833802790/wdrv_winc_bssctx.o
 .debug_loc     0x00026d1d      0x954 build/aws_demos/debug/_ext/1833802790/wdrv_winc_socket.o
 .debug_loc     0x00027671      0x457 build/aws_demos/debug/_ext/1833802790/wdrv_winc_sta.o
 .debug_loc     0x00027ac8      0x54e build/aws_demos/debug/_ext/1833802790/wdrv_winc_systime.o
 .debug_loc     0x00028016       0x40 build/aws_demos/debug/_ext/978667550/wdrv_winc_eint.o
 .debug_loc     0x00028056      0x443 build/aws_demos/debug/_ext/384060547/wdrv_winc_spi.o
 .debug_loc     0x00028499       0x59 build/aws_demos/debug/_ext/1289849308/wdrv_winc_osal.o
 .debug_loc     0x000284f2       0x9e build/aws_demos/debug/_ext/2059254151/nm_common.o
 .debug_loc     0x00028590     0x1132 build/aws_demos/debug/_ext/2090543044/m2m_flash.o
 .debug_loc     0x000296c2      0xa9a build/aws_demos/debug/_ext/2090543044/m2m_hif.o
 .debug_loc     0x0002a15c     0x24c3 build/aws_demos/debug/_ext/2090543044/m2m_wifi.o
 .debug_loc     0x0002c61f      0xbb8 build/aws_demos/debug/_ext/2090543044/nmasic.o
 .debug_loc     0x0002d1d7      0x510 build/aws_demos/debug/_ext/2090543044/nmbus.o
 .debug_loc     0x0002d6e7      0x4a4 build/aws_demos/debug/_ext/2090543044/nmdrv.o
 .debug_loc     0x0002db8b     0x15a2 build/aws_demos/debug/_ext/2090543044/nmflash.o
 .debug_loc     0x0002f12d      0xfa6 build/aws_demos/debug/_ext/2090543044/nmspi.o
 .debug_loc     0x000300d3      0xb4d build/aws_demos/debug/_ext/1151736449/spi_flash.o
 .debug_loc     0x00030c20      0x2d9 build/aws_demos/debug/_ext/2090543044/m2m_ota.o
 .debug_loc     0x00030ef9      0xb82 build/aws_demos/debug/_ext/2090543044/m2m_ssl.o
 .debug_loc     0x00031a7b     0x1afc build/aws_demos/debug/_ext/1777946865/socket.o
 .debug_loc     0x00033577      0x470 build/aws_demos/debug/_ext/230789302/plib_sercom7_i2c_master.o
 .debug_loc     0x000339e7     0x18cc build/aws_demos/debug/_ext/1991396724/sys_command.o
 .debug_loc     0x000352b3      0x824 build/aws_demos/debug/_ext/731420310/plib_sercom6_usart.o
 .debug_loc     0x00035ad7      0x1b7 build/aws_demos/debug/_ext/1360937237/main.o
 .debug_loc     0x00035c8e       0x41 build/aws_demos/debug/_ext/1534096987/initialization.o
 .debug_loc     0x00035ccf       0xc3 build/aws_demos/debug/_ext/1263901141/xc32_monitor.o
 .debug_loc     0x00035d92       0x63 build/aws_demos/debug/_ext/1843425920/plib_port.o
 .debug_loc     0x00035df5      0x5f7 build/aws_demos/debug/_ext/1843479071/plib_nvic.o
 .debug_loc     0x000363ec      0x73c build/aws_demos/debug/_ext/1843785878/plib_dmac.o
 .debug_loc     0x00036b28       0x34 build/aws_demos/debug/_ext/1534096987/startup_xc32.o
 .debug_loc     0x00036b5c      0x50c build/aws_demos/debug/_ext/1916130672/plib_sercom4_spi.o
 .debug_loc     0x00037068       0x9a build/aws_demos/debug/_ext/59476128/plib_eic.o
 .debug_loc     0x00037102       0x7c build/aws_demos/debug/_ext/1931625852/sys_debug.o
 .debug_loc     0x0003717e       0x2c build/aws_demos/debug/_ext/1223942466/aws_demo.o
 .debug_loc     0x000371aa      0x676 build/aws_demos/debug/_ext/1223942466/iot_demo_freertos.o
 .debug_loc     0x00037820       0x20 build/aws_demos/debug/_ext/1223942466/iot_demo_runner.o
 .debug_loc     0x00037840     0x14bc build/aws_demos/debug/_ext/198771642/aws_dev_mode_key_provisioning.o
 .debug_loc     0x00038cfc      0x9f5 build/aws_demos/debug/_ext/1441508942/iot_demo_mqtt.o
 .debug_loc     0x000396f1      0xd08 build/aws_demos/debug/_ext/2040524622/aws_iot_network_manager.o
 .debug_loc     0x0003a3f9      0xdd4 build/aws_demos/debug/_ext/811507611/event_groups.o
 .debug_loc     0x0003b1cd       0x91 build/aws_demos/debug/_ext/811507611/list.o
 .debug_loc     0x0003b25e     0x1bfb build/aws_demos/debug/_ext/811507611/queue.o
 .debug_loc     0x0003ce59     0x2921 build/aws_demos/debug/_ext/811507611/tasks.o
 .debug_loc     0x0003f77a     0x1243 build/aws_demos/debug/_ext/811507611/timers.o
 .debug_loc     0x000409bd      0x9dc build/aws_demos/debug/_ext/684768522/asn1parse.o
 .debug_loc     0x00041399     0x1234 build/aws_demos/debug/_ext/684768522/asn1write.o
 .debug_loc     0x000425cd      0x7f0 build/aws_demos/debug/_ext/684768522/base64.o
 .debug_loc     0x00042dbd     0x58a8 build/aws_demos/debug/_ext/684768522/bignum.o
 .debug_loc     0x00048665     0x1428 build/aws_demos/debug/_ext/684768522/ecdsa.o
 .debug_loc     0x00049a8d     0x4bd4 build/aws_demos/debug/_ext/684768522/ecp.o
 .debug_loc     0x0004e661     0x2857 build/aws_demos/debug/_ext/684768522/ecp_curves.o
 .debug_loc     0x00050eb8      0xe40 build/aws_demos/debug/_ext/684768522/md.o
 .debug_loc     0x00051cf8      0x613 build/aws_demos/debug/_ext/684768522/md_wrap.o
 .debug_loc     0x0005230b     0x13c5 build/aws_demos/debug/_ext/684768522/oid.o
 .debug_loc     0x000536d0      0x3e7 build/aws_demos/debug/_ext/684768522/pem.o
 .debug_loc     0x00053ab7     0x11e3 build/aws_demos/debug/_ext/684768522/pk.o
 .debug_loc     0x00054c9a     0x1369 build/aws_demos/debug/_ext/684768522/pkparse.o
 .debug_loc     0x00056003     0x1245 build/aws_demos/debug/_ext/684768522/pk_wrap.o
 .debug_loc     0x00057248       0xe6 build/aws_demos/debug/_ext/684768522/platform.o
 .debug_loc     0x0005732e       0x6d build/aws_demos/debug/_ext/684768522/platform_util.o
 .debug_loc     0x0005739b     0x3c12 build/aws_demos/debug/_ext/684768522/rsa.o
 .debug_loc     0x0005afad      0xc4f build/aws_demos/debug/_ext/684768522/rsa_internal.o
 .debug_loc     0x0005bbfc     0x3fa6 build/aws_demos/debug/_ext/684768522/sha1.o
 .debug_loc     0x0005fba2     0x120d build/aws_demos/debug/_ext/684768522/sha256.o
 .debug_loc     0x00060daf       0x4d build/aws_demos/debug/_ext/684768522/threading.o
 .debug_loc     0x00060dfc     0x1442 build/aws_demos/debug/_ext/684768522/x509.o
 .debug_loc     0x0006223e     0x43b4 build/aws_demos/debug/_ext/684768522/x509_crt.o
 .debug_loc     0x000665f2      0x445 build/aws_demos/debug/_ext/2077790016/mbedtls_utils.o
 .debug_loc     0x00066a37      0x4f4 build/aws_demos/debug/_ext/520142351/iot_clock_freertos.o
 .debug_loc     0x00066f2b     0x1097 build/aws_demos/debug/_ext/520142351/iot_network_freertos.o
 .debug_loc     0x00067fc2      0xb35 build/aws_demos/debug/_ext/520142351/iot_threads_freertos.o
 .debug_loc     0x00068af7      0x7b0 build/aws_demos/debug/_ext/13066905/iot_device_metrics.o
 .debug_loc     0x000692a7       0xd2 build/aws_demos/debug/_ext/13066905/iot_init.o
 .debug_loc     0x00069379      0x639 build/aws_demos/debug/_ext/227692215/iot_logging.o
 .debug_loc     0x000699b2      0x30e build/aws_demos/debug/_ext/227692215/iot_logging_task_dynamic_buffers.o
 .debug_loc     0x00069cc0     0x3456 build/aws_demos/debug/_ext/333408969/iot_taskpool.o
 .debug_loc     0x0006d116     0x2045 build/aws_demos/debug/_ext/1739149067/iot_mqtt_api.o
 .debug_loc     0x0006f15b      0x9b6 build/aws_demos/debug/_ext/1739149067/iot_mqtt_network.o
 .debug_loc     0x0006fb11     0x16c8 build/aws_demos/debug/_ext/1739149067/iot_mqtt_operation.o
 .debug_loc     0x000711d9     0x20bf build/aws_demos/debug/_ext/1739149067/iot_mqtt_serialize.o
 .debug_loc     0x00073298     0x1064 build/aws_demos/debug/_ext/1739149067/iot_mqtt_subscription.o
 .debug_loc     0x000742fc      0x7e8 build/aws_demos/debug/_ext/1739149067/iot_mqtt_validate.o
 .debug_loc     0x00074ae4      0x9ec build/aws_demos/debug/_ext/350635301/iot_crypto.o
 .debug_loc     0x000754d0      0x70f build/aws_demos/debug/_ext/2138053595/iot_pkcs11.o
 .debug_loc     0x00075bdf       0x3f build/aws_demos/debug/_ext/1120274527/iot_system_init.o
 .debug_loc     0x00075c1e      0xb5f build/aws_demos/debug/_ext/1534684544/sys_console.o
 .debug_loc     0x0007677d      0x69d build/aws_demos/debug/_ext/2146650376/hal_i2c_harmony.o
 .debug_loc     0x00076e1a      0x1aa build/aws_demos/debug/_ext/2146650376/atca_hal.o
 .debug_loc     0x00076fc4      0x202 build/aws_demos/debug/_ext/2146650376/hal_freertos.o
 .debug_loc     0x000771c6       0xc4 build/aws_demos/debug/_ext/2146650376/hal_cortex_m_delay.o
 .debug_loc     0x0007728a      0xc35 c:/program files/microchip/xc32/v2.40/bin/bin/../../lib/gcc/pic32c/6.2.1/v7e-m/fpv4-sp/hard\libgcc.a(_udivmoddi4.o)
 .debug_loc     0x00077ebf       0x58 c:/program files/microchip/xc32/v2.40/bin/bin/../../lib/gcc/pic32c/6.2.1/../../../../pic32c/lib/v7e-m/fpv4-sp/hard\libg_nano.a(lib_a-calloc.o)
 .debug_loc     0x00077f17       0x76 c:/program files/microchip/xc32/v2.40/bin/bin/../../lib/gcc/pic32c/6.2.1/../../../../pic32c/lib/v7e-m/fpv4-sp/hard\libg_nano.a(lib_a-gmtime.o)
 .debug_loc     0x00077f8d      0x679 c:/program files/microchip/xc32/v2.40/bin/bin/../../lib/gcc/pic32c/6.2.1/../../../../pic32c/lib/v7e-m/fpv4-sp/hard\libg_nano.a(lib_a-gmtime_r.o)
 .debug_loc     0x00078606       0x74 c:/program files/microchip/xc32/v2.40/bin/bin/../../lib/gcc/pic32c/6.2.1/../../../../pic32c/lib/v7e-m/fpv4-sp/hard\libg_nano.a(lib_a-init.o)
 .debug_loc     0x0007867a      0x17b c:/program files/microchip/xc32/v2.40/bin/bin/../../lib/gcc/pic32c/6.2.1/../../../../pic32c/lib/v7e-m/fpv4-sp/hard\libg_nano.a(lib_a-locale.o)
 .debug_loc     0x000787f5       0x58 c:/program files/microchip/xc32/v2.40/bin/bin/../../lib/gcc/pic32c/6.2.1/../../../../pic32c/lib/v7e-m/fpv4-sp/hard\libg_nano.a(lib_a-malloc.o)
 .debug_loc     0x0007884d      0x229 c:/program files/microchip/xc32/v2.40/bin/bin/../../lib/gcc/pic32c/6.2.1/../../../../pic32c/lib/v7e-m/fpv4-sp/hard\libg_nano.a(lib_a-mbtowc_r.o)
 .debug_loc     0x00078a76      0x14e c:/program files/microchip/xc32/v2.40/bin/bin/../../lib/gcc/pic32c/6.2.1/../../../../pic32c/lib/v7e-m/fpv4-sp/hard\libg_nano.a(lib_a-memcmp.o)
 .debug_loc     0x00078bc4       0xb2 c:/program files/microchip/xc32/v2.40/bin/bin/../../lib/gcc/pic32c/6.2.1/../../../../pic32c/lib/v7e-m/fpv4-sp/hard\libg_nano.a(lib_a-memcpy-stub.o)
 .debug_loc     0x00078c76      0x12a c:/program files/microchip/xc32/v2.40/bin/bin/../../lib/gcc/pic32c/6.2.1/../../../../pic32c/lib/v7e-m/fpv4-sp/hard\libg_nano.a(lib_a-memmove.o)
 .debug_loc     0x00078da0       0x4c c:/program files/microchip/xc32/v2.40/bin/bin/../../lib/gcc/pic32c/6.2.1/../../../../pic32c/lib/v7e-m/fpv4-sp/hard\libg_nano.a(lib_a-memset.o)
 .debug_loc     0x00078dec      0x5e2 c:/program files/microchip/xc32/v2.40/bin/bin/../../lib/gcc/pic32c/6.2.1/../../../../pic32c/lib/v7e-m/fpv4-sp/hard\libg_nano.a(lib_a-mktime.o)
 .debug_loc     0x000793ce       0xa1 c:/program files/microchip/xc32/v2.40/bin/bin/../../lib/gcc/pic32c/6.2.1/../../../../pic32c/lib/v7e-m/fpv4-sp/hard\libg_nano.a(lib_a-nano-callocr.o)
 .debug_loc     0x0007946f      0x141 c:/program files/microchip/xc32/v2.40/bin/bin/../../lib/gcc/pic32c/6.2.1/../../../../pic32c/lib/v7e-m/fpv4-sp/hard\libg_nano.a(lib_a-nano-freer.o)
 .debug_loc     0x000795b0      0x326 c:/program files/microchip/xc32/v2.40/bin/bin/../../lib/gcc/pic32c/6.2.1/../../../../pic32c/lib/v7e-m/fpv4-sp/hard\libg_nano.a(lib_a-nano-mallocr.o)
 .debug_loc     0x000798d6      0x33d c:/program files/microchip/xc32/v2.40/bin/bin/../../lib/gcc/pic32c/6.2.1/../../../../pic32c/lib/v7e-m/fpv4-sp/hard\libg_nano.a(lib_a-nano-vfprintf.o)
 .debug_loc     0x00079c13      0x51d c:/program files/microchip/xc32/v2.40/bin/bin/../../lib/gcc/pic32c/6.2.1/../../../../pic32c/lib/v7e-m/fpv4-sp/hard\libg_nano.a(_lib_a-nano-vfprintf.s.o)
 .debug_loc     0x0007a130       0xdf c:/program files/microchip/xc32/v2.40/bin/bin/../../lib/gcc/pic32c/6.2.1/../../../../pic32c/lib/v7e-m/fpv4-sp/hard\libg_nano.a(lib_a-printf.o)
 .debug_loc     0x0007a20f      0x11b c:/program files/microchip/xc32/v2.40/bin/bin/../../lib/gcc/pic32c/6.2.1/../../../../pic32c/lib/v7e-m/fpv4-sp/hard\libg_nano.a(lib_a-putchar.o)
 .debug_loc     0x0007a32a      0x267 c:/program files/microchip/xc32/v2.40/bin/bin/../../lib/gcc/pic32c/6.2.1/../../../../pic32c/lib/v7e-m/fpv4-sp/hard\libg_nano.a(lib_a-putc.o)
 .debug_loc     0x0007a591      0x202 c:/program files/microchip/xc32/v2.40/bin/bin/../../lib/gcc/pic32c/6.2.1/../../../../pic32c/lib/v7e-m/fpv4-sp/hard\libg_nano.a(lib_a-puts.o)
 .debug_loc     0x0007a793       0xb8 c:/program files/microchip/xc32/v2.40/bin/bin/../../lib/gcc/pic32c/6.2.1/../../../../pic32c/lib/v7e-m/fpv4-sp/hard\libg_nano.a(lib_a-rand.o)
 .debug_loc     0x0007a84b       0x6d c:/program files/microchip/xc32/v2.40/bin/bin/../../lib/gcc/pic32c/6.2.1/../../../../pic32c/lib/v7e-m/fpv4-sp/hard\libg_nano.a(lib_a-sbrkr.o)
 .debug_loc     0x0007a8b8      0x244 c:/program files/microchip/xc32/v2.40/bin/bin/../../lib/gcc/pic32c/6.2.1/../../../../pic32c/lib/v7e-m/fpv4-sp/hard\libg_nano.a(lib_a-snprintf.o)
 .debug_loc     0x0007aafc      0x14f c:/program files/microchip/xc32/v2.40/bin/bin/../../lib/gcc/pic32c/6.2.1/../../../../pic32c/lib/v7e-m/fpv4-sp/hard\libg_nano.a(lib_a-sprintf.o)
 .debug_loc     0x0007ac4b      0x1f2 c:/program files/microchip/xc32/v2.40/bin/bin/../../lib/gcc/pic32c/6.2.1/../../../../pic32c/lib/v7e-m/fpv4-sp/hard\libg_nano.a(lib_a-__ssfputs.o)
 .debug_loc     0x0007ae3d      0x2ef c:/program files/microchip/xc32/v2.40/bin/bin/../../lib/gcc/pic32c/6.2.1/../../../../pic32c/lib/v7e-m/fpv4-sp/hard\libg_nano.a(lib_a-stdio.o)
 .debug_loc     0x0007b12c       0x74 c:/program files/microchip/xc32/v2.40/bin/bin/../../lib/gcc/pic32c/6.2.1/../../../../pic32c/lib/v7e-m/fpv4-sp/hard\libg_nano.a(lib_a-strcat.o)
 .debug_loc     0x0007b1a0       0x21 c:/program files/microchip/xc32/v2.40/bin/bin/../../lib/gcc/pic32c/6.2.1/../../../../pic32c/lib/v7e-m/fpv4-sp/hard\libg_nano.a(lib_a-strcpy.o)
 .debug_loc     0x0007b1c1      0x103 c:/program files/microchip/xc32/v2.40/bin/bin/../../lib/gcc/pic32c/6.2.1/../../../../pic32c/lib/v7e-m/fpv4-sp/hard\libg_nano.a(lib_a-strncmp.o)
 .debug_loc     0x0007b2c4      0x116 c:/program files/microchip/xc32/v2.40/bin/bin/../../lib/gcc/pic32c/6.2.1/../../../../pic32c/lib/v7e-m/fpv4-sp/hard\libg_nano.a(lib_a-strncpy.o)
 .debug_loc     0x0007b3da       0x6f c:/program files/microchip/xc32/v2.40/bin/bin/../../lib/gcc/pic32c/6.2.1/../../../../pic32c/lib/v7e-m/fpv4-sp/hard\libg_nano.a(lib_a-strstr.o)
 .debug_loc     0x0007b449      0x545 c:/program files/microchip/xc32/v2.40/bin/bin/../../lib/gcc/pic32c/6.2.1/../../../../pic32c/lib/v7e-m/fpv4-sp/hard\libg_nano.a(lib_a-strtol.o)
 .debug_loc     0x0007b98e      0x568 c:/program files/microchip/xc32/v2.40/bin/bin/../../lib/gcc/pic32c/6.2.1/../../../../pic32c/lib/v7e-m/fpv4-sp/hard\libg_nano.a(lib_a-strtoul.o)
 .debug_loc     0x0007bef6      0x248 c:/program files/microchip/xc32/v2.40/bin/bin/../../lib/gcc/pic32c/6.2.1/../../../../pic32c/lib/v7e-m/fpv4-sp/hard\libg_nano.a(lib_a-tzcalc_limits.o)
 .debug_loc     0x0007c13e      0x252 c:/program files/microchip/xc32/v2.40/bin/bin/../../lib/gcc/pic32c/6.2.1/../../../../pic32c/lib/v7e-m/fpv4-sp/hard\libg_nano.a(lib_a-tzset_r.o)
 .debug_loc     0x0007c390      0x1f1 c:/program files/microchip/xc32/v2.40/bin/bin/../../lib/gcc/pic32c/6.2.1/../../../../pic32c/lib/v7e-m/fpv4-sp/hard\libg_nano.a(lib_a-vsnprintf.o)
 .debug_loc     0x0007c581      0x133 c:/program files/microchip/xc32/v2.40/bin/bin/../../lib/gcc/pic32c/6.2.1/../../../../pic32c/lib/v7e-m/fpv4-sp/hard\libg_nano.a(lib_a-wbuf.o)
 .debug_loc     0x0007c6b4      0x116 c:/program files/microchip/xc32/v2.40/bin/bin/../../lib/gcc/pic32c/6.2.1/../../../../pic32c/lib/v7e-m/fpv4-sp/hard\libg_nano.a(lib_a-wctomb_r.o)
 .debug_loc     0x0007c7ca       0xc5 c:/program files/microchip/xc32/v2.40/bin/bin/../../lib/gcc/pic32c/6.2.1/../../../../pic32c/lib/v7e-m/fpv4-sp/hard\libg_nano.a(lib_a-writer.o)
 .debug_loc     0x0007c88f       0x7a c:/program files/microchip/xc32/v2.40/bin/bin/../../lib/gcc/pic32c/6.2.1/../../../../pic32c/lib/v7e-m/fpv4-sp/hard\libg_nano.a(lib_a-wsetup.o)
 .debug_loc     0x0007c909       0x6d c:/program files/microchip/xc32/v2.40/bin/bin/../../lib/gcc/pic32c/6.2.1/../../../../pic32c/lib/v7e-m/fpv4-sp/hard\libg_nano.a(lib_a-closer.o)
 .debug_loc     0x0007c976       0x97 c:/program files/microchip/xc32/v2.40/bin/bin/../../lib/gcc/pic32c/6.2.1/../../../../pic32c/lib/v7e-m/fpv4-sp/hard\libg_nano.a(lib_a-div.o)
 .debug_loc     0x0007ca0d      0x2f4 c:/program files/microchip/xc32/v2.40/bin/bin/../../lib/gcc/pic32c/6.2.1/../../../../pic32c/lib/v7e-m/fpv4-sp/hard\libg_nano.a(lib_a-fflush.o)
 .debug_loc     0x0007cd01      0x228 c:/program files/microchip/xc32/v2.40/bin/bin/../../lib/gcc/pic32c/6.2.1/../../../../pic32c/lib/v7e-m/fpv4-sp/hard\libg_nano.a(lib_a-findfp.o)
 .debug_loc     0x0007cf29      0x298 c:/program files/microchip/xc32/v2.40/bin/bin/../../lib/gcc/pic32c/6.2.1/../../../../pic32c/lib/v7e-m/fpv4-sp/hard\libg_nano.a(lib_a-fputwc.o)
 .debug_loc     0x0007d1c1      0x139 c:/program files/microchip/xc32/v2.40/bin/bin/../../lib/gcc/pic32c/6.2.1/../../../../pic32c/lib/v7e-m/fpv4-sp/hard\libg_nano.a(lib_a-fwalk.o)
 .debug_loc     0x0007d2fa      0x167 c:/program files/microchip/xc32/v2.40/bin/bin/../../lib/gcc/pic32c/6.2.1/../../../../pic32c/lib/v7e-m/fpv4-sp/hard\libg_nano.a(lib_a-getenv_r.o)
 .debug_loc     0x0007d461       0xc5 c:/program files/microchip/xc32/v2.40/bin/bin/../../lib/gcc/pic32c/6.2.1/../../../../pic32c/lib/v7e-m/fpv4-sp/hard\libg_nano.a(lib_a-lseekr.o)
 .debug_loc     0x0007d526      0x254 c:/program files/microchip/xc32/v2.40/bin/bin/../../lib/gcc/pic32c/6.2.1/../../../../pic32c/lib/v7e-m/fpv4-sp/hard\libg_nano.a(lib_a-makebuf.o)
 .debug_loc     0x0007d77a      0x2d6 c:/program files/microchip/xc32/v2.40/bin/bin/../../lib/gcc/pic32c/6.2.1/../../../../pic32c/lib/v7e-m/fpv4-sp/hard\libg_nano.a(lib_a-nano-svfprintf.o)
 .debug_loc     0x0007da50      0x5d7 c:/program files/microchip/xc32/v2.40/bin/bin/../../lib/gcc/pic32c/6.2.1/../../../../pic32c/lib/v7e-m/fpv4-sp/hard\libg_nano.a(lib_a-nano-vfprintf_i.o)
 .debug_loc     0x0007e027      0x97f c:/program files/microchip/xc32/v2.40/bin/bin/../../lib/gcc/pic32c/6.2.1/../../../../pic32c/lib/v7e-m/fpv4-sp/hard\libg_nano.a(_lib_a-nano-vfscanf.cdnopsuxX.o)
 .debug_loc     0x0007e9a6       0xc5 c:/program files/microchip/xc32/v2.40/bin/bin/../../lib/gcc/pic32c/6.2.1/../../../../pic32c/lib/v7e-m/fpv4-sp/hard\libg_nano.a(lib_a-readr.o)
 .debug_loc     0x0007ea6b      0x15e c:/program files/microchip/xc32/v2.40/bin/bin/../../lib/gcc/pic32c/6.2.1/../../../../pic32c/lib/v7e-m/fpv4-sp/hard\libg_nano.a(lib_a-reent.o)
 .debug_loc     0x0007ebc9      0x174 c:/program files/microchip/xc32/v2.40/bin/bin/../../lib/gcc/pic32c/6.2.1/../../../../pic32c/lib/v7e-m/fpv4-sp/hard\libg_nano.a(lib_a-sccl.o)
 .debug_loc     0x0007ed3d      0x128 c:/program files/microchip/xc32/v2.40/bin/bin/../../lib/gcc/pic32c/6.2.1/../../../../pic32c/lib/v7e-m/fpv4-sp/hard\libg_nano.a(lib_a-sscanf.o)
 .debug_loc     0x0007ee65      0x183 c:/program files/microchip/xc32/v2.40/bin/bin/../../lib/gcc/pic32c/6.2.1/../../../../pic32c/lib/v7e-m/fpv4-sp/hard\libg_nano.a(lib_a-__ssputs.o)
 .debug_loc     0x0007efe8      0x1f1 c:/program files/microchip/xc32/v2.40/bin/bin/../../lib/gcc/pic32c/6.2.1/../../../../pic32c/lib/v7e-m/fpv4-sp/hard\libg_nano.a(lib_a-ungetc.o)
 .debug_loc     0x0007f1d9      0x1a8 c:/program files/microchip/xc32/v2.40/bin/bin/../../lib/gcc/pic32c/6.2.1/../../../../pic32c/lib/v7e-m/fpv4-sp/hard\libg_nano.a(lib_a-wcrtomb.o)
 .debug_loc     0x0007f381       0x99 c:/program files/microchip/xc32/v2.40/bin/bin/../../lib/gcc/pic32c/6.2.1/../../../../pic32c/lib/v7e-m/fpv4-sp/hard\libg_nano.a(lib_a-fstatr.o)
 .debug_loc     0x0007f41a       0x6d c:/program files/microchip/xc32/v2.40/bin/bin/../../lib/gcc/pic32c/6.2.1/../../../../pic32c/lib/v7e-m/fpv4-sp/hard\libg_nano.a(lib_a-isattyr.o)
 .debug_loc     0x0007f487      0x148 c:/program files/microchip/xc32/v2.40/bin/bin/../../lib/gcc/pic32c/6.2.1/../../../../pic32c/lib/v7e-m/fpv4-sp/hard\libg_nano.a(lib_a-nano-reallocr.o)
 .debug_loc     0x0007f5cf      0x46e c:/program files/microchip/xc32/v2.40/bin/bin/../../lib/gcc/pic32c/6.2.1/../../../../pic32c/lib/v7e-m/fpv4-sp/hard\libg_nano.a(lib_a-nano-svfscanf.o)
 .debug_loc     0x0007fa3d      0x414 c:/program files/microchip/xc32/v2.40/bin/bin/../../lib/gcc/pic32c/6.2.1/../../../../pic32c/lib/v7e-m/fpv4-sp/hard\libg_nano.a(lib_a-nano-vfscanf_i.o)
 .debug_loc     0x0007fe51       0x78 c:/program files/microchip/xc32/v2.40/bin/bin/../../lib/gcc/pic32c/6.2.1/../../../../pic32c/lib/v7e-m/fpv4-sp/hard\libg_nano.a(lib_a-nano-msizer.o)
 .debug_loc     0x0007fec9       0x14 c:/program files/microchip/xc32/v2.40/bin/bin/../../lib/gcc/pic32c/6.2.1/../../../../pic32c/lib/v7e-m/fpv4-sp/hard\libpic32c.a(read.o)
 .debug_loc     0x0007fedd       0x14 c:/program files/microchip/xc32/v2.40/bin/bin/../../lib/gcc/pic32c/6.2.1/../../../../pic32c/lib/v7e-m/fpv4-sp/hard\libpic32c.a(write.o)

.debug_aranges  0x00000000     0x2240
 .debug_aranges
                0x00000000       0x20 build/aws_demos/debug/_ext/665618993/plib_nvmctrl.o
 .debug_aranges
                0x00000020       0x20 build/aws_demos/debug/_ext/1385882503/port.o
 .debug_aranges
                0x00000040       0x20 build/aws_demos/debug/_ext/1168480030/heap_4.o
 .debug_aranges
                0x00000060       0x18 build/aws_demos/debug/_ext/787859085/atca_cert_chain.o
 .debug_aranges
                0x00000078       0x20 build/aws_demos/debug/_ext/1972722184/iot_pkcs11_secure_element.o
 .debug_aranges
                0x00000098       0x20 build/aws_demos/debug/_ext/2009324866/aws_wifi.o
 .debug_aranges
                0x000000b8       0x20 build/aws_demos/debug/_ext/2009324866/iot_secure_sockets.o
 .debug_aranges
                0x000000d8       0x20 build/aws_demos/debug/_ext/1456806047/atcacert_client.o
 .debug_aranges
                0x000000f8       0x20 build/aws_demos/debug/_ext/1456806047/atcacert_date.o
 .debug_aranges
                0x00000118       0x20 build/aws_demos/debug/_ext/1456806047/atcacert_def.o
 .debug_aranges
                0x00000138       0x20 build/aws_demos/debug/_ext/1456806047/atcacert_der.o
 .debug_aranges
                0x00000158       0x20 build/aws_demos/debug/_ext/1456806047/atcacert_pem.o
 .debug_aranges
                0x00000178       0x20 build/aws_demos/debug/_ext/1009855837/atca_command.o
 .debug_aranges
                0x00000198       0x20 build/aws_demos/debug/_ext/1009855837/atca_device.o
 .debug_aranges
                0x000001b8       0x20 build/aws_demos/debug/_ext/1009855837/atca_execution.o
 .debug_aranges
                0x000001d8       0x20 build/aws_demos/debug/_ext/1009855837/atca_iface.o
 .debug_aranges
                0x000001f8       0x20 build/aws_demos/debug/_ext/306685378/atca_basic.o
 .debug_aranges
                0x00000218       0x20 build/aws_demos/debug/_ext/306685378/atca_basic_checkmac.o
 .debug_aranges
                0x00000238       0x20 build/aws_demos/debug/_ext/306685378/atca_basic_ecdh.o
 .debug_aranges
                0x00000258       0x20 build/aws_demos/debug/_ext/306685378/atca_basic_gendig.o
 .debug_aranges
                0x00000278       0x20 build/aws_demos/debug/_ext/306685378/atca_basic_genkey.o
 .debug_aranges
                0x00000298       0x20 build/aws_demos/debug/_ext/306685378/atca_basic_info.o
 .debug_aranges
                0x000002b8       0x20 build/aws_demos/debug/_ext/306685378/atca_basic_lock.o
 .debug_aranges
                0x000002d8       0x20 build/aws_demos/debug/_ext/306685378/atca_basic_nonce.o
 .debug_aranges
                0x000002f8       0x20 build/aws_demos/debug/_ext/306685378/atca_basic_privwrite.o
 .debug_aranges
                0x00000318       0x20 build/aws_demos/debug/_ext/306685378/atca_basic_random.o
 .debug_aranges
                0x00000338       0x20 build/aws_demos/debug/_ext/306685378/atca_basic_read.o
 .debug_aranges
                0x00000358       0x20 build/aws_demos/debug/_ext/306685378/atca_basic_sign.o
 .debug_aranges
                0x00000378       0x20 build/aws_demos/debug/_ext/306685378/atca_basic_updateextra.o
 .debug_aranges
                0x00000398       0x20 build/aws_demos/debug/_ext/306685378/atca_basic_verify.o
 .debug_aranges
                0x000003b8       0x20 build/aws_demos/debug/_ext/306685378/atca_basic_write.o
 .debug_aranges
                0x000003d8       0x20 build/aws_demos/debug/_ext/306685378/atca_helpers.o
 .debug_aranges
                0x000003f8       0x20 build/aws_demos/debug/_ext/961827245/atca_crypto_sw_sha1.o
 .debug_aranges
                0x00000418       0x20 build/aws_demos/debug/_ext/961827245/atca_crypto_sw_sha2.o
 .debug_aranges
                0x00000438       0x20 build/aws_demos/debug/_ext/1070826718/sha1_routines.o
 .debug_aranges
                0x00000458       0x20 build/aws_demos/debug/_ext/1070826718/sha2_routines.o
 .debug_aranges
                0x00000478       0x20 build/aws_demos/debug/_ext/544104044/atca_host.o
 .debug_aranges
                0x00000498       0x20 build/aws_demos/debug/_ext/1326886903/pkcs11_attrib.o
 .debug_aranges
                0x000004b8       0x20 build/aws_demos/debug/_ext/1326886903/pkcs11_cert.o
 .debug_aranges
                0x000004d8       0x20 build/aws_demos/debug/_ext/1326886903/pkcs11_config.o
 .debug_aranges
                0x000004f8       0x20 build/aws_demos/debug/_ext/1326886903/pkcs11_digest.o
 .debug_aranges
                0x00000518       0x20 build/aws_demos/debug/_ext/1326886903/pkcs11_find.o
 .debug_aranges
                0x00000538       0x20 build/aws_demos/debug/_ext/1326886903/pkcs11_info.o
 .debug_aranges
                0x00000558       0x20 build/aws_demos/debug/_ext/1326886903/pkcs11_init.o
 .debug_aranges
                0x00000578       0x20 build/aws_demos/debug/_ext/1326886903/pkcs11_key.o
 .debug_aranges
                0x00000598       0x20 build/aws_demos/debug/_ext/1326886903/pkcs11_main.o
 .debug_aranges
                0x000005b8       0x20 build/aws_demos/debug/_ext/1326886903/pkcs11_mech.o
 .debug_aranges
                0x000005d8       0x20 build/aws_demos/debug/_ext/1326886903/pkcs11_object.o
 .debug_aranges
                0x000005f8       0x20 build/aws_demos/debug/_ext/1326886903/pkcs11_os.o
 .debug_aranges
                0x00000618       0x20 build/aws_demos/debug/_ext/1326886903/pkcs11_session.o
 .debug_aranges
                0x00000638       0x20 build/aws_demos/debug/_ext/1326886903/pkcs11_signature.o
 .debug_aranges
                0x00000658       0x20 build/aws_demos/debug/_ext/1326886903/pkcs11_slot.o
 .debug_aranges
                0x00000678       0x20 build/aws_demos/debug/_ext/1326886903/pkcs11_token.o
 .debug_aranges
                0x00000698       0x20 build/aws_demos/debug/_ext/1326886903/pkcs11_util.o
 .debug_aranges
                0x000006b8       0x20 build/aws_demos/debug/_ext/1110296786/plib_tc3.o
 .debug_aranges
                0x000006d8       0x20 build/aws_demos/debug/_ext/484134862/sys_time.o
 .debug_aranges
                0x000006f8       0x20 build/aws_demos/debug/_ext/1843304010/plib_trng.o
 .debug_aranges
                0x00000718       0x20 build/aws_demos/debug/_ext/1534684544/sys_console_uart.o
 .debug_aranges
                0x00000738       0x20 build/aws_demos/debug/_ext/2104392270/drv_spi.o
 .debug_aranges
                0x00000758       0x18 build/aws_demos/debug/_ext/2146650376/ATECC608A_0.o
 .debug_aranges
                0x00000770       0x20 build/aws_demos/debug/_ext/1762024984/sys_int.o
 .debug_aranges
                0x00000790       0x20 build/aws_demos/debug/_ext/959252812/sys_dma.o
 .debug_aranges
                0x000007b0       0x20 build/aws_demos/debug/_ext/1149029443/osal_freertos.o
 .debug_aranges
                0x000007d0       0x20 build/aws_demos/debug/_ext/1360937237/app.o
 .debug_aranges
                0x000007f0       0x20 build/aws_demos/debug/_ext/1534096987/tasks.o
 .debug_aranges
                0x00000810       0x20 build/aws_demos/debug/_ext/731420310/plib_sercom2_usart.o
 .debug_aranges
                0x00000830       0x20 build/aws_demos/debug/_ext/1321577635/plib_evsys.o
 .debug_aranges
                0x00000850       0x20 build/aws_demos/debug/_ext/1833802790/wdrv_winc.o
 .debug_aranges
                0x00000870       0x20 build/aws_demos/debug/_ext/1833802790/wdrv_winc_authctx.o
 .debug_aranges
                0x00000890       0x20 build/aws_demos/debug/_ext/1833802790/wdrv_winc_bssctx.o
 .debug_aranges
                0x000008b0       0x20 build/aws_demos/debug/_ext/1833802790/wdrv_winc_socket.o
 .debug_aranges
                0x000008d0       0x20 build/aws_demos/debug/_ext/1833802790/wdrv_winc_sta.o
 .debug_aranges
                0x000008f0       0x20 build/aws_demos/debug/_ext/1833802790/wdrv_winc_systime.o
 .debug_aranges
                0x00000910       0x20 build/aws_demos/debug/_ext/978667550/wdrv_winc_eint.o
 .debug_aranges
                0x00000930       0x20 build/aws_demos/debug/_ext/978667550/wdrv_winc_gpio.o
 .debug_aranges
                0x00000950       0x20 build/aws_demos/debug/_ext/384060547/wdrv_winc_spi.o
 .debug_aranges
                0x00000970       0x20 build/aws_demos/debug/_ext/1289849308/wdrv_winc_osal.o
 .debug_aranges
                0x00000990       0x20 build/aws_demos/debug/_ext/2059254151/nm_common.o
 .debug_aranges
                0x000009b0       0x20 build/aws_demos/debug/_ext/2090543044/m2m_flash.o
 .debug_aranges
                0x000009d0       0x20 build/aws_demos/debug/_ext/2090543044/m2m_hif.o
 .debug_aranges
                0x000009f0       0x20 build/aws_demos/debug/_ext/2090543044/m2m_wifi.o
 .debug_aranges
                0x00000a10       0x20 build/aws_demos/debug/_ext/2090543044/nmasic.o
 .debug_aranges
                0x00000a30       0x20 build/aws_demos/debug/_ext/2090543044/nmbus.o
 .debug_aranges
                0x00000a50       0x20 build/aws_demos/debug/_ext/2090543044/nmdrv.o
 .debug_aranges
                0x00000a70       0x20 build/aws_demos/debug/_ext/2090543044/nmflash.o
 .debug_aranges
                0x00000a90       0x20 build/aws_demos/debug/_ext/2090543044/nmspi.o
 .debug_aranges
                0x00000ab0       0x20 build/aws_demos/debug/_ext/1151736449/spi_flash.o
 .debug_aranges
                0x00000ad0       0x20 build/aws_demos/debug/_ext/2090543044/m2m_ota.o
 .debug_aranges
                0x00000af0       0x20 build/aws_demos/debug/_ext/2090543044/m2m_ssl.o
 .debug_aranges
                0x00000b10       0x20 build/aws_demos/debug/_ext/1777946865/socket.o
 .debug_aranges
                0x00000b30       0x20 build/aws_demos/debug/_ext/230789302/plib_sercom7_i2c_master.o
 .debug_aranges
                0x00000b50       0x20 build/aws_demos/debug/_ext/1991396724/sys_command.o
 .debug_aranges
                0x00000b70       0x20 build/aws_demos/debug/_ext/731420310/plib_sercom6_usart.o
 .debug_aranges
                0x00000b90       0x20 build/aws_demos/debug/_ext/1360937237/main.o
 .debug_aranges
                0x00000bb0       0x20 build/aws_demos/debug/_ext/1534096987/initialization.o
 .debug_aranges
                0x00000bd0       0x20 build/aws_demos/debug/_ext/1534096987/interrupts.o
 .debug_aranges
                0x00000bf0       0x20 build/aws_demos/debug/_ext/1534096987/exceptions.o
 .debug_aranges
                0x00000c10       0x20 build/aws_demos/debug/_ext/1263901141/xc32_monitor.o
 .debug_aranges
                0x00000c30       0x20 build/aws_demos/debug/_ext/1843425920/plib_port.o
 .debug_aranges
                0x00000c50       0x20 build/aws_demos/debug/_ext/1323727121/plib_clock.o
 .debug_aranges
                0x00000c70       0x20 build/aws_demos/debug/_ext/1843479071/plib_nvic.o
 .debug_aranges
                0x00000c90       0x20 build/aws_demos/debug/_ext/1843785878/plib_dmac.o
 .debug_aranges
                0x00000cb0       0x20 build/aws_demos/debug/_ext/1534096987/startup_xc32.o
 .debug_aranges
                0x00000cd0       0x20 build/aws_demos/debug/_ext/1916130672/plib_sercom4_spi.o
 .debug_aranges
                0x00000cf0       0x20 build/aws_demos/debug/_ext/59476128/plib_eic.o
 .debug_aranges
                0x00000d10       0x20 build/aws_demos/debug/_ext/1931625852/sys_debug.o
 .debug_aranges
                0x00000d30       0x20 build/aws_demos/debug/_ext/1223942466/aws_demo.o
 .debug_aranges
                0x00000d50       0x20 build/aws_demos/debug/_ext/1223942466/iot_demo_freertos.o
 .debug_aranges
                0x00000d70       0x20 build/aws_demos/debug/_ext/1223942466/iot_demo_runner.o
 .debug_aranges
                0x00000d90       0x20 build/aws_demos/debug/_ext/198771642/aws_dev_mode_key_provisioning.o
 .debug_aranges
                0x00000db0       0x20 build/aws_demos/debug/_ext/1441508942/iot_demo_mqtt.o
 .debug_aranges
                0x00000dd0       0x20 build/aws_demos/debug/_ext/2040524622/aws_iot_network_manager.o
 .debug_aranges
                0x00000df0       0x20 build/aws_demos/debug/_ext/811507611/event_groups.o
 .debug_aranges
                0x00000e10       0x20 build/aws_demos/debug/_ext/811507611/list.o
 .debug_aranges
                0x00000e30       0x20 build/aws_demos/debug/_ext/811507611/queue.o
 .debug_aranges
                0x00000e50       0x20 build/aws_demos/debug/_ext/811507611/tasks.o
 .debug_aranges
                0x00000e70       0x20 build/aws_demos/debug/_ext/811507611/timers.o
 .debug_aranges
                0x00000e90       0x20 build/aws_demos/debug/_ext/684768522/asn1parse.o
 .debug_aranges
                0x00000eb0       0x20 build/aws_demos/debug/_ext/684768522/asn1write.o
 .debug_aranges
                0x00000ed0       0x20 build/aws_demos/debug/_ext/684768522/base64.o
 .debug_aranges
                0x00000ef0       0x20 build/aws_demos/debug/_ext/684768522/bignum.o
 .debug_aranges
                0x00000f10       0x20 build/aws_demos/debug/_ext/684768522/ecdsa.o
 .debug_aranges
                0x00000f30       0x20 build/aws_demos/debug/_ext/684768522/ecp.o
 .debug_aranges
                0x00000f50       0x20 build/aws_demos/debug/_ext/684768522/ecp_curves.o
 .debug_aranges
                0x00000f70       0x20 build/aws_demos/debug/_ext/684768522/md.o
 .debug_aranges
                0x00000f90       0x20 build/aws_demos/debug/_ext/684768522/md_wrap.o
 .debug_aranges
                0x00000fb0       0x20 build/aws_demos/debug/_ext/684768522/oid.o
 .debug_aranges
                0x00000fd0       0x20 build/aws_demos/debug/_ext/684768522/pem.o
 .debug_aranges
                0x00000ff0       0x20 build/aws_demos/debug/_ext/684768522/pk.o
 .debug_aranges
                0x00001010       0x20 build/aws_demos/debug/_ext/684768522/pkparse.o
 .debug_aranges
                0x00001030       0x20 build/aws_demos/debug/_ext/684768522/pk_wrap.o
 .debug_aranges
                0x00001050       0x20 build/aws_demos/debug/_ext/684768522/platform.o
 .debug_aranges
                0x00001070       0x20 build/aws_demos/debug/_ext/684768522/platform_util.o
 .debug_aranges
                0x00001090       0x20 build/aws_demos/debug/_ext/684768522/rsa.o
 .debug_aranges
                0x000010b0       0x20 build/aws_demos/debug/_ext/684768522/rsa_internal.o
 .debug_aranges
                0x000010d0       0x20 build/aws_demos/debug/_ext/684768522/sha1.o
 .debug_aranges
                0x000010f0       0x20 build/aws_demos/debug/_ext/684768522/sha256.o
 .debug_aranges
                0x00001110       0x20 build/aws_demos/debug/_ext/684768522/threading.o
 .debug_aranges
                0x00001130       0x20 build/aws_demos/debug/_ext/684768522/x509.o
 .debug_aranges
                0x00001150       0x20 build/aws_demos/debug/_ext/684768522/x509_crt.o
 .debug_aranges
                0x00001170       0x20 build/aws_demos/debug/_ext/2077790016/mbedtls_utils.o
 .debug_aranges
                0x00001190       0x20 build/aws_demos/debug/_ext/520142351/iot_clock_freertos.o
 .debug_aranges
                0x000011b0       0x20 build/aws_demos/debug/_ext/520142351/iot_network_freertos.o
 .debug_aranges
                0x000011d0       0x20 build/aws_demos/debug/_ext/520142351/iot_threads_freertos.o
 .debug_aranges
                0x000011f0       0x20 build/aws_demos/debug/_ext/13066905/iot_device_metrics.o
 .debug_aranges
                0x00001210       0x20 build/aws_demos/debug/_ext/13066905/iot_init.o
 .debug_aranges
                0x00001230       0x20 build/aws_demos/debug/_ext/227692215/iot_logging.o
 .debug_aranges
                0x00001250       0x20 build/aws_demos/debug/_ext/227692215/iot_logging_task_dynamic_buffers.o
 .debug_aranges
                0x00001270       0x20 build/aws_demos/debug/_ext/333408969/iot_taskpool.o
 .debug_aranges
                0x00001290       0x20 build/aws_demos/debug/_ext/1739149067/iot_mqtt_api.o
 .debug_aranges
                0x000012b0       0x20 build/aws_demos/debug/_ext/1739149067/iot_mqtt_network.o
 .debug_aranges
                0x000012d0       0x20 build/aws_demos/debug/_ext/1739149067/iot_mqtt_operation.o
 .debug_aranges
                0x000012f0       0x20 build/aws_demos/debug/_ext/1739149067/iot_mqtt_serialize.o
 .debug_aranges
                0x00001310       0x20 build/aws_demos/debug/_ext/1739149067/iot_mqtt_subscription.o
 .debug_aranges
                0x00001330       0x20 build/aws_demos/debug/_ext/1739149067/iot_mqtt_validate.o
 .debug_aranges
                0x00001350       0x20 build/aws_demos/debug/_ext/350635301/iot_crypto.o
 .debug_aranges
                0x00001370       0x20 build/aws_demos/debug/_ext/2138053595/iot_pkcs11.o
 .debug_aranges
                0x00001390       0x20 build/aws_demos/debug/_ext/1120274527/iot_system_init.o
 .debug_aranges
                0x000013b0       0x20 build/aws_demos/debug/_ext/1534684544/sys_console.o
 .debug_aranges
                0x000013d0       0x20 build/aws_demos/debug/_ext/2146650376/hal_i2c_harmony.o
 .debug_aranges
                0x000013f0       0x20 build/aws_demos/debug/_ext/2146650376/atca_hal.o
 .debug_aranges
                0x00001410       0x20 build/aws_demos/debug/_ext/2146650376/hal_freertos.o
 .debug_aranges
                0x00001430       0x18 build/aws_demos/debug/_ext/2146650376/hal_i2c_harmony_init.o
 .debug_aranges
                0x00001448       0x20 build/aws_demos/debug/_ext/2146650376/hal_cortex_m_delay.o
 .debug_aranges
                0x00001468       0x20 c:/program files/microchip/xc32/v2.40/bin/bin/../../lib/gcc/pic32c/6.2.1/../../../../pic32c/lib/v7e-m/fpv4-sp/hard\libpic32c.a(close.o)
 .debug_aranges
                0x00001488       0x20 c:/program files/microchip/xc32/v2.40/bin/bin/../../lib/gcc/pic32c/6.2.1/../../../../pic32c/lib/v7e-m/fpv4-sp/hard\libpic32c.a(data_init.o)
 .debug_aranges
                0x000014a8       0x20 c:/program files/microchip/xc32/v2.40/bin/bin/../../lib/gcc/pic32c/6.2.1/v7e-m/fpv4-sp/hard\libgcc.a(_arm_addsubdf3.o)
 .debug_aranges
                0x000014c8       0x20 c:/program files/microchip/xc32/v2.40/bin/bin/../../lib/gcc/pic32c/6.2.1/v7e-m/fpv4-sp/hard\libgcc.a(_arm_muldivdf3.o)
 .debug_aranges
                0x000014e8       0x20 c:/program files/microchip/xc32/v2.40/bin/bin/../../lib/gcc/pic32c/6.2.1/v7e-m/fpv4-sp/hard\libgcc.a(_arm_fixunsdfsi.o)
 .debug_aranges
                0x00001508       0x20 c:/program files/microchip/xc32/v2.40/bin/bin/../../lib/gcc/pic32c/6.2.1/v7e-m/fpv4-sp/hard\libgcc.a(_aeabi_uldivmod.o)
 .debug_aranges
                0x00001528       0x20 c:/program files/microchip/xc32/v2.40/bin/bin/../../lib/gcc/pic32c/6.2.1/v7e-m/fpv4-sp/hard\libgcc.a(_udivmoddi4.o)
 .debug_aranges
                0x00001548       0x20 c:/program files/microchip/xc32/v2.40/bin/bin/../../lib/gcc/pic32c/6.2.1/v7e-m/fpv4-sp/hard\libgcc.a(_dvmd_tls.o)
 .debug_aranges
                0x00001568       0x20 c:/program files/microchip/xc32/v2.40/bin/bin/../../lib/gcc/pic32c/6.2.1/../../../../pic32c/lib/v7e-m/fpv4-sp/hard\libg_nano.a(lib_a-calloc.o)
 .debug_aranges
                0x00001588       0x20 c:/program files/microchip/xc32/v2.40/bin/bin/../../lib/gcc/pic32c/6.2.1/../../../../pic32c/lib/v7e-m/fpv4-sp/hard\libg_nano.a(lib_a-gmtime.o)
 .debug_aranges
                0x000015a8       0x20 c:/program files/microchip/xc32/v2.40/bin/bin/../../lib/gcc/pic32c/6.2.1/../../../../pic32c/lib/v7e-m/fpv4-sp/hard\libg_nano.a(lib_a-gmtime_r.o)
 .debug_aranges
                0x000015c8       0x18 c:/program files/microchip/xc32/v2.40/bin/bin/../../lib/gcc/pic32c/6.2.1/../../../../pic32c/lib/v7e-m/fpv4-sp/hard\libg_nano.a(lib_a-impure.o)
 .debug_aranges
                0x000015e0       0x20 c:/program files/microchip/xc32/v2.40/bin/bin/../../lib/gcc/pic32c/6.2.1/../../../../pic32c/lib/v7e-m/fpv4-sp/hard\libg_nano.a(lib_a-init.o)
 .debug_aranges
                0x00001600       0x40 c:/program files/microchip/xc32/v2.40/bin/bin/../../lib/gcc/pic32c/6.2.1/../../../../pic32c/lib/v7e-m/fpv4-sp/hard\libg_nano.a(lib_a-locale.o)
 .debug_aranges
                0x00001640       0x28 c:/program files/microchip/xc32/v2.40/bin/bin/../../lib/gcc/pic32c/6.2.1/../../../../pic32c/lib/v7e-m/fpv4-sp/hard\libg_nano.a(lib_a-malloc.o)
 .debug_aranges
                0x00001668       0x28 c:/program files/microchip/xc32/v2.40/bin/bin/../../lib/gcc/pic32c/6.2.1/../../../../pic32c/lib/v7e-m/fpv4-sp/hard\libg_nano.a(lib_a-mbtowc_r.o)
 .debug_aranges
                0x00001690       0x20 c:/program files/microchip/xc32/v2.40/bin/bin/../../lib/gcc/pic32c/6.2.1/../../../../pic32c/lib/v7e-m/fpv4-sp/hard\libg_nano.a(lib_a-memchr.o)
 .debug_aranges
                0x000016b0       0x20 c:/program files/microchip/xc32/v2.40/bin/bin/../../lib/gcc/pic32c/6.2.1/../../../../pic32c/lib/v7e-m/fpv4-sp/hard\libg_nano.a(lib_a-memcmp.o)
 .debug_aranges
                0x000016d0       0x20 c:/program files/microchip/xc32/v2.40/bin/bin/../../lib/gcc/pic32c/6.2.1/../../../../pic32c/lib/v7e-m/fpv4-sp/hard\libg_nano.a(lib_a-memcpy-stub.o)
 .debug_aranges
                0x000016f0       0x20 c:/program files/microchip/xc32/v2.40/bin/bin/../../lib/gcc/pic32c/6.2.1/../../../../pic32c/lib/v7e-m/fpv4-sp/hard\libg_nano.a(lib_a-memmove.o)
 .debug_aranges
                0x00001710       0x20 c:/program files/microchip/xc32/v2.40/bin/bin/../../lib/gcc/pic32c/6.2.1/../../../../pic32c/lib/v7e-m/fpv4-sp/hard\libg_nano.a(lib_a-memset.o)
 .debug_aranges
                0x00001730       0x28 c:/program files/microchip/xc32/v2.40/bin/bin/../../lib/gcc/pic32c/6.2.1/../../../../pic32c/lib/v7e-m/fpv4-sp/hard\libg_nano.a(lib_a-mktime.o)
 .debug_aranges
                0x00001758       0x20 c:/program files/microchip/xc32/v2.40/bin/bin/../../lib/gcc/pic32c/6.2.1/../../../../pic32c/lib/v7e-m/fpv4-sp/hard\libg_nano.a(lib_a-nano-callocr.o)
 .debug_aranges
                0x00001778       0x20 c:/program files/microchip/xc32/v2.40/bin/bin/../../lib/gcc/pic32c/6.2.1/../../../../pic32c/lib/v7e-m/fpv4-sp/hard\libg_nano.a(lib_a-nano-freer.o)
 .debug_aranges
                0x00001798       0x20 c:/program files/microchip/xc32/v2.40/bin/bin/../../lib/gcc/pic32c/6.2.1/../../../../pic32c/lib/v7e-m/fpv4-sp/hard\libg_nano.a(lib_a-nano-mallocr.o)
 .debug_aranges
                0x000017b8       0x28 c:/program files/microchip/xc32/v2.40/bin/bin/../../lib/gcc/pic32c/6.2.1/../../../../pic32c/lib/v7e-m/fpv4-sp/hard\libg_nano.a(lib_a-nano-vfprintf.o)
 .debug_aranges
                0x000017e0       0x30 c:/program files/microchip/xc32/v2.40/bin/bin/../../lib/gcc/pic32c/6.2.1/../../../../pic32c/lib/v7e-m/fpv4-sp/hard\libg_nano.a(_lib_a-nano-vfprintf.s.o)
 .debug_aranges
                0x00001810       0x28 c:/program files/microchip/xc32/v2.40/bin/bin/../../lib/gcc/pic32c/6.2.1/../../../../pic32c/lib/v7e-m/fpv4-sp/hard\libg_nano.a(lib_a-printf.o)
 .debug_aranges
                0x00001838       0x28 c:/program files/microchip/xc32/v2.40/bin/bin/../../lib/gcc/pic32c/6.2.1/../../../../pic32c/lib/v7e-m/fpv4-sp/hard\libg_nano.a(lib_a-putchar.o)
 .debug_aranges
                0x00001860       0x28 c:/program files/microchip/xc32/v2.40/bin/bin/../../lib/gcc/pic32c/6.2.1/../../../../pic32c/lib/v7e-m/fpv4-sp/hard\libg_nano.a(lib_a-putc.o)
 .debug_aranges
                0x00001888       0x28 c:/program files/microchip/xc32/v2.40/bin/bin/../../lib/gcc/pic32c/6.2.1/../../../../pic32c/lib/v7e-m/fpv4-sp/hard\libg_nano.a(lib_a-puts.o)
 .debug_aranges
                0x000018b0       0x28 c:/program files/microchip/xc32/v2.40/bin/bin/../../lib/gcc/pic32c/6.2.1/../../../../pic32c/lib/v7e-m/fpv4-sp/hard\libg_nano.a(lib_a-rand.o)
 .debug_aranges
                0x000018d8       0x20 c:/program files/microchip/xc32/v2.40/bin/bin/../../lib/gcc/pic32c/6.2.1/../../../../pic32c/lib/v7e-m/fpv4-sp/hard\libg_nano.a(lib_a-sbrkr.o)
 .debug_aranges
                0x000018f8       0x28 c:/program files/microchip/xc32/v2.40/bin/bin/../../lib/gcc/pic32c/6.2.1/../../../../pic32c/lib/v7e-m/fpv4-sp/hard\libg_nano.a(lib_a-snprintf.o)
 .debug_aranges
                0x00001920       0x28 c:/program files/microchip/xc32/v2.40/bin/bin/../../lib/gcc/pic32c/6.2.1/../../../../pic32c/lib/v7e-m/fpv4-sp/hard\libg_nano.a(lib_a-sprintf.o)
 .debug_aranges
                0x00001948       0x28 c:/program files/microchip/xc32/v2.40/bin/bin/../../lib/gcc/pic32c/6.2.1/../../../../pic32c/lib/v7e-m/fpv4-sp/hard\libg_nano.a(lib_a-__ssfputs.o)
 .debug_aranges
                0x00001970       0x40 c:/program files/microchip/xc32/v2.40/bin/bin/../../lib/gcc/pic32c/6.2.1/../../../../pic32c/lib/v7e-m/fpv4-sp/hard\libg_nano.a(lib_a-stdio.o)
 .debug_aranges
                0x000019b0       0x20 c:/program files/microchip/xc32/v2.40/bin/bin/../../lib/gcc/pic32c/6.2.1/../../../../pic32c/lib/v7e-m/fpv4-sp/hard\libg_nano.a(lib_a-strcat.o)
 .debug_aranges
                0x000019d0       0x20 c:/program files/microchip/xc32/v2.40/bin/bin/../../lib/gcc/pic32c/6.2.1/../../../../pic32c/lib/v7e-m/fpv4-sp/hard\libg_nano.a(lib_a-strcmp.o)
 .debug_aranges
                0x000019f0       0x20 c:/program files/microchip/xc32/v2.40/bin/bin/../../lib/gcc/pic32c/6.2.1/../../../../pic32c/lib/v7e-m/fpv4-sp/hard\libg_nano.a(lib_a-strcpy.o)
 .debug_aranges
                0x00001a10       0x20 c:/program files/microchip/xc32/v2.40/bin/bin/../../lib/gcc/pic32c/6.2.1/../../../../pic32c/lib/v7e-m/fpv4-sp/hard\libg_nano.a(lib_a-strlen.o)
 .debug_aranges
                0x00001a30       0x20 c:/program files/microchip/xc32/v2.40/bin/bin/../../lib/gcc/pic32c/6.2.1/../../../../pic32c/lib/v7e-m/fpv4-sp/hard\libg_nano.a(lib_a-strncmp.o)
 .debug_aranges
                0x00001a50       0x20 c:/program files/microchip/xc32/v2.40/bin/bin/../../lib/gcc/pic32c/6.2.1/../../../../pic32c/lib/v7e-m/fpv4-sp/hard\libg_nano.a(lib_a-strncpy.o)
 .debug_aranges
                0x00001a70       0x20 c:/program files/microchip/xc32/v2.40/bin/bin/../../lib/gcc/pic32c/6.2.1/../../../../pic32c/lib/v7e-m/fpv4-sp/hard\libg_nano.a(lib_a-strstr.o)
 .debug_aranges
                0x00001a90       0x38 c:/program files/microchip/xc32/v2.40/bin/bin/../../lib/gcc/pic32c/6.2.1/../../../../pic32c/lib/v7e-m/fpv4-sp/hard\libg_nano.a(lib_a-strtol.o)
 .debug_aranges
                0x00001ac8       0x38 c:/program files/microchip/xc32/v2.40/bin/bin/../../lib/gcc/pic32c/6.2.1/../../../../pic32c/lib/v7e-m/fpv4-sp/hard\libg_nano.a(lib_a-strtoul.o)
 .debug_aranges
                0x00001b00       0x20 c:/program files/microchip/xc32/v2.40/bin/bin/../../lib/gcc/pic32c/6.2.1/../../../../pic32c/lib/v7e-m/fpv4-sp/hard\libg_nano.a(lib_a-tzcalc_limits.o)
 .debug_aranges
                0x00001b20       0x20 c:/program files/microchip/xc32/v2.40/bin/bin/../../lib/gcc/pic32c/6.2.1/../../../../pic32c/lib/v7e-m/fpv4-sp/hard\libg_nano.a(lib_a-tzset.o)
 .debug_aranges
                0x00001b40       0x28 c:/program files/microchip/xc32/v2.40/bin/bin/../../lib/gcc/pic32c/6.2.1/../../../../pic32c/lib/v7e-m/fpv4-sp/hard\libg_nano.a(lib_a-tzset_r.o)
 .debug_aranges
                0x00001b68       0x18 c:/program files/microchip/xc32/v2.40/bin/bin/../../lib/gcc/pic32c/6.2.1/../../../../pic32c/lib/v7e-m/fpv4-sp/hard\libg_nano.a(lib_a-tzvars.o)
 .debug_aranges
                0x00001b80       0x28 c:/program files/microchip/xc32/v2.40/bin/bin/../../lib/gcc/pic32c/6.2.1/../../../../pic32c/lib/v7e-m/fpv4-sp/hard\libg_nano.a(lib_a-vsnprintf.o)
 .debug_aranges
                0x00001ba8       0x28 c:/program files/microchip/xc32/v2.40/bin/bin/../../lib/gcc/pic32c/6.2.1/../../../../pic32c/lib/v7e-m/fpv4-sp/hard\libg_nano.a(lib_a-wbuf.o)
 .debug_aranges
                0x00001bd0       0x28 c:/program files/microchip/xc32/v2.40/bin/bin/../../lib/gcc/pic32c/6.2.1/../../../../pic32c/lib/v7e-m/fpv4-sp/hard\libg_nano.a(lib_a-wctomb_r.o)
 .debug_aranges
                0x00001bf8       0x20 c:/program files/microchip/xc32/v2.40/bin/bin/../../lib/gcc/pic32c/6.2.1/../../../../pic32c/lib/v7e-m/fpv4-sp/hard\libg_nano.a(lib_a-writer.o)
 .debug_aranges
                0x00001c18       0x20 c:/program files/microchip/xc32/v2.40/bin/bin/../../lib/gcc/pic32c/6.2.1/../../../../pic32c/lib/v7e-m/fpv4-sp/hard\libg_nano.a(lib_a-wsetup.o)
 .debug_aranges
                0x00001c38       0x20 c:/program files/microchip/xc32/v2.40/bin/bin/../../lib/gcc/pic32c/6.2.1/../../../../pic32c/lib/v7e-m/fpv4-sp/hard\libg_nano.a(lib_a-closer.o)
 .debug_aranges
                0x00001c58       0x18 c:/program files/microchip/xc32/v2.40/bin/bin/../../lib/gcc/pic32c/6.2.1/../../../../pic32c/lib/v7e-m/fpv4-sp/hard\libg_nano.a(lib_a-ctype_.o)
 .debug_aranges
                0x00001c70       0x20 c:/program files/microchip/xc32/v2.40/bin/bin/../../lib/gcc/pic32c/6.2.1/../../../../pic32c/lib/v7e-m/fpv4-sp/hard\libg_nano.a(lib_a-div.o)
 .debug_aranges
                0x00001c90       0x30 c:/program files/microchip/xc32/v2.40/bin/bin/../../lib/gcc/pic32c/6.2.1/../../../../pic32c/lib/v7e-m/fpv4-sp/hard\libg_nano.a(lib_a-fflush.o)
 .debug_aranges
                0x00001cc0       0x48 c:/program files/microchip/xc32/v2.40/bin/bin/../../lib/gcc/pic32c/6.2.1/../../../../pic32c/lib/v7e-m/fpv4-sp/hard\libg_nano.a(lib_a-findfp.o)
 .debug_aranges
                0x00001d08       0x30 c:/program files/microchip/xc32/v2.40/bin/bin/../../lib/gcc/pic32c/6.2.1/../../../../pic32c/lib/v7e-m/fpv4-sp/hard\libg_nano.a(lib_a-fputwc.o)
 .debug_aranges
                0x00001d38       0x28 c:/program files/microchip/xc32/v2.40/bin/bin/../../lib/gcc/pic32c/6.2.1/../../../../pic32c/lib/v7e-m/fpv4-sp/hard\libg_nano.a(lib_a-fwalk.o)
 .debug_aranges
                0x00001d60       0x28 c:/program files/microchip/xc32/v2.40/bin/bin/../../lib/gcc/pic32c/6.2.1/../../../../pic32c/lib/v7e-m/fpv4-sp/hard\libg_nano.a(lib_a-getenv_r.o)
 .debug_aranges
                0x00001d88       0x20 c:/program files/microchip/xc32/v2.40/bin/bin/../../lib/gcc/pic32c/6.2.1/../../../../pic32c/lib/v7e-m/fpv4-sp/hard\libg_nano.a(lib_a-gettzinfo.o)
 .debug_aranges
                0x00001da8       0x20 c:/program files/microchip/xc32/v2.40/bin/bin/../../lib/gcc/pic32c/6.2.1/../../../../pic32c/lib/v7e-m/fpv4-sp/hard\libg_nano.a(lib_a-lseekr.o)
 .debug_aranges
                0x00001dc8       0x28 c:/program files/microchip/xc32/v2.40/bin/bin/../../lib/gcc/pic32c/6.2.1/../../../../pic32c/lib/v7e-m/fpv4-sp/hard\libg_nano.a(lib_a-makebuf.o)
 .debug_aranges
                0x00001df0       0x20 c:/program files/microchip/xc32/v2.40/bin/bin/../../lib/gcc/pic32c/6.2.1/../../../../pic32c/lib/v7e-m/fpv4-sp/hard\libg_nano.a(lib_a-mlock.o)
 .debug_aranges
                0x00001e10       0x18 c:/program files/microchip/xc32/v2.40/bin/bin/../../lib/gcc/pic32c/6.2.1/../../../../pic32c/lib/v7e-m/fpv4-sp/hard\libg_nano.a(lib_a-month_lengths.o)
 .debug_aranges
                0x00001e28       0x20 c:/program files/microchip/xc32/v2.40/bin/bin/../../lib/gcc/pic32c/6.2.1/../../../../pic32c/lib/v7e-m/fpv4-sp/hard\libg_nano.a(lib_a-nano-svfprintf.o)
 .debug_aranges
                0x00001e48       0x28 c:/program files/microchip/xc32/v2.40/bin/bin/../../lib/gcc/pic32c/6.2.1/../../../../pic32c/lib/v7e-m/fpv4-sp/hard\libg_nano.a(lib_a-nano-vfprintf_i.o)
 .debug_aranges
                0x00001e70       0x38 c:/program files/microchip/xc32/v2.40/bin/bin/../../lib/gcc/pic32c/6.2.1/../../../../pic32c/lib/v7e-m/fpv4-sp/hard\libg_nano.a(_lib_a-nano-vfscanf.cdnopsuxX.o)
 .debug_aranges
                0x00001ea8       0x20 c:/program files/microchip/xc32/v2.40/bin/bin/../../lib/gcc/pic32c/6.2.1/../../../../pic32c/lib/v7e-m/fpv4-sp/hard\libg_nano.a(lib_a-readr.o)
 .debug_aranges
                0x00001ec8       0x28 c:/program files/microchip/xc32/v2.40/bin/bin/../../lib/gcc/pic32c/6.2.1/../../../../pic32c/lib/v7e-m/fpv4-sp/hard\libg_nano.a(lib_a-reent.o)
 .debug_aranges
                0x00001ef0       0x20 c:/program files/microchip/xc32/v2.40/bin/bin/../../lib/gcc/pic32c/6.2.1/../../../../pic32c/lib/v7e-m/fpv4-sp/hard\libg_nano.a(lib_a-sccl.o)
 .debug_aranges
                0x00001f10       0x28 c:/program files/microchip/xc32/v2.40/bin/bin/../../lib/gcc/pic32c/6.2.1/../../../../pic32c/lib/v7e-m/fpv4-sp/hard\libg_nano.a(lib_a-sscanf.o)
 .debug_aranges
                0x00001f38       0x20 c:/program files/microchip/xc32/v2.40/bin/bin/../../lib/gcc/pic32c/6.2.1/../../../../pic32c/lib/v7e-m/fpv4-sp/hard\libg_nano.a(lib_a-__ssputs.o)
 .debug_aranges
                0x00001f58       0x30 c:/program files/microchip/xc32/v2.40/bin/bin/../../lib/gcc/pic32c/6.2.1/../../../../pic32c/lib/v7e-m/fpv4-sp/hard\libg_nano.a(lib_a-ungetc.o)
 .debug_aranges
                0x00001f88       0x28 c:/program files/microchip/xc32/v2.40/bin/bin/../../lib/gcc/pic32c/6.2.1/../../../../pic32c/lib/v7e-m/fpv4-sp/hard\libg_nano.a(lib_a-wcrtomb.o)
 .debug_aranges
                0x00001fb0       0x18 c:/program files/microchip/xc32/v2.40/bin/bin/../../lib/gcc/pic32c/6.2.1/../../../../pic32c/lib/v7e-m/fpv4-sp/hard\libg_nano.a(lib_a-environ.o)
 .debug_aranges
                0x00001fc8       0x20 c:/program files/microchip/xc32/v2.40/bin/bin/../../lib/gcc/pic32c/6.2.1/../../../../pic32c/lib/v7e-m/fpv4-sp/hard\libg_nano.a(lib_a-envlock.o)
 .debug_aranges
                0x00001fe8       0x20 c:/program files/microchip/xc32/v2.40/bin/bin/../../lib/gcc/pic32c/6.2.1/../../../../pic32c/lib/v7e-m/fpv4-sp/hard\libg_nano.a(lib_a-fstatr.o)
 .debug_aranges
                0x00002008       0x20 c:/program files/microchip/xc32/v2.40/bin/bin/../../lib/gcc/pic32c/6.2.1/../../../../pic32c/lib/v7e-m/fpv4-sp/hard\libg_nano.a(lib_a-isattyr.o)
 .debug_aranges
                0x00002028       0x20 c:/program files/microchip/xc32/v2.40/bin/bin/../../lib/gcc/pic32c/6.2.1/../../../../pic32c/lib/v7e-m/fpv4-sp/hard\libg_nano.a(lib_a-nano-reallocr.o)
 .debug_aranges
                0x00002048       0x30 c:/program files/microchip/xc32/v2.40/bin/bin/../../lib/gcc/pic32c/6.2.1/../../../../pic32c/lib/v7e-m/fpv4-sp/hard\libg_nano.a(lib_a-nano-svfscanf.o)
 .debug_aranges
                0x00002078       0x28 c:/program files/microchip/xc32/v2.40/bin/bin/../../lib/gcc/pic32c/6.2.1/../../../../pic32c/lib/v7e-m/fpv4-sp/hard\libg_nano.a(lib_a-nano-vfscanf_i.o)
 .debug_aranges
                0x000020a0       0x20 c:/program files/microchip/xc32/v2.40/bin/bin/../../lib/gcc/pic32c/6.2.1/../../../../pic32c/lib/v7e-m/fpv4-sp/hard\libg_nano.a(lib_a-nano-msizer.o)
 .debug_aranges
                0x000020c0       0x20 c:/program files/microchip/xc32/v2.40/bin/bin/../../lib/gcc/pic32c/6.2.1/../../../../pic32c/lib/v7e-m/fpv4-sp/hard\libpic32c.a(_close.o)
 .debug_aranges
                0x000020e0       0x20 c:/program files/microchip/xc32/v2.40/bin/bin/../../lib/gcc/pic32c/6.2.1/../../../../pic32c/lib/v7e-m/fpv4-sp/hard\libpic32c.a(_fstat.o)
 .debug_aranges
                0x00002100       0x20 c:/program files/microchip/xc32/v2.40/bin/bin/../../lib/gcc/pic32c/6.2.1/../../../../pic32c/lib/v7e-m/fpv4-sp/hard\libpic32c.a(_isatty.o)
 .debug_aranges
                0x00002120       0x20 c:/program files/microchip/xc32/v2.40/bin/bin/../../lib/gcc/pic32c/6.2.1/../../../../pic32c/lib/v7e-m/fpv4-sp/hard\libpic32c.a(_lseek.o)
 .debug_aranges
                0x00002140       0x20 c:/program files/microchip/xc32/v2.40/bin/bin/../../lib/gcc/pic32c/6.2.1/../../../../pic32c/lib/v7e-m/fpv4-sp/hard\libpic32c.a(_read.o)
 .debug_aranges
                0x00002160       0x20 c:/program files/microchip/xc32/v2.40/bin/bin/../../lib/gcc/pic32c/6.2.1/../../../../pic32c/lib/v7e-m/fpv4-sp/hard\libpic32c.a(sbrk.o)
 .debug_aranges
                0x00002180       0x20 c:/program files/microchip/xc32/v2.40/bin/bin/../../lib/gcc/pic32c/6.2.1/../../../../pic32c/lib/v7e-m/fpv4-sp/hard\libpic32c.a(_write.o)
 .debug_aranges
                0x000021a0       0x20 c:/program files/microchip/xc32/v2.40/bin/bin/../../lib/gcc/pic32c/6.2.1/../../../../pic32c/lib/v7e-m/fpv4-sp/hard\libpic32c.a(fstat.o)
 .debug_aranges
                0x000021c0       0x20 c:/program files/microchip/xc32/v2.40/bin/bin/../../lib/gcc/pic32c/6.2.1/../../../../pic32c/lib/v7e-m/fpv4-sp/hard\libpic32c.a(isatty.o)
 .debug_aranges
                0x000021e0       0x20 c:/program files/microchip/xc32/v2.40/bin/bin/../../lib/gcc/pic32c/6.2.1/../../../../pic32c/lib/v7e-m/fpv4-sp/hard\libpic32c.a(lseek.o)
 .debug_aranges
                0x00002200       0x20 c:/program files/microchip/xc32/v2.40/bin/bin/../../lib/gcc/pic32c/6.2.1/../../../../pic32c/lib/v7e-m/fpv4-sp/hard\libpic32c.a(read.o)
 .debug_aranges
                0x00002220       0x20 c:/program files/microchip/xc32/v2.40/bin/bin/../../lib/gcc/pic32c/6.2.1/../../../../pic32c/lib/v7e-m/fpv4-sp/hard\libpic32c.a(write.o)

.debug_line     0x00000000    0x3d764
 .debug_line    0x00000000      0x242 build/aws_demos/debug/_ext/665618993/plib_nvmctrl.o
 .debug_line    0x00000242      0x285 build/aws_demos/debug/_ext/1385882503/port.o
 .debug_line    0x000004c7      0x35d build/aws_demos/debug/_ext/1168480030/heap_4.o
 .debug_line    0x00000824      0x53d build/aws_demos/debug/_ext/787859085/atca_cert_chain.o
 .debug_line    0x00000d61      0x86f build/aws_demos/debug/_ext/1972722184/iot_pkcs11_secure_element.o
 .debug_line    0x000015d0      0xc0b build/aws_demos/debug/_ext/2009324866/aws_wifi.o
 .debug_line    0x000021db      0x99d build/aws_demos/debug/_ext/2009324866/iot_secure_sockets.o
 .debug_line    0x00002b78      0x619 build/aws_demos/debug/_ext/1456806047/atcacert_client.o
 .debug_line    0x00003191      0x4dc build/aws_demos/debug/_ext/1456806047/atcacert_date.o
 .debug_line    0x0000366d      0xab9 build/aws_demos/debug/_ext/1456806047/atcacert_def.o
 .debug_line    0x00004126      0x302 build/aws_demos/debug/_ext/1456806047/atcacert_der.o
 .debug_line    0x00004428      0x568 build/aws_demos/debug/_ext/1456806047/atcacert_pem.o
 .debug_line    0x00004990      0x34e build/aws_demos/debug/_ext/1009855837/atca_command.o
 .debug_line    0x00004cde      0x261 build/aws_demos/debug/_ext/1009855837/atca_device.o
 .debug_line    0x00004f3f      0x46c build/aws_demos/debug/_ext/1009855837/atca_execution.o
 .debug_line    0x000053ab      0x47f build/aws_demos/debug/_ext/1009855837/atca_iface.o
 .debug_line    0x0000582a      0x580 build/aws_demos/debug/_ext/306685378/atca_basic.o
 .debug_line    0x00005daa      0x4b2 build/aws_demos/debug/_ext/306685378/atca_basic_checkmac.o
 .debug_line    0x0000625c      0x533 build/aws_demos/debug/_ext/306685378/atca_basic_ecdh.o
 .debug_line    0x0000678f      0x4bb build/aws_demos/debug/_ext/306685378/atca_basic_gendig.o
 .debug_line    0x00006c4a      0x4aa build/aws_demos/debug/_ext/306685378/atca_basic_genkey.o
 .debug_line    0x000070f4      0x4b9 build/aws_demos/debug/_ext/306685378/atca_basic_info.o
 .debug_line    0x000075ad      0x4b1 build/aws_demos/debug/_ext/306685378/atca_basic_lock.o
 .debug_line    0x00007a5e      0x4d3 build/aws_demos/debug/_ext/306685378/atca_basic_nonce.o
 .debug_line    0x00007f31      0x535 build/aws_demos/debug/_ext/306685378/atca_basic_privwrite.o
 .debug_line    0x00008466      0x49d build/aws_demos/debug/_ext/306685378/atca_basic_random.o
 .debug_line    0x00008903      0x61d build/aws_demos/debug/_ext/306685378/atca_basic_read.o
 .debug_line    0x00008f20      0x4bd build/aws_demos/debug/_ext/306685378/atca_basic_sign.o
 .debug_line    0x000093dd      0x49f build/aws_demos/debug/_ext/306685378/atca_basic_updateextra.o
 .debug_line    0x0000987c      0x5c8 build/aws_demos/debug/_ext/306685378/atca_basic_verify.o
 .debug_line    0x00009e44      0x5f6 build/aws_demos/debug/_ext/306685378/atca_basic_write.o
 .debug_line    0x0000a43a      0x681 build/aws_demos/debug/_ext/306685378/atca_helpers.o
 .debug_line    0x0000aabb      0x2a9 build/aws_demos/debug/_ext/961827245/atca_crypto_sw_sha1.o
 .debug_line    0x0000ad64      0x249 build/aws_demos/debug/_ext/961827245/atca_crypto_sw_sha2.o
 .debug_line    0x0000afad      0x277 build/aws_demos/debug/_ext/1070826718/sha1_routines.o
 .debug_line    0x0000b224      0x226 build/aws_demos/debug/_ext/1070826718/sha2_routines.o
 .debug_line    0x0000b44a      0x8c5 build/aws_demos/debug/_ext/544104044/atca_host.o
 .debug_line    0x0000bd0f      0x4ea build/aws_demos/debug/_ext/1326886903/pkcs11_attrib.o
 .debug_line    0x0000c1f9      0x5f7 build/aws_demos/debug/_ext/1326886903/pkcs11_cert.o
 .debug_line    0x0000c7f0      0x553 build/aws_demos/debug/_ext/1326886903/pkcs11_config.o
 .debug_line    0x0000cd43      0x5fb build/aws_demos/debug/_ext/1326886903/pkcs11_digest.o
 .debug_line    0x0000d33e      0x63e build/aws_demos/debug/_ext/1326886903/pkcs11_find.o
 .debug_line    0x0000d97c      0x513 build/aws_demos/debug/_ext/1326886903/pkcs11_info.o
 .debug_line    0x0000de8f      0x5c8 build/aws_demos/debug/_ext/1326886903/pkcs11_init.o
 .debug_line    0x0000e457      0x660 build/aws_demos/debug/_ext/1326886903/pkcs11_key.o
 .debug_line    0x0000eab7      0x6a1 build/aws_demos/debug/_ext/1326886903/pkcs11_main.o
 .debug_line    0x0000f158      0x55b build/aws_demos/debug/_ext/1326886903/pkcs11_mech.o
 .debug_line    0x0000f6b3      0x666 build/aws_demos/debug/_ext/1326886903/pkcs11_object.o
 .debug_line    0x0000fd19      0x551 build/aws_demos/debug/_ext/1326886903/pkcs11_os.o
 .debug_line    0x0001026a      0x69d build/aws_demos/debug/_ext/1326886903/pkcs11_session.o
 .debug_line    0x00010907      0x593 build/aws_demos/debug/_ext/1326886903/pkcs11_signature.o
 .debug_line    0x00010e9a      0x620 build/aws_demos/debug/_ext/1326886903/pkcs11_slot.o
 .debug_line    0x000114ba      0x684 build/aws_demos/debug/_ext/1326886903/pkcs11_token.o
 .debug_line    0x00011b3e      0x4d1 build/aws_demos/debug/_ext/1326886903/pkcs11_util.o
 .debug_line    0x0001200f      0x1b4 build/aws_demos/debug/_ext/1110296786/plib_tc3.o
 .debug_line    0x000121c3      0x600 build/aws_demos/debug/_ext/484134862/sys_time.o
 .debug_line    0x000127c3      0x166 build/aws_demos/debug/_ext/1843304010/plib_trng.o
 .debug_line    0x00012929      0x458 build/aws_demos/debug/_ext/1534684544/sys_console_uart.o
 .debug_line    0x00012d81      0x7b2 build/aws_demos/debug/_ext/2104392270/drv_spi.o
 .debug_line    0x00013533      0x498 build/aws_demos/debug/_ext/2146650376/ATECC608A_0.o
 .debug_line    0x000139cb      0x208 build/aws_demos/debug/_ext/1762024984/sys_int.o
 .debug_line    0x00013bd3      0x1e5 build/aws_demos/debug/_ext/959252812/sys_dma.o
 .debug_line    0x00013db8      0x24f build/aws_demos/debug/_ext/1149029443/osal_freertos.o
 .debug_line    0x00014007      0x13c build/aws_demos/debug/_ext/1360937237/app.o
 .debug_line    0x00014143      0x3e5 build/aws_demos/debug/_ext/1534096987/tasks.o
 .debug_line    0x00014528      0x298 build/aws_demos/debug/_ext/731420310/plib_sercom2_usart.o
 .debug_line    0x000147c0      0x130 build/aws_demos/debug/_ext/1321577635/plib_evsys.o
 .debug_line    0x000148f0      0x7ec build/aws_demos/debug/_ext/1833802790/wdrv_winc.o
 .debug_line    0x000150dc      0x3a6 build/aws_demos/debug/_ext/1833802790/wdrv_winc_authctx.o
 .debug_line    0x00015482      0x3a8 build/aws_demos/debug/_ext/1833802790/wdrv_winc_bssctx.o
 .debug_line    0x0001582a      0x5bb build/aws_demos/debug/_ext/1833802790/wdrv_winc_socket.o
 .debug_line    0x00015de5      0x55e build/aws_demos/debug/_ext/1833802790/wdrv_winc_sta.o
 .debug_line    0x00016343      0x54d build/aws_demos/debug/_ext/1833802790/wdrv_winc_systime.o
 .debug_line    0x00016890      0x322 build/aws_demos/debug/_ext/978667550/wdrv_winc_eint.o
 .debug_line    0x00016bb2      0x320 build/aws_demos/debug/_ext/978667550/wdrv_winc_gpio.o
 .debug_line    0x00016ed2      0x466 build/aws_demos/debug/_ext/384060547/wdrv_winc_spi.o
 .debug_line    0x00017338      0x35a build/aws_demos/debug/_ext/1289849308/wdrv_winc_osal.o
 .debug_line    0x00017692      0x394 build/aws_demos/debug/_ext/2059254151/nm_common.o
 .debug_line    0x00017a26      0x587 build/aws_demos/debug/_ext/2090543044/m2m_flash.o
 .debug_line    0x00017fad      0x609 build/aws_demos/debug/_ext/2090543044/m2m_hif.o
 .debug_line    0x000185b6      0x657 build/aws_demos/debug/_ext/2090543044/m2m_wifi.o
 .debug_line    0x00018c0d      0x553 build/aws_demos/debug/_ext/2090543044/nmasic.o
 .debug_line    0x00019160      0x3f8 build/aws_demos/debug/_ext/2090543044/nmbus.o
 .debug_line    0x00019558      0x421 build/aws_demos/debug/_ext/2090543044/nmdrv.o
 .debug_line    0x00019979      0x67d build/aws_demos/debug/_ext/2090543044/nmflash.o
 .debug_line    0x00019ff6      0x64a build/aws_demos/debug/_ext/2090543044/nmspi.o
 .debug_line    0x0001a640      0x45e build/aws_demos/debug/_ext/1151736449/spi_flash.o
 .debug_line    0x0001aa9e      0x3d1 build/aws_demos/debug/_ext/2090543044/m2m_ota.o
 .debug_line    0x0001ae6f      0x442 build/aws_demos/debug/_ext/2090543044/m2m_ssl.o
 .debug_line    0x0001b2b1      0x636 build/aws_demos/debug/_ext/1777946865/socket.o
 .debug_line    0x0001b8e7      0x2ef build/aws_demos/debug/_ext/230789302/plib_sercom7_i2c_master.o
 .debug_line    0x0001bbd6      0x4f2 build/aws_demos/debug/_ext/1991396724/sys_command.o
 .debug_line    0x0001c0c8      0x306 build/aws_demos/debug/_ext/731420310/plib_sercom6_usart.o
 .debug_line    0x0001c3ce      0x7a5 build/aws_demos/debug/_ext/1360937237/main.o
 .debug_line    0x0001cb73      0x898 build/aws_demos/debug/_ext/1534096987/initialization.o
 .debug_line    0x0001d40b      0x2e8 build/aws_demos/debug/_ext/1534096987/interrupts.o
 .debug_line    0x0001d6f3      0x2c1 build/aws_demos/debug/_ext/1534096987/exceptions.o
 .debug_line    0x0001d9b4      0x32c build/aws_demos/debug/_ext/1263901141/xc32_monitor.o
 .debug_line    0x0001dce0      0x1a0 build/aws_demos/debug/_ext/1843425920/plib_port.o
 .debug_line    0x0001de80      0x1cd build/aws_demos/debug/_ext/1323727121/plib_clock.o
 .debug_line    0x0001e04d      0x26e build/aws_demos/debug/_ext/1843479071/plib_nvic.o
 .debug_line    0x0001e2bb      0x284 build/aws_demos/debug/_ext/1843785878/plib_dmac.o
 .debug_line    0x0001e53f      0x343 build/aws_demos/debug/_ext/1534096987/startup_xc32.o
 .debug_line    0x0001e882      0x2bc build/aws_demos/debug/_ext/1916130672/plib_sercom4_spi.o
 .debug_line    0x0001eb3e      0x19b build/aws_demos/debug/_ext/59476128/plib_eic.o
 .debug_line    0x0001ecd9      0x23a build/aws_demos/debug/_ext/1931625852/sys_debug.o
 .debug_line    0x0001ef13      0x18b build/aws_demos/debug/_ext/1223942466/aws_demo.o
 .debug_line    0x0001f09e      0x654 build/aws_demos/debug/_ext/1223942466/iot_demo_freertos.o
 .debug_line    0x0001f6f2      0x297 build/aws_demos/debug/_ext/1223942466/iot_demo_runner.o
 .debug_line    0x0001f989      0x74a build/aws_demos/debug/_ext/198771642/aws_dev_mode_key_provisioning.o
 .debug_line    0x000200d3      0x589 build/aws_demos/debug/_ext/1441508942/iot_demo_mqtt.o
 .debug_line    0x0002065c      0x784 build/aws_demos/debug/_ext/2040524622/aws_iot_network_manager.o
 .debug_line    0x00020de0      0x41f build/aws_demos/debug/_ext/811507611/event_groups.o
 .debug_line    0x000211ff      0x25b build/aws_demos/debug/_ext/811507611/list.o
 .debug_line    0x0002145a      0x6db build/aws_demos/debug/_ext/811507611/queue.o
 .debug_line    0x00021b35      0x90d build/aws_demos/debug/_ext/811507611/tasks.o
 .debug_line    0x00022442      0x46c build/aws_demos/debug/_ext/811507611/timers.o
 .debug_line    0x000228ae      0x31c build/aws_demos/debug/_ext/684768522/asn1parse.o
 .debug_line    0x00022bca      0x344 build/aws_demos/debug/_ext/684768522/asn1write.o
 .debug_line    0x00022f0e      0x29d build/aws_demos/debug/_ext/684768522/base64.o
 .debug_line    0x000231ab      0xa2a build/aws_demos/debug/_ext/684768522/bignum.o
 .debug_line    0x00023bd5      0x332 build/aws_demos/debug/_ext/684768522/ecdsa.o
 .debug_line    0x00023f07      0x88e build/aws_demos/debug/_ext/684768522/ecp.o
 .debug_line    0x00024795      0x3da build/aws_demos/debug/_ext/684768522/ecp_curves.o
 .debug_line    0x00024b6f      0x2dc build/aws_demos/debug/_ext/684768522/md.o
 .debug_line    0x00024e4b      0x295 build/aws_demos/debug/_ext/684768522/md_wrap.o
 .debug_line    0x000250e0      0x354 build/aws_demos/debug/_ext/684768522/oid.o
 .debug_line    0x00025434      0x229 build/aws_demos/debug/_ext/684768522/pem.o
 .debug_line    0x0002565d      0x343 build/aws_demos/debug/_ext/684768522/pk.o
 .debug_line    0x000259a0      0x50c build/aws_demos/debug/_ext/684768522/pkparse.o
 .debug_line    0x00025eac      0x3e9 build/aws_demos/debug/_ext/684768522/pk_wrap.o
 .debug_line    0x00026295      0x1c3 build/aws_demos/debug/_ext/684768522/platform.o
 .debug_line    0x00026458      0x242 build/aws_demos/debug/_ext/684768522/platform_util.o
 .debug_line    0x0002669a      0x85e build/aws_demos/debug/_ext/684768522/rsa.o
 .debug_line    0x00026ef8      0x3b7 build/aws_demos/debug/_ext/684768522/rsa_internal.o
 .debug_line    0x000272af      0x37d build/aws_demos/debug/_ext/684768522/sha1.o
 .debug_line    0x0002762c      0x34e build/aws_demos/debug/_ext/684768522/sha256.o
 .debug_line    0x0002797a      0x20a build/aws_demos/debug/_ext/684768522/threading.o
 .debug_line    0x00027b84      0x4ca build/aws_demos/debug/_ext/684768522/x509.o
 .debug_line    0x0002804e      0x88d build/aws_demos/debug/_ext/684768522/x509_crt.o
 .debug_line    0x000288db      0x2e1 build/aws_demos/debug/_ext/2077790016/mbedtls_utils.o
 .debug_line    0x00028bbc      0x40b build/aws_demos/debug/_ext/520142351/iot_clock_freertos.o
 .debug_line    0x00028fc7      0x5ac build/aws_demos/debug/_ext/520142351/iot_network_freertos.o
 .debug_line    0x00029573      0x43f build/aws_demos/debug/_ext/520142351/iot_threads_freertos.o
 .debug_line    0x000299b2      0x405 build/aws_demos/debug/_ext/13066905/iot_device_metrics.o
 .debug_line    0x00029db7      0x221 build/aws_demos/debug/_ext/13066905/iot_init.o
 .debug_line    0x00029fd8      0x3de build/aws_demos/debug/_ext/227692215/iot_logging.o
 .debug_line    0x0002a3b6      0x34f build/aws_demos/debug/_ext/227692215/iot_logging_task_dynamic_buffers.o
 .debug_line    0x0002a705      0xbe7 build/aws_demos/debug/_ext/333408969/iot_taskpool.o
 .debug_line    0x0002b2ec      0x997 build/aws_demos/debug/_ext/1739149067/iot_mqtt_api.o
 .debug_line    0x0002bc83      0x766 build/aws_demos/debug/_ext/1739149067/iot_mqtt_network.o
 .debug_line    0x0002c3e9      0x95c build/aws_demos/debug/_ext/1739149067/iot_mqtt_operation.o
 .debug_line    0x0002cd45      0x8cc build/aws_demos/debug/_ext/1739149067/iot_mqtt_serialize.o
 .debug_line    0x0002d611      0x751 build/aws_demos/debug/_ext/1739149067/iot_mqtt_subscription.o
 .debug_line    0x0002dd62      0x68c build/aws_demos/debug/_ext/1739149067/iot_mqtt_validate.o
 .debug_line    0x0002e3ee      0x44f build/aws_demos/debug/_ext/350635301/iot_crypto.o
 .debug_line    0x0002e83d      0x2ee build/aws_demos/debug/_ext/2138053595/iot_pkcs11.o
 .debug_line    0x0002eb2b      0x17e build/aws_demos/debug/_ext/1120274527/iot_system_init.o
 .debug_line    0x0002eca9      0x3f2 build/aws_demos/debug/_ext/1534684544/sys_console.o
 .debug_line    0x0002f09b      0x4e9 build/aws_demos/debug/_ext/2146650376/hal_i2c_harmony.o
 .debug_line    0x0002f584      0x52c build/aws_demos/debug/_ext/2146650376/atca_hal.o
 .debug_line    0x0002fab0      0x4b3 build/aws_demos/debug/_ext/2146650376/hal_freertos.o
 .debug_line    0x0002ff63      0x4a1 build/aws_demos/debug/_ext/2146650376/hal_i2c_harmony_init.o
 .debug_line    0x00030404      0x127 build/aws_demos/debug/_ext/2146650376/hal_cortex_m_delay.o
 .debug_line    0x0003052b       0x9b c:/program files/microchip/xc32/v2.40/bin/bin/../../lib/gcc/pic32c/6.2.1/../../../../pic32c/lib/v7e-m/fpv4-sp/hard\libpic32c.a(close.o)
 .debug_line    0x000305c6       0xd8 c:/program files/microchip/xc32/v2.40/bin/bin/../../lib/gcc/pic32c/6.2.1/../../../../pic32c/lib/v7e-m/fpv4-sp/hard\libpic32c.a(data_init.o)
 .debug_line    0x0003069e      0x1be c:/program files/microchip/xc32/v2.40/bin/bin/../../lib/gcc/pic32c/6.2.1/v7e-m/fpv4-sp/hard\libgcc.a(_arm_addsubdf3.o)
 .debug_line    0x0003085c      0x1da c:/program files/microchip/xc32/v2.40/bin/bin/../../lib/gcc/pic32c/6.2.1/v7e-m/fpv4-sp/hard\libgcc.a(_arm_muldivdf3.o)
 .debug_line    0x00030a36       0xb1 c:/program files/microchip/xc32/v2.40/bin/bin/../../lib/gcc/pic32c/6.2.1/v7e-m/fpv4-sp/hard\libgcc.a(_arm_fixunsdfsi.o)
 .debug_line    0x00030ae7       0x9c c:/program files/microchip/xc32/v2.40/bin/bin/../../lib/gcc/pic32c/6.2.1/v7e-m/fpv4-sp/hard\libgcc.a(_aeabi_uldivmod.o)
 .debug_line    0x00030b83      0x32c c:/program files/microchip/xc32/v2.40/bin/bin/../../lib/gcc/pic32c/6.2.1/v7e-m/fpv4-sp/hard\libgcc.a(_udivmoddi4.o)
 .debug_line    0x00030eaf       0x9c c:/program files/microchip/xc32/v2.40/bin/bin/../../lib/gcc/pic32c/6.2.1/v7e-m/fpv4-sp/hard\libgcc.a(_dvmd_tls.o)
 .debug_line    0x00030f4b      0x200 c:/program files/microchip/xc32/v2.40/bin/bin/../../lib/gcc/pic32c/6.2.1/../../../../pic32c/lib/v7e-m/fpv4-sp/hard\libg_nano.a(lib_a-calloc.o)
 .debug_line    0x0003114b      0x21f c:/program files/microchip/xc32/v2.40/bin/bin/../../lib/gcc/pic32c/6.2.1/../../../../pic32c/lib/v7e-m/fpv4-sp/hard\libg_nano.a(lib_a-gmtime.o)
 .debug_line    0x0003136a      0x252 c:/program files/microchip/xc32/v2.40/bin/bin/../../lib/gcc/pic32c/6.2.1/../../../../pic32c/lib/v7e-m/fpv4-sp/hard\libg_nano.a(lib_a-gmtime_r.o)
 .debug_line    0x000315bc      0x17e c:/program files/microchip/xc32/v2.40/bin/bin/../../lib/gcc/pic32c/6.2.1/../../../../pic32c/lib/v7e-m/fpv4-sp/hard\libg_nano.a(lib_a-impure.o)
 .debug_line    0x0003173a      0x11d c:/program files/microchip/xc32/v2.40/bin/bin/../../lib/gcc/pic32c/6.2.1/../../../../pic32c/lib/v7e-m/fpv4-sp/hard\libg_nano.a(lib_a-init.o)
 .debug_line    0x00031857      0x327 c:/program files/microchip/xc32/v2.40/bin/bin/../../lib/gcc/pic32c/6.2.1/../../../../pic32c/lib/v7e-m/fpv4-sp/hard\libg_nano.a(lib_a-locale.o)
 .debug_line    0x00031b7e      0x21e c:/program files/microchip/xc32/v2.40/bin/bin/../../lib/gcc/pic32c/6.2.1/../../../../pic32c/lib/v7e-m/fpv4-sp/hard\libg_nano.a(lib_a-malloc.o)
 .debug_line    0x00031d9c      0x2d5 c:/program files/microchip/xc32/v2.40/bin/bin/../../lib/gcc/pic32c/6.2.1/../../../../pic32c/lib/v7e-m/fpv4-sp/hard\libg_nano.a(lib_a-mbtowc_r.o)
 .debug_line    0x00032071       0xda c:/program files/microchip/xc32/v2.40/bin/bin/../../lib/gcc/pic32c/6.2.1/../../../../pic32c/lib/v7e-m/fpv4-sp/hard\libg_nano.a(lib_a-memchr.o)
 .debug_line    0x0003214b      0x20a c:/program files/microchip/xc32/v2.40/bin/bin/../../lib/gcc/pic32c/6.2.1/../../../../pic32c/lib/v7e-m/fpv4-sp/hard\libg_nano.a(lib_a-memcmp.o)
 .debug_line    0x00032355      0x218 c:/program files/microchip/xc32/v2.40/bin/bin/../../lib/gcc/pic32c/6.2.1/../../../../pic32c/lib/v7e-m/fpv4-sp/hard\libg_nano.a(lib_a-memcpy-stub.o)
 .debug_line    0x0003256d      0x2ba c:/program files/microchip/xc32/v2.40/bin/bin/../../lib/gcc/pic32c/6.2.1/../../../../pic32c/lib/v7e-m/fpv4-sp/hard\libg_nano.a(lib_a-memmove.o)
 .debug_line    0x00032827      0x2ae c:/program files/microchip/xc32/v2.40/bin/bin/../../lib/gcc/pic32c/6.2.1/../../../../pic32c/lib/v7e-m/fpv4-sp/hard\libg_nano.a(lib_a-memset.o)
 .debug_line    0x00032ad5      0x33f c:/program files/microchip/xc32/v2.40/bin/bin/../../lib/gcc/pic32c/6.2.1/../../../../pic32c/lib/v7e-m/fpv4-sp/hard\libg_nano.a(lib_a-mktime.o)
 .debug_line    0x00032e14      0x217 c:/program files/microchip/xc32/v2.40/bin/bin/../../lib/gcc/pic32c/6.2.1/../../../../pic32c/lib/v7e-m/fpv4-sp/hard\libg_nano.a(lib_a-nano-callocr.o)
 .debug_line    0x0003302b      0x1dc c:/program files/microchip/xc32/v2.40/bin/bin/../../lib/gcc/pic32c/6.2.1/../../../../pic32c/lib/v7e-m/fpv4-sp/hard\libg_nano.a(lib_a-nano-freer.o)
 .debug_line    0x00033207      0x257 c:/program files/microchip/xc32/v2.40/bin/bin/../../lib/gcc/pic32c/6.2.1/../../../../pic32c/lib/v7e-m/fpv4-sp/hard\libg_nano.a(lib_a-nano-mallocr.o)
 .debug_line    0x0003345e      0x43d c:/program files/microchip/xc32/v2.40/bin/bin/../../lib/gcc/pic32c/6.2.1/../../../../pic32c/lib/v7e-m/fpv4-sp/hard\libg_nano.a(lib_a-nano-vfprintf.o)
 .debug_line    0x0003389b      0x357 c:/program files/microchip/xc32/v2.40/bin/bin/../../lib/gcc/pic32c/6.2.1/../../../../pic32c/lib/v7e-m/fpv4-sp/hard\libg_nano.a(_lib_a-nano-vfprintf.s.o)
 .debug_line    0x00033bf2      0x260 c:/program files/microchip/xc32/v2.40/bin/bin/../../lib/gcc/pic32c/6.2.1/../../../../pic32c/lib/v7e-m/fpv4-sp/hard\libg_nano.a(lib_a-printf.o)
 .debug_line    0x00033e52      0x245 c:/program files/microchip/xc32/v2.40/bin/bin/../../lib/gcc/pic32c/6.2.1/../../../../pic32c/lib/v7e-m/fpv4-sp/hard\libg_nano.a(lib_a-putchar.o)
 .debug_line    0x00034097      0x263 c:/program files/microchip/xc32/v2.40/bin/bin/../../lib/gcc/pic32c/6.2.1/../../../../pic32c/lib/v7e-m/fpv4-sp/hard\libg_nano.a(lib_a-putc.o)
 .debug_line    0x000342fa      0x295 c:/program files/microchip/xc32/v2.40/bin/bin/../../lib/gcc/pic32c/6.2.1/../../../../pic32c/lib/v7e-m/fpv4-sp/hard\libg_nano.a(lib_a-puts.o)
 .debug_line    0x0003458f      0x223 c:/program files/microchip/xc32/v2.40/bin/bin/../../lib/gcc/pic32c/6.2.1/../../../../pic32c/lib/v7e-m/fpv4-sp/hard\libg_nano.a(lib_a-rand.o)
 .debug_line    0x000347b2      0x212 c:/program files/microchip/xc32/v2.40/bin/bin/../../lib/gcc/pic32c/6.2.1/../../../../pic32c/lib/v7e-m/fpv4-sp/hard\libg_nano.a(lib_a-sbrkr.o)
 .debug_line    0x000349c4      0x28e c:/program files/microchip/xc32/v2.40/bin/bin/../../lib/gcc/pic32c/6.2.1/../../../../pic32c/lib/v7e-m/fpv4-sp/hard\libg_nano.a(lib_a-snprintf.o)
 .debug_line    0x00034c52      0x272 c:/program files/microchip/xc32/v2.40/bin/bin/../../lib/gcc/pic32c/6.2.1/../../../../pic32c/lib/v7e-m/fpv4-sp/hard\libg_nano.a(lib_a-sprintf.o)
 .debug_line    0x00034ec4      0x364 c:/program files/microchip/xc32/v2.40/bin/bin/../../lib/gcc/pic32c/6.2.1/../../../../pic32c/lib/v7e-m/fpv4-sp/hard\libg_nano.a(lib_a-__ssfputs.o)
 .debug_line    0x00035228      0x2a9 c:/program files/microchip/xc32/v2.40/bin/bin/../../lib/gcc/pic32c/6.2.1/../../../../pic32c/lib/v7e-m/fpv4-sp/hard\libg_nano.a(lib_a-stdio.o)
 .debug_line    0x000354d1      0x205 c:/program files/microchip/xc32/v2.40/bin/bin/../../lib/gcc/pic32c/6.2.1/../../../../pic32c/lib/v7e-m/fpv4-sp/hard\libg_nano.a(lib_a-strcat.o)
 .debug_line    0x000356d6       0xb1 c:/program files/microchip/xc32/v2.40/bin/bin/../../lib/gcc/pic32c/6.2.1/../../../../pic32c/lib/v7e-m/fpv4-sp/hard\libg_nano.a(lib_a-strcmp.o)
 .debug_line    0x00035787      0x205 c:/program files/microchip/xc32/v2.40/bin/bin/../../lib/gcc/pic32c/6.2.1/../../../../pic32c/lib/v7e-m/fpv4-sp/hard\libg_nano.a(lib_a-strcpy.o)
 .debug_line    0x0003598c       0xb1 c:/program files/microchip/xc32/v2.40/bin/bin/../../lib/gcc/pic32c/6.2.1/../../../../pic32c/lib/v7e-m/fpv4-sp/hard\libg_nano.a(lib_a-strlen.o)
 .debug_line    0x00035a3d      0x20e c:/program files/microchip/xc32/v2.40/bin/bin/../../lib/gcc/pic32c/6.2.1/../../../../pic32c/lib/v7e-m/fpv4-sp/hard\libg_nano.a(lib_a-strncmp.o)
 .debug_line    0x00035c4b      0x20e c:/program files/microchip/xc32/v2.40/bin/bin/../../lib/gcc/pic32c/6.2.1/../../../../pic32c/lib/v7e-m/fpv4-sp/hard\libg_nano.a(lib_a-strncpy.o)
 .debug_line    0x00035e59      0x20c c:/program files/microchip/xc32/v2.40/bin/bin/../../lib/gcc/pic32c/6.2.1/../../../../pic32c/lib/v7e-m/fpv4-sp/hard\libg_nano.a(lib_a-strstr.o)
 .debug_line    0x00036065      0x33e c:/program files/microchip/xc32/v2.40/bin/bin/../../lib/gcc/pic32c/6.2.1/../../../../pic32c/lib/v7e-m/fpv4-sp/hard\libg_nano.a(lib_a-strtol.o)
 .debug_line    0x000363a3      0x339 c:/program files/microchip/xc32/v2.40/bin/bin/../../lib/gcc/pic32c/6.2.1/../../../../pic32c/lib/v7e-m/fpv4-sp/hard\libg_nano.a(lib_a-strtoul.o)
 .debug_line    0x000366dc      0x283 c:/program files/microchip/xc32/v2.40/bin/bin/../../lib/gcc/pic32c/6.2.1/../../../../pic32c/lib/v7e-m/fpv4-sp/hard\libg_nano.a(lib_a-tzcalc_limits.o)
 .debug_line    0x0003695f      0x207 c:/program files/microchip/xc32/v2.40/bin/bin/../../lib/gcc/pic32c/6.2.1/../../../../pic32c/lib/v7e-m/fpv4-sp/hard\libg_nano.a(lib_a-tzset.o)
 .debug_line    0x00036b66      0x2e9 c:/program files/microchip/xc32/v2.40/bin/bin/../../lib/gcc/pic32c/6.2.1/../../../../pic32c/lib/v7e-m/fpv4-sp/hard\libg_nano.a(lib_a-tzset_r.o)
 .debug_line    0x00036e4f      0x17e c:/program files/microchip/xc32/v2.40/bin/bin/../../lib/gcc/pic32c/6.2.1/../../../../pic32c/lib/v7e-m/fpv4-sp/hard\libg_nano.a(lib_a-tzvars.o)
 .debug_line    0x00036fcd      0x26f c:/program files/microchip/xc32/v2.40/bin/bin/../../lib/gcc/pic32c/6.2.1/../../../../pic32c/lib/v7e-m/fpv4-sp/hard\libg_nano.a(lib_a-vsnprintf.o)
 .debug_line    0x0003723c      0x277 c:/program files/microchip/xc32/v2.40/bin/bin/../../lib/gcc/pic32c/6.2.1/../../../../pic32c/lib/v7e-m/fpv4-sp/hard\libg_nano.a(lib_a-wbuf.o)
 .debug_line    0x000374b3      0x2d4 c:/program files/microchip/xc32/v2.40/bin/bin/../../lib/gcc/pic32c/6.2.1/../../../../pic32c/lib/v7e-m/fpv4-sp/hard\libg_nano.a(lib_a-wctomb_r.o)
 .debug_line    0x00037787      0x212 c:/program files/microchip/xc32/v2.40/bin/bin/../../lib/gcc/pic32c/6.2.1/../../../../pic32c/lib/v7e-m/fpv4-sp/hard\libg_nano.a(lib_a-writer.o)
 .debug_line    0x00037999      0x260 c:/program files/microchip/xc32/v2.40/bin/bin/../../lib/gcc/pic32c/6.2.1/../../../../pic32c/lib/v7e-m/fpv4-sp/hard\libg_nano.a(lib_a-wsetup.o)
 .debug_line    0x00037bf9      0x213 c:/program files/microchip/xc32/v2.40/bin/bin/../../lib/gcc/pic32c/6.2.1/../../../../pic32c/lib/v7e-m/fpv4-sp/hard\libg_nano.a(lib_a-closer.o)
 .debug_line    0x00037e0c      0x21e c:/program files/microchip/xc32/v2.40/bin/bin/../../lib/gcc/pic32c/6.2.1/../../../../pic32c/lib/v7e-m/fpv4-sp/hard\libg_nano.a(lib_a-ctype_.o)
 .debug_line    0x0003802a      0x212 c:/program files/microchip/xc32/v2.40/bin/bin/../../lib/gcc/pic32c/6.2.1/../../../../pic32c/lib/v7e-m/fpv4-sp/hard\libg_nano.a(lib_a-div.o)
 .debug_line    0x0003823c      0x2cc c:/program files/microchip/xc32/v2.40/bin/bin/../../lib/gcc/pic32c/6.2.1/../../../../pic32c/lib/v7e-m/fpv4-sp/hard\libg_nano.a(lib_a-fflush.o)
 .debug_line    0x00038508      0x301 c:/program files/microchip/xc32/v2.40/bin/bin/../../lib/gcc/pic32c/6.2.1/../../../../pic32c/lib/v7e-m/fpv4-sp/hard\libg_nano.a(lib_a-findfp.o)
 .debug_line    0x00038809      0x2a8 c:/program files/microchip/xc32/v2.40/bin/bin/../../lib/gcc/pic32c/6.2.1/../../../../pic32c/lib/v7e-m/fpv4-sp/hard\libg_nano.a(lib_a-fputwc.o)
 .debug_line    0x00038ab1      0x265 c:/program files/microchip/xc32/v2.40/bin/bin/../../lib/gcc/pic32c/6.2.1/../../../../pic32c/lib/v7e-m/fpv4-sp/hard\libg_nano.a(lib_a-fwalk.o)
 .debug_line    0x00038d16      0x247 c:/program files/microchip/xc32/v2.40/bin/bin/../../lib/gcc/pic32c/6.2.1/../../../../pic32c/lib/v7e-m/fpv4-sp/hard\libg_nano.a(lib_a-getenv_r.o)
 .debug_line    0x00038f5d      0x218 c:/program files/microchip/xc32/v2.40/bin/bin/../../lib/gcc/pic32c/6.2.1/../../../../pic32c/lib/v7e-m/fpv4-sp/hard\libg_nano.a(lib_a-gettzinfo.o)
 .debug_line    0x00039175      0x212 c:/program files/microchip/xc32/v2.40/bin/bin/../../lib/gcc/pic32c/6.2.1/../../../../pic32c/lib/v7e-m/fpv4-sp/hard\libg_nano.a(lib_a-lseekr.o)
 .debug_line    0x00039387      0x32c c:/program files/microchip/xc32/v2.40/bin/bin/../../lib/gcc/pic32c/6.2.1/../../../../pic32c/lib/v7e-m/fpv4-sp/hard\libg_nano.a(lib_a-makebuf.o)
 .debug_line    0x000396b3      0x18d c:/program files/microchip/xc32/v2.40/bin/bin/../../lib/gcc/pic32c/6.2.1/../../../../pic32c/lib/v7e-m/fpv4-sp/hard\libg_nano.a(lib_a-mlock.o)
 .debug_line    0x00039840      0x1fe c:/program files/microchip/xc32/v2.40/bin/bin/../../lib/gcc/pic32c/6.2.1/../../../../pic32c/lib/v7e-m/fpv4-sp/hard\libg_nano.a(lib_a-month_lengths.o)
 .debug_line    0x00039a3e      0x41a c:/program files/microchip/xc32/v2.40/bin/bin/../../lib/gcc/pic32c/6.2.1/../../../../pic32c/lib/v7e-m/fpv4-sp/hard\libg_nano.a(lib_a-nano-svfprintf.o)
 .debug_line    0x00039e58      0x48d c:/program files/microchip/xc32/v2.40/bin/bin/../../lib/gcc/pic32c/6.2.1/../../../../pic32c/lib/v7e-m/fpv4-sp/hard\libg_nano.a(lib_a-nano-vfprintf_i.o)
 .debug_line    0x0003a2e5      0x5a9 c:/program files/microchip/xc32/v2.40/bin/bin/../../lib/gcc/pic32c/6.2.1/../../../../pic32c/lib/v7e-m/fpv4-sp/hard\libg_nano.a(_lib_a-nano-vfscanf.cdnopsuxX.o)
 .debug_line    0x0003a88e      0x211 c:/program files/microchip/xc32/v2.40/bin/bin/../../lib/gcc/pic32c/6.2.1/../../../../pic32c/lib/v7e-m/fpv4-sp/hard\libg_nano.a(lib_a-readr.o)
 .debug_line    0x0003aa9f      0x241 c:/program files/microchip/xc32/v2.40/bin/bin/../../lib/gcc/pic32c/6.2.1/../../../../pic32c/lib/v7e-m/fpv4-sp/hard\libg_nano.a(lib_a-reent.o)
 .debug_line    0x0003ace0      0x240 c:/program files/microchip/xc32/v2.40/bin/bin/../../lib/gcc/pic32c/6.2.1/../../../../pic32c/lib/v7e-m/fpv4-sp/hard\libg_nano.a(lib_a-sccl.o)
 .debug_line    0x0003af20      0x27c c:/program files/microchip/xc32/v2.40/bin/bin/../../lib/gcc/pic32c/6.2.1/../../../../pic32c/lib/v7e-m/fpv4-sp/hard\libg_nano.a(lib_a-sscanf.o)
 .debug_line    0x0003b19c      0x385 c:/program files/microchip/xc32/v2.40/bin/bin/../../lib/gcc/pic32c/6.2.1/../../../../pic32c/lib/v7e-m/fpv4-sp/hard\libg_nano.a(lib_a-__ssputs.o)
 .debug_line    0x0003b521      0x2b5 c:/program files/microchip/xc32/v2.40/bin/bin/../../lib/gcc/pic32c/6.2.1/../../../../pic32c/lib/v7e-m/fpv4-sp/hard\libg_nano.a(lib_a-ungetc.o)
 .debug_line    0x0003b7d6      0x2db c:/program files/microchip/xc32/v2.40/bin/bin/../../lib/gcc/pic32c/6.2.1/../../../../pic32c/lib/v7e-m/fpv4-sp/hard\libg_nano.a(lib_a-wcrtomb.o)
 .debug_line    0x0003bab1       0x8e c:/program files/microchip/xc32/v2.40/bin/bin/../../lib/gcc/pic32c/6.2.1/../../../../pic32c/lib/v7e-m/fpv4-sp/hard\libg_nano.a(lib_a-environ.o)
 .debug_line    0x0003bb3f      0x201 c:/program files/microchip/xc32/v2.40/bin/bin/../../lib/gcc/pic32c/6.2.1/../../../../pic32c/lib/v7e-m/fpv4-sp/hard\libg_nano.a(lib_a-envlock.o)
 .debug_line    0x0003bd40      0x2c1 c:/program files/microchip/xc32/v2.40/bin/bin/../../lib/gcc/pic32c/6.2.1/../../../../pic32c/lib/v7e-m/fpv4-sp/hard\libg_nano.a(lib_a-fstatr.o)
 .debug_line    0x0003c001      0x214 c:/program files/microchip/xc32/v2.40/bin/bin/../../lib/gcc/pic32c/6.2.1/../../../../pic32c/lib/v7e-m/fpv4-sp/hard\libg_nano.a(lib_a-isattyr.o)
 .debug_line    0x0003c215      0x229 c:/program files/microchip/xc32/v2.40/bin/bin/../../lib/gcc/pic32c/6.2.1/../../../../pic32c/lib/v7e-m/fpv4-sp/hard\libg_nano.a(lib_a-nano-reallocr.o)
 .debug_line    0x0003c43e      0x4aa c:/program files/microchip/xc32/v2.40/bin/bin/../../lib/gcc/pic32c/6.2.1/../../../../pic32c/lib/v7e-m/fpv4-sp/hard\libg_nano.a(lib_a-nano-svfscanf.o)
 .debug_line    0x0003c8e8      0x4f4 c:/program files/microchip/xc32/v2.40/bin/bin/../../lib/gcc/pic32c/6.2.1/../../../../pic32c/lib/v7e-m/fpv4-sp/hard\libg_nano.a(lib_a-nano-vfscanf_i.o)
 .debug_line    0x0003cddc      0x1a4 c:/program files/microchip/xc32/v2.40/bin/bin/../../lib/gcc/pic32c/6.2.1/../../../../pic32c/lib/v7e-m/fpv4-sp/hard\libg_nano.a(lib_a-nano-msizer.o)
 .debug_line    0x0003cf80       0x9c c:/program files/microchip/xc32/v2.40/bin/bin/../../lib/gcc/pic32c/6.2.1/../../../../pic32c/lib/v7e-m/fpv4-sp/hard\libpic32c.a(_close.o)
 .debug_line    0x0003d01c       0x9c c:/program files/microchip/xc32/v2.40/bin/bin/../../lib/gcc/pic32c/6.2.1/../../../../pic32c/lib/v7e-m/fpv4-sp/hard\libpic32c.a(_fstat.o)
 .debug_line    0x0003d0b8       0x9d c:/program files/microchip/xc32/v2.40/bin/bin/../../lib/gcc/pic32c/6.2.1/../../../../pic32c/lib/v7e-m/fpv4-sp/hard\libpic32c.a(_isatty.o)
 .debug_line    0x0003d155       0x9c c:/program files/microchip/xc32/v2.40/bin/bin/../../lib/gcc/pic32c/6.2.1/../../../../pic32c/lib/v7e-m/fpv4-sp/hard\libpic32c.a(_lseek.o)
 .debug_line    0x0003d1f1       0x9b c:/program files/microchip/xc32/v2.40/bin/bin/../../lib/gcc/pic32c/6.2.1/../../../../pic32c/lib/v7e-m/fpv4-sp/hard\libpic32c.a(_read.o)
 .debug_line    0x0003d28c       0xa2 c:/program files/microchip/xc32/v2.40/bin/bin/../../lib/gcc/pic32c/6.2.1/../../../../pic32c/lib/v7e-m/fpv4-sp/hard\libpic32c.a(sbrk.o)
 .debug_line    0x0003d32e       0x9c c:/program files/microchip/xc32/v2.40/bin/bin/../../lib/gcc/pic32c/6.2.1/../../../../pic32c/lib/v7e-m/fpv4-sp/hard\libpic32c.a(_write.o)
 .debug_line    0x0003d3ca      0x102 c:/program files/microchip/xc32/v2.40/bin/bin/../../lib/gcc/pic32c/6.2.1/../../../../pic32c/lib/v7e-m/fpv4-sp/hard\libpic32c.a(fstat.o)
 .debug_line    0x0003d4cc       0x9c c:/program files/microchip/xc32/v2.40/bin/bin/../../lib/gcc/pic32c/6.2.1/../../../../pic32c/lib/v7e-m/fpv4-sp/hard\libpic32c.a(isatty.o)
 .debug_line    0x0003d568       0x9b c:/program files/microchip/xc32/v2.40/bin/bin/../../lib/gcc/pic32c/6.2.1/../../../../pic32c/lib/v7e-m/fpv4-sp/hard\libpic32c.a(lseek.o)
 .debug_line    0x0003d603       0xad c:/program files/microchip/xc32/v2.40/bin/bin/../../lib/gcc/pic32c/6.2.1/../../../../pic32c/lib/v7e-m/fpv4-sp/hard\libpic32c.a(read.o)
 .debug_line    0x0003d6b0       0xb4 c:/program files/microchip/xc32/v2.40/bin/bin/../../lib/gcc/pic32c/6.2.1/../../../../pic32c/lib/v7e-m/fpv4-sp/hard\libpic32c.a(write.o)

.debug_str      0x00000000     0xcf37
 .debug_str     0x00000000       0x29 build/aws_demos/debug/_ext/665618993/plib_nvmctrl.o
 .debug_str     0x00000029       0x34 build/aws_demos/debug/_ext/1385882503/port.o
 .debug_str     0x0000005d       0xd4 build/aws_demos/debug/_ext/1168480030/heap_4.o
 .debug_str     0x00000131       0x23 build/aws_demos/debug/_ext/787859085/atca_cert_chain.o
 .debug_str     0x00000154      0x188 build/aws_demos/debug/_ext/1972722184/iot_pkcs11_secure_element.o
 .debug_str     0x000002dc      0x59f build/aws_demos/debug/_ext/2009324866/aws_wifi.o
 .debug_str     0x0000087b      0x2c1 build/aws_demos/debug/_ext/2009324866/iot_secure_sockets.o
 .debug_str     0x00000b3c      0x229 build/aws_demos/debug/_ext/1456806047/atcacert_client.o
 .debug_str     0x00000d65       0x91 build/aws_demos/debug/_ext/1456806047/atcacert_date.o
 .debug_str     0x00000df6      0x322 build/aws_demos/debug/_ext/1456806047/atcacert_def.o
 .debug_str     0x00001118       0x5a build/aws_demos/debug/_ext/1456806047/atcacert_der.o
 .debug_str     0x00001172       0xa3 build/aws_demos/debug/_ext/1456806047/atcacert_pem.o
 .debug_str     0x00001215       0x28 build/aws_demos/debug/_ext/1009855837/atca_command.o
 .debug_str     0x0000123d       0x56 build/aws_demos/debug/_ext/1009855837/atca_device.o
 .debug_str     0x00001293       0x66 build/aws_demos/debug/_ext/1009855837/atca_execution.o
 .debug_str     0x000012f9       0x9f build/aws_demos/debug/_ext/1009855837/atca_iface.o
 .debug_str     0x00001398       0xc0 build/aws_demos/debug/_ext/306685378/atca_basic.o
 .debug_str     0x00001458       0x43 build/aws_demos/debug/_ext/306685378/atca_basic_checkmac.o
 .debug_str     0x0000149b       0x90 build/aws_demos/debug/_ext/306685378/atca_basic_ecdh.o
 .debug_str     0x0000152b       0x41 build/aws_demos/debug/_ext/306685378/atca_basic_gendig.o
 .debug_str     0x0000156c       0x53 build/aws_demos/debug/_ext/306685378/atca_basic_genkey.o
 .debug_str     0x000015bf       0x48 build/aws_demos/debug/_ext/306685378/atca_basic_info.o
 .debug_str     0x00001607       0x44 build/aws_demos/debug/_ext/306685378/atca_basic_lock.o
 .debug_str     0x0000164b       0x48 build/aws_demos/debug/_ext/306685378/atca_basic_nonce.o
 .debug_str     0x00001693       0xc9 build/aws_demos/debug/_ext/306685378/atca_basic_privwrite.o
 .debug_str     0x0000175c       0x41 build/aws_demos/debug/_ext/306685378/atca_basic_random.o
 .debug_str     0x0000179d       0xe9 build/aws_demos/debug/_ext/306685378/atca_basic_read.o
 .debug_str     0x00001886       0x6e build/aws_demos/debug/_ext/306685378/atca_basic_sign.o
 .debug_str     0x000018f4       0x46 build/aws_demos/debug/_ext/306685378/atca_basic_updateextra.o
 .debug_str     0x0000193a       0xda build/aws_demos/debug/_ext/306685378/atca_basic_verify.o
 .debug_str     0x00001a14       0xfa build/aws_demos/debug/_ext/306685378/atca_basic_write.o
 .debug_str     0x00001b0e       0xac build/aws_demos/debug/_ext/306685378/atca_helpers.o
 .debug_str     0x00001bba       0x3f build/aws_demos/debug/_ext/961827245/atca_crypto_sw_sha1.o
 .debug_str     0x00001bf9       0x3a build/aws_demos/debug/_ext/961827245/atca_crypto_sw_sha2.o
 .debug_str     0x00001c33        0xe build/aws_demos/debug/_ext/1070826718/sha1_routines.o
 .debug_str     0x00001c41       0x1a build/aws_demos/debug/_ext/1070826718/sha2_routines.o
 .debug_str     0x00001c5b      0x144 build/aws_demos/debug/_ext/544104044/atca_host.o
 .debug_str     0x00001d9f       0x43 build/aws_demos/debug/_ext/1326886903/pkcs11_attrib.o
 .debug_str     0x00001de2      0x112 build/aws_demos/debug/_ext/1326886903/pkcs11_cert.o
 .debug_str     0x00001ef4       0x53 build/aws_demos/debug/_ext/1326886903/pkcs11_config.o
 .debug_str     0x00001f47       0xf5 build/aws_demos/debug/_ext/1326886903/pkcs11_digest.o
 .debug_str     0x0000203c       0xe7 build/aws_demos/debug/_ext/1326886903/pkcs11_find.o
 .debug_str     0x00002123       0x5b build/aws_demos/debug/_ext/1326886903/pkcs11_info.o
 .debug_str     0x0000217e       0xd9 build/aws_demos/debug/_ext/1326886903/pkcs11_init.o
 .debug_str     0x00002257      0x236 build/aws_demos/debug/_ext/1326886903/pkcs11_key.o
 .debug_str     0x0000248d      0x932 build/aws_demos/debug/_ext/1326886903/pkcs11_main.o
 .debug_str     0x00002dbf       0xa2 build/aws_demos/debug/_ext/1326886903/pkcs11_mech.o
 .debug_str     0x00002e61      0x13b build/aws_demos/debug/_ext/1326886903/pkcs11_object.o
 .debug_str     0x00002f9c       0x84 build/aws_demos/debug/_ext/1326886903/pkcs11_os.o
 .debug_str     0x00003020      0x1ca build/aws_demos/debug/_ext/1326886903/pkcs11_session.o
 .debug_str     0x000031ea      0x14d build/aws_demos/debug/_ext/1326886903/pkcs11_signature.o
 .debug_str     0x00003337      0x155 build/aws_demos/debug/_ext/1326886903/pkcs11_slot.o
 .debug_str     0x0000348c      0x2d0 build/aws_demos/debug/_ext/1326886903/pkcs11_token.o
 .debug_str     0x0000375c       0x23 build/aws_demos/debug/_ext/1326886903/pkcs11_util.o
 .debug_str     0x0000377f       0xbb build/aws_demos/debug/_ext/1110296786/plib_tc3.o
 .debug_str     0x0000383a      0x16e build/aws_demos/debug/_ext/484134862/sys_time.o
 .debug_str     0x000039a8        0x0 build/aws_demos/debug/_ext/1843304010/plib_trng.o
 .debug_str     0x000039a8       0xd6 build/aws_demos/debug/_ext/1534684544/sys_console_uart.o
 .debug_str     0x00003a7e      0x29a build/aws_demos/debug/_ext/2104392270/drv_spi.o
 .debug_str     0x00003d18       0x23 build/aws_demos/debug/_ext/2146650376/ATECC608A_0.o
 .debug_str     0x00003d3b       0x10 build/aws_demos/debug/_ext/1762024984/sys_int.o
 .debug_str     0x00003d4b       0x3e build/aws_demos/debug/_ext/959252812/sys_dma.o
 .debug_str     0x00003d89      0x124 build/aws_demos/debug/_ext/1149029443/osal_freertos.o
 .debug_str     0x00003ead       0x1d build/aws_demos/debug/_ext/1360937237/app.o
 .debug_str     0x00003eca       0x6f build/aws_demos/debug/_ext/1534096987/tasks.o
 .debug_str     0x00003f39      0x12c build/aws_demos/debug/_ext/731420310/plib_sercom2_usart.o
 .debug_str     0x00004065        0x0 build/aws_demos/debug/_ext/1321577635/plib_evsys.o
 .debug_str     0x00004065      0x3d9 build/aws_demos/debug/_ext/1833802790/wdrv_winc.o
 .debug_str     0x0000443e       0x2c build/aws_demos/debug/_ext/1833802790/wdrv_winc_authctx.o
 .debug_str     0x0000446a       0x2b build/aws_demos/debug/_ext/1833802790/wdrv_winc_bssctx.o
 .debug_str     0x00004495      0x145 build/aws_demos/debug/_ext/1833802790/wdrv_winc_socket.o
 .debug_str     0x000045da       0xd8 build/aws_demos/debug/_ext/1833802790/wdrv_winc_sta.o
 .debug_str     0x000046b2       0x93 build/aws_demos/debug/_ext/1833802790/wdrv_winc_systime.o
 .debug_str     0x00004745       0x4c build/aws_demos/debug/_ext/978667550/wdrv_winc_eint.o
 .debug_str     0x00004791       0x23 build/aws_demos/debug/_ext/978667550/wdrv_winc_gpio.o
 .debug_str     0x000047b4       0xe1 build/aws_demos/debug/_ext/384060547/wdrv_winc_spi.o
 .debug_str     0x00004895       0x4d build/aws_demos/debug/_ext/1289849308/wdrv_winc_osal.o
 .debug_str     0x000048e2       0xa6 build/aws_demos/debug/_ext/2059254151/nm_common.o
 .debug_str     0x00004988      0x164 build/aws_demos/debug/_ext/2090543044/m2m_flash.o
 .debug_str     0x00004aec       0xe9 build/aws_demos/debug/_ext/2090543044/m2m_hif.o
 .debug_str     0x00004bd5      0x2f1 build/aws_demos/debug/_ext/2090543044/m2m_wifi.o
 .debug_str     0x00004ec6       0x95 build/aws_demos/debug/_ext/2090543044/nmasic.o
 .debug_str     0x00004f5b       0xae build/aws_demos/debug/_ext/2090543044/nmbus.o
 .debug_str     0x00005009       0xff build/aws_demos/debug/_ext/2090543044/nmdrv.o
 .debug_str     0x00005108       0xd4 build/aws_demos/debug/_ext/2090543044/nmflash.o
 .debug_str     0x000051dc       0xcf build/aws_demos/debug/_ext/2090543044/nmspi.o
 .debug_str     0x000052ab       0x9b build/aws_demos/debug/_ext/1151736449/spi_flash.o
 .debug_str     0x00005346       0x65 build/aws_demos/debug/_ext/2090543044/m2m_ota.o
 .debug_str     0x000053ab       0x6d build/aws_demos/debug/_ext/2090543044/m2m_ssl.o
 .debug_str     0x00005418      0x168 build/aws_demos/debug/_ext/1777946865/socket.o
 .debug_str     0x00005580      0x128 build/aws_demos/debug/_ext/230789302/plib_sercom7_i2c_master.o
 .debug_str     0x000056a8       0xc7 build/aws_demos/debug/_ext/1991396724/sys_command.o
 .debug_str     0x0000576f      0x1c8 build/aws_demos/debug/_ext/731420310/plib_sercom6_usart.o
 .debug_str     0x00005937      0x11d build/aws_demos/debug/_ext/1360937237/main.o
 .debug_str     0x00005a54      0x32b build/aws_demos/debug/_ext/1534096987/initialization.o
 .debug_str     0x00005d7f       0x23 build/aws_demos/debug/_ext/1534096987/interrupts.o
 .debug_str     0x00005da2       0x23 build/aws_demos/debug/_ext/1534096987/exceptions.o
 .debug_str     0x00005dc5       0x4a build/aws_demos/debug/_ext/1263901141/xc32_monitor.o
 .debug_str     0x00005e0f        0xb build/aws_demos/debug/_ext/1843425920/plib_port.o
 .debug_str     0x00005e1a       0x1e build/aws_demos/debug/_ext/1323727121/plib_clock.o
 .debug_str     0x00005e38        0xa build/aws_demos/debug/_ext/1843479071/plib_nvic.o
 .debug_str     0x00005e42       0x57 build/aws_demos/debug/_ext/1843785878/plib_dmac.o
 .debug_str     0x00005e99       0x8e build/aws_demos/debug/_ext/1534096987/startup_xc32.o
 .debug_str     0x00005f27      0x149 build/aws_demos/debug/_ext/1916130672/plib_sercom4_spi.o
 .debug_str     0x00006070        0x9 build/aws_demos/debug/_ext/59476128/plib_eic.o
 .debug_str     0x00006079        0xe build/aws_demos/debug/_ext/1931625852/sys_debug.o
 .debug_str     0x00006087        0x0 build/aws_demos/debug/_ext/1223942466/aws_demo.o
 .debug_str     0x00006087      0x243 build/aws_demos/debug/_ext/1223942466/iot_demo_freertos.o
 .debug_str     0x000062ca       0x27 build/aws_demos/debug/_ext/1223942466/iot_demo_runner.o
 .debug_str     0x000062f1      0x427 build/aws_demos/debug/_ext/198771642/aws_dev_mode_key_provisioning.o
 .debug_str     0x00006718      0x224 build/aws_demos/debug/_ext/1441508942/iot_demo_mqtt.o
 .debug_str     0x0000693c      0x1fd build/aws_demos/debug/_ext/2040524622/aws_iot_network_manager.o
 .debug_str     0x00006b39      0x221 build/aws_demos/debug/_ext/811507611/event_groups.o
 .debug_str     0x00006d5a       0x39 build/aws_demos/debug/_ext/811507611/list.o
 .debug_str     0x00006d93      0x36d build/aws_demos/debug/_ext/811507611/queue.o
 .debug_str     0x00007100      0x364 build/aws_demos/debug/_ext/811507611/tasks.o
 .debug_str     0x00007464      0x2dc build/aws_demos/debug/_ext/811507611/timers.o
 .debug_str     0x00007740       0xbd build/aws_demos/debug/_ext/684768522/asn1parse.o
 .debug_str     0x000077fd       0xa0 build/aws_demos/debug/_ext/684768522/asn1write.o
 .debug_str     0x0000789d        0xe build/aws_demos/debug/_ext/684768522/base64.o
 .debug_str     0x000078ab       0x9e build/aws_demos/debug/_ext/684768522/bignum.o
 .debug_str     0x00007949      0x2e5 build/aws_demos/debug/_ext/684768522/ecdsa.o
 .debug_str     0x00007c2e      0x312 build/aws_demos/debug/_ext/684768522/ecp.o
 .debug_str     0x00007f40       0x8d build/aws_demos/debug/_ext/684768522/ecp_curves.o
 .debug_str     0x00007fcd       0x7f build/aws_demos/debug/_ext/684768522/md.o
 .debug_str     0x0000804c      0x1d0 build/aws_demos/debug/_ext/684768522/md_wrap.o
 .debug_str     0x0000821c       0x96 build/aws_demos/debug/_ext/684768522/oid.o
 .debug_str     0x000082b2       0x6d build/aws_demos/debug/_ext/684768522/pem.o
 .debug_str     0x0000831f       0xea build/aws_demos/debug/_ext/684768522/pk.o
 .debug_str     0x00008409      0x31d build/aws_demos/debug/_ext/684768522/pkparse.o
 .debug_str     0x00008726      0x295 build/aws_demos/debug/_ext/684768522/pk_wrap.o
 .debug_str     0x000089bb       0x27 build/aws_demos/debug/_ext/684768522/platform.o
 .debug_str     0x000089e2        0xe build/aws_demos/debug/_ext/684768522/platform_util.o
 .debug_str     0x000089f0      0x3ab build/aws_demos/debug/_ext/684768522/rsa.o
 .debug_str     0x00008d9b      0x16a build/aws_demos/debug/_ext/684768522/rsa_internal.o
 .debug_str     0x00008f05       0x4f build/aws_demos/debug/_ext/684768522/sha1.o
 .debug_str     0x00008f54       0x6d build/aws_demos/debug/_ext/684768522/sha256.o
 .debug_str     0x00008fc1        0xe build/aws_demos/debug/_ext/684768522/threading.o
 .debug_str     0x00008fcf      0x16e build/aws_demos/debug/_ext/684768522/x509.o
 .debug_str     0x0000913d      0x5c4 build/aws_demos/debug/_ext/684768522/x509_crt.o
 .debug_str     0x00009701       0x97 build/aws_demos/debug/_ext/2077790016/mbedtls_utils.o
 .debug_str     0x00009798       0xc8 build/aws_demos/debug/_ext/520142351/iot_clock_freertos.o
 .debug_str     0x00009860      0x238 build/aws_demos/debug/_ext/520142351/iot_network_freertos.o
 .debug_str     0x00009a98      0x176 build/aws_demos/debug/_ext/520142351/iot_threads_freertos.o
 .debug_str     0x00009c0e       0x6a build/aws_demos/debug/_ext/13066905/iot_device_metrics.o
 .debug_str     0x00009c78       0x62 build/aws_demos/debug/_ext/13066905/iot_init.o
 .debug_str     0x00009cda       0x89 build/aws_demos/debug/_ext/227692215/iot_logging.o
 .debug_str     0x00009d63       0xdd build/aws_demos/debug/_ext/227692215/iot_logging_task_dynamic_buffers.o
 .debug_str     0x00009e40      0x273 build/aws_demos/debug/_ext/333408969/iot_taskpool.o
 .debug_str     0x0000a0b3      0x4f2 build/aws_demos/debug/_ext/1739149067/iot_mqtt_api.o
 .debug_str     0x0000a5a5      0x2a0 build/aws_demos/debug/_ext/1739149067/iot_mqtt_network.o
 .debug_str     0x0000a845      0x2d6 build/aws_demos/debug/_ext/1739149067/iot_mqtt_operation.o
 .debug_str     0x0000ab1b      0x26f build/aws_demos/debug/_ext/1739149067/iot_mqtt_serialize.o
 .debug_str     0x0000ad8a      0x186 build/aws_demos/debug/_ext/1739149067/iot_mqtt_subscription.o
 .debug_str     0x0000af10       0x90 build/aws_demos/debug/_ext/1739149067/iot_mqtt_validate.o
 .debug_str     0x0000afa0      0x324 build/aws_demos/debug/_ext/350635301/iot_crypto.o
 .debug_str     0x0000b2c4      0x129 build/aws_demos/debug/_ext/2138053595/iot_pkcs11.o
 .debug_str     0x0000b3ed       0x19 build/aws_demos/debug/_ext/1120274527/iot_system_init.o
 .debug_str     0x0000b406       0x66 build/aws_demos/debug/_ext/1534684544/sys_console.o
 .debug_str     0x0000b46c       0x6b build/aws_demos/debug/_ext/2146650376/hal_i2c_harmony.o
 .debug_str     0x0000b4d7       0x72 build/aws_demos/debug/_ext/2146650376/atca_hal.o
 .debug_str     0x0000b549       0x7c build/aws_demos/debug/_ext/2146650376/hal_freertos.o
 .debug_str     0x0000b5c5       0x23 build/aws_demos/debug/_ext/2146650376/hal_i2c_harmony_init.o
 .debug_str     0x0000b5e8        0x0 build/aws_demos/debug/_ext/2146650376/hal_cortex_m_delay.o
 .debug_str     0x0000b5e8        0x0 c:/program files/microchip/xc32/v2.40/bin/bin/../../lib/gcc/pic32c/6.2.1/../../../../pic32c/lib/v7e-m/fpv4-sp/hard\libpic32c.a(close.o)
 .debug_str     0x0000b5e8        0x0 c:/program files/microchip/xc32/v2.40/bin/bin/../../lib/gcc/pic32c/6.2.1/../../../../pic32c/lib/v7e-m/fpv4-sp/hard\libpic32c.a(data_init.o)
 .debug_str     0x0000b5e8        0x0 c:/program files/microchip/xc32/v2.40/bin/bin/../../lib/gcc/pic32c/6.2.1/v7e-m/fpv4-sp/hard\libgcc.a(_udivmoddi4.o)
 .debug_str     0x0000b5e8       0x13 c:/program files/microchip/xc32/v2.40/bin/bin/../../lib/gcc/pic32c/6.2.1/../../../../pic32c/lib/v7e-m/fpv4-sp/hard\libg_nano.a(lib_a-calloc.o)
 .debug_str     0x0000b5fb       0x12 c:/program files/microchip/xc32/v2.40/bin/bin/../../lib/gcc/pic32c/6.2.1/../../../../pic32c/lib/v7e-m/fpv4-sp/hard\libg_nano.a(lib_a-gmtime.o)
 .debug_str     0x0000b60d        0x9 c:/program files/microchip/xc32/v2.40/bin/bin/../../lib/gcc/pic32c/6.2.1/../../../../pic32c/lib/v7e-m/fpv4-sp/hard\libg_nano.a(lib_a-gmtime_r.o)
 .debug_str     0x0000b616        0x9 c:/program files/microchip/xc32/v2.40/bin/bin/../../lib/gcc/pic32c/6.2.1/../../../../pic32c/lib/v7e-m/fpv4-sp/hard\libg_nano.a(lib_a-impure.o)
 .debug_str     0x0000b61f        0x0 c:/program files/microchip/xc32/v2.40/bin/bin/../../lib/gcc/pic32c/6.2.1/../../../../pic32c/lib/v7e-m/fpv4-sp/hard\libg_nano.a(lib_a-init.o)
 .debug_str     0x0000b61f      0x134 c:/program files/microchip/xc32/v2.40/bin/bin/../../lib/gcc/pic32c/6.2.1/../../../../pic32c/lib/v7e-m/fpv4-sp/hard\libg_nano.a(lib_a-locale.o)
 .debug_str     0x0000b753       0x13 c:/program files/microchip/xc32/v2.40/bin/bin/../../lib/gcc/pic32c/6.2.1/../../../../pic32c/lib/v7e-m/fpv4-sp/hard\libg_nano.a(lib_a-malloc.o)
 .debug_str     0x0000b766      0x114 c:/program files/microchip/xc32/v2.40/bin/bin/../../lib/gcc/pic32c/6.2.1/../../../../pic32c/lib/v7e-m/fpv4-sp/hard\libg_nano.a(lib_a-mbtowc_r.o)
 .debug_str     0x0000b87a        0x9 c:/program files/microchip/xc32/v2.40/bin/bin/../../lib/gcc/pic32c/6.2.1/../../../../pic32c/lib/v7e-m/fpv4-sp/hard\libg_nano.a(lib_a-memcmp.o)
 .debug_str     0x0000b883        0x9 c:/program files/microchip/xc32/v2.40/bin/bin/../../lib/gcc/pic32c/6.2.1/../../../../pic32c/lib/v7e-m/fpv4-sp/hard\libg_nano.a(lib_a-memcpy-stub.o)
 .debug_str     0x0000b88c      0x114 c:/program files/microchip/xc32/v2.40/bin/bin/../../lib/gcc/pic32c/6.2.1/../../../../pic32c/lib/v7e-m/fpv4-sp/hard\libg_nano.a(lib_a-memmove.o)
 .debug_str     0x0000b9a0      0x114 c:/program files/microchip/xc32/v2.40/bin/bin/../../lib/gcc/pic32c/6.2.1/../../../../pic32c/lib/v7e-m/fpv4-sp/hard\libg_nano.a(lib_a-memset.o)
 .debug_str     0x0000bab4       0x3e c:/program files/microchip/xc32/v2.40/bin/bin/../../lib/gcc/pic32c/6.2.1/../../../../pic32c/lib/v7e-m/fpv4-sp/hard\libg_nano.a(lib_a-mktime.o)
 .debug_str     0x0000baf2       0x13 c:/program files/microchip/xc32/v2.40/bin/bin/../../lib/gcc/pic32c/6.2.1/../../../../pic32c/lib/v7e-m/fpv4-sp/hard\libg_nano.a(lib_a-nano-callocr.o)
 .debug_str     0x0000bb05       0x27 c:/program files/microchip/xc32/v2.40/bin/bin/../../lib/gcc/pic32c/6.2.1/../../../../pic32c/lib/v7e-m/fpv4-sp/hard\libg_nano.a(lib_a-nano-freer.o)
 .debug_str     0x0000bb2c       0x31 c:/program files/microchip/xc32/v2.40/bin/bin/../../lib/gcc/pic32c/6.2.1/../../../../pic32c/lib/v7e-m/fpv4-sp/hard\libg_nano.a(lib_a-nano-mallocr.o)
 .debug_str     0x0000bb5d      0x144 c:/program files/microchip/xc32/v2.40/bin/bin/../../lib/gcc/pic32c/6.2.1/../../../../pic32c/lib/v7e-m/fpv4-sp/hard\libg_nano.a(lib_a-nano-vfprintf.o)
 .debug_str     0x0000bca1      0x13b c:/program files/microchip/xc32/v2.40/bin/bin/../../lib/gcc/pic32c/6.2.1/../../../../pic32c/lib/v7e-m/fpv4-sp/hard\libg_nano.a(_lib_a-nano-vfprintf.s.o)
 .debug_str     0x0000bddc       0x15 c:/program files/microchip/xc32/v2.40/bin/bin/../../lib/gcc/pic32c/6.2.1/../../../../pic32c/lib/v7e-m/fpv4-sp/hard\libg_nano.a(lib_a-printf.o)
 .debug_str     0x0000bdf1        0x9 c:/program files/microchip/xc32/v2.40/bin/bin/../../lib/gcc/pic32c/6.2.1/../../../../pic32c/lib/v7e-m/fpv4-sp/hard\libg_nano.a(lib_a-putchar.o)
 .debug_str     0x0000bdfa       0x13 c:/program files/microchip/xc32/v2.40/bin/bin/../../lib/gcc/pic32c/6.2.1/../../../../pic32c/lib/v7e-m/fpv4-sp/hard\libg_nano.a(lib_a-putc.o)
 .debug_str     0x0000be0d       0x1f c:/program files/microchip/xc32/v2.40/bin/bin/../../lib/gcc/pic32c/6.2.1/../../../../pic32c/lib/v7e-m/fpv4-sp/hard\libg_nano.a(lib_a-puts.o)
 .debug_str     0x0000be2c        0x9 c:/program files/microchip/xc32/v2.40/bin/bin/../../lib/gcc/pic32c/6.2.1/../../../../pic32c/lib/v7e-m/fpv4-sp/hard\libg_nano.a(lib_a-rand.o)
 .debug_str     0x0000be35        0x9 c:/program files/microchip/xc32/v2.40/bin/bin/../../lib/gcc/pic32c/6.2.1/../../../../pic32c/lib/v7e-m/fpv4-sp/hard\libg_nano.a(lib_a-sbrkr.o)
 .debug_str     0x0000be3e       0x16 c:/program files/microchip/xc32/v2.40/bin/bin/../../lib/gcc/pic32c/6.2.1/../../../../pic32c/lib/v7e-m/fpv4-sp/hard\libg_nano.a(lib_a-snprintf.o)
 .debug_str     0x0000be54       0x16 c:/program files/microchip/xc32/v2.40/bin/bin/../../lib/gcc/pic32c/6.2.1/../../../../pic32c/lib/v7e-m/fpv4-sp/hard\libg_nano.a(lib_a-sprintf.o)
 .debug_str     0x0000be6a      0x128 c:/program files/microchip/xc32/v2.40/bin/bin/../../lib/gcc/pic32c/6.2.1/../../../../pic32c/lib/v7e-m/fpv4-sp/hard\libg_nano.a(lib_a-__ssfputs.o)
 .debug_str     0x0000bf92       0x2b c:/program files/microchip/xc32/v2.40/bin/bin/../../lib/gcc/pic32c/6.2.1/../../../../pic32c/lib/v7e-m/fpv4-sp/hard\libg_nano.a(lib_a-stdio.o)
 .debug_str     0x0000bfbd        0x9 c:/program files/microchip/xc32/v2.40/bin/bin/../../lib/gcc/pic32c/6.2.1/../../../../pic32c/lib/v7e-m/fpv4-sp/hard\libg_nano.a(lib_a-strcat.o)
 .debug_str     0x0000bfc6        0x9 c:/program files/microchip/xc32/v2.40/bin/bin/../../lib/gcc/pic32c/6.2.1/../../../../pic32c/lib/v7e-m/fpv4-sp/hard\libg_nano.a(lib_a-strcpy.o)
 .debug_str     0x0000bfcf        0x9 c:/program files/microchip/xc32/v2.40/bin/bin/../../lib/gcc/pic32c/6.2.1/../../../../pic32c/lib/v7e-m/fpv4-sp/hard\libg_nano.a(lib_a-strncmp.o)
 .debug_str     0x0000bfd8        0x9 c:/program files/microchip/xc32/v2.40/bin/bin/../../lib/gcc/pic32c/6.2.1/../../../../pic32c/lib/v7e-m/fpv4-sp/hard\libg_nano.a(lib_a-strncpy.o)
 .debug_str     0x0000bfe1        0x9 c:/program files/microchip/xc32/v2.40/bin/bin/../../lib/gcc/pic32c/6.2.1/../../../../pic32c/lib/v7e-m/fpv4-sp/hard\libg_nano.a(lib_a-strstr.o)
 .debug_str     0x0000bfea      0x129 c:/program files/microchip/xc32/v2.40/bin/bin/../../lib/gcc/pic32c/6.2.1/../../../../pic32c/lib/v7e-m/fpv4-sp/hard\libg_nano.a(lib_a-strtol.o)
 .debug_str     0x0000c113      0x129 c:/program files/microchip/xc32/v2.40/bin/bin/../../lib/gcc/pic32c/6.2.1/../../../../pic32c/lib/v7e-m/fpv4-sp/hard\libg_nano.a(lib_a-strtoul.o)
 .debug_str     0x0000c23c       0x15 c:/program files/microchip/xc32/v2.40/bin/bin/../../lib/gcc/pic32c/6.2.1/../../../../pic32c/lib/v7e-m/fpv4-sp/hard\libg_nano.a(lib_a-tzcalc_limits.o)
 .debug_str     0x0000c251       0x1b c:/program files/microchip/xc32/v2.40/bin/bin/../../lib/gcc/pic32c/6.2.1/../../../../pic32c/lib/v7e-m/fpv4-sp/hard\libg_nano.a(lib_a-tzset.o)
 .debug_str     0x0000c26c       0x43 c:/program files/microchip/xc32/v2.40/bin/bin/../../lib/gcc/pic32c/6.2.1/../../../../pic32c/lib/v7e-m/fpv4-sp/hard\libg_nano.a(lib_a-tzset_r.o)
 .debug_str     0x0000c2af        0x9 c:/program files/microchip/xc32/v2.40/bin/bin/../../lib/gcc/pic32c/6.2.1/../../../../pic32c/lib/v7e-m/fpv4-sp/hard\libg_nano.a(lib_a-tzvars.o)
 .debug_str     0x0000c2b8       0x16 c:/program files/microchip/xc32/v2.40/bin/bin/../../lib/gcc/pic32c/6.2.1/../../../../pic32c/lib/v7e-m/fpv4-sp/hard\libg_nano.a(lib_a-vsnprintf.o)
 .debug_str     0x0000c2ce       0x1f c:/program files/microchip/xc32/v2.40/bin/bin/../../lib/gcc/pic32c/6.2.1/../../../../pic32c/lib/v7e-m/fpv4-sp/hard\libg_nano.a(lib_a-wbuf.o)
 .debug_str     0x0000c2ed      0x114 c:/program files/microchip/xc32/v2.40/bin/bin/../../lib/gcc/pic32c/6.2.1/../../../../pic32c/lib/v7e-m/fpv4-sp/hard\libg_nano.a(lib_a-wctomb_r.o)
 .debug_str     0x0000c401       0x10 c:/program files/microchip/xc32/v2.40/bin/bin/../../lib/gcc/pic32c/6.2.1/../../../../pic32c/lib/v7e-m/fpv4-sp/hard\libg_nano.a(lib_a-writer.o)
 .debug_str     0x0000c411       0x16 c:/program files/microchip/xc32/v2.40/bin/bin/../../lib/gcc/pic32c/6.2.1/../../../../pic32c/lib/v7e-m/fpv4-sp/hard\libg_nano.a(lib_a-wsetup.o)
 .debug_str     0x0000c427       0x10 c:/program files/microchip/xc32/v2.40/bin/bin/../../lib/gcc/pic32c/6.2.1/../../../../pic32c/lib/v7e-m/fpv4-sp/hard\libg_nano.a(lib_a-closer.o)
 .debug_str     0x0000c437      0x114 c:/program files/microchip/xc32/v2.40/bin/bin/../../lib/gcc/pic32c/6.2.1/../../../../pic32c/lib/v7e-m/fpv4-sp/hard\libg_nano.a(lib_a-ctype_.o)
 .debug_str     0x0000c54b        0x9 c:/program files/microchip/xc32/v2.40/bin/bin/../../lib/gcc/pic32c/6.2.1/../../../../pic32c/lib/v7e-m/fpv4-sp/hard\libg_nano.a(lib_a-div.o)
 .debug_str     0x0000c554       0x16 c:/program files/microchip/xc32/v2.40/bin/bin/../../lib/gcc/pic32c/6.2.1/../../../../pic32c/lib/v7e-m/fpv4-sp/hard\libg_nano.a(lib_a-fflush.o)
 .debug_str     0x0000c56a       0x20 c:/program files/microchip/xc32/v2.40/bin/bin/../../lib/gcc/pic32c/6.2.1/../../../../pic32c/lib/v7e-m/fpv4-sp/hard\libg_nano.a(lib_a-findfp.o)
 .debug_str     0x0000c58a       0x32 c:/program files/microchip/xc32/v2.40/bin/bin/../../lib/gcc/pic32c/6.2.1/../../../../pic32c/lib/v7e-m/fpv4-sp/hard\libg_nano.a(lib_a-fputwc.o)
 .debug_str     0x0000c5bc        0x9 c:/program files/microchip/xc32/v2.40/bin/bin/../../lib/gcc/pic32c/6.2.1/../../../../pic32c/lib/v7e-m/fpv4-sp/hard\libg_nano.a(lib_a-fwalk.o)
 .debug_str     0x0000c5c5       0x2b c:/program files/microchip/xc32/v2.40/bin/bin/../../lib/gcc/pic32c/6.2.1/../../../../pic32c/lib/v7e-m/fpv4-sp/hard\libg_nano.a(lib_a-getenv_r.o)
 .debug_str     0x0000c5f0        0x9 c:/program files/microchip/xc32/v2.40/bin/bin/../../lib/gcc/pic32c/6.2.1/../../../../pic32c/lib/v7e-m/fpv4-sp/hard\libg_nano.a(lib_a-gettzinfo.o)
 .debug_str     0x0000c5f9        0x9 c:/program files/microchip/xc32/v2.40/bin/bin/../../lib/gcc/pic32c/6.2.1/../../../../pic32c/lib/v7e-m/fpv4-sp/hard\libg_nano.a(lib_a-lseekr.o)
 .debug_str     0x0000c602       0x31 c:/program files/microchip/xc32/v2.40/bin/bin/../../lib/gcc/pic32c/6.2.1/../../../../pic32c/lib/v7e-m/fpv4-sp/hard\libg_nano.a(lib_a-makebuf.o)
 .debug_str     0x0000c633        0x9 c:/program files/microchip/xc32/v2.40/bin/bin/../../lib/gcc/pic32c/6.2.1/../../../../pic32c/lib/v7e-m/fpv4-sp/hard\libg_nano.a(lib_a-mlock.o)
 .debug_str     0x0000c63c        0x9 c:/program files/microchip/xc32/v2.40/bin/bin/../../lib/gcc/pic32c/6.2.1/../../../../pic32c/lib/v7e-m/fpv4-sp/hard\libg_nano.a(lib_a-month_lengths.o)
 .debug_str     0x0000c645      0x141 c:/program files/microchip/xc32/v2.40/bin/bin/../../lib/gcc/pic32c/6.2.1/../../../../pic32c/lib/v7e-m/fpv4-sp/hard\libg_nano.a(lib_a-nano-svfprintf.o)
 .debug_str     0x0000c786      0x11b c:/program files/microchip/xc32/v2.40/bin/bin/../../lib/gcc/pic32c/6.2.1/../../../../pic32c/lib/v7e-m/fpv4-sp/hard\libg_nano.a(lib_a-nano-vfprintf_i.o)
 .debug_str     0x0000c8a1      0x137 c:/program files/microchip/xc32/v2.40/bin/bin/../../lib/gcc/pic32c/6.2.1/../../../../pic32c/lib/v7e-m/fpv4-sp/hard\libg_nano.a(_lib_a-nano-vfscanf.cdnopsuxX.o)
 .debug_str     0x0000c9d8        0x9 c:/program files/microchip/xc32/v2.40/bin/bin/../../lib/gcc/pic32c/6.2.1/../../../../pic32c/lib/v7e-m/fpv4-sp/hard\libg_nano.a(lib_a-readr.o)
 .debug_str     0x0000c9e1        0x9 c:/program files/microchip/xc32/v2.40/bin/bin/../../lib/gcc/pic32c/6.2.1/../../../../pic32c/lib/v7e-m/fpv4-sp/hard\libg_nano.a(lib_a-reent.o)
 .debug_str     0x0000c9ea        0x9 c:/program files/microchip/xc32/v2.40/bin/bin/../../lib/gcc/pic32c/6.2.1/../../../../pic32c/lib/v7e-m/fpv4-sp/hard\libg_nano.a(lib_a-sccl.o)
 .debug_str     0x0000c9f3       0x17 c:/program files/microchip/xc32/v2.40/bin/bin/../../lib/gcc/pic32c/6.2.1/../../../../pic32c/lib/v7e-m/fpv4-sp/hard\libg_nano.a(lib_a-sscanf.o)
 .debug_str     0x0000ca0a      0x129 c:/program files/microchip/xc32/v2.40/bin/bin/../../lib/gcc/pic32c/6.2.1/../../../../pic32c/lib/v7e-m/fpv4-sp/hard\libg_nano.a(lib_a-__ssputs.o)
 .debug_str     0x0000cb33       0x28 c:/program files/microchip/xc32/v2.40/bin/bin/../../lib/gcc/pic32c/6.2.1/../../../../pic32c/lib/v7e-m/fpv4-sp/hard\libg_nano.a(lib_a-ungetc.o)
 .debug_str     0x0000cb5b      0x114 c:/program files/microchip/xc32/v2.40/bin/bin/../../lib/gcc/pic32c/6.2.1/../../../../pic32c/lib/v7e-m/fpv4-sp/hard\libg_nano.a(lib_a-wcrtomb.o)
 .debug_str     0x0000cc6f        0x0 c:/program files/microchip/xc32/v2.40/bin/bin/../../lib/gcc/pic32c/6.2.1/../../../../pic32c/lib/v7e-m/fpv4-sp/hard\libg_nano.a(lib_a-environ.o)
 .debug_str     0x0000cc6f        0x9 c:/program files/microchip/xc32/v2.40/bin/bin/../../lib/gcc/pic32c/6.2.1/../../../../pic32c/lib/v7e-m/fpv4-sp/hard\libg_nano.a(lib_a-envlock.o)
 .debug_str     0x0000cc78        0x9 c:/program files/microchip/xc32/v2.40/bin/bin/../../lib/gcc/pic32c/6.2.1/../../../../pic32c/lib/v7e-m/fpv4-sp/hard\libg_nano.a(lib_a-fstatr.o)
 .debug_str     0x0000cc81        0x9 c:/program files/microchip/xc32/v2.40/bin/bin/../../lib/gcc/pic32c/6.2.1/../../../../pic32c/lib/v7e-m/fpv4-sp/hard\libg_nano.a(lib_a-isattyr.o)
 .debug_str     0x0000cc8a       0x29 c:/program files/microchip/xc32/v2.40/bin/bin/../../lib/gcc/pic32c/6.2.1/../../../../pic32c/lib/v7e-m/fpv4-sp/hard\libg_nano.a(lib_a-nano-reallocr.o)
 .debug_str     0x0000ccb3      0x154 c:/program files/microchip/xc32/v2.40/bin/bin/../../lib/gcc/pic32c/6.2.1/../../../../pic32c/lib/v7e-m/fpv4-sp/hard\libg_nano.a(lib_a-nano-svfscanf.o)
 .debug_str     0x0000ce07      0x127 c:/program files/microchip/xc32/v2.40/bin/bin/../../lib/gcc/pic32c/6.2.1/../../../../pic32c/lib/v7e-m/fpv4-sp/hard\libg_nano.a(lib_a-nano-vfscanf_i.o)
 .debug_str     0x0000cf2e        0x9 c:/program files/microchip/xc32/v2.40/bin/bin/../../lib/gcc/pic32c/6.2.1/../../../../pic32c/lib/v7e-m/fpv4-sp/hard\libg_nano.a(lib_a-nano-msizer.o)
 .debug_str     0x0000cf37        0x0 c:/program files/microchip/xc32/v2.40/bin/bin/../../lib/gcc/pic32c/6.2.1/../../../../pic32c/lib/v7e-m/fpv4-sp/hard\libpic32c.a(_close.o)
 .debug_str     0x0000cf37        0x0 c:/program files/microchip/xc32/v2.40/bin/bin/../../lib/gcc/pic32c/6.2.1/../../../../pic32c/lib/v7e-m/fpv4-sp/hard\libpic32c.a(_fstat.o)
 .debug_str     0x0000cf37        0x0 c:/program files/microchip/xc32/v2.40/bin/bin/../../lib/gcc/pic32c/6.2.1/../../../../pic32c/lib/v7e-m/fpv4-sp/hard\libpic32c.a(_isatty.o)
 .debug_str     0x0000cf37        0x0 c:/program files/microchip/xc32/v2.40/bin/bin/../../lib/gcc/pic32c/6.2.1/../../../../pic32c/lib/v7e-m/fpv4-sp/hard\libpic32c.a(_lseek.o)
 .debug_str     0x0000cf37        0x0 c:/program files/microchip/xc32/v2.40/bin/bin/../../lib/gcc/pic32c/6.2.1/../../../../pic32c/lib/v7e-m/fpv4-sp/hard\libpic32c.a(_read.o)
 .debug_str     0x0000cf37        0x0 c:/program files/microchip/xc32/v2.40/bin/bin/../../lib/gcc/pic32c/6.2.1/../../../../pic32c/lib/v7e-m/fpv4-sp/hard\libpic32c.a(sbrk.o)
 .debug_str     0x0000cf37        0x0 c:/program files/microchip/xc32/v2.40/bin/bin/../../lib/gcc/pic32c/6.2.1/../../../../pic32c/lib/v7e-m/fpv4-sp/hard\libpic32c.a(_write.o)
 .debug_str     0x0000cf37        0x0 c:/program files/microchip/xc32/v2.40/bin/bin/../../lib/gcc/pic32c/6.2.1/../../../../pic32c/lib/v7e-m/fpv4-sp/hard\libpic32c.a(fstat.o)
 .debug_str     0x0000cf37        0x0 c:/program files/microchip/xc32/v2.40/bin/bin/../../lib/gcc/pic32c/6.2.1/../../../../pic32c/lib/v7e-m/fpv4-sp/hard\libpic32c.a(isatty.o)
 .debug_str     0x0000cf37        0x0 c:/program files/microchip/xc32/v2.40/bin/bin/../../lib/gcc/pic32c/6.2.1/../../../../pic32c/lib/v7e-m/fpv4-sp/hard\libpic32c.a(lseek.o)
 .debug_str     0x0000cf37        0x0 c:/program files/microchip/xc32/v2.40/bin/bin/../../lib/gcc/pic32c/6.2.1/../../../../pic32c/lib/v7e-m/fpv4-sp/hard\libpic32c.a(read.o)
 .debug_str     0x0000cf37        0x0 c:/program files/microchip/xc32/v2.40/bin/bin/../../lib/gcc/pic32c/6.2.1/../../../../pic32c/lib/v7e-m/fpv4-sp/hard\libpic32c.a(write.o)

.debug_frame    0x00000000     0xefd4
 .debug_frame   0x00000000      0x160 build/aws_demos/debug/_ext/665618993/plib_nvmctrl.o
 .debug_frame   0x00000160      0x124 build/aws_demos/debug/_ext/1385882503/port.o
 .debug_frame   0x00000284       0xc0 build/aws_demos/debug/_ext/1168480030/heap_4.o
 .debug_frame   0x00000344       0xbc build/aws_demos/debug/_ext/1972722184/iot_pkcs11_secure_element.o
 .debug_frame   0x00000400      0x410 build/aws_demos/debug/_ext/2009324866/aws_wifi.o
 .debug_frame   0x00000810      0x1d4 build/aws_demos/debug/_ext/2009324866/iot_secure_sockets.o
 .debug_frame   0x000009e4      0x170 build/aws_demos/debug/_ext/1456806047/atcacert_client.o
 .debug_frame   0x00000b54      0x30c build/aws_demos/debug/_ext/1456806047/atcacert_date.o
 .debug_frame   0x00000e60      0x73c build/aws_demos/debug/_ext/1456806047/atcacert_def.o
 .debug_frame   0x0000159c      0x13c build/aws_demos/debug/_ext/1456806047/atcacert_der.o
 .debug_frame   0x000016d8      0x114 build/aws_demos/debug/_ext/1456806047/atcacert_pem.o
 .debug_frame   0x000017ec      0x328 build/aws_demos/debug/_ext/1009855837/atca_command.o
 .debug_frame   0x00001b14       0xa0 build/aws_demos/debug/_ext/1009855837/atca_device.o
 .debug_frame   0x00001bb4       0x3c build/aws_demos/debug/_ext/1009855837/atca_execution.o
 .debug_frame   0x00001bf0      0x124 build/aws_demos/debug/_ext/1009855837/atca_iface.o
 .debug_frame   0x00001d14      0x150 build/aws_demos/debug/_ext/306685378/atca_basic.o
 .debug_frame   0x00001e64       0x38 build/aws_demos/debug/_ext/306685378/atca_basic_checkmac.o
 .debug_frame   0x00001e9c       0xf4 build/aws_demos/debug/_ext/306685378/atca_basic_ecdh.o
 .debug_frame   0x00001f90       0x34 build/aws_demos/debug/_ext/306685378/atca_basic_gendig.o
 .debug_frame   0x00001fc4       0x64 build/aws_demos/debug/_ext/306685378/atca_basic_genkey.o
 .debug_frame   0x00002028       0x8c build/aws_demos/debug/_ext/306685378/atca_basic_info.o
 .debug_frame   0x000020b4       0xb0 build/aws_demos/debug/_ext/306685378/atca_basic_lock.o
 .debug_frame   0x00002164       0xb0 build/aws_demos/debug/_ext/306685378/atca_basic_nonce.o
 .debug_frame   0x00002214       0x40 build/aws_demos/debug/_ext/306685378/atca_basic_privwrite.o
 .debug_frame   0x00002254       0x38 build/aws_demos/debug/_ext/306685378/atca_basic_random.o
 .debug_frame   0x0000228c      0x1ac build/aws_demos/debug/_ext/306685378/atca_basic_read.o
 .debug_frame   0x00002438       0x68 build/aws_demos/debug/_ext/306685378/atca_basic_sign.o
 .debug_frame   0x000024a0       0x38 build/aws_demos/debug/_ext/306685378/atca_basic_updateextra.o
 .debug_frame   0x000024d8      0x158 build/aws_demos/debug/_ext/306685378/atca_basic_verify.o
 .debug_frame   0x00002630      0x134 build/aws_demos/debug/_ext/306685378/atca_basic_write.o
 .debug_frame   0x00002764      0x2c4 build/aws_demos/debug/_ext/306685378/atca_helpers.o
 .debug_frame   0x00002a28       0x7c build/aws_demos/debug/_ext/961827245/atca_crypto_sw_sha1.o
 .debug_frame   0x00002aa4       0x7c build/aws_demos/debug/_ext/961827245/atca_crypto_sw_sha2.o
 .debug_frame   0x00002b20       0xc0 build/aws_demos/debug/_ext/1070826718/sha1_routines.o
 .debug_frame   0x00002be0       0xc0 build/aws_demos/debug/_ext/1070826718/sha2_routines.o
 .debug_frame   0x00002ca0      0x3f8 build/aws_demos/debug/_ext/544104044/atca_host.o
 .debug_frame   0x00003098       0x98 build/aws_demos/debug/_ext/1326886903/pkcs11_attrib.o
 .debug_frame   0x00003130       0xa4 build/aws_demos/debug/_ext/1326886903/pkcs11_cert.o
 .debug_frame   0x000031d4       0x7c build/aws_demos/debug/_ext/1326886903/pkcs11_config.o
 .debug_frame   0x00003250       0xa4 build/aws_demos/debug/_ext/1326886903/pkcs11_digest.o
 .debug_frame   0x000032f4      0x10c build/aws_demos/debug/_ext/1326886903/pkcs11_find.o
 .debug_frame   0x00003400       0x30 build/aws_demos/debug/_ext/1326886903/pkcs11_info.o
 .debug_frame   0x00003430       0xa8 build/aws_demos/debug/_ext/1326886903/pkcs11_init.o
 .debug_frame   0x000034d8      0x16c build/aws_demos/debug/_ext/1326886903/pkcs11_key.o
 .debug_frame   0x00003644      0x5a8 build/aws_demos/debug/_ext/1326886903/pkcs11_main.o
 .debug_frame   0x00003bec       0x48 build/aws_demos/debug/_ext/1326886903/pkcs11_mech.o
 .debug_frame   0x00003c34      0x1d8 build/aws_demos/debug/_ext/1326886903/pkcs11_object.o
 .debug_frame   0x00003e0c       0x70 build/aws_demos/debug/_ext/1326886903/pkcs11_os.o
 .debug_frame   0x00003e7c      0x12c build/aws_demos/debug/_ext/1326886903/pkcs11_session.o
 .debug_frame   0x00003fa8       0xe8 build/aws_demos/debug/_ext/1326886903/pkcs11_signature.o
 .debug_frame   0x00004090       0xb4 build/aws_demos/debug/_ext/1326886903/pkcs11_slot.o
 .debug_frame   0x00004144       0xe8 build/aws_demos/debug/_ext/1326886903/pkcs11_token.o
 .debug_frame   0x0000422c       0x30 build/aws_demos/debug/_ext/1326886903/pkcs11_util.o
 .debug_frame   0x0000425c       0xc8 build/aws_demos/debug/_ext/1110296786/plib_tc3.o
 .debug_frame   0x00004324      0x404 build/aws_demos/debug/_ext/484134862/sys_time.o
 .debug_frame   0x00004728       0x30 build/aws_demos/debug/_ext/1843304010/plib_trng.o
 .debug_frame   0x00004758      0x11c build/aws_demos/debug/_ext/1534684544/sys_console_uart.o
 .debug_frame   0x00004874      0x238 build/aws_demos/debug/_ext/2104392270/drv_spi.o
 .debug_frame   0x00004aac       0x6c build/aws_demos/debug/_ext/1762024984/sys_int.o
 .debug_frame   0x00004b18       0x48 build/aws_demos/debug/_ext/959252812/sys_dma.o
 .debug_frame   0x00004b60      0x150 build/aws_demos/debug/_ext/1149029443/osal_freertos.o
 .debug_frame   0x00004cb0       0x38 build/aws_demos/debug/_ext/1360937237/app.o
 .debug_frame   0x00004ce8       0x7c build/aws_demos/debug/_ext/1534096987/tasks.o
 .debug_frame   0x00004d64      0x13c build/aws_demos/debug/_ext/731420310/plib_sercom2_usart.o
 .debug_frame   0x00004ea0       0x20 build/aws_demos/debug/_ext/1321577635/plib_evsys.o
 .debug_frame   0x00004ec0      0x270 build/aws_demos/debug/_ext/1833802790/wdrv_winc.o
 .debug_frame   0x00005130       0xa8 build/aws_demos/debug/_ext/1833802790/wdrv_winc_authctx.o
 .debug_frame   0x000051d8       0x98 build/aws_demos/debug/_ext/1833802790/wdrv_winc_bssctx.o
 .debug_frame   0x00005270      0x17c build/aws_demos/debug/_ext/1833802790/wdrv_winc_socket.o
 .debug_frame   0x000053ec       0xac build/aws_demos/debug/_ext/1833802790/wdrv_winc_sta.o
 .debug_frame   0x00005498       0xc4 build/aws_demos/debug/_ext/1833802790/wdrv_winc_systime.o
 .debug_frame   0x0000555c       0x40 build/aws_demos/debug/_ext/978667550/wdrv_winc_eint.o
 .debug_frame   0x0000559c       0x50 build/aws_demos/debug/_ext/978667550/wdrv_winc_gpio.o
 .debug_frame   0x000055ec       0xd8 build/aws_demos/debug/_ext/384060547/wdrv_winc_spi.o
 .debug_frame   0x000056c4       0x2c build/aws_demos/debug/_ext/1289849308/wdrv_winc_osal.o
 .debug_frame   0x000056f0       0x40 build/aws_demos/debug/_ext/2059254151/nm_common.o
 .debug_frame   0x00005730      0x1b8 build/aws_demos/debug/_ext/2090543044/m2m_flash.o
 .debug_frame   0x000058e8      0x1b0 build/aws_demos/debug/_ext/2090543044/m2m_hif.o
 .debug_frame   0x00005a98      0x6cc build/aws_demos/debug/_ext/2090543044/m2m_wifi.o
 .debug_frame   0x00006164      0x2e0 build/aws_demos/debug/_ext/2090543044/nmasic.o
 .debug_frame   0x00006444       0xd8 build/aws_demos/debug/_ext/2090543044/nmbus.o
 .debug_frame   0x0000651c      0x10c build/aws_demos/debug/_ext/2090543044/nmdrv.o
 .debug_frame   0x00006628      0x230 build/aws_demos/debug/_ext/2090543044/nmflash.o
 .debug_frame   0x00006858      0x1ec build/aws_demos/debug/_ext/2090543044/nmspi.o
 .debug_frame   0x00006a44      0x158 build/aws_demos/debug/_ext/1151736449/spi_flash.o
 .debug_frame   0x00006b9c       0xc0 build/aws_demos/debug/_ext/2090543044/m2m_ota.o
 .debug_frame   0x00006c5c      0x118 build/aws_demos/debug/_ext/2090543044/m2m_ssl.o
 .debug_frame   0x00006d74      0x27c build/aws_demos/debug/_ext/1777946865/socket.o
 .debug_frame   0x00006ff0      0x10c build/aws_demos/debug/_ext/230789302/plib_sercom7_i2c_master.o
 .debug_frame   0x000070fc      0x300 build/aws_demos/debug/_ext/1991396724/sys_command.o
 .debug_frame   0x000073fc      0x1d8 build/aws_demos/debug/_ext/731420310/plib_sercom6_usart.o
 .debug_frame   0x000075d4       0x98 build/aws_demos/debug/_ext/1360937237/main.o
 .debug_frame   0x0000766c       0x2c build/aws_demos/debug/_ext/1534096987/initialization.o
 .debug_frame   0x00007698       0x20 build/aws_demos/debug/_ext/1534096987/interrupts.o
 .debug_frame   0x000076b8       0x70 build/aws_demos/debug/_ext/1534096987/exceptions.o
 .debug_frame   0x00007728       0x50 build/aws_demos/debug/_ext/1263901141/xc32_monitor.o
 .debug_frame   0x00007778       0xa0 build/aws_demos/debug/_ext/1843425920/plib_port.o
 .debug_frame   0x00007818       0x20 build/aws_demos/debug/_ext/1323727121/plib_clock.o
 .debug_frame   0x00007838       0x30 build/aws_demos/debug/_ext/1843479071/plib_nvic.o
 .debug_frame   0x00007868      0x154 build/aws_demos/debug/_ext/1843785878/plib_dmac.o
 .debug_frame   0x000079bc       0x28 build/aws_demos/debug/_ext/1534096987/startup_xc32.o
 .debug_frame   0x000079e4       0xcc build/aws_demos/debug/_ext/1916130672/plib_sercom4_spi.o
 .debug_frame   0x00007ab0       0x78 build/aws_demos/debug/_ext/59476128/plib_eic.o
 .debug_frame   0x00007b28       0x70 build/aws_demos/debug/_ext/1931625852/sys_debug.o
 .debug_frame   0x00007b98       0x3c build/aws_demos/debug/_ext/1223942466/aws_demo.o
 .debug_frame   0x00007bd4       0xb8 build/aws_demos/debug/_ext/1223942466/iot_demo_freertos.o
 .debug_frame   0x00007c8c       0x28 build/aws_demos/debug/_ext/1223942466/iot_demo_runner.o
 .debug_frame   0x00007cb4      0x1e0 build/aws_demos/debug/_ext/198771642/aws_dev_mode_key_provisioning.o
 .debug_frame   0x00007e94       0x90 build/aws_demos/debug/_ext/1441508942/iot_demo_mqtt.o
 .debug_frame   0x00007f24      0x198 build/aws_demos/debug/_ext/2040524622/aws_iot_network_manager.o
 .debug_frame   0x000080bc      0x178 build/aws_demos/debug/_ext/811507611/event_groups.o
 .debug_frame   0x00008234       0x6c build/aws_demos/debug/_ext/811507611/list.o
 .debug_frame   0x000082a0      0x3bc build/aws_demos/debug/_ext/811507611/queue.o
 .debug_frame   0x0000865c      0x66c build/aws_demos/debug/_ext/811507611/tasks.o
 .debug_frame   0x00008cc8      0x278 build/aws_demos/debug/_ext/811507611/timers.o
 .debug_frame   0x00008f40      0x1bc build/aws_demos/debug/_ext/684768522/asn1parse.o
 .debug_frame   0x000090fc      0x1d4 build/aws_demos/debug/_ext/684768522/asn1write.o
 .debug_frame   0x000092d0       0x84 build/aws_demos/debug/_ext/684768522/base64.o
 .debug_frame   0x00009354      0x714 build/aws_demos/debug/_ext/684768522/bignum.o
 .debug_frame   0x00009a68      0x1d0 build/aws_demos/debug/_ext/684768522/ecdsa.o
 .debug_frame   0x00009c38      0x5f4 build/aws_demos/debug/_ext/684768522/ecp.o
 .debug_frame   0x0000a22c       0x5c build/aws_demos/debug/_ext/684768522/ecp_curves.o
 .debug_frame   0x0000a288      0x298 build/aws_demos/debug/_ext/684768522/md.o
 .debug_frame   0x0000a520      0x1a8 build/aws_demos/debug/_ext/684768522/md_wrap.o
 .debug_frame   0x0000a6c8      0x2d0 build/aws_demos/debug/_ext/684768522/oid.o
 .debug_frame   0x0000a998       0x64 build/aws_demos/debug/_ext/684768522/pem.o
 .debug_frame   0x0000a9fc      0x24c build/aws_demos/debug/_ext/684768522/pk.o
 .debug_frame   0x0000ac48      0x178 build/aws_demos/debug/_ext/684768522/pkparse.o
 .debug_frame   0x0000adc0      0x35c build/aws_demos/debug/_ext/684768522/pk_wrap.o
 .debug_frame   0x0000b11c       0x70 build/aws_demos/debug/_ext/684768522/platform.o
 .debug_frame   0x0000b18c       0x28 build/aws_demos/debug/_ext/684768522/platform_util.o
 .debug_frame   0x0000b1b4      0x410 build/aws_demos/debug/_ext/684768522/rsa.o
 .debug_frame   0x0000b5c4       0xe8 build/aws_demos/debug/_ext/684768522/rsa_internal.o
 .debug_frame   0x0000b6ac      0x134 build/aws_demos/debug/_ext/684768522/sha1.o
 .debug_frame   0x0000b7e0      0x134 build/aws_demos/debug/_ext/684768522/sha256.o
 .debug_frame   0x0000b914       0x5c build/aws_demos/debug/_ext/684768522/threading.o
 .debug_frame   0x0000b970      0x204 build/aws_demos/debug/_ext/684768522/x509.o
 .debug_frame   0x0000bb74      0x250 build/aws_demos/debug/_ext/684768522/x509_crt.o
 .debug_frame   0x0000bdc4       0x6c build/aws_demos/debug/_ext/2077790016/mbedtls_utils.o
 .debug_frame   0x0000be30      0x108 build/aws_demos/debug/_ext/520142351/iot_clock_freertos.o
 .debug_frame   0x0000bf38      0x16c build/aws_demos/debug/_ext/520142351/iot_network_freertos.o
 .debug_frame   0x0000c0a4      0x1ec build/aws_demos/debug/_ext/520142351/iot_threads_freertos.o
 .debug_frame   0x0000c290       0xe0 build/aws_demos/debug/_ext/13066905/iot_device_metrics.o
 .debug_frame   0x0000c370       0x4c build/aws_demos/debug/_ext/13066905/iot_init.o
 .debug_frame   0x0000c3bc       0x68 build/aws_demos/debug/_ext/227692215/iot_logging.o
 .debug_frame   0x0000c424       0xac build/aws_demos/debug/_ext/227692215/iot_logging_task_dynamic_buffers.o
 .debug_frame   0x0000c4d0      0x3d4 build/aws_demos/debug/_ext/333408969/iot_taskpool.o
 .debug_frame   0x0000c8a4      0x2a4 build/aws_demos/debug/_ext/1739149067/iot_mqtt_api.o
 .debug_frame   0x0000cb48       0x90 build/aws_demos/debug/_ext/1739149067/iot_mqtt_network.o
 .debug_frame   0x0000cbd8      0x1c0 build/aws_demos/debug/_ext/1739149067/iot_mqtt_operation.o
 .debug_frame   0x0000cd98      0x2b0 build/aws_demos/debug/_ext/1739149067/iot_mqtt_serialize.o
 .debug_frame   0x0000d048      0x138 build/aws_demos/debug/_ext/1739149067/iot_mqtt_subscription.o
 .debug_frame   0x0000d180       0xa0 build/aws_demos/debug/_ext/1739149067/iot_mqtt_validate.o
 .debug_frame   0x0000d220      0x138 build/aws_demos/debug/_ext/350635301/iot_crypto.o
 .debug_frame   0x0000d358      0x118 build/aws_demos/debug/_ext/2138053595/iot_pkcs11.o
 .debug_frame   0x0000d470       0x28 build/aws_demos/debug/_ext/1120274527/iot_system_init.o
 .debug_frame   0x0000d498      0x1d0 build/aws_demos/debug/_ext/1534684544/sys_console.o
 .debug_frame   0x0000d668      0x13c build/aws_demos/debug/_ext/2146650376/hal_i2c_harmony.o
 .debug_frame   0x0000d7a4       0x58 build/aws_demos/debug/_ext/2146650376/atca_hal.o
 .debug_frame   0x0000d7fc       0x98 build/aws_demos/debug/_ext/2146650376/hal_freertos.o
 .debug_frame   0x0000d894       0x70 build/aws_demos/debug/_ext/2146650376/hal_cortex_m_delay.o
 .debug_frame   0x0000d904       0x20 c:/program files/microchip/xc32/v2.40/bin/bin/../../lib/gcc/pic32c/6.2.1/../../../../pic32c/lib/v7e-m/fpv4-sp/hard\libpic32c.a(close.o)
 .debug_frame   0x0000d924       0x2c c:/program files/microchip/xc32/v2.40/bin/bin/../../lib/gcc/pic32c/6.2.1/../../../../pic32c/lib/v7e-m/fpv4-sp/hard\libpic32c.a(data_init.o)
 .debug_frame   0x0000d950       0xac c:/program files/microchip/xc32/v2.40/bin/bin/../../lib/gcc/pic32c/6.2.1/v7e-m/fpv4-sp/hard\libgcc.a(_arm_addsubdf3.o)
 .debug_frame   0x0000d9fc       0x50 c:/program files/microchip/xc32/v2.40/bin/bin/../../lib/gcc/pic32c/6.2.1/v7e-m/fpv4-sp/hard\libgcc.a(_arm_muldivdf3.o)
 .debug_frame   0x0000da4c       0x24 c:/program files/microchip/xc32/v2.40/bin/bin/../../lib/gcc/pic32c/6.2.1/v7e-m/fpv4-sp/hard\libgcc.a(_arm_fixunsdfsi.o)
 .debug_frame   0x0000da70       0x2c c:/program files/microchip/xc32/v2.40/bin/bin/../../lib/gcc/pic32c/6.2.1/v7e-m/fpv4-sp/hard\libgcc.a(_aeabi_uldivmod.o)
 .debug_frame   0x0000da9c       0x38 c:/program files/microchip/xc32/v2.40/bin/bin/../../lib/gcc/pic32c/6.2.1/v7e-m/fpv4-sp/hard\libgcc.a(_udivmoddi4.o)
 .debug_frame   0x0000dad4       0x20 c:/program files/microchip/xc32/v2.40/bin/bin/../../lib/gcc/pic32c/6.2.1/../../../../pic32c/lib/v7e-m/fpv4-sp/hard\libg_nano.a(lib_a-calloc.o)
 .debug_frame   0x0000daf4       0x34 c:/program files/microchip/xc32/v2.40/bin/bin/../../lib/gcc/pic32c/6.2.1/../../../../pic32c/lib/v7e-m/fpv4-sp/hard\libg_nano.a(lib_a-gmtime.o)
 .debug_frame   0x0000db28       0x30 c:/program files/microchip/xc32/v2.40/bin/bin/../../lib/gcc/pic32c/6.2.1/../../../../pic32c/lib/v7e-m/fpv4-sp/hard\libg_nano.a(lib_a-gmtime_r.o)
 .debug_frame   0x0000db58       0x2c c:/program files/microchip/xc32/v2.40/bin/bin/../../lib/gcc/pic32c/6.2.1/../../../../pic32c/lib/v7e-m/fpv4-sp/hard\libg_nano.a(lib_a-init.o)
 .debug_frame   0x0000db84       0x68 c:/program files/microchip/xc32/v2.40/bin/bin/../../lib/gcc/pic32c/6.2.1/../../../../pic32c/lib/v7e-m/fpv4-sp/hard\libg_nano.a(lib_a-locale.o)
 .debug_frame   0x0000dbec       0x30 c:/program files/microchip/xc32/v2.40/bin/bin/../../lib/gcc/pic32c/6.2.1/../../../../pic32c/lib/v7e-m/fpv4-sp/hard\libg_nano.a(lib_a-malloc.o)
 .debug_frame   0x0000dc1c       0x48 c:/program files/microchip/xc32/v2.40/bin/bin/../../lib/gcc/pic32c/6.2.1/../../../../pic32c/lib/v7e-m/fpv4-sp/hard\libg_nano.a(lib_a-mbtowc_r.o)
 .debug_frame   0x0000dc64       0x28 c:/program files/microchip/xc32/v2.40/bin/bin/../../lib/gcc/pic32c/6.2.1/../../../../pic32c/lib/v7e-m/fpv4-sp/hard\libg_nano.a(lib_a-memcmp.o)
 .debug_frame   0x0000dc8c       0x28 c:/program files/microchip/xc32/v2.40/bin/bin/../../lib/gcc/pic32c/6.2.1/../../../../pic32c/lib/v7e-m/fpv4-sp/hard\libg_nano.a(lib_a-memcpy-stub.o)
 .debug_frame   0x0000dcb4       0x28 c:/program files/microchip/xc32/v2.40/bin/bin/../../lib/gcc/pic32c/6.2.1/../../../../pic32c/lib/v7e-m/fpv4-sp/hard\libg_nano.a(lib_a-memmove.o)
 .debug_frame   0x0000dcdc       0x20 c:/program files/microchip/xc32/v2.40/bin/bin/../../lib/gcc/pic32c/6.2.1/../../../../pic32c/lib/v7e-m/fpv4-sp/hard\libg_nano.a(lib_a-memset.o)
 .debug_frame   0x0000dcfc       0x58 c:/program files/microchip/xc32/v2.40/bin/bin/../../lib/gcc/pic32c/6.2.1/../../../../pic32c/lib/v7e-m/fpv4-sp/hard\libg_nano.a(lib_a-mktime.o)
 .debug_frame   0x0000dd54       0x2c c:/program files/microchip/xc32/v2.40/bin/bin/../../lib/gcc/pic32c/6.2.1/../../../../pic32c/lib/v7e-m/fpv4-sp/hard\libg_nano.a(lib_a-nano-callocr.o)
 .debug_frame   0x0000dd80       0x38 c:/program files/microchip/xc32/v2.40/bin/bin/../../lib/gcc/pic32c/6.2.1/../../../../pic32c/lib/v7e-m/fpv4-sp/hard\libg_nano.a(lib_a-nano-freer.o)
 .debug_frame   0x0000ddb8       0x2c c:/program files/microchip/xc32/v2.40/bin/bin/../../lib/gcc/pic32c/6.2.1/../../../../pic32c/lib/v7e-m/fpv4-sp/hard\libg_nano.a(lib_a-nano-mallocr.o)
 .debug_frame   0x0000dde4       0x50 c:/program files/microchip/xc32/v2.40/bin/bin/../../lib/gcc/pic32c/6.2.1/../../../../pic32c/lib/v7e-m/fpv4-sp/hard\libg_nano.a(lib_a-nano-vfprintf.o)
 .debug_frame   0x0000de34       0x60 c:/program files/microchip/xc32/v2.40/bin/bin/../../lib/gcc/pic32c/6.2.1/../../../../pic32c/lib/v7e-m/fpv4-sp/hard\libg_nano.a(_lib_a-nano-vfprintf.s.o)
 .debug_frame   0x0000de94       0x74 c:/program files/microchip/xc32/v2.40/bin/bin/../../lib/gcc/pic32c/6.2.1/../../../../pic32c/lib/v7e-m/fpv4-sp/hard\libg_nano.a(lib_a-printf.o)
 .debug_frame   0x0000df08       0x58 c:/program files/microchip/xc32/v2.40/bin/bin/../../lib/gcc/pic32c/6.2.1/../../../../pic32c/lib/v7e-m/fpv4-sp/hard\libg_nano.a(lib_a-putchar.o)
 .debug_frame   0x0000df60       0x48 c:/program files/microchip/xc32/v2.40/bin/bin/../../lib/gcc/pic32c/6.2.1/../../../../pic32c/lib/v7e-m/fpv4-sp/hard\libg_nano.a(lib_a-putc.o)
 .debug_frame   0x0000dfa8       0x3c c:/program files/microchip/xc32/v2.40/bin/bin/../../lib/gcc/pic32c/6.2.1/../../../../pic32c/lib/v7e-m/fpv4-sp/hard\libg_nano.a(lib_a-puts.o)
 .debug_frame   0x0000dfe4       0x44 c:/program files/microchip/xc32/v2.40/bin/bin/../../lib/gcc/pic32c/6.2.1/../../../../pic32c/lib/v7e-m/fpv4-sp/hard\libg_nano.a(lib_a-rand.o)
 .debug_frame   0x0000e028       0x2c c:/program files/microchip/xc32/v2.40/bin/bin/../../lib/gcc/pic32c/6.2.1/../../../../pic32c/lib/v7e-m/fpv4-sp/hard\libg_nano.a(lib_a-sbrkr.o)
 .debug_frame   0x0000e054       0x7c c:/program files/microchip/xc32/v2.40/bin/bin/../../lib/gcc/pic32c/6.2.1/../../../../pic32c/lib/v7e-m/fpv4-sp/hard\libg_nano.a(lib_a-snprintf.o)
 .debug_frame   0x0000e0d0       0x74 c:/program files/microchip/xc32/v2.40/bin/bin/../../lib/gcc/pic32c/6.2.1/../../../../pic32c/lib/v7e-m/fpv4-sp/hard\libg_nano.a(lib_a-sprintf.o)
 .debug_frame   0x0000e144       0x50 c:/program files/microchip/xc32/v2.40/bin/bin/../../lib/gcc/pic32c/6.2.1/../../../../pic32c/lib/v7e-m/fpv4-sp/hard\libg_nano.a(lib_a-__ssfputs.o)
 .debug_frame   0x0000e194       0x88 c:/program files/microchip/xc32/v2.40/bin/bin/../../lib/gcc/pic32c/6.2.1/../../../../pic32c/lib/v7e-m/fpv4-sp/hard\libg_nano.a(lib_a-stdio.o)
 .debug_frame   0x0000e21c       0x28 c:/program files/microchip/xc32/v2.40/bin/bin/../../lib/gcc/pic32c/6.2.1/../../../../pic32c/lib/v7e-m/fpv4-sp/hard\libg_nano.a(lib_a-strcat.o)
 .debug_frame   0x0000e244       0x20 c:/program files/microchip/xc32/v2.40/bin/bin/../../lib/gcc/pic32c/6.2.1/../../../../pic32c/lib/v7e-m/fpv4-sp/hard\libg_nano.a(lib_a-strcmp.o)
 .debug_frame   0x0000e264       0x20 c:/program files/microchip/xc32/v2.40/bin/bin/../../lib/gcc/pic32c/6.2.1/../../../../pic32c/lib/v7e-m/fpv4-sp/hard\libg_nano.a(lib_a-strcpy.o)
 .debug_frame   0x0000e284       0x28 c:/program files/microchip/xc32/v2.40/bin/bin/../../lib/gcc/pic32c/6.2.1/../../../../pic32c/lib/v7e-m/fpv4-sp/hard\libg_nano.a(lib_a-strncmp.o)
 .debug_frame   0x0000e2ac       0x2c c:/program files/microchip/xc32/v2.40/bin/bin/../../lib/gcc/pic32c/6.2.1/../../../../pic32c/lib/v7e-m/fpv4-sp/hard\libg_nano.a(lib_a-strncpy.o)
 .debug_frame   0x0000e2d8       0x30 c:/program files/microchip/xc32/v2.40/bin/bin/../../lib/gcc/pic32c/6.2.1/../../../../pic32c/lib/v7e-m/fpv4-sp/hard\libg_nano.a(lib_a-strstr.o)
 .debug_frame   0x0000e308       0x88 c:/program files/microchip/xc32/v2.40/bin/bin/../../lib/gcc/pic32c/6.2.1/../../../../pic32c/lib/v7e-m/fpv4-sp/hard\libg_nano.a(lib_a-strtol.o)
 .debug_frame   0x0000e390       0x84 c:/program files/microchip/xc32/v2.40/bin/bin/../../lib/gcc/pic32c/6.2.1/../../../../pic32c/lib/v7e-m/fpv4-sp/hard\libg_nano.a(lib_a-strtoul.o)
 .debug_frame   0x0000e414       0x3c c:/program files/microchip/xc32/v2.40/bin/bin/../../lib/gcc/pic32c/6.2.1/../../../../pic32c/lib/v7e-m/fpv4-sp/hard\libg_nano.a(lib_a-tzcalc_limits.o)
 .debug_frame   0x0000e450       0x30 c:/program files/microchip/xc32/v2.40/bin/bin/../../lib/gcc/pic32c/6.2.1/../../../../pic32c/lib/v7e-m/fpv4-sp/hard\libg_nano.a(lib_a-tzset.o)
 .debug_frame   0x0000e480       0x50 c:/program files/microchip/xc32/v2.40/bin/bin/../../lib/gcc/pic32c/6.2.1/../../../../pic32c/lib/v7e-m/fpv4-sp/hard\libg_nano.a(lib_a-tzset_r.o)
 .debug_frame   0x0000e4d0       0x4c c:/program files/microchip/xc32/v2.40/bin/bin/../../lib/gcc/pic32c/6.2.1/../../../../pic32c/lib/v7e-m/fpv4-sp/hard\libg_nano.a(lib_a-vsnprintf.o)
 .debug_frame   0x0000e51c       0x40 c:/program files/microchip/xc32/v2.40/bin/bin/../../lib/gcc/pic32c/6.2.1/../../../../pic32c/lib/v7e-m/fpv4-sp/hard\libg_nano.a(lib_a-wbuf.o)
 .debug_frame   0x0000e55c       0x3c c:/program files/microchip/xc32/v2.40/bin/bin/../../lib/gcc/pic32c/6.2.1/../../../../pic32c/lib/v7e-m/fpv4-sp/hard\libg_nano.a(lib_a-wctomb_r.o)
 .debug_frame   0x0000e598       0x2c c:/program files/microchip/xc32/v2.40/bin/bin/../../lib/gcc/pic32c/6.2.1/../../../../pic32c/lib/v7e-m/fpv4-sp/hard\libg_nano.a(lib_a-writer.o)
 .debug_frame   0x0000e5c4       0x2c c:/program files/microchip/xc32/v2.40/bin/bin/../../lib/gcc/pic32c/6.2.1/../../../../pic32c/lib/v7e-m/fpv4-sp/hard\libg_nano.a(lib_a-wsetup.o)
 .debug_frame   0x0000e5f0       0x2c c:/program files/microchip/xc32/v2.40/bin/bin/../../lib/gcc/pic32c/6.2.1/../../../../pic32c/lib/v7e-m/fpv4-sp/hard\libg_nano.a(lib_a-closer.o)
 .debug_frame   0x0000e61c       0x28 c:/program files/microchip/xc32/v2.40/bin/bin/../../lib/gcc/pic32c/6.2.1/../../../../pic32c/lib/v7e-m/fpv4-sp/hard\libg_nano.a(lib_a-div.o)
 .debug_frame   0x0000e644       0x68 c:/program files/microchip/xc32/v2.40/bin/bin/../../lib/gcc/pic32c/6.2.1/../../../../pic32c/lib/v7e-m/fpv4-sp/hard\libg_nano.a(lib_a-fflush.o)
 .debug_frame   0x0000e6ac       0x9c c:/program files/microchip/xc32/v2.40/bin/bin/../../lib/gcc/pic32c/6.2.1/../../../../pic32c/lib/v7e-m/fpv4-sp/hard\libg_nano.a(lib_a-findfp.o)
 .debug_frame   0x0000e748       0x70 c:/program files/microchip/xc32/v2.40/bin/bin/../../lib/gcc/pic32c/6.2.1/../../../../pic32c/lib/v7e-m/fpv4-sp/hard\libg_nano.a(lib_a-fputwc.o)
 .debug_frame   0x0000e7b8       0x54 c:/program files/microchip/xc32/v2.40/bin/bin/../../lib/gcc/pic32c/6.2.1/../../../../pic32c/lib/v7e-m/fpv4-sp/hard\libg_nano.a(lib_a-fwalk.o)
 .debug_frame   0x0000e80c       0x4c c:/program files/microchip/xc32/v2.40/bin/bin/../../lib/gcc/pic32c/6.2.1/../../../../pic32c/lib/v7e-m/fpv4-sp/hard\libg_nano.a(lib_a-getenv_r.o)
 .debug_frame   0x0000e858       0x20 c:/program files/microchip/xc32/v2.40/bin/bin/../../lib/gcc/pic32c/6.2.1/../../../../pic32c/lib/v7e-m/fpv4-sp/hard\libg_nano.a(lib_a-gettzinfo.o)
 .debug_frame   0x0000e878       0x2c c:/program files/microchip/xc32/v2.40/bin/bin/../../lib/gcc/pic32c/6.2.1/../../../../pic32c/lib/v7e-m/fpv4-sp/hard\libg_nano.a(lib_a-lseekr.o)
 .debug_frame   0x0000e8a4       0x58 c:/program files/microchip/xc32/v2.40/bin/bin/../../lib/gcc/pic32c/6.2.1/../../../../pic32c/lib/v7e-m/fpv4-sp/hard\libg_nano.a(lib_a-makebuf.o)
 .debug_frame   0x0000e8fc       0x30 c:/program files/microchip/xc32/v2.40/bin/bin/../../lib/gcc/pic32c/6.2.1/../../../../pic32c/lib/v7e-m/fpv4-sp/hard\libg_nano.a(lib_a-mlock.o)
 .debug_frame   0x0000e92c       0x40 c:/program files/microchip/xc32/v2.40/bin/bin/../../lib/gcc/pic32c/6.2.1/../../../../pic32c/lib/v7e-m/fpv4-sp/hard\libg_nano.a(lib_a-nano-svfprintf.o)
 .debug_frame   0x0000e96c       0x60 c:/program files/microchip/xc32/v2.40/bin/bin/../../lib/gcc/pic32c/6.2.1/../../../../pic32c/lib/v7e-m/fpv4-sp/hard\libg_nano.a(lib_a-nano-vfprintf_i.o)
 .debug_frame   0x0000e9cc       0xa8 c:/program files/microchip/xc32/v2.40/bin/bin/../../lib/gcc/pic32c/6.2.1/../../../../pic32c/lib/v7e-m/fpv4-sp/hard\libg_nano.a(_lib_a-nano-vfscanf.cdnopsuxX.o)
 .debug_frame   0x0000ea74       0x2c c:/program files/microchip/xc32/v2.40/bin/bin/../../lib/gcc/pic32c/6.2.1/../../../../pic32c/lib/v7e-m/fpv4-sp/hard\libg_nano.a(lib_a-readr.o)
 .debug_frame   0x0000eaa0       0x5c c:/program files/microchip/xc32/v2.40/bin/bin/../../lib/gcc/pic32c/6.2.1/../../../../pic32c/lib/v7e-m/fpv4-sp/hard\libg_nano.a(lib_a-reent.o)
 .debug_frame   0x0000eafc       0x2c c:/program files/microchip/xc32/v2.40/bin/bin/../../lib/gcc/pic32c/6.2.1/../../../../pic32c/lib/v7e-m/fpv4-sp/hard\libg_nano.a(lib_a-sccl.o)
 .debug_frame   0x0000eb28       0x80 c:/program files/microchip/xc32/v2.40/bin/bin/../../lib/gcc/pic32c/6.2.1/../../../../pic32c/lib/v7e-m/fpv4-sp/hard\libg_nano.a(lib_a-sscanf.o)
 .debug_frame   0x0000eba8       0x34 c:/program files/microchip/xc32/v2.40/bin/bin/../../lib/gcc/pic32c/6.2.1/../../../../pic32c/lib/v7e-m/fpv4-sp/hard\libg_nano.a(lib_a-__ssputs.o)
 .debug_frame   0x0000ebdc       0x5c c:/program files/microchip/xc32/v2.40/bin/bin/../../lib/gcc/pic32c/6.2.1/../../../../pic32c/lib/v7e-m/fpv4-sp/hard\libg_nano.a(lib_a-ungetc.o)
 .debug_frame   0x0000ec38       0x48 c:/program files/microchip/xc32/v2.40/bin/bin/../../lib/gcc/pic32c/6.2.1/../../../../pic32c/lib/v7e-m/fpv4-sp/hard\libg_nano.a(lib_a-wcrtomb.o)
 .debug_frame   0x0000ec80       0x30 c:/program files/microchip/xc32/v2.40/bin/bin/../../lib/gcc/pic32c/6.2.1/../../../../pic32c/lib/v7e-m/fpv4-sp/hard\libg_nano.a(lib_a-envlock.o)
 .debug_frame   0x0000ecb0       0x2c c:/program files/microchip/xc32/v2.40/bin/bin/../../lib/gcc/pic32c/6.2.1/../../../../pic32c/lib/v7e-m/fpv4-sp/hard\libg_nano.a(lib_a-fstatr.o)
 .debug_frame   0x0000ecdc       0x2c c:/program files/microchip/xc32/v2.40/bin/bin/../../lib/gcc/pic32c/6.2.1/../../../../pic32c/lib/v7e-m/fpv4-sp/hard\libg_nano.a(lib_a-isattyr.o)
 .debug_frame   0x0000ed08       0x3c c:/program files/microchip/xc32/v2.40/bin/bin/../../lib/gcc/pic32c/6.2.1/../../../../pic32c/lib/v7e-m/fpv4-sp/hard\libg_nano.a(lib_a-nano-reallocr.o)
 .debug_frame   0x0000ed44       0x78 c:/program files/microchip/xc32/v2.40/bin/bin/../../lib/gcc/pic32c/6.2.1/../../../../pic32c/lib/v7e-m/fpv4-sp/hard\libg_nano.a(lib_a-nano-svfscanf.o)
 .debug_frame   0x0000edbc       0x60 c:/program files/microchip/xc32/v2.40/bin/bin/../../lib/gcc/pic32c/6.2.1/../../../../pic32c/lib/v7e-m/fpv4-sp/hard\libg_nano.a(lib_a-nano-vfscanf_i.o)
 .debug_frame   0x0000ee1c       0x20 c:/program files/microchip/xc32/v2.40/bin/bin/../../lib/gcc/pic32c/6.2.1/../../../../pic32c/lib/v7e-m/fpv4-sp/hard\libg_nano.a(lib_a-nano-msizer.o)
 .debug_frame   0x0000ee3c       0x20 c:/program files/microchip/xc32/v2.40/bin/bin/../../lib/gcc/pic32c/6.2.1/../../../../pic32c/lib/v7e-m/fpv4-sp/hard\libpic32c.a(_close.o)
 .debug_frame   0x0000ee5c       0x20 c:/program files/microchip/xc32/v2.40/bin/bin/../../lib/gcc/pic32c/6.2.1/../../../../pic32c/lib/v7e-m/fpv4-sp/hard\libpic32c.a(_fstat.o)
 .debug_frame   0x0000ee7c       0x20 c:/program files/microchip/xc32/v2.40/bin/bin/../../lib/gcc/pic32c/6.2.1/../../../../pic32c/lib/v7e-m/fpv4-sp/hard\libpic32c.a(_isatty.o)
 .debug_frame   0x0000ee9c       0x20 c:/program files/microchip/xc32/v2.40/bin/bin/../../lib/gcc/pic32c/6.2.1/../../../../pic32c/lib/v7e-m/fpv4-sp/hard\libpic32c.a(_lseek.o)
 .debug_frame   0x0000eebc       0x20 c:/program files/microchip/xc32/v2.40/bin/bin/../../lib/gcc/pic32c/6.2.1/../../../../pic32c/lib/v7e-m/fpv4-sp/hard\libpic32c.a(_read.o)
 .debug_frame   0x0000eedc       0x20 c:/program files/microchip/xc32/v2.40/bin/bin/../../lib/gcc/pic32c/6.2.1/../../../../pic32c/lib/v7e-m/fpv4-sp/hard\libpic32c.a(sbrk.o)
 .debug_frame   0x0000eefc       0x20 c:/program files/microchip/xc32/v2.40/bin/bin/../../lib/gcc/pic32c/6.2.1/../../../../pic32c/lib/v7e-m/fpv4-sp/hard\libpic32c.a(_write.o)
 .debug_frame   0x0000ef1c       0x20 c:/program files/microchip/xc32/v2.40/bin/bin/../../lib/gcc/pic32c/6.2.1/../../../../pic32c/lib/v7e-m/fpv4-sp/hard\libpic32c.a(fstat.o)
 .debug_frame   0x0000ef3c       0x20 c:/program files/microchip/xc32/v2.40/bin/bin/../../lib/gcc/pic32c/6.2.1/../../../../pic32c/lib/v7e-m/fpv4-sp/hard\libpic32c.a(isatty.o)
 .debug_frame   0x0000ef5c       0x20 c:/program files/microchip/xc32/v2.40/bin/bin/../../lib/gcc/pic32c/6.2.1/../../../../pic32c/lib/v7e-m/fpv4-sp/hard\libpic32c.a(lseek.o)
 .debug_frame   0x0000ef7c       0x2c c:/program files/microchip/xc32/v2.40/bin/bin/../../lib/gcc/pic32c/6.2.1/../../../../pic32c/lib/v7e-m/fpv4-sp/hard\libpic32c.a(read.o)
 .debug_frame   0x0000efa8       0x2c c:/program files/microchip/xc32/v2.40/bin/bin/../../lib/gcc/pic32c/6.2.1/../../../../pic32c/lib/v7e-m/fpv4-sp/hard\libpic32c.a(write.o)

.debug_ranges   0x00000000     0x3370
 .debug_ranges  0x00000000       0x18 build/aws_demos/debug/_ext/1385882503/port.o
 .debug_ranges  0x00000018       0x18 build/aws_demos/debug/_ext/1972722184/iot_pkcs11_secure_element.o
 .debug_ranges  0x00000030       0xa0 build/aws_demos/debug/_ext/2009324866/aws_wifi.o
 .debug_ranges  0x000000d0       0x30 build/aws_demos/debug/_ext/2009324866/iot_secure_sockets.o
 .debug_ranges  0x00000100       0x30 build/aws_demos/debug/_ext/1456806047/atcacert_client.o
 .debug_ranges  0x00000130       0xb8 build/aws_demos/debug/_ext/1456806047/atcacert_date.o
 .debug_ranges  0x000001e8       0x80 build/aws_demos/debug/_ext/1456806047/atcacert_def.o
 .debug_ranges  0x00000268       0x18 build/aws_demos/debug/_ext/1456806047/atcacert_der.o
 .debug_ranges  0x00000280       0x30 build/aws_demos/debug/_ext/306685378/atca_helpers.o
 .debug_ranges  0x000002b0       0x18 build/aws_demos/debug/_ext/1070826718/sha2_routines.o
 .debug_ranges  0x000002c8       0x50 build/aws_demos/debug/_ext/1326886903/pkcs11_cert.o
 .debug_ranges  0x00000318       0xd0 build/aws_demos/debug/_ext/1326886903/pkcs11_find.o
 .debug_ranges  0x000003e8       0x18 build/aws_demos/debug/_ext/1326886903/pkcs11_init.o
 .debug_ranges  0x00000400       0x48 build/aws_demos/debug/_ext/1326886903/pkcs11_key.o
 .debug_ranges  0x00000448       0x30 build/aws_demos/debug/_ext/1326886903/pkcs11_mech.o
 .debug_ranges  0x00000478       0x18 build/aws_demos/debug/_ext/1326886903/pkcs11_object.o
 .debug_ranges  0x00000490       0x60 build/aws_demos/debug/_ext/1326886903/pkcs11_os.o
 .debug_ranges  0x000004f0       0x30 build/aws_demos/debug/_ext/1326886903/pkcs11_session.o
 .debug_ranges  0x00000520       0x18 build/aws_demos/debug/_ext/1326886903/pkcs11_slot.o
 .debug_ranges  0x00000538       0x60 build/aws_demos/debug/_ext/1326886903/pkcs11_token.o
 .debug_ranges  0x00000598       0x48 build/aws_demos/debug/_ext/484134862/sys_time.o
 .debug_ranges  0x000005e0       0x98 build/aws_demos/debug/_ext/2104392270/drv_spi.o
 .debug_ranges  0x00000678       0xf0 build/aws_demos/debug/_ext/2090543044/m2m_flash.o
 .debug_ranges  0x00000768       0x50 build/aws_demos/debug/_ext/2090543044/m2m_hif.o
 .debug_ranges  0x000007b8       0x60 build/aws_demos/debug/_ext/2090543044/m2m_wifi.o
 .debug_ranges  0x00000818       0x18 build/aws_demos/debug/_ext/2090543044/nmasic.o
 .debug_ranges  0x00000830       0xf8 build/aws_demos/debug/_ext/2090543044/nmflash.o
 .debug_ranges  0x00000928       0x98 build/aws_demos/debug/_ext/2090543044/nmspi.o
 .debug_ranges  0x000009c0       0x48 build/aws_demos/debug/_ext/1151736449/spi_flash.o
 .debug_ranges  0x00000a08       0x40 build/aws_demos/debug/_ext/2090543044/m2m_ssl.o
 .debug_ranges  0x00000a48       0xa0 build/aws_demos/debug/_ext/1777946865/socket.o
 .debug_ranges  0x00000ae8       0xd8 build/aws_demos/debug/_ext/1991396724/sys_command.o
 .debug_ranges  0x00000bc0       0x60 build/aws_demos/debug/_ext/731420310/plib_sercom6_usart.o
 .debug_ranges  0x00000c20       0x10 build/aws_demos/debug/_ext/1534096987/interrupts.o
 .debug_ranges  0x00000c30       0x18 build/aws_demos/debug/_ext/1843785878/plib_dmac.o
 .debug_ranges  0x00000c48       0x10 build/aws_demos/debug/_ext/1534096987/startup_xc32.o
 .debug_ranges  0x00000c58       0x20 build/aws_demos/debug/_ext/1223942466/iot_demo_freertos.o
 .debug_ranges  0x00000c78       0x18 build/aws_demos/debug/_ext/198771642/aws_dev_mode_key_provisioning.o
 .debug_ranges  0x00000c90       0x70 build/aws_demos/debug/_ext/1441508942/iot_demo_mqtt.o
 .debug_ranges  0x00000d00       0x68 build/aws_demos/debug/_ext/2040524622/aws_iot_network_manager.o
 .debug_ranges  0x00000d68       0x60 build/aws_demos/debug/_ext/811507611/event_groups.o
 .debug_ranges  0x00000dc8      0x130 build/aws_demos/debug/_ext/811507611/queue.o
 .debug_ranges  0x00000ef8      0x120 build/aws_demos/debug/_ext/811507611/tasks.o
 .debug_ranges  0x00001018       0xa0 build/aws_demos/debug/_ext/811507611/timers.o
 .debug_ranges  0x000010b8       0x18 build/aws_demos/debug/_ext/684768522/asn1write.o
 .debug_ranges  0x000010d0       0x58 build/aws_demos/debug/_ext/684768522/bignum.o
 .debug_ranges  0x00001128       0xf8 build/aws_demos/debug/_ext/684768522/ecp.o
 .debug_ranges  0x00001220      0x468 build/aws_demos/debug/_ext/684768522/ecp_curves.o
 .debug_ranges  0x00001688       0xc0 build/aws_demos/debug/_ext/684768522/oid.o
 .debug_ranges  0x00001748       0x30 build/aws_demos/debug/_ext/684768522/pk.o
 .debug_ranges  0x00001778       0x48 build/aws_demos/debug/_ext/684768522/pkparse.o
 .debug_ranges  0x000017c0       0x50 build/aws_demos/debug/_ext/684768522/rsa.o
 .debug_ranges  0x00001810       0x68 build/aws_demos/debug/_ext/684768522/x509.o
 .debug_ranges  0x00001878      0x320 build/aws_demos/debug/_ext/684768522/x509_crt.o
 .debug_ranges  0x00001b98       0x20 build/aws_demos/debug/_ext/520142351/iot_network_freertos.o
 .debug_ranges  0x00001bb8       0x30 build/aws_demos/debug/_ext/13066905/iot_device_metrics.o
 .debug_ranges  0x00001be8       0x18 build/aws_demos/debug/_ext/227692215/iot_logging.o
 .debug_ranges  0x00001c00      0x5c0 build/aws_demos/debug/_ext/333408969/iot_taskpool.o
 .debug_ranges  0x000021c0      0x218 build/aws_demos/debug/_ext/1739149067/iot_mqtt_api.o
 .debug_ranges  0x000023d8       0x88 build/aws_demos/debug/_ext/1739149067/iot_mqtt_network.o
 .debug_ranges  0x00002460      0x140 build/aws_demos/debug/_ext/1739149067/iot_mqtt_operation.o
 .debug_ranges  0x000025a0       0x60 build/aws_demos/debug/_ext/1739149067/iot_mqtt_serialize.o
 .debug_ranges  0x00002600       0xc0 build/aws_demos/debug/_ext/1739149067/iot_mqtt_subscription.o
 .debug_ranges  0x000026c0       0x30 build/aws_demos/debug/_ext/350635301/iot_crypto.o
 .debug_ranges  0x000026f0       0x10 c:/program files/microchip/xc32/v2.40/bin/bin/../../lib/gcc/pic32c/6.2.1/../../../../pic32c/lib/v7e-m/fpv4-sp/hard\libpic32c.a(close.o)
 .debug_ranges  0x00002700       0x10 c:/program files/microchip/xc32/v2.40/bin/bin/../../lib/gcc/pic32c/6.2.1/../../../../pic32c/lib/v7e-m/fpv4-sp/hard\libpic32c.a(data_init.o)
 .debug_ranges  0x00002710       0xa8 c:/program files/microchip/xc32/v2.40/bin/bin/../../lib/gcc/pic32c/6.2.1/v7e-m/fpv4-sp/hard\libgcc.a(_udivmoddi4.o)
 .debug_ranges  0x000027b8       0x10 c:/program files/microchip/xc32/v2.40/bin/bin/../../lib/gcc/pic32c/6.2.1/../../../../pic32c/lib/v7e-m/fpv4-sp/hard\libg_nano.a(lib_a-calloc.o)
 .debug_ranges  0x000027c8       0x28 c:/program files/microchip/xc32/v2.40/bin/bin/../../lib/gcc/pic32c/6.2.1/../../../../pic32c/lib/v7e-m/fpv4-sp/hard\libg_nano.a(lib_a-gmtime.o)
 .debug_ranges  0x000027f0       0x10 c:/program files/microchip/xc32/v2.40/bin/bin/../../lib/gcc/pic32c/6.2.1/../../../../pic32c/lib/v7e-m/fpv4-sp/hard\libg_nano.a(lib_a-gmtime_r.o)
 .debug_ranges  0x00002800       0x10 c:/program files/microchip/xc32/v2.40/bin/bin/../../lib/gcc/pic32c/6.2.1/../../../../pic32c/lib/v7e-m/fpv4-sp/hard\libg_nano.a(lib_a-init.o)
 .debug_ranges  0x00002810       0x30 c:/program files/microchip/xc32/v2.40/bin/bin/../../lib/gcc/pic32c/6.2.1/../../../../pic32c/lib/v7e-m/fpv4-sp/hard\libg_nano.a(lib_a-locale.o)
 .debug_ranges  0x00002840       0x18 c:/program files/microchip/xc32/v2.40/bin/bin/../../lib/gcc/pic32c/6.2.1/../../../../pic32c/lib/v7e-m/fpv4-sp/hard\libg_nano.a(lib_a-malloc.o)
 .debug_ranges  0x00002858       0x18 c:/program files/microchip/xc32/v2.40/bin/bin/../../lib/gcc/pic32c/6.2.1/../../../../pic32c/lib/v7e-m/fpv4-sp/hard\libg_nano.a(lib_a-mbtowc_r.o)
 .debug_ranges  0x00002870       0x10 c:/program files/microchip/xc32/v2.40/bin/bin/../../lib/gcc/pic32c/6.2.1/../../../../pic32c/lib/v7e-m/fpv4-sp/hard\libg_nano.a(lib_a-memcmp.o)
 .debug_ranges  0x00002880       0x10 c:/program files/microchip/xc32/v2.40/bin/bin/../../lib/gcc/pic32c/6.2.1/../../../../pic32c/lib/v7e-m/fpv4-sp/hard\libg_nano.a(lib_a-memcpy-stub.o)
 .debug_ranges  0x00002890       0x10 c:/program files/microchip/xc32/v2.40/bin/bin/../../lib/gcc/pic32c/6.2.1/../../../../pic32c/lib/v7e-m/fpv4-sp/hard\libg_nano.a(lib_a-memmove.o)
 .debug_ranges  0x000028a0       0x10 c:/program files/microchip/xc32/v2.40/bin/bin/../../lib/gcc/pic32c/6.2.1/../../../../pic32c/lib/v7e-m/fpv4-sp/hard\libg_nano.a(lib_a-memset.o)
 .debug_ranges  0x000028b0       0x58 c:/program files/microchip/xc32/v2.40/bin/bin/../../lib/gcc/pic32c/6.2.1/../../../../pic32c/lib/v7e-m/fpv4-sp/hard\libg_nano.a(lib_a-mktime.o)
 .debug_ranges  0x00002908       0x10 c:/program files/microchip/xc32/v2.40/bin/bin/../../lib/gcc/pic32c/6.2.1/../../../../pic32c/lib/v7e-m/fpv4-sp/hard\libg_nano.a(lib_a-nano-callocr.o)
 .debug_ranges  0x00002918       0x10 c:/program files/microchip/xc32/v2.40/bin/bin/../../lib/gcc/pic32c/6.2.1/../../../../pic32c/lib/v7e-m/fpv4-sp/hard\libg_nano.a(lib_a-nano-freer.o)
 .debug_ranges  0x00002928       0x58 c:/program files/microchip/xc32/v2.40/bin/bin/../../lib/gcc/pic32c/6.2.1/../../../../pic32c/lib/v7e-m/fpv4-sp/hard\libg_nano.a(lib_a-nano-mallocr.o)
 .debug_ranges  0x00002980       0x30 c:/program files/microchip/xc32/v2.40/bin/bin/../../lib/gcc/pic32c/6.2.1/../../../../pic32c/lib/v7e-m/fpv4-sp/hard\libg_nano.a(lib_a-nano-vfprintf.o)
 .debug_ranges  0x000029b0       0x98 c:/program files/microchip/xc32/v2.40/bin/bin/../../lib/gcc/pic32c/6.2.1/../../../../pic32c/lib/v7e-m/fpv4-sp/hard\libg_nano.a(_lib_a-nano-vfprintf.s.o)
 .debug_ranges  0x00002a48       0x18 c:/program files/microchip/xc32/v2.40/bin/bin/../../lib/gcc/pic32c/6.2.1/../../../../pic32c/lib/v7e-m/fpv4-sp/hard\libg_nano.a(lib_a-printf.o)
 .debug_ranges  0x00002a60       0x18 c:/program files/microchip/xc32/v2.40/bin/bin/../../lib/gcc/pic32c/6.2.1/../../../../pic32c/lib/v7e-m/fpv4-sp/hard\libg_nano.a(lib_a-putchar.o)
 .debug_ranges  0x00002a78       0x50 c:/program files/microchip/xc32/v2.40/bin/bin/../../lib/gcc/pic32c/6.2.1/../../../../pic32c/lib/v7e-m/fpv4-sp/hard\libg_nano.a(lib_a-putc.o)
 .debug_ranges  0x00002ac8       0x68 c:/program files/microchip/xc32/v2.40/bin/bin/../../lib/gcc/pic32c/6.2.1/../../../../pic32c/lib/v7e-m/fpv4-sp/hard\libg_nano.a(lib_a-puts.o)
 .debug_ranges  0x00002b30       0x60 c:/program files/microchip/xc32/v2.40/bin/bin/../../lib/gcc/pic32c/6.2.1/../../../../pic32c/lib/v7e-m/fpv4-sp/hard\libg_nano.a(lib_a-rand.o)
 .debug_ranges  0x00002b90       0x10 c:/program files/microchip/xc32/v2.40/bin/bin/../../lib/gcc/pic32c/6.2.1/../../../../pic32c/lib/v7e-m/fpv4-sp/hard\libg_nano.a(lib_a-sbrkr.o)
 .debug_ranges  0x00002ba0       0x18 c:/program files/microchip/xc32/v2.40/bin/bin/../../lib/gcc/pic32c/6.2.1/../../../../pic32c/lib/v7e-m/fpv4-sp/hard\libg_nano.a(lib_a-snprintf.o)
 .debug_ranges  0x00002bb8       0x18 c:/program files/microchip/xc32/v2.40/bin/bin/../../lib/gcc/pic32c/6.2.1/../../../../pic32c/lib/v7e-m/fpv4-sp/hard\libg_nano.a(lib_a-sprintf.o)
 .debug_ranges  0x00002bd0       0x30 c:/program files/microchip/xc32/v2.40/bin/bin/../../lib/gcc/pic32c/6.2.1/../../../../pic32c/lib/v7e-m/fpv4-sp/hard\libg_nano.a(lib_a-__ssfputs.o)
 .debug_ranges  0x00002c00       0x30 c:/program files/microchip/xc32/v2.40/bin/bin/../../lib/gcc/pic32c/6.2.1/../../../../pic32c/lib/v7e-m/fpv4-sp/hard\libg_nano.a(lib_a-stdio.o)
 .debug_ranges  0x00002c30       0x10 c:/program files/microchip/xc32/v2.40/bin/bin/../../lib/gcc/pic32c/6.2.1/../../../../pic32c/lib/v7e-m/fpv4-sp/hard\libg_nano.a(lib_a-strcat.o)
 .debug_ranges  0x00002c40       0x10 c:/program files/microchip/xc32/v2.40/bin/bin/../../lib/gcc/pic32c/6.2.1/../../../../pic32c/lib/v7e-m/fpv4-sp/hard\libg_nano.a(lib_a-strcpy.o)
 .debug_ranges  0x00002c50       0x10 c:/program files/microchip/xc32/v2.40/bin/bin/../../lib/gcc/pic32c/6.2.1/../../../../pic32c/lib/v7e-m/fpv4-sp/hard\libg_nano.a(lib_a-strncmp.o)
 .debug_ranges  0x00002c60       0x10 c:/program files/microchip/xc32/v2.40/bin/bin/../../lib/gcc/pic32c/6.2.1/../../../../pic32c/lib/v7e-m/fpv4-sp/hard\libg_nano.a(lib_a-strncpy.o)
 .debug_ranges  0x00002c70       0x10 c:/program files/microchip/xc32/v2.40/bin/bin/../../lib/gcc/pic32c/6.2.1/../../../../pic32c/lib/v7e-m/fpv4-sp/hard\libg_nano.a(lib_a-strstr.o)
 .debug_ranges  0x00002c80       0x28 c:/program files/microchip/xc32/v2.40/bin/bin/../../lib/gcc/pic32c/6.2.1/../../../../pic32c/lib/v7e-m/fpv4-sp/hard\libg_nano.a(lib_a-strtol.o)
 .debug_ranges  0x00002ca8       0x28 c:/program files/microchip/xc32/v2.40/bin/bin/../../lib/gcc/pic32c/6.2.1/../../../../pic32c/lib/v7e-m/fpv4-sp/hard\libg_nano.a(lib_a-strtoul.o)
 .debug_ranges  0x00002cd0       0x40 c:/program files/microchip/xc32/v2.40/bin/bin/../../lib/gcc/pic32c/6.2.1/../../../../pic32c/lib/v7e-m/fpv4-sp/hard\libg_nano.a(lib_a-tzcalc_limits.o)
 .debug_ranges  0x00002d10       0x10 c:/program files/microchip/xc32/v2.40/bin/bin/../../lib/gcc/pic32c/6.2.1/../../../../pic32c/lib/v7e-m/fpv4-sp/hard\libg_nano.a(lib_a-tzset.o)
 .debug_ranges  0x00002d20       0x18 c:/program files/microchip/xc32/v2.40/bin/bin/../../lib/gcc/pic32c/6.2.1/../../../../pic32c/lib/v7e-m/fpv4-sp/hard\libg_nano.a(lib_a-tzset_r.o)
 .debug_ranges  0x00002d38       0x18 c:/program files/microchip/xc32/v2.40/bin/bin/../../lib/gcc/pic32c/6.2.1/../../../../pic32c/lib/v7e-m/fpv4-sp/hard\libg_nano.a(lib_a-vsnprintf.o)
 .debug_ranges  0x00002d50       0x30 c:/program files/microchip/xc32/v2.40/bin/bin/../../lib/gcc/pic32c/6.2.1/../../../../pic32c/lib/v7e-m/fpv4-sp/hard\libg_nano.a(lib_a-wbuf.o)
 .debug_ranges  0x00002d80       0x18 c:/program files/microchip/xc32/v2.40/bin/bin/../../lib/gcc/pic32c/6.2.1/../../../../pic32c/lib/v7e-m/fpv4-sp/hard\libg_nano.a(lib_a-wctomb_r.o)
 .debug_ranges  0x00002d98       0x10 c:/program files/microchip/xc32/v2.40/bin/bin/../../lib/gcc/pic32c/6.2.1/../../../../pic32c/lib/v7e-m/fpv4-sp/hard\libg_nano.a(lib_a-writer.o)
 .debug_ranges  0x00002da8       0x38 c:/program files/microchip/xc32/v2.40/bin/bin/../../lib/gcc/pic32c/6.2.1/../../../../pic32c/lib/v7e-m/fpv4-sp/hard\libg_nano.a(lib_a-wsetup.o)
 .debug_ranges  0x00002de0       0x10 c:/program files/microchip/xc32/v2.40/bin/bin/../../lib/gcc/pic32c/6.2.1/../../../../pic32c/lib/v7e-m/fpv4-sp/hard\libg_nano.a(lib_a-closer.o)
 .debug_ranges  0x00002df0       0x10 c:/program files/microchip/xc32/v2.40/bin/bin/../../lib/gcc/pic32c/6.2.1/../../../../pic32c/lib/v7e-m/fpv4-sp/hard\libg_nano.a(lib_a-div.o)
 .debug_ranges  0x00002e00       0x68 c:/program files/microchip/xc32/v2.40/bin/bin/../../lib/gcc/pic32c/6.2.1/../../../../pic32c/lib/v7e-m/fpv4-sp/hard\libg_nano.a(lib_a-fflush.o)
 .debug_ranges  0x00002e68       0x38 c:/program files/microchip/xc32/v2.40/bin/bin/../../lib/gcc/pic32c/6.2.1/../../../../pic32c/lib/v7e-m/fpv4-sp/hard\libg_nano.a(lib_a-findfp.o)
 .debug_ranges  0x00002ea0       0x58 c:/program files/microchip/xc32/v2.40/bin/bin/../../lib/gcc/pic32c/6.2.1/../../../../pic32c/lib/v7e-m/fpv4-sp/hard\libg_nano.a(lib_a-fputwc.o)
 .debug_ranges  0x00002ef8       0x18 c:/program files/microchip/xc32/v2.40/bin/bin/../../lib/gcc/pic32c/6.2.1/../../../../pic32c/lib/v7e-m/fpv4-sp/hard\libg_nano.a(lib_a-fwalk.o)
 .debug_ranges  0x00002f10       0x18 c:/program files/microchip/xc32/v2.40/bin/bin/../../lib/gcc/pic32c/6.2.1/../../../../pic32c/lib/v7e-m/fpv4-sp/hard\libg_nano.a(lib_a-getenv_r.o)
 .debug_ranges  0x00002f28       0x10 c:/program files/microchip/xc32/v2.40/bin/bin/../../lib/gcc/pic32c/6.2.1/../../../../pic32c/lib/v7e-m/fpv4-sp/hard\libg_nano.a(lib_a-gettzinfo.o)
 .debug_ranges  0x00002f38       0x10 c:/program files/microchip/xc32/v2.40/bin/bin/../../lib/gcc/pic32c/6.2.1/../../../../pic32c/lib/v7e-m/fpv4-sp/hard\libg_nano.a(lib_a-lseekr.o)
 .debug_ranges  0x00002f48       0x30 c:/program files/microchip/xc32/v2.40/bin/bin/../../lib/gcc/pic32c/6.2.1/../../../../pic32c/lib/v7e-m/fpv4-sp/hard\libg_nano.a(lib_a-makebuf.o)
 .debug_ranges  0x00002f78       0x10 c:/program files/microchip/xc32/v2.40/bin/bin/../../lib/gcc/pic32c/6.2.1/../../../../pic32c/lib/v7e-m/fpv4-sp/hard\libg_nano.a(lib_a-mlock.o)
 .debug_ranges  0x00002f88       0x10 c:/program files/microchip/xc32/v2.40/bin/bin/../../lib/gcc/pic32c/6.2.1/../../../../pic32c/lib/v7e-m/fpv4-sp/hard\libg_nano.a(lib_a-nano-svfprintf.o)
 .debug_ranges  0x00002f98       0xc8 c:/program files/microchip/xc32/v2.40/bin/bin/../../lib/gcc/pic32c/6.2.1/../../../../pic32c/lib/v7e-m/fpv4-sp/hard\libg_nano.a(lib_a-nano-vfprintf_i.o)
 .debug_ranges  0x00003060       0xb0 c:/program files/microchip/xc32/v2.40/bin/bin/../../lib/gcc/pic32c/6.2.1/../../../../pic32c/lib/v7e-m/fpv4-sp/hard\libg_nano.a(_lib_a-nano-vfscanf.cdnopsuxX.o)
 .debug_ranges  0x00003110       0x10 c:/program files/microchip/xc32/v2.40/bin/bin/../../lib/gcc/pic32c/6.2.1/../../../../pic32c/lib/v7e-m/fpv4-sp/hard\libg_nano.a(lib_a-readr.o)
 .debug_ranges  0x00003120       0x48 c:/program files/microchip/xc32/v2.40/bin/bin/../../lib/gcc/pic32c/6.2.1/../../../../pic32c/lib/v7e-m/fpv4-sp/hard\libg_nano.a(lib_a-reent.o)
 .debug_ranges  0x00003168       0x10 c:/program files/microchip/xc32/v2.40/bin/bin/../../lib/gcc/pic32c/6.2.1/../../../../pic32c/lib/v7e-m/fpv4-sp/hard\libg_nano.a(lib_a-sccl.o)
 .debug_ranges  0x00003178       0x18 c:/program files/microchip/xc32/v2.40/bin/bin/../../lib/gcc/pic32c/6.2.1/../../../../pic32c/lib/v7e-m/fpv4-sp/hard\libg_nano.a(lib_a-sscanf.o)
 .debug_ranges  0x00003190       0x30 c:/program files/microchip/xc32/v2.40/bin/bin/../../lib/gcc/pic32c/6.2.1/../../../../pic32c/lib/v7e-m/fpv4-sp/hard\libg_nano.a(lib_a-__ssputs.o)
 .debug_ranges  0x000031c0       0x38 c:/program files/microchip/xc32/v2.40/bin/bin/../../lib/gcc/pic32c/6.2.1/../../../../pic32c/lib/v7e-m/fpv4-sp/hard\libg_nano.a(lib_a-ungetc.o)
 .debug_ranges  0x000031f8       0x18 c:/program files/microchip/xc32/v2.40/bin/bin/../../lib/gcc/pic32c/6.2.1/../../../../pic32c/lib/v7e-m/fpv4-sp/hard\libg_nano.a(lib_a-wcrtomb.o)
 .debug_ranges  0x00003210       0x10 c:/program files/microchip/xc32/v2.40/bin/bin/../../lib/gcc/pic32c/6.2.1/../../../../pic32c/lib/v7e-m/fpv4-sp/hard\libg_nano.a(lib_a-envlock.o)
 .debug_ranges  0x00003220       0x10 c:/program files/microchip/xc32/v2.40/bin/bin/../../lib/gcc/pic32c/6.2.1/../../../../pic32c/lib/v7e-m/fpv4-sp/hard\libg_nano.a(lib_a-fstatr.o)
 .debug_ranges  0x00003230       0x10 c:/program files/microchip/xc32/v2.40/bin/bin/../../lib/gcc/pic32c/6.2.1/../../../../pic32c/lib/v7e-m/fpv4-sp/hard\libg_nano.a(lib_a-isattyr.o)
 .debug_ranges  0x00003240       0x10 c:/program files/microchip/xc32/v2.40/bin/bin/../../lib/gcc/pic32c/6.2.1/../../../../pic32c/lib/v7e-m/fpv4-sp/hard\libg_nano.a(lib_a-nano-reallocr.o)
 .debug_ranges  0x00003250       0x20 c:/program files/microchip/xc32/v2.40/bin/bin/../../lib/gcc/pic32c/6.2.1/../../../../pic32c/lib/v7e-m/fpv4-sp/hard\libg_nano.a(lib_a-nano-svfscanf.o)
 .debug_ranges  0x00003270       0x30 c:/program files/microchip/xc32/v2.40/bin/bin/../../lib/gcc/pic32c/6.2.1/../../../../pic32c/lib/v7e-m/fpv4-sp/hard\libg_nano.a(lib_a-nano-vfscanf_i.o)
 .debug_ranges  0x000032a0       0x10 c:/program files/microchip/xc32/v2.40/bin/bin/../../lib/gcc/pic32c/6.2.1/../../../../pic32c/lib/v7e-m/fpv4-sp/hard\libg_nano.a(lib_a-nano-msizer.o)
 .debug_ranges  0x000032b0       0x10 c:/program files/microchip/xc32/v2.40/bin/bin/../../lib/gcc/pic32c/6.2.1/../../../../pic32c/lib/v7e-m/fpv4-sp/hard\libpic32c.a(_close.o)
 .debug_ranges  0x000032c0       0x10 c:/program files/microchip/xc32/v2.40/bin/bin/../../lib/gcc/pic32c/6.2.1/../../../../pic32c/lib/v7e-m/fpv4-sp/hard\libpic32c.a(_fstat.o)
 .debug_ranges  0x000032d0       0x10 c:/program files/microchip/xc32/v2.40/bin/bin/../../lib/gcc/pic32c/6.2.1/../../../../pic32c/lib/v7e-m/fpv4-sp/hard\libpic32c.a(_isatty.o)
 .debug_ranges  0x000032e0       0x10 c:/program files/microchip/xc32/v2.40/bin/bin/../../lib/gcc/pic32c/6.2.1/../../../../pic32c/lib/v7e-m/fpv4-sp/hard\libpic32c.a(_lseek.o)
 .debug_ranges  0x000032f0       0x10 c:/program files/microchip/xc32/v2.40/bin/bin/../../lib/gcc/pic32c/6.2.1/../../../../pic32c/lib/v7e-m/fpv4-sp/hard\libpic32c.a(_read.o)
 .debug_ranges  0x00003300       0x10 c:/program files/microchip/xc32/v2.40/bin/bin/../../lib/gcc/pic32c/6.2.1/../../../../pic32c/lib/v7e-m/fpv4-sp/hard\libpic32c.a(sbrk.o)
 .debug_ranges  0x00003310       0x10 c:/program files/microchip/xc32/v2.40/bin/bin/../../lib/gcc/pic32c/6.2.1/../../../../pic32c/lib/v7e-m/fpv4-sp/hard\libpic32c.a(_write.o)
 .debug_ranges  0x00003320       0x10 c:/program files/microchip/xc32/v2.40/bin/bin/../../lib/gcc/pic32c/6.2.1/../../../../pic32c/lib/v7e-m/fpv4-sp/hard\libpic32c.a(fstat.o)
 .debug_ranges  0x00003330       0x10 c:/program files/microchip/xc32/v2.40/bin/bin/../../lib/gcc/pic32c/6.2.1/../../../../pic32c/lib/v7e-m/fpv4-sp/hard\libpic32c.a(isatty.o)
 .debug_ranges  0x00003340       0x10 c:/program files/microchip/xc32/v2.40/bin/bin/../../lib/gcc/pic32c/6.2.1/../../../../pic32c/lib/v7e-m/fpv4-sp/hard\libpic32c.a(lseek.o)
 .debug_ranges  0x00003350       0x10 c:/program files/microchip/xc32/v2.40/bin/bin/../../lib/gcc/pic32c/6.2.1/../../../../pic32c/lib/v7e-m/fpv4-sp/hard\libpic32c.a(read.o)
 .debug_ranges  0x00003360       0x10 c:/program files/microchip/xc32/v2.40/bin/bin/../../lib/gcc/pic32c/6.2.1/../../../../pic32c/lib/v7e-m/fpv4-sp/hard\libpic32c.a(write.o)

.stack          0x2002f4b0      0x3e8
 .stack         0x2002f4b0      0x3e8 stack

.bss%1          0x20000664    0x2bfc8
 .bss           0x20000664    0x29830 build/aws_demos/debug/_ext/1168480030/heap_4.o
 .bss           0x20029e94     0x16d8 build/aws_demos/debug/_ext/2009324866/aws_wifi.o
                0x20029ec4                xWiFiSemaphore
 .bss           0x2002b56c     0x10c0 build/aws_demos/debug/_ext/1223942466/aws_demo.o

.bss%4          0x2002c630     0x17d0
 .bss           0x2002c630      0x8f0 build/aws_demos/debug/_ext/2009324866/iot_secure_sockets.o
 .bss           0x2002cf20      0x490 build/aws_demos/debug/_ext/1991396724/sys_command.o
 .bss           0x2002d3b0      0x440 build/aws_demos/debug/_ext/1326886903/pkcs11_object.o
 .bss           0x2002d7f0      0x340 build/aws_demos/debug/_ext/1456806047/atcacert_client.o
 .bss           0x2002db30      0x2d0 build/aws_demos/debug/_ext/1326886903/pkcs11_session.o

.data%9         0x2002de00      0x1e0
 .data          0x2002de00      0x1e0 build/aws_demos/debug/_ext/1326886903/pkcs11_mech.o

.data.__global_locale%10
                0x2002dfe0      0x16c
 .data.__global_locale
                0x2002dfe0      0x16c c:/program files/microchip/xc32/v2.40/bin/bin/../../lib/gcc/pic32c/6.2.1/../../../../pic32c/lib/v7e-m/fpv4-sp/hard\libg_nano.a(lib_a-locale.o)
                0x2002dfe0                __global_locale

.bss%11         0x2002e14c      0x2cc
 .bss           0x2002e14c      0x168 build/aws_demos/debug/_ext/811507611/tasks.o
                0x2002e180                pxCurrentTCB
                0x2002e2b0                FreeRTOS_errno
 .bss           0x2002e2b4      0x164 build/aws_demos/debug/_ext/333408969/iot_taskpool.o
                0x2002e2b4                _IotSystemTaskPool

.data%13        0x2002e418      0x144
 .data          0x2002e418      0x144 build/aws_demos/debug/_ext/1972722184/iot_pkcs11_secure_element.o
                0x2002e418                cfg_ateccx08a_kithid_default
                0x2002e448                pkcs11FunctionList

.bss%14         0x2002e55c      0x539
 .bss           0x2002e55c      0x100 build/aws_demos/debug/_ext/731420310/plib_sercom6_usart.o
 .bss           0x2002e65c       0xf4 build/aws_demos/debug/_ext/2040524622/aws_iot_network_manager.o
 .bss           0x2002e750       0xdc build/aws_demos/debug/_ext/1534684544/sys_console.o
 .bss           0x2002e82c       0xd8 build/aws_demos/debug/_ext/484134862/sys_time.o
 .bss           0x2002e904       0xd0 build/aws_demos/debug/_ext/1833802790/wdrv_winc.o
 .bss           0x2002e9d4       0xc1 build/aws_demos/debug/_ext/1326886903/pkcs11_digest.o

.bss%20         0x2002ea98      0x290
 .bss           0x2002ea98       0xb8 build/aws_demos/debug/_ext/1534096987/initialization.o
 .bss           0x2002eb50       0xac build/aws_demos/debug/_ext/811507611/timers.o
 .bss           0x2002ebfc       0x98 build/aws_demos/debug/_ext/13066905/iot_device_metrics.o
 .bss           0x2002ec94       0x94 build/aws_demos/debug/_ext/1326886903/pkcs11_slot.o

.bss%24         0x2002ed30      0x1f2
 .bss           0x2002ed30       0x90 build/aws_demos/debug/_ext/2104392270/drv_spi.o
 .bss           0x2002edc0       0x80 build/aws_demos/debug/_ext/1326886903/pkcs11_find.o
 .bss           0x2002ee40       0x80 build/aws_demos/debug/_ext/1843785878/plib_dmac.o
 .bss           0x2002eec0       0x62 build/aws_demos/debug/_ext/2090543044/nmflash.o
                0x2002ef14                gu8Changed
                0x2002ef1c                gu8Success
                0x2002ef1d                gu8Reset
                0x2002ef1e                gu8Init
                0x2002ef20                gu16LastAccessId

.data.impure_data%28
                0x2002ef24       0x60
 .data.impure_data
                0x2002ef24       0x60 c:/program files/microchip/xc32/v2.40/bin/bin/../../lib/gcc/pic32c/6.2.1/../../../../pic32c/lib/v7e-m/fpv4-sp/hard\libg_nano.a(lib_a-impure.o)

.bss%29         0x2002ef84       0x58
 .bss           0x2002ef84       0x58 build/aws_demos/debug/_ext/1223942466/iot_demo_freertos.o

.data.tzinfo%30
                0x2002efdc       0x40
 .data.tzinfo   0x2002efdc       0x40 c:/program files/microchip/xc32/v2.40/bin/bin/../../lib/gcc/pic32c/6.2.1/../../../../pic32c/lib/v7e-m/fpv4-sp/hard\libg_nano.a(lib_a-gettzinfo.o)

.data%31        0x2002f01c       0x30
 .data          0x2002f01c       0x30 build/aws_demos/debug/_ext/2146650376/ATECC608A_0.o
                0x2002f01c                atecc608a_0_init_data

.bss%32         0x2002f04c       0x2d
 .bss           0x2002f04c       0x2d build/aws_demos/debug/_ext/2090543044/m2m_hif.o
                0x2002f050                pfWifiCb
                0x2002f054                pfIpCb
                0x2002f064                pfHifCb
                0x2002f06c                pfOtaCb
                0x2002f070                pfSigmaCb
                0x2002f074                pfSSLCb

.data%33        0x2002f07c       0x2c
 .data          0x2002f07c       0x2c build/aws_demos/debug/_ext/2009324866/aws_wifi.o
                0x2002f0a4                p_network_param

.bss%34         0x2002f0a8       0x49
 .bss           0x2002f0a8       0x28 build/aws_demos/debug/_ext/230789302/plib_sercom7_i2c_master.o
 .bss           0x2002f0d0       0x21 build/aws_demos/debug/_ext/1972722184/iot_pkcs11_secure_element.o

.bss%36         0x2002f0f4       0x3c
 .bss           0x2002f0f4       0x20 build/aws_demos/debug/_ext/1326886903/pkcs11_init.o
 .bss           0x2002f114       0x1c c:/program files/microchip/xc32/v2.40/bin/bin/../../lib/gcc/pic32c/6.2.1/v7e-m/fpv4-sp/hard/crtbegin.o

.data%38        0x2002f130       0x1c
 .data          0x2002f130       0x1c build/aws_demos/debug/_ext/2040524622/aws_iot_network_manager.o

.bss%39         0x2002f14c       0x40
 .bss           0x2002f14c       0x18 build/aws_demos/debug/_ext/2090543044/m2m_flash.o
 .bss           0x2002f164       0x14 build/aws_demos/debug/_ext/384060547/wdrv_winc_spi.o
 .bss           0x2002f178       0x14 build/aws_demos/debug/_ext/684768522/ecp.o

.data%42        0x2002f18c       0x14
 .data          0x2002f18c       0x14 build/aws_demos/debug/_ext/2146650376/hal_i2c_harmony_init.o
                0x2002f18c                sercom7_plib_api

.bss%43         0x2002f1a0       0x12
 .bss           0x2002f1a0       0x12 build/aws_demos/debug/_ext/2090543044/m2m_wifi.o

.data%44        0x2002f1b4       0x2c
 .data          0x2002f1b4       0x10 build/aws_demos/debug/_ext/1223942466/iot_demo_runner.o
 .data          0x2002f1c4       0x10 build/aws_demos/debug/_ext/684768522/threading.o
                0x2002f1c4                mbedtls_mutex_init
                0x2002f1c8                mbedtls_mutex_free
                0x2002f1cc                mbedtls_mutex_lock
                0x2002f1d0                mbedtls_mutex_unlock
 .data          0x2002f1d4        0xc build/aws_demos/debug/_ext/306685378/atca_helpers.o
                0x2002f1d4                atcab_b64rules_default
                0x2002f1d8                atcab_b64rules_urlsafe
                0x2002f1dc                atcab_b64rules_mime

.bss%47         0x2002f1e0        0xc
 .bss           0x2002f1e0        0xc build/aws_demos/debug/_ext/1534684544/sys_console_uart.o

.bss.__tzname_dst%48
                0x2002f1ec        0xb
 .bss.__tzname_dst
                0x2002f1ec        0xb c:/program files/microchip/xc32/v2.40/bin/bin/../../lib/gcc/pic32c/6.2.1/../../../../pic32c/lib/v7e-m/fpv4-sp/hard\libg_nano.a(lib_a-tzset_r.o)

.bss.__tzname_std%49
                0x2002f1f7        0xb
 .bss.__tzname_std
                0x2002f1f7        0xb c:/program files/microchip/xc32/v2.40/bin/bin/../../lib/gcc/pic32c/6.2.1/../../../../pic32c/lib/v7e-m/fpv4-sp/hard\libg_nano.a(lib_a-tzset_r.o)

.bss%50         0x2002ed28        0x8
 .bss           0x2002ed28        0x8 build/aws_demos/debug/_ext/1385882503/port.o

.bss%51         0x2002f204       0x18
 .bss           0x2002f204        0x8 build/aws_demos/debug/_ext/2090543044/nmspi.o
 .bss           0x2002f20c        0x8 build/aws_demos/debug/_ext/2090543044/m2m_ssl.o
 .bss           0x2002f214        0x8 build/aws_demos/debug/_ext/1360937237/main.o

.data%54        0x2002f21c        0x8
 .data          0x2002f21c        0x8 build/aws_demos/debug/_ext/684768522/platform.o

.bss%55         0x2002f224        0x8
 .bss           0x2002f224        0x8 build/aws_demos/debug/_ext/227692215/iot_logging_task_dynamic_buffers.o

.data._tzname%56
                0x2002f22c        0x8
 .data._tzname  0x2002f22c        0x8 c:/program files/microchip/xc32/v2.40/bin/bin/../../lib/gcc/pic32c/6.2.1/../../../../pic32c/lib/v7e-m/fpv4-sp/hard\libg_nano.a(lib_a-tzvars.o)
                0x2002f22c                _tzname

.bss%57         0x2002f234        0x5
 .bss           0x2002f234        0x5 build/aws_demos/debug/_ext/1777946865/socket.o
                0x2002f234                gu16SessionID
                0x2002f236                gbSocketInit

.data%58        0x2002c62c        0x4
 .data          0x2002c62c        0x4 build/aws_demos/debug/_ext/1385882503/port.o

.bss%59         0x2002f23c        0x4
 .bss           0x2002f23c        0x4 build/aws_demos/debug/_ext/306685378/atca_basic.o
                0x2002f23c                _gDevice

.data%60        0x2002f240        0xc
 .data          0x2002f240        0x4 build/aws_demos/debug/_ext/1326886903/pkcs11_object.o
 .data          0x2002f244        0x4 build/aws_demos/debug/_ext/384060547/wdrv_winc_spi.o
 .data          0x2002f248        0x4 build/aws_demos/debug/_ext/2090543044/nmasic.o

.bss%63         0x2002f24c        0x4
 .bss           0x2002f24c        0x4 build/aws_demos/debug/_ext/2090543044/nmasic.o

.data%64        0x2002f250        0x4
 .data          0x2002f250        0x4 build/aws_demos/debug/_ext/2090543044/nmflash.o

.bss%65         0x2002f254        0xc
 .bss           0x2002f254        0x4 build/aws_demos/debug/_ext/1151736449/spi_flash.o
 .bss           0x2002f258        0x4 build/aws_demos/debug/_ext/2090543044/m2m_ota.o
 .bss           0x2002f25c        0x4 build/aws_demos/debug/_ext/1931625852/sys_debug.o

.data%68        0x2002f260        0xc
 .data          0x2002f260        0x4 build/aws_demos/debug/_ext/684768522/ecp_curves.o
 .data          0x2002f264        0x4 build/aws_demos/debug/_ext/684768522/platform_util.o
 .data          0x2002f268        0x4 build/aws_demos/debug/_ext/1739149067/iot_mqtt_serialize.o

.data._impure_ptr%71
                0x2002f26c        0x4
 .data._impure_ptr
                0x2002f26c        0x4 c:/program files/microchip/xc32/v2.40/bin/bin/../../lib/gcc/pic32c/6.2.1/../../../../pic32c/lib/v7e-m/fpv4-sp/hard\libg_nano.a(lib_a-impure.o)
                0x2002f26c                _impure_ptr

.bss.__malloc_free_list%72
                0x2002f270        0x4
 .bss.__malloc_free_list
                0x2002f270        0x4 c:/program files/microchip/xc32/v2.40/bin/bin/../../lib/gcc/pic32c/6.2.1/../../../../pic32c/lib/v7e-m/fpv4-sp/hard\libg_nano.a(lib_a-nano-mallocr.o)
                0x2002f270                __malloc_free_list

.bss.__malloc_sbrk_start%73
                0x2002f274        0x4
 .bss.__malloc_sbrk_start
                0x2002f274        0x4 c:/program files/microchip/xc32/v2.40/bin/bin/../../lib/gcc/pic32c/6.2.1/../../../../pic32c/lib/v7e-m/fpv4-sp/hard\libg_nano.a(lib_a-nano-mallocr.o)
                0x2002f274                __malloc_sbrk_start

.bss.prev_tzenv%74
                0x2002f278        0x4
 .bss.prev_tzenv
                0x2002f278        0x4 c:/program files/microchip/xc32/v2.40/bin/bin/../../lib/gcc/pic32c/6.2.1/../../../../pic32c/lib/v7e-m/fpv4-sp/hard\libg_nano.a(lib_a-tzset_r.o)

.bss._daylight%75
                0x2002f27c        0x4
 .bss._daylight
                0x2002f27c        0x4 c:/program files/microchip/xc32/v2.40/bin/bin/../../lib/gcc/pic32c/6.2.1/../../../../pic32c/lib/v7e-m/fpv4-sp/hard\libg_nano.a(lib_a-tzvars.o)
                0x2002f27c                _daylight

.bss._timezone%76
                0x2002f280        0x4
 .bss._timezone
                0x2002f280        0x4 c:/program files/microchip/xc32/v2.40/bin/bin/../../lib/gcc/pic32c/6.2.1/../../../../pic32c/lib/v7e-m/fpv4-sp/hard\libg_nano.a(lib_a-tzvars.o)
                0x2002f280                _timezone

.bss.initial_env%77
                0x2002f284        0x4
 .bss.initial_env
                0x2002f284        0x4 c:/program files/microchip/xc32/v2.40/bin/bin/../../lib/gcc/pic32c/6.2.1/../../../../pic32c/lib/v7e-m/fpv4-sp/hard\libg_nano.a(lib_a-environ.o)

.data.environ%78
                0x2002f288        0x4
 .data.environ  0x2002f288        0x4 c:/program files/microchip/xc32/v2.40/bin/bin/../../lib/gcc/pic32c/6.2.1/../../../../pic32c/lib/v7e-m/fpv4-sp/hard\libg_nano.a(lib_a-environ.o)
                0x2002f288                environ

.bss%79         0x2002f28c        0x4
 .bss           0x2002f28c        0x4 c:/program files/microchip/xc32/v2.40/bin/bin/../../lib/gcc/pic32c/6.2.1/../../../../pic32c/lib/v7e-m/fpv4-sp/hard\libpic32c.a(sbrk.o)

.data%80        0x2002f290        0x2
 .data          0x2002f290        0x2 build/aws_demos/debug/_ext/2090543044/nmbus.o
                0x2002f290                egstrNmBusCapabilities

.bss%81         0x2002ef22        0x2
 .bss           0x2002ef22        0x2 build/aws_demos/debug/_ext/665618993/plib_nvmctrl.o

.data%82        0x2002f1b2        0x2
 .data          0x2002f1b2        0x2 build/aws_demos/debug/_ext/484134862/sys_time.o

.data%83        0x2002f202        0x1
 .data          0x2002f202        0x1 build/aws_demos/debug/_ext/2090543044/m2m_ssl.o

.bss%84         0x2002f203        0x1
 .bss           0x2002f203        0x1 build/aws_demos/debug/_ext/1916130672/plib_sercom4_spi.o

.eh_frame%z1    0x00000000        0x0
 .eh_frame      0x00000000        0x0 c:/program files/microchip/xc32/v2.40/bin/bin/../../lib/gcc/pic32c/6.2.1/v7e-m/fpv4-sp/hard/crtbegin.o

.text%85        0x0000028c    0x13af0
 .text          0x0000028c     0x2880 build/aws_demos/debug/_ext/684768522/bignum.o
                0x000004d4                mbedtls_mpi_init
                0x000004e0                mbedtls_mpi_free
                0x00000506                mbedtls_mpi_grow
                0x0000055a                mbedtls_mpi_shrink
                0x000005d2                mbedtls_mpi_copy
                0x00000644                mbedtls_mpi_swap
                0x00000672                mbedtls_mpi_safe_cond_assign
                0x000006e4                mbedtls_mpi_safe_cond_swap
                0x00000774                mbedtls_mpi_lset
                0x000007ae                mbedtls_mpi_get_bit
                0x000007ce                mbedtls_mpi_set_bit
                0x00000828                mbedtls_mpi_lsb
                0x00000870                mbedtls_mpi_bitlen
                0x000008ea                mbedtls_mpi_size
                0x000008f6                mbedtls_mpi_read_binary
                0x00000960                mbedtls_mpi_write_binary
                0x000009ea                mbedtls_mpi_shift_l
                0x00000a98                mbedtls_mpi_shift_r
                0x00000b32                mbedtls_mpi_cmp_abs
                0x00000cf4                mbedtls_mpi_cmp_mpi
                0x00000dca                mbedtls_mpi_cmp_int
                0x00000df8                mbedtls_mpi_add_abs
                0x00000ec2                mbedtls_mpi_sub_abs
                0x00000f4a                mbedtls_mpi_add_mpi
                0x00000fa2                mbedtls_mpi_sub_mpi
                0x00000ffa                mbedtls_mpi_add_int
                0x00001028                mbedtls_mpi_sub_int
                0x00001056                mbedtls_mpi_mul_mpi
                0x0000114a                mbedtls_mpi_mul_int
                0x00001166                mbedtls_mpi_read_string
                0x000012b2                mbedtls_mpi_div_mpi
                0x00001698                mbedtls_mpi_div_int
                0x000016c4                mbedtls_mpi_mod_mpi
                0x0000172e                mbedtls_mpi_mod_int
                0x0000181c                mbedtls_mpi_write_string
                0x000019a0                mbedtls_mpi_exp_mod
                0x00001e78                mbedtls_mpi_gcd
                0x00001fa0                mbedtls_mpi_fill_random
                0x00002192                mbedtls_mpi_inv_mod
                0x00002466                mbedtls_mpi_is_prime_ext
                0x000024d2                mbedtls_mpi_gen_prime
                0x00002704                mbedtls_mpi_self_test
 .text          0x00002b0c     0x21d8 build/aws_demos/debug/_ext/684768522/ecp.o
                0x0000352e                mbedtls_ecp_curve_list
                0x00003538                mbedtls_ecp_grp_id_list
                0x00003558                mbedtls_ecp_curve_info_from_grp_id
                0x00003578                mbedtls_ecp_curve_info_from_tls_id
                0x0000359c                mbedtls_ecp_curve_info_from_name
                0x000035c8                mbedtls_ecp_point_init
                0x000035e2                mbedtls_ecp_group_init
                0x00003624                mbedtls_ecp_keypair_init
                0x0000363e                mbedtls_ecp_point_free
                0x0000365c                mbedtls_ecp_group_free
                0x000036be                mbedtls_ecp_keypair_free
                0x000036dc                mbedtls_ecp_copy
                0x00003710                mbedtls_ecp_group_copy
                0x0000371a                mbedtls_ecp_set_zero
                0x00003f2c                mbedtls_ecp_is_zero
                0x00003f3e                mbedtls_ecp_point_cmp
                0x00003f7c                mbedtls_ecp_point_read_string
                0x00003fb0                mbedtls_ecp_point_write_binary
                0x0000405c                mbedtls_ecp_point_read_binary
                0x000040dc                mbedtls_ecp_tls_read_point
                0x00004110                mbedtls_ecp_tls_write_point
                0x00004148                mbedtls_ecp_tls_read_group_id
                0x00004190                mbedtls_ecp_tls_read_group
                0x000041b6                mbedtls_ecp_tls_write_group
                0x000041f0                mbedtls_ecp_check_pubkey
                0x000043bc                mbedtls_ecp_check_privkey
                0x00004400                mbedtls_ecp_mul_restartable
                0x00004744                mbedtls_ecp_mul
                0x000047d0                mbedtls_ecp_muladd_restartable
                0x0000484c                mbedtls_ecp_muladd
                0x00004864                mbedtls_ecp_gen_privkey
                0x000048ec                mbedtls_ecp_gen_keypair_base
                0x00004924                mbedtls_ecp_gen_keypair
                0x0000493e                mbedtls_ecp_gen_key
                0x00004970                mbedtls_ecp_check_pub_priv
                0x00004a44                mbedtls_ecp_self_test
 .text          0x00004ce4     0x1a04 build/aws_demos/debug/_ext/684768522/rsa.o
                0x00004f46                mbedtls_rsa_import
                0x00004fba                mbedtls_rsa_import_raw
                0x0000503c                mbedtls_rsa_complete
                0x00005220                mbedtls_rsa_export_raw
                0x00005310                mbedtls_rsa_export
                0x000053f4                mbedtls_rsa_export_crt
                0x00005488                mbedtls_rsa_init
                0x000054b0                mbedtls_rsa_set_padding
                0x000054ba                mbedtls_rsa_get_len
                0x000054be                mbedtls_rsa_check_pubkey
                0x0000551c                mbedtls_rsa_check_privkey
                0x00005594                mbedtls_rsa_check_pub_priv
                0x000055dc                mbedtls_rsa_public
                0x000056a8                mbedtls_rsa_private
                0x00005a58                mbedtls_rsa_rsaes_pkcs1_v15_encrypt
                0x00005b48                mbedtls_rsa_pkcs1_encrypt
                0x00005b70                mbedtls_rsa_rsaes_pkcs1_v15_decrypt
                0x00005d84                mbedtls_rsa_pkcs1_decrypt
                0x00005db0                mbedtls_rsa_rsassa_pkcs1_v15_sign
                0x00005e9c                mbedtls_rsa_pkcs1_sign
                0x00005ec8                mbedtls_rsa_rsassa_pkcs1_v15_verify
                0x00005fa0                mbedtls_rsa_pkcs1_verify
                0x00005fcc                mbedtls_rsa_free
                0x0000604c                mbedtls_rsa_gen_key
                0x00006280                mbedtls_rsa_copy
                0x0000638e                mbedtls_rsa_self_test
 .text          0x000066e8     0x1908 build/aws_demos/debug/_ext/684768522/x509_crt.o
                0x000068dc                mbedtls_x509_crt_info
                0x00007064                mbedtls_x509_crt_verify_info
                0x000070f8                mbedtls_x509_crt_check_key_usage
                0x00007140                mbedtls_x509_crt_check_extended_key_usage
                0x000071a8                mbedtls_x509_crt_verify_restartable
                0x000075ac                mbedtls_x509_crt_verify
                0x000075d0                mbedtls_x509_crt_verify_with_profile
                0x000075f0                mbedtls_x509_crt_init
                0x000075fe                mbedtls_x509_crt_free
                0x000076da                mbedtls_x509_crt_parse_der
                0x00007eec                mbedtls_x509_crt_parse
 .text          0x00007ff0     0x18f0 build/aws_demos/debug/_ext/811507611/tasks.o
                0x000082e0                xTaskCreateStatic
                0x0000837c                xTaskCreate
                0x000083d8                vTaskDelete
                0x000084a8                eTaskGetState
                0x0000852c                uxTaskPriorityGet
                0x0000854c                uxTaskPriorityGetFromISR
                0x0000857c                vTaskPrioritySet
                0x00008664                vTaskResume
                0x000086ec                xTaskResumeFromISR
                0x0000878c                vTaskStartScheduler
                0x00008810                vTaskEndScheduler
                0x00008834                vTaskSuspendAll
                0x00008848                xTaskGetTickCount
                0x00008854                xTaskGetTickCountFromISR
                0x00008868                uxTaskGetNumberOfTasks
                0x00008874                pcTaskGetName
                0x0000889c                xTaskIncrementTick
                0x00008994                xTaskResumeAll
                0x00008a88                vTaskDelayUntil
                0x00008b18                vTaskDelay
                0x00008b64                xTaskCatchUpTicks
                0x00008b9c                vTaskSwitchContext
                0x00008c68                vTaskSuspend
                0x00008d48                vTaskPlaceOnEventList
                0x00008d7c                vTaskPlaceOnUnorderedEventList
                0x00008dcc                vTaskPlaceOnEventListRestricted
                0x00008e08                xTaskRemoveFromEventList
                0x00008e88                vTaskRemoveFromUnorderedEventList
                0x00008f04                vTaskSetTimeOutState
                0x00008f38                vTaskInternalSetTimeOutState
                0x00008f4c                xTaskCheckForTimeOut
                0x00008fc4                vTaskMissedYield
                0x00008fd4                uxTaskGetTaskNumber
                0x00008fde                vTaskSetTaskNumber
                0x00008fe4                vTaskGetInfo
                0x000090cc                uxTaskGetSystemState
                0x00009174                xTaskGetCurrentTaskHandle
                0x00009180                xTaskGetSchedulerState
                0x000091a0                xTaskPriorityInherit
                0x0000924c                xTaskPriorityDisinherit
                0x000092f8                vTaskPriorityDisinheritAfterTimeout
                0x000093ac                vTaskList
                0x0000948c                uxTaskResetEventItemValue
                0x000094a4                pvTaskIncrementMutexHeldCount
                0x000094c0                ulTaskNotifyTake
                0x00009538                xTaskNotifyWait
                0x000095d0                xTaskGenericNotify
                0x000096b4                xTaskGenericNotifyFromISR
                0x000097c8                vTaskNotifyGiveFromISR
                0x00009884                xTaskNotifyStateClear
                0x000098b4                ulTaskNotifyValueClear
 .text          0x000098e0     0x1490 build/aws_demos/debug/_ext/1456806047/atcacert_def.o
                0x00009a60                atcacert_merge_device_loc
                0x00009bbe                atcacert_get_device_locs
                0x00009cbe                atcacert_is_device_loc_overlap
                0x00009d12                atcacert_get_tbs
                0x00009d6c                atcacert_get_tbs_digest
                0x00009daa                atcacert_set_cert_element
                0x00009e1c                atcacert_set_signature
                0x00009ee2                atcacert_set_issue_date
                0x00009f3c                atcacert_set_expire_date
                0x00009f96                atcacert_set_signer_id
                0x00009fe8                atcacert_set_comp_cert
                0x0000a0c8                atcacert_set_cert_sn
                0x0000a1b2                atcacert_set_auth_key_id_raw
                0x0000a1e2                atcacert_get_cert_element
                0x0000a23e                atcacert_get_subj_public_key
                0x0000a26c                atcacert_get_subj_key_id
                0x0000a29a                atcacert_get_signature
                0x0000a306                atcacert_get_issue_date
                0x0000a36c                atcacert_get_expire_date
                0x0000a3d0                atcacert_get_signer_id
                0x0000a420                atcacert_gen_cert_sn
                0x0000a5c4                atcacert_cert_build_finish
                0x0000a5ea                atcacert_get_comp_cert
                0x0000a6a0                atcacert_get_cert_sn
                0x0000a6ea                atcacert_get_auth_key_id
                0x0000a718                atcacert_get_key_id
                0x0000a75e                atcacert_set_subj_public_key
                0x0000a7be                atcacert_set_auth_key_id
                0x0000a806                atcacert_cert_build_start
                0x0000a890                atcacert_public_key_add_padding
                0x0000a8b4                atcacert_get_device_data
                0x0000aa38                atcacert_public_key_remove_padding
                0x0000aa56                atcacert_transform_data
                0x0000ab52                atcacert_cert_build_process
                0x0000ad24                atcacert_max_cert_size
 .text          0x0000ad70     0x137c build/aws_demos/debug/_ext/544104044/atca_host.o
                0x0000ad70                atcah_include_data
                0x0000ae1c                atcah_nonce
                0x0000af3c                atcah_io_decrypt
                0x0000afe0                atcah_verify_mac
                0x0000b13c                atcah_secureboot_enc
                0x0000b1a8                atcah_secureboot_mac
                0x0000b23e                atcah_mac
                0x0000b376                atcah_check_mac
                0x0000b5b2                atcah_hmac
                0x0000b71a                atcah_gen_dig
                0x0000b8c4                atcah_gen_mac
                0x0000b9de                atcah_write_auth_mac
                0x0000bac0                atcah_privwrite_auth_mac
                0x0000bbc8                atcah_derive_key
                0x0000bcde                atcah_derive_key_mac
                0x0000bd66                atcah_decrypt
                0x0000bdc0                atcah_sha256
                0x0000bdd0                atcah_gen_key_msg
                0x0000bec0                atcah_config_to_sign_internal
                0x0000bf62                atcah_sign_internal_msg
                0x0000c0bc                atcah_encode_counter_match
 .text          0x0000c0ec     0x1338 build/aws_demos/debug/_ext/684768522/sha1.o
                0x0000c0ec                mbedtls_sha1_init
                0x0000c0f8                mbedtls_sha1_free
                0x0000c106                mbedtls_sha1_clone
                0x0000c110                mbedtls_sha1_starts_ret
                0x0000c144                mbedtls_internal_sha1_process
                0x0000d174                mbedtls_sha1_update_ret
                0x0000d206                mbedtls_sha1_finish_ret
                0x0000d2fe                mbedtls_sha1_ret
                0x0000d340                mbedtls_sha1_self_test
 .text          0x0000d424     0x11a4 build/aws_demos/debug/_ext/333408969/iot_taskpool.o
                0x0000dc48                IotTaskPool_GetSystemTaskPool
                0x0000dc50                IotTaskPool_Destroy
                0x0000de68                IotTaskPool_SetMaxThreads
                0x0000dee0                IotTaskPool_CreateJob
                0x0000df0e                IotTaskPool_CreateRecyclableJob
                0x0000e020                IotTaskPool_GetStatus
                0x0000e064                IotTaskPool_TryCancel
                0x0000e0ac                IotTaskPool_GetJobStorageFromHandle
                0x0000e0ae                IotTaskPool_strerror
                0x0000e1a4                IotTaskPool_DestroyRecyclableJob
                0x0000e22c                IotTaskPool_RecycleJob
                0x0000e328                IotTaskPool_Schedule
                0x0000e380                IotTaskPool_ScheduleDeferred
                0x0000e53c                _performTaskPoolParameterValidation
                0x0000e55c                IotTaskPool_CreateSystemTaskPool
                0x0000e57c                IotTaskPool_Create
 .text          0x0000e5c8     0x107c build/aws_demos/debug/_ext/1739149067/iot_mqtt_api.o
                0x0000e7e4                _IotMqtt_IncrementConnectionReferences
                0x0000e858                _IotMqtt_DecrementConnectionReferences
                0x0000e8cc                IotMqtt_Init
                0x0000e8f0                IotMqtt_Cleanup
                0x0000e914                IotMqtt_Publish
                0x0000eab8                IotMqtt_strerror
                0x0000eb2c                IotMqtt_OperationType
                0x0000ed3c                IotMqtt_Subscribe
                0x0000ed5a                IotMqtt_Unsubscribe
                0x0000ed78                IotMqtt_Wait
                0x0000ee88                IotMqtt_Connect
                0x0000f324                IotMqtt_Disconnect
                0x0000f588                IotMqtt_TimedSubscribe
                0x0000f5c8                IotMqtt_TimedUnsubscribe
                0x0000f608                IotMqtt_TimedPublish
 .text          0x0000f644     0x100c build/aws_demos/debug/_ext/2009324866/aws_wifi.o
                0x0000f696                dns_resolve_cb
                0x0000f6e0                pingCb
                0x0000f730                get_wifi_handle
                0x0000f73c                WIFI_NetworkAdd
                0x0000f740                WIFI_NetworkGet
                0x0000f744                WIFI_NetworkDelete
                0x0000f748                WIFI_Scan
                0x0000f74c                WIFI_SetMode
                0x0000f750                WIFI_GetMode
                0x0000f754                wifi_winc_crypto_deinit
                0x0000f778                AWS_MCHP_ConnectEvent
                0x0000f7a8                AWS_MCHP_DisconnectEvent
                0x0000f80e                initialize_wifi
                0x0000f860                WIFI_Off
                0x0000f8b0                WIFI_Disconnect
                0x0000f958                WIFI_GetHostIP
                0x0000fa00                WIFI_GetIP
                0x0000fa18                WIFI_ConfigureAP
                0x0000fae4                WIFI_StartProvisioning
                0x0000fb64                WIFI_StartAP
                0x0000fbdc                WIFI_StopAP
                0x0000fc18                WIFI_SetPMMode
                0x0000fc1c                WIFI_GetPMMode
                0x0000fc20                WIFI_GetMAC
                0x0000fc64                WIFI_Ping
                0x0000fc74                WIFI_IsConnected
                0x0000fc88                eccProcessREQ
                0x0000fe58                Wifi_Connect_Ex
                0x0000fec8                WIFI_ConnectAP
                0x00010064                winc_certs_get_total_files_size
                0x000100d0                winc_certs_append_file_buf
                0x000101a4                get_winc_buffer
                0x000101bc                WIFI_On
                0x0001025c                WIFI_Reset
                0x00010288                ecc_transfer_certificates
                0x00010460                wifi_winc_crypto_init
 .text          0x00010650      0xe8c build/aws_demos/debug/_ext/1739149067/iot_mqtt_operation.o
                0x0001068c                _IotMqtt_ProcessKeepAlive
                0x00010878                _IotMqtt_ProcessIncomingPublish
                0x00010938                _IotMqtt_CreateOperation
                0x00010a7c                _IotMqtt_DecrementOperationReferences
                0x00010b2c                _IotMqtt_DestroyOperation
                0x00010cbc                _IotMqtt_ProcessCompletedOperation
                0x00010d50                _IotMqtt_ScheduleOperation
                0x00010e10                _IotMqtt_FindOperation
                0x00010fac                _IotMqtt_Notify
                0x00011148                _IotMqtt_ProcessSend
 .text          0x000114dc      0xdb0 build/aws_demos/debug/_ext/2009324866/iot_secure_sockets.o
                0x000114dc                socket_cb
                0x00011744                SOCKETS_Close
                0x0001181c                SOCKETS_Connect
                0x000119a0                SOCKETS_GetHostByName
                0x000119d4                SOCKETS_Recv
                0x00011c0c                SOCKETS_Send
                0x00011d98                SOCKETS_SetSockOpt
                0x00011e84                SOCKETS_Shutdown
                0x00011f14                SOCKETS_Socket
                0x00012070                SOCKETS_Init
                0x000120dc                xApplicationGetRandomNumber
                0x0001211a                ulApplicationGetNextSequenceNumber
 .text          0x0001228c      0xda8 build/aws_demos/debug/_ext/2090543044/m2m_wifi.o
                0x00012686                m2m_wifi_download_mode
                0x0001269a                m2m_wifi_ble_set_gain_table
                0x000126be                m2m_wifi_init_hold
                0x000126c6                m2m_wifi_deinit
                0x000126d8                m2m_wifi_reinit_hold
                0x000126e6                m2m_wifi_handle_events
                0x000126ee                m2m_wifi_default_connect
                0x0001270a                m2m_wifi_connect_sc
                0x000128aa                m2m_wifi_connect
                0x000128c0                m2m_wifi_disconnect
                0x000128dc                m2m_wifi_set_mac_address
                0x00012906                m2m_wifi_set_static_ip
                0x00012924                m2m_wifi_enable_dhcp
                0x00012948                m2m_wifi_set_lsn_int
                0x00012966                m2m_wifi_set_cust_InfoElement
                0x00012986                m2m_wifi_set_scan_options
                0x000129ec                m2m_wifi_set_scan_region
                0x00012a0e                m2m_wifi_request_scan
                0x00012a42                m2m_wifi_request_scan_passive
                0x00012a76                m2m_wifi_wps
                0x00012aa6                m2m_wifi_wps_disable
                0x00012ac2                m2m_wifi_p2p
                0x00012b00                m2m_wifi_p2p_disconnect
                0x00012b1c                m2m_wifi_enable_ap
                0x00012b46                m2m_wifi_disable_ap
                0x00012b62                m2m_wifi_req_curr_rssi
                0x00012b7e                m2m_wifi_req_restrict_ble
                0x00012b9a                m2m_wifi_req_unrestrict_ble
                0x00012bb6                m2m_wifi_send_ethernet_pkt
                0x00012bee                m2m_wifi_get_otp_mac_address
                0x00012c16                m2m_wifi_get_mac_address
                0x00012c3a                m2m_wifi_req_scan_result
                0x00012c5c                m2m_wifi_get_num_ap_found
                0x00012c68                m2m_wifi_get_sleep_mode
                0x00012c70                m2m_wifi_set_sleep_mode
                0x00012ca0                m2m_wifi_set_device_name
                0x00012cd0                m2m_wifi_get_chipId
                0x00012cd8                m2m_wifi_get_firmware_version
                0x00012cf6                m2m_wifi_check_ota_rb
                0x00012d1e                m2m_ota_get_firmware_version
                0x00012d3c                m2m_wifi_init_start
                0x00012db4                m2m_wifi_init
                0x00012dce                m2m_wifi_reinit_start
                0x00012dd6                m2m_wifi_reinit
                0x00012df0                m2m_wifi_start_provision_mode
                0x00012e5e                m2m_wifi_stop_provision_mode
                0x00012e7a                m2m_wifi_get_connection_info
                0x00012e96                m2m_wifi_set_system_time
                0x00012eb8                m2m_wifi_get_system_time
                0x00012ed4                m2m_wifi_enable_sntp
                0x00012ef8                m2m_wifi_set_power_profile
                0x00012f1a                m2m_wifi_set_tx_power
                0x00012f3c                m2m_wifi_enable_firmware_logs
                0x00012f5e                m2m_wifi_set_battery_voltage
                0x00012f82                m2m_wifi_prng_get_random_bytes
                0x00012fc2                m2m_wifi_enable_mac_mcast
                0x00012ff8                m2m_wifi_set_receive_buffer
                0x00013010                m2m_wifi_ble_api_send
 .text          0x00013034      0xd48 build/aws_demos/debug/_ext/811507611/queue.o
                0x00013166                xQueueGenericReset
                0x000131e8                xQueueGenericCreateStatic
                0x00013278                xQueueGenericCreate
                0x000132c8                xQueueCreateCountingSemaphoreStatic
                0x00013310                xQueueCreateCountingSemaphore
                0x0001334c                xQueueGenericSend
                0x000134dc                xQueueCreateMutex
                0x000134f2                xQueueCreateMutexStatic
                0x00013510                xQueueGiveMutexRecursive
                0x00013550                xQueueGenericSendFromISR
                0x00013614                xQueueGiveFromISR
                0x000136b8                xQueueReceive
                0x00013804                xQueueSemaphoreTake
                0x000139a4                xQueueTakeMutexRecursive
                0x000139e8                xQueuePeek
                0x00013b30                xQueueReceiveFromISR
                0x00013bd8                xQueuePeekFromISR
                0x00013c48                uxQueueMessagesWaiting
                0x00013c6c                uxQueueSpacesAvailable
                0x00013c94                uxQueueMessagesWaitingFromISR
                0x00013cb0                vQueueDelete
                0x00013cd8                uxQueueGetQueueNumber
                0x00013cdc                vQueueSetQueueNumber
                0x00013ce0                ucQueueGetQueueType
                0x00013ce6                xQueueIsQueueEmptyFromISR
                0x00013d08                xQueueIsQueueFullFromISR
                0x00013d2c                vQueueWaitForMessageRestricted

.rodata%100     0x00013d7c      0xd28
 .rodata        0x00013d7c      0xd28 build/aws_demos/debug/_ext/684768522/oid.o

.text%101       0x00014aa4     0x4848
 .text          0x00014aa4      0xcfc build/aws_demos/debug/_ext/2104392270/drv_spi.o
                0x00014b02                _DRV_SPI_TX_DMA_CallbackHandler
                0x00014edc                _DRV_SPI_RX_DMA_CallbackHandler
                0x000150e4                DRV_SPI_Initialize
                0x000151e8                DRV_SPI_Status
                0x00015214                DRV_SPI_Open
                0x00015340                DRV_SPI_Close
                0x00015428                DRV_SPI_TransferEventHandlerSet
                0x00015484                DRV_SPI_TransferSetup
                0x00015518                DRV_SPI_WriteReadTransferAdd
                0x000156ec                DRV_SPI_WriteTransferAdd
                0x00015700                DRV_SPI_ReadTransferAdd
                0x00015718                DRV_SPI_TransferStatusGet
 .text          0x000157a0      0xc40 build/aws_demos/debug/_ext/1739149067/iot_mqtt_serialize.o
                0x00015836                _IotMqtt_GetPacketType
                0x00015850                _IotMqtt_GetRemainingLength
                0x000158cc                _IotMqtt_SerializeConnect
                0x00015a8c                _IotMqtt_DeserializeConnack
                0x00015b8c                _IotMqtt_SerializePublish
                0x00015cb8                _IotMqtt_PublishSetDup
                0x00015d24                _IotMqtt_DeserializePublish
                0x00015f0c                _IotMqtt_SerializePuback
                0x00015f54                _IotMqtt_DeserializePuback
                0x00015fd8                _IotMqtt_SerializeSubscribe
                0x000160d8                _IotMqtt_DeserializeSuback
                0x000161dc                _IotMqtt_SerializeUnsubscribe
                0x000162d8                _IotMqtt_DeserializeUnsuback
                0x00016358                _IotMqtt_SerializePingreq
                0x00016368                _IotMqtt_DeserializePingresp
                0x000163bc                _IotMqtt_SerializeDisconnect
                0x000163cc                _IotMqtt_FreePacket
 .text          0x000163e0      0xbe8 build/aws_demos/debug/_ext/2090543044/nmflash.o
                0x0001651c                winc_flash_write_verify
                0x0001672c                set_internal_info_ptr
                0x00016740                set_internal_info
                0x00016754                is_internal_info
                0x00016764                recover_backup
                0x00016808                prepare_backup
                0x00016adc                image_get_target
                0x00016b2c                rootcert_get_size
                0x00016bb6                rootcert_access
                0x00016d4c                transfer_run
 .text          0x00016fc8      0xbdc build/aws_demos/debug/_ext/198771642/aws_dev_mode_key_provisioning.o
                0x000170b8                xProvisionPrivateKey
                0x00017388                xProvisionPublicKey
                0x0001754c                xProvisionGenerateKeyPairRSA
                0x00017618                xProvisionGenerateKeyPairEC
                0x000176e8                xDestroyProvidedObjects
                0x0001776c                xProvisionCertificate
                0x0001785c                xDestroyDefaultCryptoObjects
                0x00017890                xProvisionDevice
                0x00017b2c                vAlternateKeyProvisioning
                0x00017b72                vDevModeKeyProvisioning
 .text          0x00017ba4      0xbd4 build/aws_demos/debug/_ext/1777946865/socket.o
                0x00017ee0                socketInit
                0x00017f14                socketDeinit
                0x00017f48                registerSocketCallback
                0x00017f5c                registerSocketEventCallback
                0x00017f68                registerSocketResolveCallback
                0x00017f74                socket
                0x000180e0                bind
                0x00018158                listen
                0x000181b4                accept
                0x000181d8                connect
                0x0001826c                send
                0x00018308                sendto
                0x000183ac                recv
                0x0001844c                shutdown
                0x000184c4                recvfrom
                0x0001856c                gethostbyname
                0x000185a2                setsockopt
                0x00018734                getsockopt
                0x0001873a                m2m_ping_req
 .text          0x00018778      0xb74 build/aws_demos/debug/_ext/1456806047/atcacert_date.o
                0x00018ae4                atcacert_date_get_max_date
                0x00018b90                atcacert_date_enc_iso8601_sep
                0x00018c40                atcacert_date_dec_iso8601_sep
                0x00018d2c                atcacert_date_enc_rfc5280_utc
                0x00018dcc                atcacert_date_dec_rfc5280_utc
                0x00018e8c                atcacert_date_enc_rfc5280_gen
                0x00018f24                atcacert_date_dec_rfc5280_gen
                0x00018fd4                atcacert_date_enc_posix_uint32_be
                0x0001900a                atcacert_date_dec_posix_uint32_be
                0x00019040                atcacert_date_enc_posix_uint32_le
                0x00019076                atcacert_date_enc
                0x00019104                atcacert_date_dec_posix_uint32_le
                0x0001913a                atcacert_date_dec
                0x000191a4                atcacert_date_enc_compcert
                0x00019256                atcacert_date_dec_compcert

.dinit%107      0x000192ec      0xaf0
 .dinit         0x000192ec      0xaf0 data_init

.text%108       0x00019ddc     0x2a70
 .text          0x00019ddc      0xacc build/aws_demos/debug/_ext/684768522/sha256.o
                0x00019ddc                mbedtls_sha256_init
                0x00019de8                mbedtls_sha256_free
                0x00019df6                mbedtls_sha256_clone
                0x00019e00                mbedtls_sha256_starts_ret
                0x00019ea4                mbedtls_internal_sha256_process
                0x0001a54a                mbedtls_sha256_update_ret
                0x0001a5dc                mbedtls_sha256_finish_ret
                0x0001a716                mbedtls_sha256_ret
                0x0001a75c                mbedtls_sha256_self_test
 .text          0x0001a8a8      0xaac build/aws_demos/debug/_ext/1991396724/sys_command.o
                0x0001acb8                SYS_CMD_READY_TO_READ
                0x0001acbc                SYS_CMD_ADDGRP
                0x0001ad38                SYS_CMD_Tasks
                0x0001b15c                SYS_CMD_MESSAGE
                0x0001b168                SYS_CMD_PRINT
                0x0001b1e4                SYS_CMDIO_GET_HANDLE
                0x0001b210                SYS_CMDIO_ADD
                0x0001b2a8                SYS_CMD_Initialize
                0x0001b2e0                SYS_CMD_DELETE
 .text          0x0001b354      0xa94 build/aws_demos/debug/_ext/484134862/sys_time.o
                0x0001b72c                SYS_TIME_Initialize
                0x0001b7f8                SYS_TIME_Deinitialize
                0x0001b82c                SYS_TIME_Status
                0x0001b840                SYS_TIME_FrequencyGet
                0x0001b84c                SYS_TIME_Counter64Get
                0x0001b890                SYS_TIME_CounterGet
                0x0001b898                SYS_TIME_CounterSet
                0x0001b8bc                SYS_TIME_CountToUS
                0x0001b900                SYS_TIME_CountToMS
                0x0001b93c                SYS_TIME_USToCount
                0x0001b95c                SYS_TIME_MSToCount
                0x0001b978                SYS_TIME_TimerCreate
                0x0001b994                SYS_TIME_TimerReload
                0x0001ba1c                SYS_TIME_TimerDestroy
                0x0001bb34                SYS_TIME_TimerStart
                0x0001bb8c                SYS_TIME_TimerStop
                0x0001bbc8                SYS_TIME_TimerCounterGet
                0x0001bc54                SYS_TIME_TimerPeriodHasExpired
                0x0001bc7c                SYS_TIME_DelayUS
                0x0001bcd0                SYS_TIME_DelayMS
                0x0001bd20                SYS_TIME_DelayIsComplete
                0x0001bd38                SYS_TIME_CallbackRegisterUS
                0x0001bd90                SYS_TIME_CallbackRegisterMS
 .text          0x0001bde8      0xa64 build/aws_demos/debug/_ext/684768522/pkparse.o
                0x0001c434                mbedtls_pk_parse_subpubkey
                0x0001c528                mbedtls_pk_parse_key
                0x0001c6fc                mbedtls_pk_parse_public_key

.rodata%112     0x0001c84c     0x1384
 .rodata        0x0001c84c      0x9cc build/aws_demos/debug/_ext/1739149067/iot_mqtt_operation.o
 .rodata        0x0001d218      0x9b8 build/aws_demos/debug/_ext/1739149067/iot_mqtt_api.o

.text%114       0x0001dbd0      0x910
 .text          0x0001dbd0      0x910 build/aws_demos/debug/_ext/1833802790/wdrv_winc.o
                0x0001e09c                WDRV_WINC_Initialize
                0x0001e0b8                WDRV_WINC_Deinitialize
                0x0001e0d4                WDRV_WINC_Reinitialize
                0x0001e0d6                WDRV_WINC_Status
                0x0001e0dc                WDRV_WINC_Tasks
                0x0001e148                WDRV_WINC_DebugRegisterCallback
                0x0001e154                WDRV_WINC_Open
                0x0001e2a8                WDRV_WINC_Close
                0x0001e2d0                WDRV_WINC_MulticastMACFilterAdd
                0x0001e2f0                WDRV_WINC_MulticastMACFilterRemove
                0x0001e310                WDRV_WINC_EthernetAddressGet
                0x0001e32a                WDRV_WINC_OperatingModeGet
                0x0001e344                WDRV_WINC_UserHandleSet
                0x0001e358                WDRV_WINC_UserHandleGet
                0x0001e36a                WDRV_WINC_InfoDriverVersionGet
                0x0001e396                WDRV_WINC_InfoDeviceFirmwareVersionGet
                0x0001e426                WDRV_WINC_InfoDeviceIDGet
                0x0001e43c                WDRV_WINC_InfoDeviceMACAddressGet
                0x0001e482                WDRV_WINC_InfoDeviceNameSet
                0x0001e4b2                WDRV_WINC_GainTableIndexSet
                0x0001e4d2                WDRV_WINC_ISR

.rodata%115     0x0001e4e0     0x21cc
 .rodata        0x0001e4e0      0x90c build/aws_demos/debug/_ext/198771642/aws_dev_mode_key_provisioning.o
 .rodata        0x0001edec      0x87c build/aws_demos/debug/_ext/787859085/atca_cert_chain.o
                0x0001edec                g_cert_def_3_test
                0x0001ee3c                g_cert_template_3_test
                0x0001f0b0                g_cert_elements_3_test
                0x0001f0fc                g_cert_def_2_device
                0x0001f14c                g_cert_template_2_device
                0x0001f2fc                g_cert_elements_2_device
                0x0001f348                g_cert_def_1_signer
                0x0001f398                g_cert_template_1_signer
                0x0001f564                g_cert_elements_1_signer
                0x0001f5d8                g_cert_def_0_root
                0x0001f628                g_cert_ca_public_key_1_signer
 .rodata        0x0001f668      0x844 build/aws_demos/debug/_ext/684768522/x509_crt.o
                0x0001fa64                mbedtls_x509_crt_profile_default
                0x0001fe8c                mbedtls_x509_crt_profile_suiteb
                0x0001fe9c                mbedtls_x509_crt_profile_next
 .rodata        0x0001feac      0x800 build/aws_demos/debug/_ext/1739149067/iot_mqtt_serialize.o

.text%119       0x000206ac     0x1e88
 .text          0x000206ac      0x7c8 build/aws_demos/debug/_ext/2090543044/nmasic.o
                0x000206ac                chip_apply_conf
                0x000206dc                nm_clkless_wake
                0x0002077c                chip_idle
                0x000207aa                enable_rf_blocks
                0x000207ee                enable_interrupts
                0x0002084c                cpu_start
                0x000208e4                nmi_get_chipid
                0x000209e4                nmi_get_rfrevid
                0x00020a00                restore_pmu_settings_after_global_reset
                0x00020a24                nmi_update_pll
                0x00020a4a                nmi_set_sys_clk_src_to_xo
                0x00020a66                chip_wake
                0x00020a6e                chip_reset
                0x00020a86                chip_reset_and_cpu_halt
                0x00020b2c                wait_for_bootrom
                0x00020bd8                wait_for_firmware_start
                0x00020c60                chip_deinit
                0x00020cbe                set_gpio_dir
                0x00020d04                set_gpio_val
                0x00020d4c                get_gpio_val
                0x00020d74                pullup_ctrl
                0x00020dae                nmi_get_otp_mac_address
                0x00020e1e                nmi_get_mac_address
 .text          0x00020e74      0x7c0 build/aws_demos/debug/_ext/306685378/atca_helpers.o
                0x00020f00                atcab_reversal
                0x00020f36                atcab_bin2hex_
                0x00021080                atcab_bin2hex
                0x00021094                isDigit
                0x000210a2                isWhiteSpace
                0x000210bc                isAlpha
                0x000210d8                isHexAlpha
                0x000210f4                isHexDigit
                0x0002110a                atcab_hex2bin_
                0x000211fc                atcab_hex2bin
                0x0002120c                isHex
                0x00021224                packHex
                0x0002127c                isBase64Digit
                0x000212ba                isBase64
                0x000212d2                base64Index
                0x00021320                base64Char
                0x00021364                atcab_base64decode_
                0x00021460                atcab_base64encode_
                0x0002160c                atcab_base64encode
                0x00021620                atcab_base64decode
 .text          0x00021634      0x78c build/aws_demos/debug/_ext/2090543044/m2m_hif.o
                0x00021684                hif_chip_wake
                0x000216c8                hif_set_sleep_mode
                0x000216d4                hif_get_sleep_mode
                0x000216e0                hif_chip_sleep
                0x00021754                hif_init
                0x0002178c                hif_deinit
                0x000217ac                hif_check_compatibility
                0x000217c8                hif_enable_access
                0x00021830                hif_check_code
                0x000218a4                hif_send
                0x00021ad0                hif_handle_isr
                0x00021c94                hif_receive
                0x00021d74                hif_register_cb
 .text          0x00021dc0      0x774 build/aws_demos/debug/_ext/2090543044/m2m_flash.o
                0x00022130                m2m_flash_readimage
                0x000221b0                m2m_flash_updateimage
                0x000222e8                m2m_flash_rootcert_add
                0x0002231c                m2m_flash_rootcert_remove
                0x00022360                m2m_flash_rootcert_read
                0x000223c0                m2m_flash_rootcert_readidx
                0x000223f8                m2m_flash_get_state
                0x00022500                m2m_flash_init

.rodata%123     0x00022534      0xe88
 .rodata        0x00022534      0x744 build/aws_demos/debug/_ext/684768522/bignum.o
 .rodata        0x00022c78      0x744 build/aws_demos/debug/_ext/1739149067/iot_mqtt_validate.o

.text%125       0x000233bc     0x434c
 .text          0x000233bc      0x708 build/aws_demos/debug/_ext/2090543044/nmspi.o
                0x00023682                nm_spi_reset
                0x000236c0                nm_spi_lock_init
                0x000236d0                nm_spi_deinit
                0x000236e8                nm_spi_read_reg_with_ret
                0x00023798                nm_spi_read_reg
                0x000237aa                nm_spi_write_reg
                0x00023830                nm_spi_init
                0x000238c4                nm_spi_read_block
                0x00023970                nm_spi_write_block
 .text          0x00023ac4      0x6d8 build/aws_demos/debug/_ext/684768522/x509.o
                0x00023b20                mbedtls_x509_get_serial
                0x00023b74                mbedtls_x509_get_alg_null
                0x00023b86                mbedtls_x509_get_alg
                0x00023b98                mbedtls_x509_get_name
                0x00023cbc                mbedtls_x509_get_time
                0x00023e5c                mbedtls_x509_get_sig
                0x00023e9c                mbedtls_x509_get_sig_alg
                0x00023ee0                mbedtls_x509_get_ext
                0x00023f40                mbedtls_x509_dn_gets
                0x00024058                mbedtls_x509_serial_gets
                0x00024118                mbedtls_x509_sig_alg_gets
                0x00024168                mbedtls_x509_key_size_helper
                0x00024190                mbedtls_x509_time_is_past
                0x00024194                mbedtls_x509_time_is_future
                0x00024198                mbedtls_x509_self_test
 .text          0x0002419c      0x68c build/aws_demos/debug/_ext/684768522/rsa_internal.o
                0x0002419c                mbedtls_rsa_deduce_primes
                0x000243f4                mbedtls_rsa_deduce_private_exponent
                0x000244ce                mbedtls_rsa_validate_crt
                0x000245e4                mbedtls_rsa_validate_params
                0x000247ac                mbedtls_rsa_deduce_crt
 .text          0x00024828      0x670 build/aws_demos/debug/_ext/811507611/timers.o
                0x000248b8                xTimerCreateTimerTask
                0x00024920                xTimerCreate
                0x00024978                xTimerCreateStatic
                0x000249f0                xTimerGenericCommand
                0x00024cc8                xTimerGetTimerDaemonTaskHandle
                0x00024cf0                xTimerGetPeriod
                0x00024d0c                vTimerSetReloadMode
                0x00024d4c                uxTimerGetReloadMode
                0x00024d78                xTimerGetExpiryTime
                0x00024d94                pcTimerGetName
                0x00024db0                xTimerIsTimerActive
                0x00024ddc                pvTimerGetTimerID
                0x00024e00                vTimerSetTimerID
                0x00024e24                xTimerPendFunctionCallFromISR
                0x00024e4c                xTimerPendFunctionCall
                0x00024e90                uxTimerGetTimerNumber
                0x00024e94                vTimerSetTimerNumber
 .text          0x00024e98      0x650 build/aws_demos/debug/_ext/1739149067/iot_mqtt_network.o
                0x00024ebe                _IotMqtt_GetNextByte
                0x00024efc                _IotMqtt_CloseNetworkConnection
                0x00025024                IotMqtt_ReceiveCallback
 .text          0x000254e8      0x5e8 build/aws_demos/debug/_ext/520142351/iot_network_freertos.o
                0x00025518                IotNetworkAfr_Create
                0x00025734                IotNetworkAfr_SetReceiveCallback
                0x0002579c                IotNetworkAfr_Receive
                0x00025888                IotNetworkAfr_ReceiveUpto
                0x000259fc                IotNetworkAfr_Send
                0x00025a58                IotNetworkAfr_Close
                0x00025a90                IotNetworkAfr_Destroy
 .text          0x00025ad0      0x5b8 build/aws_demos/debug/_ext/2040524622/aws_iot_network_manager.o
                0x00025cec                AwsIotNetworkManager_Init
                0x00025dac                AwsIotNetworkManager_SubscribeForStateChange
                0x00025e20                AwsIotNetworkManager_RemoveSubscription
                0x00025eb0                AwsIotNetworkManager_GetConfiguredNetworks
                0x00025ed4                AwsIotNetworkManager_GetEnabledNetworks
                0x00025f18                AwsIotNetworkManager_GetConnectedNetworks
                0x00025f5c                AwsIotNetworkManager_EnableNetwork
                0x00025fb4                AwsIotNetworkManager_DisableNetwork
                0x00025ff8                AwsIotNetworkManager_GetNetworkInterface
                0x00026028                AwsIotNetworkManager_GetCredentials
                0x00026058                AwsIotNetworkManager_GetConnectionParams
 .text          0x00026088      0x5ac build/aws_demos/debug/_ext/1441508942/iot_demo_mqtt.o
                0x00026234                RunMqttDemo
 .text          0x00026634      0x5ac build/aws_demos/debug/_ext/684768522/ecdsa.o
                0x0002699c                mbedtls_ecdsa_sign
                0x000269bc                mbedtls_ecdsa_verify
                0x000269d4                mbedtls_ecdsa_write_signature_restartable
                0x00026a82                mbedtls_ecdsa_write_signature
                0x00026aa2                mbedtls_ecdsa_read_signature_restartable
                0x00026b4c                mbedtls_ecdsa_read_signature
                0x00026b60                mbedtls_ecdsa_genkey
                0x00026b90                mbedtls_ecdsa_init
                0x00026b98                mbedtls_ecdsa_free
                0x00026ba4                mbedtls_ecdsa_from_keypair
 .text          0x00026be0      0x598 build/aws_demos/debug/_ext/1739149067/iot_mqtt_subscription.o
                0x00026d3c                _IotMqtt_InvokeSubscriptionCallback
                0x00026e40                _IotMqtt_RemoveSubscriptionByPacket
                0x00026ed8                _IotMqtt_RemoveSubscriptionByTopicFilter
                0x00026fb4                _IotMqtt_AddSubscriptions
                0x000270f0                IotMqtt_IsSubscribed
 .text          0x00027178      0x590 build/aws_demos/debug/_ext/1151736449/spi_flash.o
                0x00027460                spi_flash_read
                0x000274d2                spi_flash_write
                0x0002753e                spi_flash_erase
                0x00027644                spi_flash_get_size

.rodata%136     0x00027708      0x58c
 .rodata        0x00027708      0x58c build/aws_demos/debug/_ext/1739149067/iot_mqtt_network.o

.text%137       0x00027c94     0x1504
 .text          0x00027c94      0x588 build/aws_demos/debug/_ext/1456806047/atcacert_der.o
                0x00027c94                atcacert_der_enc_length
                0x00027d06                atcacert_der_dec_length
                0x00027d82                atcacert_der_adjust_length
                0x00027dea                atcacert_der_enc_integer
                0x00027edc                atcacert_der_dec_integer
                0x00027f70                atcacert_der_enc_ecdsa_sig_value
                0x0002801a                atcacert_der_dec_ecdsa_sig_value
 .text          0x0002821c      0x540 build/aws_demos/debug/_ext/684768522/ecp_curves.o
                0x000286da                mbedtls_ecp_group_load
 .text          0x0002875c      0x534 build/aws_demos/debug/_ext/306685378/atca_basic_read.o
                0x0002875c                atcab_read_zone
                0x000287ec                atcab_read_serial_number
                0x0002882c                atcab_is_slot_locked
                0x0002887a                atcab_is_locked
                0x000288cc                atcab_read_enc
                0x000289e2                atcab_read_sig
                0x00028a34                atcab_read_pubkey
                0x00028ae0                atcab_read_bytes_zone
                0x00028bc6                atcab_read_config_zone
                0x00028c08                atcab_cmp_config_zone
 .text          0x00028c90      0x508 build/aws_demos/debug/_ext/684768522/asn1write.o
                0x00028c90                mbedtls_asn1_write_len
                0x00028d9e                mbedtls_asn1_write_tag
                0x00028db8                mbedtls_asn1_write_raw_buffer
                0x00028de6                mbedtls_asn1_write_mpi
                0x00028e6c                mbedtls_asn1_write_null
                0x00028e90                mbedtls_asn1_write_oid
                0x00028ec2                mbedtls_asn1_write_algorithm_identifier
                0x00028f12                mbedtls_asn1_write_bool
                0x00028f56                mbedtls_asn1_write_int
                0x00028fbe                mbedtls_asn1_write_tagged_string
                0x00028ff6                mbedtls_asn1_write_utf8_string
                0x0002900a                mbedtls_asn1_write_printable_string
                0x0002901e                mbedtls_asn1_write_ia5_string
                0x00029032                mbedtls_asn1_write_bitstring
                0x000290a6                mbedtls_asn1_write_octet_string
                0x000290d8                mbedtls_asn1_store_named_data

.rodata%141     0x00029198      0x500
 .rodata        0x00029198      0x500 build/aws_demos/debug/_ext/333408969/iot_taskpool.o

.text%142       0x00029698      0xe64
 .text          0x00029698      0x4e4 build/aws_demos/debug/_ext/306685378/atca_basic_write.o
                0x00029698                atcab_write
                0x00029754                atcab_write_zone
                0x000297b2                atcab_write_enc
                0x000298fe                atcab_write_pubkey
                0x00029978                atcab_write_bytes_zone
                0x00029a9e                atcab_write_config_zone
                0x00029af2                atcab_write_config_counter
 .text          0x00029b7c      0x4dc build/aws_demos/debug/_ext/684768522/oid.o
                0x00029bb4                mbedtls_oid_get_attr_short_name
                0x00029c08                mbedtls_oid_get_x509_ext_type
                0x00029c60                mbedtls_oid_get_extended_key_usage
                0x00029cb8                mbedtls_oid_get_sig_alg_desc
                0x00029cd0                mbedtls_oid_get_sig_alg
                0x00029cee                mbedtls_oid_get_oid_by_sig_alg
                0x00029d20                mbedtls_oid_get_pk_alg
                0x00029d78                mbedtls_oid_get_oid_by_pk_alg
                0x00029db4                mbedtls_oid_get_ec_grp
                0x00029e0c                mbedtls_oid_get_oid_by_ec_grp
                0x00029e48                mbedtls_oid_get_cipher_alg
                0x00029ea0                mbedtls_oid_get_md_alg
                0x00029ef8                mbedtls_oid_get_oid_by_md
                0x00029f34                mbedtls_oid_get_md_hmac
                0x00029f8c                mbedtls_oid_get_numeric_string
 .text          0x0002a058      0x4a4 build/aws_demos/debug/_ext/731420310/plib_sercom6_usart.o
                0x0002a090                SERCOM6_USART_Initialize
                0x0002a0f4                SERCOM6_USART_FrequencyGet
                0x0002a0fc                SERCOM6_USART_SerialSetup
                0x0002a204                SERCOM6_USART_ErrorGet
                0x0002a220                SERCOM6_USART_Read
                0x0002a298                SERCOM6_USART_ReadCountGet
                0x0002a2ac                SERCOM6_USART_ReadFreeBufferCountGet
                0x0002a2b8                SERCOM6_USART_ReadBufferSizeGet
                0x0002a2bc                SERCOM6_USART_ReadNotificationEnable
                0x0002a2d4                SERCOM6_USART_ReadThresholdSet
                0x0002a2e0                SERCOM6_USART_ReadCallbackRegister
                0x0002a2ec                SERCOM6_USART_WriteCountGet
                0x0002a2f4                SERCOM6_USART_Write
                0x0002a350                SERCOM6_USART_WriteFreeBufferCountGet
                0x0002a35c                SERCOM6_USART_WriteBufferSizeGet
                0x0002a360                SERCOM6_USART_WriteNotificationEnable
                0x0002a370                SERCOM6_USART_WriteThresholdSet
                0x0002a37c                SERCOM6_USART_WriteCallbackRegister
                0x0002a388                SERCOM6_USART_InterruptHandler

.rodata%145     0x0002a4fc      0x47c
 .rodata        0x0002a4fc      0x47c build/aws_demos/debug/_ext/1441508942/iot_demo_mqtt.o

.text%146       0x0002a978      0x47c
 .text          0x0002a978      0x47c build/aws_demos/debug/_ext/1739149067/iot_mqtt_validate.o
                0x0002a978                _IotMqtt_ValidateConnect
                0x0002aabc                _IotMqtt_ValidatePublish
                0x0002abb4                _IotMqtt_ValidateOperation
                0x0002abfc                _IotMqtt_ValidateSubscriptionList

.rodata%147     0x0002adf4      0x460
 .rodata        0x0002adf4      0x460 build/aws_demos/debug/_ext/13066905/iot_device_metrics.o

.text%148       0x0002b254      0x8a8
 .text          0x0002b254      0x45c build/aws_demos/debug/_ext/1326886903/pkcs11_token.o
                0x0002b254                pkcs11_token_init
                0x0002b3c8                pkcs11_token_get_access_type
                0x0002b3ec                pkcs11_token_get_writable
                0x0002b41a                pkcs11_token_get_info
                0x0002b5d0                pkcs11_token_random
                0x0002b64c                pkcs11_token_set_pin
 .text          0x0002b6b0      0x44c build/aws_demos/debug/_ext/2090543044/m2m_ssl.o
                0x0002b7b4                m2m_ssl_handshake_rsp
                0x0002b7d0                m2m_ssl_send_certs_to_winc
                0x0002b93c                m2m_ssl_retrieve_cert
                0x0002ba60                m2m_ssl_retrieve_hash
                0x0002ba98                m2m_ssl_stop_processing_certs
                0x0002baa8                m2m_ssl_ecc_process_done
                0x0002bab4                m2m_ssl_set_active_ciphersuites
                0x0002bad6                m2m_ssl_init

.rodata%150     0x0002bafc      0x444
 .rodata        0x0002bafc      0x444 build/aws_demos/debug/_ext/2040524622/aws_iot_network_manager.o

.text%151       0x0002bf40     0x3c40
 .text          0x0002bf40      0x42c build/aws_demos/debug/_ext/1009855837/atca_command.o
                0x0002bf40                initATCACommand
                0x0002bf4e                newATCACommand
                0x0002bf66                deleteATCACommand
                0x0002bf7a                atCRC
                0x0002bfcc                atCalcCrc
                0x0002bfde                atCheckMAC
                0x0002bff2                atCounter
                0x0002c006                atDeriveKey
                0x0002c022                atECDH
                0x0002c036                atGenDig
                0x0002c05e                atGenKey
                0x0002c07c                atHMAC
                0x0002c090                atInfo
                0x0002c0a4                atLock
                0x0002c0b8                atMAC
                0x0002c0d6                atNonce
                0x0002c10a                atPause
                0x0002c11e                atPrivWrite
                0x0002c132                atRandom
                0x0002c146                atRead
                0x0002c15a                atSecureBoot
                0x0002c18e                atSHA
                0x0002c1d8                atSign
                0x0002c1ec                atUpdateExtra
                0x0002c200                atVerify
                0x0002c240                atWrite
                0x0002c26a                atAES
                0x0002c28e                atSelfTest
                0x0002c2a2                atKDF
                0x0002c2c4                atCheckCrc
                0x0002c2fc                atIsSHAFamily
                0x0002c306                atIsECCFamily
                0x0002c312                isATCAError
 .text          0x0002c36c      0x428 build/aws_demos/debug/_ext/684768522/md.o
                0x0002c36c                mbedtls_md_list
                0x0002c374                mbedtls_md_info_from_string
                0x0002c3d8                mbedtls_md_info_from_type
                0x0002c400                mbedtls_md_init
                0x0002c40a                mbedtls_md_free
                0x0002c43c                mbedtls_md_clone
                0x0002c474                mbedtls_md_setup
                0x0002c4bc                mbedtls_md_starts
                0x0002c4d8                mbedtls_md_update
                0x0002c4f8                mbedtls_md_finish
                0x0002c514                mbedtls_md
                0x0002c530                mbedtls_md_hmac_starts
                0x0002c608                mbedtls_md_hmac_update
                0x0002c630                mbedtls_md_hmac_finish
                0x0002c6b4                mbedtls_md_hmac_reset
                0x0002c6f4                mbedtls_md_hmac
                0x0002c758                mbedtls_md_process
                0x0002c774                mbedtls_md_get_size
                0x0002c780                mbedtls_md_get_type
                0x0002c78a                mbedtls_md_get_name
 .text          0x0002c794      0x424 c:/program files/microchip/xc32/v2.40/bin/bin/../../lib/gcc/pic32c/6.2.1/v7e-m/fpv4-sp/hard\libgcc.a(_arm_muldivdf3.o)
                0x0002c794                __aeabi_dmul
                0x0002c794                __muldf3
                0x0002c9e8                __divdf3
                0x0002c9e8                __aeabi_ddiv
 .text          0x0002cbb8      0x420 build/aws_demos/debug/_ext/1456806047/atcacert_client.o
                0x0002cbb8                atcacert_get_response
                0x0002cbd4                atcacert_read_device_loc
                0x0002cc5a                atcacert_read_cert
                0x0002ccec                atcacert_write_cert
                0x0002cde8                atcacert_create_csr
                0x0002ceca                atcacert_create_csr_pem
                0x0002cf34                atcacert_read_subj_key_id
                0x0002cf94                atcacert_read_cert_size
 .text          0x0002cfd8      0x418 build/aws_demos/debug/_ext/230789302/plib_sercom7_i2c_master.o
                0x0002d04c                SERCOM7_I2C_Initialize
                0x0002d0a8                SERCOM7_I2C_TransferSetup
                0x0002d178                SERCOM7_I2C_CallbackRegister
                0x0002d184                SERCOM7_I2C_Read
                0x0002d1b0                SERCOM7_I2C_Write
                0x0002d1dc                SERCOM7_I2C_WriteRead
                0x0002d208                SERCOM7_I2C_IsBusy
                0x0002d22c                SERCOM7_I2C_ErrorGet
                0x0002d238                SERCOM7_I2C_InterruptHandler
 .text          0x0002d3f0      0x414 build/aws_demos/debug/_ext/306685378/atca_basic_verify.o
                0x0002d3f0                atcab_verify
                0x0002d652                atcab_verify_extern
                0x0002d6cc                atcab_verify_extern_mac
                0x0002d6ec                atcab_verify_stored
                0x0002d75c                atcab_verify_stored_mac
                0x0002d780                atcab_verify_validate
                0x0002d7c2                atcab_verify_invalidate
 .text          0x0002d804      0x410 build/aws_demos/debug/_ext/1326886903/pkcs11_object.o
                0x0002d804                pkcs11_object_get_class
                0x0002d81a                pkcs11_object_get_type
                0x0002d830                pkcs11_object_alloc
                0x0002d8a8                pkcs11_object_free
                0x0002d8d4                pkcs11_object_check
                0x0002d924                pkcs11_object_get_handle
                0x0002d970                pkcs11_object_get_name
                0x0002d99e                pkcs11_object_get_destroyable
                0x0002d9ba                pkcs11_object_get_size
                0x0002d9f8                pkcs11_object_find
                0x0002da8c                pkcs11_object_create
                0x0002db96                pkcs11_object_destroy
                0x0002dbe6                pkcs11_object_deinit
 .text          0x0002dc14      0x40c build/aws_demos/debug/_ext/811507611/event_groups.o
                0x0002dc14                xEventGroupCreateStatic
                0x0002dc64                xEventGroupCreate
                0x0002dc80                xEventGroupWaitBits
                0x0002dd88                xEventGroupClearBits
                0x0002ddc8                vEventGroupClearBitsCallback
                0x0002ddd0                xEventGroupClearBitsFromISR
                0x0002dde4                xEventGroupGetBitsFromISR
                0x0002de00                xEventGroupSetBits
                0x0002de98                xEventGroupSync
                0x0002dfa8                vEventGroupSetBitsCallback
                0x0002dfb0                vEventGroupDelete
                0x0002dffc                xEventGroupSetBitsFromISR
                0x0002e010                uxEventGroupGetNumber
                0x0002e01a                vEventGroupSetNumber
 .text          0x0002e020      0x3f8 build/aws_demos/debug/_ext/684768522/asn1parse.o
                0x0002e020                mbedtls_asn1_get_len
                0x0002e0e6                mbedtls_asn1_get_tag
                0x0002e10c                mbedtls_asn1_get_bool
                0x0002e144                mbedtls_asn1_get_int
                0x0002e1a0                mbedtls_asn1_get_mpi
                0x0002e1d0                mbedtls_asn1_get_bitstring
                0x0002e21e                mbedtls_asn1_get_bitstring_null
                0x0002e254                mbedtls_asn1_get_sequence_of
                0x0002e2e2                mbedtls_asn1_get_alg
                0x0002e37e                mbedtls_asn1_get_alg_null
                0x0002e3b4                mbedtls_asn1_free_named_data
                0x0002e3d2                mbedtls_asn1_free_named_data_list
                0x0002e3f2                mbedtls_asn1_find_named_data
 .text          0x0002e418      0x3ec build/aws_demos/debug/_ext/1916130672/plib_sercom4_spi.o
                0x0002e418                SERCOM4_SPI_Initialize
                0x0002e450                SERCOM4_SPI_TransferSetup
                0x0002e4d8                SERCOM4_SPI_CallbackRegister
                0x0002e4e4                SERCOM4_SPI_IsBusy
                0x0002e500                SERCOM4_SPI_WriteRead
                0x0002e654                SERCOM4_SPI_Write
                0x0002e660                SERCOM4_SPI_Read
                0x0002e670                SERCOM4_SPI_InterruptHandler
 .text          0x0002e804      0x3e8 build/aws_demos/debug/_ext/684768522/base64.o
                0x0002e804                mbedtls_base64_encode
                0x0002e944                mbedtls_base64_decode
                0x0002eaf8                mbedtls_base64_self_test
 .text          0x0002ebec      0x3e8 build/aws_demos/debug/_ext/684768522/pk_wrap.o
 .text          0x0002efd4      0x3e4 build/aws_demos/debug/_ext/1326886903/pkcs11_find.o
                0x0002f12c                pkcs11_find_init
                0x0002f24c                pkcs11_find_continue
                0x0002f2da                pkcs11_find_finish
                0x0002f30c                pkcs11_find_get_attribute
 .text          0x0002f3b8      0x3e4 build/aws_demos/debug/_ext/1843785878/plib_dmac.o
                0x0002f3b8                DMAC_Initialize
                0x0002f464                DMAC_ChannelTransfer
                0x0002f50c                DMAC_ChannelIsBusy
                0x0002f520                DMAC_ChannelDisable
                0x0002f54c                DMAC_ChannelGetTransferredCount
                0x0002f564                DMAC_ChannelCallbackRegister
                0x0002f574                DMAC_ChannelSettingsGet
                0x0002f584                DMAC_ChannelSettingsSet
                0x0002f5a4                DMAC_0_InterruptHandler
                0x0002f600                DMAC_1_InterruptHandler
                0x0002f65c                DMAC_2_InterruptHandler
                0x0002f6bc                DMAC_3_InterruptHandler
                0x0002f71c                DMAC_OTHER_InterruptHandler
 .text          0x0002f79c      0x3e4 build/aws_demos/debug/_ext/520142351/iot_threads_freertos.o
                0x0002f7b4                Iot_CreateDetachedThread
                0x0002f850                IotMutex_Create
                0x0002f8a0                IotMutex_Destroy
                0x0002f8bc                prIotMutexTimedLock
                0x0002f910                IotMutex_Lock
                0x0002f91c                IotMutex_TryLock
                0x0002f926                IotMutex_Unlock
                0x0002f970                IotSemaphore_Create
                0x0002f9b0                IotSemaphore_GetCount
                0x0002f9f0                IotSemaphore_Destroy
                0x0002fa28                IotSemaphore_Wait
                0x0002fa8c                IotSemaphore_TimedWait
                0x0002faec                IotSemaphore_TryWait
                0x0002fb28                IotSemaphore_Post

.rodata%166     0x0002fb80      0x3d4
 .rodata        0x0002fb80      0x3d4 build/aws_demos/debug/_ext/684768522/rsa.o

.text%167       0x0002ff54      0x3c4
 .text          0x0002ff54      0x3c4 build/aws_demos/debug/_ext/1326886903/pkcs11_key.o
                0x0002ff54                pkcs11_key_get_derivekey_flag
                0x0002ff84                pkcs11_key_get_local_flag
                0x0002ffb8                pkcs11_key_get_allowed_mechanisms
                0x0002fff0                pkcs11_key_get_ec_params
                0x00030004                pkcs11_key_get_public_key
                0x00030070                pkcs11_key_get_ec_point
                0x000300da                pkcs11_key_get_gen_mechanism
                0x000300de                pkcs11_key_write
                0x000301a4                pkcs11_key_generate_pair

.rodata%168     0x00030318      0x3bc
 .rodata        0x00030318      0x3bc build/aws_demos/debug/_ext/520142351/iot_network_freertos.o
                0x000306b8                IotNetworkAfr

.text%169       0x000306d4      0xab0
 .text          0x000306d4      0x3b0 build/aws_demos/debug/_ext/13066905/iot_device_metrics.o
                0x00030748                Utils_generateMD5Hash
                0x00030980                getDeviceIdentifier
                0x00030a0c                getDeviceMetrics
                0x00030a74                getDeviceMetricsLength
 .text          0x00030a84      0x390 build/aws_demos/debug/_ext/731420310/plib_sercom2_usart.o
                0x00030aa8                SERCOM2_USART_Initialize
                0x00030afc                SERCOM2_USART_FrequencyGet
                0x00030b04                SERCOM2_USART_SerialSetup
                0x00030c40                SERCOM2_USART_ErrorGet
                0x00030c5c                SERCOM2_USART_Write
                0x00030ca4                SERCOM2_USART_WriteIsBusy
                0x00030cb0                SERCOM2_USART_WriteCountGet
                0x00030cbc                SERCOM2_USART_WriteCallbackRegister
                0x00030cc8                SERCOM2_USART_Read
                0x00030d08                SERCOM2_USART_ReadIsBusy
                0x00030d14                SERCOM2_USART_ReadCountGet
                0x00030d20                SERCOM2_USART_ReadCallbackRegister
                0x00030d2c                SERCOM2_USART_InterruptHandler
 .text          0x00030e14      0x370 c:/program files/microchip/xc32/v2.40/bin/bin/../../lib/gcc/pic32c/6.2.1/v7e-m/fpv4-sp/hard\libgcc.a(_arm_addsubdf3.o)
                0x00030e14                __aeabi_drsub
                0x00030e1c                __aeabi_dsub
                0x00030e1c                __subdf3
                0x00030e20                __aeabi_dadd
                0x00030e20                __adddf3
                0x00031098                __floatunsidf
                0x00031098                __aeabi_ui2d
                0x000310b8                __floatsidf
                0x000310b8                __aeabi_i2d
                0x000310dc                __aeabi_f2d
                0x000310dc                __extendsfdf2
                0x00031118                __floatundidf
                0x00031118                __aeabi_ul2d
                0x00031128                __floatdidf
                0x00031128                __aeabi_l2d

.rodata%172     0x00031184      0x35c
 .rodata        0x00031184      0x35c build/aws_demos/debug/_ext/1326886903/pkcs11_key.o
                0x000311c4                pkcs11_key_public_attributes
                0x0003128c                pkcs11_key_secret_attributes_count
                0x00031290                pkcs11_key_secret_attributes
                0x00031380                pkcs11_key_ec_private_attributes
                0x00031390                pkcs11_key_rsa_private_attributes
                0x000313d0                pkcs11_key_private_attributes_count
                0x000313d4                pkcs11_key_private_attributes
                0x000314cc                pkcs11_key_ec_public_attributes
                0x000314dc                pkcs11_key_public_attributes_count

.text%173       0x000314e0      0xc9c
 .text          0x000314e0      0x358 build/aws_demos/debug/_ext/1385882503/port.o
                0x00031550                pxPortInitialiseStack
                0x0003157c                vPortSVCHandler
                0x000315a4                vPortEndScheduler
                0x000315c4                vPortEnterCritical
                0x00031608                vPortExitCritical
                0x00031634                xPortPendSVHandler
                0x00031694                xPortSysTickHandler
                0x000316c0                vPortSetupTimerInterrupt
                0x000316e8                xPortStartScheduler
                0x000317dc                vPortValidateInterruptPriority
 .text          0x00031838      0x328 build/aws_demos/debug/_ext/684768522/pk.o
                0x00031838                mbedtls_pk_init
                0x00031840                mbedtls_pk_free
                0x0003185c                mbedtls_pk_info_from_type
                0x00031890                mbedtls_pk_setup
                0x000318c0                mbedtls_pk_setup_rsa_alt
                0x00031900                mbedtls_pk_can_do
                0x00031918                mbedtls_pk_verify_restartable
                0x00031968                mbedtls_pk_verify
                0x00031980                mbedtls_pk_verify_ext
                0x000319d4                mbedtls_pk_sign_restartable
                0x00031a2c                mbedtls_pk_sign
                0x00031a4c                mbedtls_pk_decrypt
                0x00031a80                mbedtls_pk_encrypt
                0x00031ab4                mbedtls_pk_check_pair
                0x00031af8                mbedtls_pk_get_bitlen
                0x00031b10                mbedtls_pk_debug
                0x00031b34                mbedtls_pk_get_name
                0x00031b4c                mbedtls_pk_get_type
 .text          0x00031b60      0x318 build/aws_demos/debug/_ext/1326886903/pkcs11_session.o
                0x00031b60                memset_s
                0x00031ba0                pkcs11_get_session_context
                0x00031ba2                pkcs11_session_check
                0x00031bc8                pkcs11_session_open
                0x00031c4c                pkcs11_session_close
                0x00031c84                pkcs11_session_closeall
                0x00031cc4                pkcs11_session_get_info
                0x00031d0c                pkcs11_session_login
                0x00031d62                pkcs11_session_logout
                0x00031d9c                pkcs11_session_authorize
 .text          0x00031e78      0x304 build/aws_demos/debug/_ext/1534684544/sys_console.o
                0x00031e78                SYS_CONSOLE_Initialize
                0x00031edc                SYS_CONSOLE_Status
                0x00031f2c                SYS_CONSOLE_HandleGet
                0x00031f36                SYS_CONSOLE_DeviceGet
                0x00031f50                SYS_CONSOLE_Tasks
                0x00031f78                SYS_CONSOLE_Read
                0x00031fac                SYS_CONSOLE_ReadFreeBufferCountGet
                0x00031fe0                SYS_CONSOLE_ReadCountGet
                0x00032014                SYS_CONSOLE_Write
                0x00032048                SYS_CONSOLE_WriteFreeBufferCountGet
                0x0003207c                SYS_CONSOLE_WriteCountGet
                0x000320b0                SYS_CONSOLE_Print
                0x00032120                SYS_CONSOLE_Message
                0x00032150                SYS_CONSOLE_Flush

.text._tzset_unlocked_r%177
                0x0003217c      0x304
 .text._tzset_unlocked_r
                0x0003217c      0x304 c:/program files/microchip/xc32/v2.40/bin/bin/../../lib/gcc/pic32c/6.2.1/../../../../pic32c/lib/v7e-m/fpv4-sp/hard\libg_nano.a(lib_a-tzset_r.o)
                0x0003217c                _tzset_unlocked_r

.text.mktime%178
                0x00032480      0x2f0
 .text.mktime   0x00032480      0x2f0 c:/program files/microchip/xc32/v2.40/bin/bin/../../lib/gcc/pic32c/6.2.1/../../../../pic32c/lib/v7e-m/fpv4-sp/hard\libg_nano.a(lib_a-mktime.o)
                0x00032480                mktime

.rodata%179     0x00032770      0x2e8
 .rodata        0x00032770      0x2e8 build/aws_demos/debug/_ext/1991396724/sys_command.o
                0x000329dc                sysConsoleApi

.text%180       0x00032a58      0x2e4
 .text          0x00032a58      0x2e4 build/aws_demos/debug/_ext/1223942466/iot_demo_freertos.o
                0x00032b28                demoGetMqttSerializer
                0x00032b2c                runDemoTask
                0x00032cfc                vApplicationMallocFailedHook
                0x00032d1c                vApplicationStackOverflowHook

.rodata%181     0x00032d3c      0x2dc
 .rodata        0x00032d3c      0x2dc build/aws_demos/debug/_ext/2009324866/aws_wifi.o
                0x00033010                xSemaphoreWaitTicks
                0x00033014                address

.text%182       0x00033018      0x864
 .text          0x00033018      0x2d4 build/aws_demos/debug/_ext/1168480030/heap_4.o
                0x0003306c                pvPortMalloc
                0x000331b8                vPortFree
                0x00033260                xPortGetFreeHeapSize
                0x0003326c                xPortGetMinimumEverFreeHeapSize
                0x00033278                vPortInitialiseBlocks
                0x0003327a                vPortGetHeapStats
 .text          0x000332ec      0x2cc build/aws_demos/debug/_ext/1070826718/sha2_routines.o
                0x00033440                sw_sha256_init
                0x000334a4                sw_sha256_update
                0x00033514                sw_sha256_final
                0x00033590                sw_sha256
 .text          0x000335b8      0x2c4 build/aws_demos/debug/_ext/1070826718/sha1_routines.o
                0x000335b8                CL_hashInit
                0x000335dc                shaEngine
                0x00033710                CL_hashUpdate
                0x000337ac                CL_hashFinal
                0x00033856                CL_hash

.rodata%185     0x0003387c      0x2b8
 .rodata        0x0003387c      0x2b8 build/aws_demos/debug/_ext/684768522/sha256.o

.text%186       0x00033b34      0x56c
 .text          0x00033b34      0x2b8 c:/program files/microchip/xc32/v2.40/bin/bin/../../lib/gcc/pic32c/6.2.1/v7e-m/fpv4-sp/hard\libgcc.a(_udivmoddi4.o)
                0x00033b34                __udivmoddi4
 .text          0x00033dec      0x2b4 build/aws_demos/debug/_ext/2138053595/iot_pkcs11.o
                0x00033dec                xGetSlotList
                0x00033e46                prvOpenSession
                0x00033e72                xInitializePKCS11
                0x00033ea4                xInitializePkcs11Token
                0x00033f34                xInitializePkcs11Session
                0x00033fa4                xFindObjectWithLabelAndClass
                0x00034024                vAppendSHA256AlgorithmIdentifierSequence

.rodata%188     0x000340a0      0x2b0
 .rodata        0x000340a0      0x2b0 build/aws_demos/debug/_ext/1223942466/iot_demo_freertos.o

.text%189       0x00034350      0x2b0
 .text          0x00034350      0x2b0 build/aws_demos/debug/_ext/2146650376/hal_i2c_harmony.o
                0x00034350                hal_i2c_discover_buses
                0x00034358                hal_i2c_discover_devices
                0x0003435c                hal_i2c_init
                0x00034360                hal_i2c_post_init
                0x00034364                hal_i2c_send
                0x000343b4                hal_i2c_receive
                0x00034482                change_i2c_speed
                0x000344a8                hal_i2c_wake
                0x0003455c                hal_i2c_idle
                0x000345ac                hal_i2c_sleep
                0x000345fc                hal_i2c_release

.text.__ssvfscanf_r%190
                0x00034600      0x2a8
 .text.__ssvfscanf_r
                0x00034600      0x2a8 c:/program files/microchip/xc32/v2.40/bin/bin/../../lib/gcc/pic32c/6.2.1/../../../../pic32c/lib/v7e-m/fpv4-sp/hard\libg_nano.a(lib_a-nano-svfscanf.o)
                0x00034600                __ssvfiscanf_r
                0x00034600                __ssvfscanf_r

.text%191       0x000348a8      0x734
 .text          0x000348a8      0x27c build/aws_demos/debug/_ext/1326886903/pkcs11_slot.o
                0x000348a8                pkcs11_slot_get_context
                0x000348ca                pkcs11_slot_initslots
                0x000348e0                pkcs11_slot_config
                0x00034910                pkcs11_slot_init
                0x000349a2                pkcs11_slot_get_list
                0x00034a28                pkcs11_slot_get_info
 .text          0x00034b24      0x278 build/aws_demos/debug/_ext/306685378/atca_basic.o
                0x00034b24                atcab_version
                0x00034b3c                atcab_release
                0x00034b58                atcab_init
                0x00034bc8                atcab_init_device
                0x00034c00                atcab_get_device
                0x00034c0c                atcab_get_device_type
                0x00034c24                atcab_wakeup
                0x00034c3c                atcab_idle
                0x00034c54                atcab_sleep
                0x00034c6c                atcab_cfg_discover
                0x00034cca                _atcab_exit
                0x00034cd2                atcab_get_addr
                0x00034d12                atcab_get_zone_size
 .text          0x00034d9c      0x240 build/aws_demos/debug/_ext/1972722184/iot_pkcs11_secure_element.o
                0x00034d9c                pcPkcs11GetThingName
                0x00034e24                pkcs11_config_cert
                0x00034eb0                pkcs11_config_key
                0x00034f20                pkcs11_config_load_objects

.text._printf_i%194
                0x00034fdc      0x240
 .text._printf_i
                0x00034fdc      0x240 c:/program files/microchip/xc32/v2.40/bin/bin/../../lib/gcc/pic32c/6.2.1/../../../../pic32c/lib/v7e-m/fpv4-sp/hard\libg_nano.a(lib_a-nano-vfprintf_i.o)
                0x00034fdc                _printf_i

.text%195       0x0003521c      0x22c
 .text          0x0003521c      0x22c build/aws_demos/debug/_ext/2090543044/nmdrv.o
                0x0003521c                nm_get_hif_info
                0x00035250                nm_get_firmware_full_info
                0x000352e4                nm_get_ota_firmware_info
                0x00035378                nm_drv_init_download_mode
                0x000353a0                nm_drv_init_hold
                0x000353be                nm_drv_init_start
                0x00035408                nm_drv_init
                0x00035422                nm_drv_deinit
                0x00035440                nm_cpu_start

.rodata%196     0x00035448      0x22c
 .rodata        0x00035448      0x22c build/aws_demos/debug/_ext/520142351/iot_threads_freertos.o

.text%197       0x00035674      0x220
 .text          0x00035674      0x220 build/aws_demos/debug/_ext/227692215/iot_logging.o
                0x00035674                IotLog_Generic
                0x0003580c                IotLog_GenericPrintBuffer

.rodata%198     0x00035894      0x21c
 .rodata        0x00035894      0x21c build/aws_demos/debug/_ext/684768522/ecp.o

.text%199       0x00035ab0      0x42c
 .text          0x00035ab0      0x21c build/aws_demos/debug/_ext/350635301/iot_crypto.o
                0x00035ab0                aws_mbedtls_mutex_init
                0x00035ad4                aws_mbedtls_mutex_free
                0x00035aec                aws_mbedtls_mutex_lock
                0x00035b1c                aws_mbedtls_mutex_unlock
                0x00035b68                CRYPTO_ConfigureHeap
                0x00035b7c                CRYPTO_ConfigureThreading
                0x00035b9c                CRYPTO_Init
                0x00035ba8                CRYPTO_SignatureVerificationStart
                0x00035bf4                CRYPTO_SignatureVerificationUpdate
                0x00035c0c                CRYPTO_SignatureVerificationFinal
 .text          0x00035ccc      0x210 build/aws_demos/debug/_ext/520142351/iot_clock_freertos.o
                0x00035d04                IotClock_GetTimeMs
                0x00035d26                IotClock_GetTimestring
                0x00035d78                IotClock_SleepMs
                0x00035d94                IotClock_TimerCreate
                0x00035e00                IotClock_TimerDestroy
                0x00035e70                IotClock_TimerArm

.rodata%201     0x00035edc      0x20c
 .rodata        0x00035edc      0x20c build/aws_demos/debug/_ext/1326886903/pkcs11_cert.o
                0x00035edc                pkcs11_cert_x509_attributes_count
                0x00035ee0                pkcs11_cert_x509_attributes
                0x00035f78                pkcs11_cert_wtlspublic_attributes_count
                0x00035f7c                pkcs11_cert_wtlspublic_attributes
                0x00036024                pkcs11_cert_x509public_attributes_count
                0x00036028                pkcs11_cert_x509public_attributes

.text%202       0x000360e8      0x5dc
 .text          0x000360e8      0x1f4 build/aws_demos/debug/_ext/1326886903/pkcs11_main.o
                0x000360e8                C_Initialize
                0x000360f0                C_Finalize
                0x000360f8                C_GetInfo
                0x00036100                C_GetFunctionList
                0x00036114                C_GetSlotList
                0x0003611c                C_GetSlotInfo
                0x00036124                C_GetTokenInfo
                0x0003612c                C_GetMechanismList
                0x00036134                C_GetMechanismInfo
                0x0003613c                C_InitToken
                0x00036144                C_InitPIN
                0x00036148                C_SetPIN
                0x00036158                C_OpenSession
                0x00036168                C_CloseSession
                0x00036170                C_CloseAllSessions
                0x00036178                C_GetSessionInfo
                0x00036180                C_GetOperationState
                0x00036184                C_SetOperationState
                0x00036188                C_Login
                0x00036190                C_Logout
                0x00036198                C_CreateObject
                0x000361a0                C_CopyObject
                0x000361a4                C_DestroyObject
                0x000361ac                C_GetObjectSize
                0x000361b4                C_GetAttributeValue
                0x000361bc                C_SetAttributeValue
                0x000361c0                C_FindObjectsInit
                0x000361c8                C_FindObjects
                0x000361d0                C_FindObjectsFinal
                0x000361d8                C_EncryptInit
                0x000361dc                C_Encrypt
                0x000361e0                C_EncryptUpdate
                0x000361e4                C_EncryptFinal
                0x000361e8                C_DecryptInit
                0x000361ec                C_Decrypt
                0x000361f0                C_DecryptUpdate
                0x000361f4                C_DecryptFinal
                0x000361f8                C_DigestInit
                0x00036200                C_Digest
                0x00036210                C_DigestUpdate
                0x00036218                C_DigestKey
                0x0003621c                C_DigestFinal
                0x00036224                C_SignInit
                0x0003622c                C_Sign
                0x0003623c                C_SignUpdate
                0x00036244                C_SignFinal
                0x0003624c                C_SignRecoverInit
                0x00036250                C_SignRecover
                0x00036254                C_VerifyInit
                0x0003625c                C_Verify
                0x0003626c                C_VerifyUpdate
                0x00036274                C_VerifyFinal
                0x0003627c                C_VerifyRecoverInit
                0x00036280                C_VerifyRecover
                0x00036284                C_DigestEncryptUpdate
                0x00036288                C_DecryptDigestUpdate
                0x0003628c                C_SignEncryptUpdate
                0x00036290                C_DecryptVerifyUpdate
                0x00036294                C_GenerateKey
                0x00036298                C_GenerateKeyPair
                0x000362b4                C_WrapKey
                0x000362b8                C_UnwrapKey
                0x000362bc                C_DeriveKey
                0x000362c0                C_SeedRandom
                0x000362c6                C_GenerateRandom
                0x000362ce                C_GetFunctionStatus
                0x000362d2                C_CancelFunction
                0x000362d6                C_WaitForSlotEvent
 .text          0x000362dc      0x1f4 build/aws_demos/debug/_ext/1833802790/wdrv_winc_socket.o
                0x00036302                WDRV_WINC_IPAddressSet
                0x00036328                WDRV_WINC_IPAddressGet
                0x00036346                WDRV_WINC_IPDNSServerAddressSet
                0x0003636a                WDRV_WINC_IPDefaultGatewaySet
                0x0003638e                WDRV_WINC_IPUseDHCPSet
                0x000363b2                WDRV_WINC_IPUseDHCPGet
                0x000363cc                WDRV_WINC_IPDHCPServerConfigure
                0x000363e8                WDRV_WINC_IPLinkActive
                0x000363f4                WDRV_WINC_ICMPEchoRequest
                0x0003642c                WDRV_WINC_OTAUpdateFromURL
                0x00036468                WDRV_WINC_OTAUpdateAbort
                0x00036490                WDRV_WINC_SwitchActiveFirmwareImage
                0x000364ac                WDRV_WINC_SocketRegisterEventCallback
                0x000364be                WDRV_WINC_SocketRegisterResolverCallback
 .text          0x000364d0      0x1f4 build/aws_demos/debug/_ext/2077790016/mbedtls_utils.o
                0x000364d0                convert_pem_to_der
                0x000365b0                PKI_RSA_RSASSA_PKCS1_v15_Encode

.text._vfprintf_r%205
                0x000366c4      0x1f4
 .text._vfprintf_r
                0x000366c4      0x1f4 c:/program files/microchip/xc32/v2.40/bin/bin/../../lib/gcc/pic32c/6.2.1/../../../../pic32c/lib/v7e-m/fpv4-sp/hard\libg_nano.a(lib_a-nano-vfprintf.o)
                0x000366c4                _vfprintf_r
                0x000366c4                _vfiprintf_r

.text%206       0x000368b8      0x1e8
 .text          0x000368b8      0x1e8 build/aws_demos/debug/_ext/306685378/atca_basic_privwrite.o
                0x000368b8                atcab_priv_write

.text._scanf_i%207
                0x00036aa0      0x1e8
 .text._scanf_i
                0x00036aa0      0x1e8 c:/program files/microchip/xc32/v2.40/bin/bin/../../lib/gcc/pic32c/6.2.1/../../../../pic32c/lib/v7e-m/fpv4-sp/hard\libg_nano.a(lib_a-nano-vfscanf_i.o)
                0x00036aa0                _scanf_i

.text%208       0x00036c88      0x92c
 .text          0x00036c88      0x1e4 build/aws_demos/debug/_ext/665618993/plib_nvmctrl.o
                0x00036c88                NVMCTRL_Initialize
                0x00036c98                NVMCTRL_Read
                0x00036ca8                NVMCTRL_SetWriteMode
                0x00036cbc                NVMCTRL_QuadWordWrite
                0x00036d08                NVMCTRL_DoubleWordWrite
                0x00036d48                NVMCTRL_PageWrite
                0x00036d80                NVMCTRL_BlockErase
                0x00036d9c                NVMCTRL_ErrorGet
                0x00036dc0                NVMCTRL_StatusGet
                0x00036dcc                NVMCTRL_IsBusy
                0x00036ddc                NVMCTRL_RegionLock
                0x00036dec                NVMCTRL_RegionUnlock
                0x00036dfc                NVMCTRL_RegionLockStatusGet
                0x00036e08                NVMCTRL_SmartEEPROM_IsBusy
                0x00036e18                NVMCTRL_SmartEEPROMStatusGet
                0x00036e24                NVMCTRL_SmartEEPROM_IsActiveSectorFull
                0x00036e34                NVMCTRL_BankSwap
                0x00036e44                NVMCTRL_SmartEEPROMSectorReallocate
                0x00036e54                NVMCTRL_SmartEEPROMFlushPageBuffer
 .text          0x00036e6c      0x1d8 build/aws_demos/debug/_ext/384060547/wdrv_winc_spi.o
                0x00036f30                WDRV_WINC_SPISend
                0x00036f72                WDRV_WINC_SPIReceive
                0x00036fb4                WDRV_WINC_SPIInitialize
                0x00037010                WDRV_WINC_SPIDeinitialize
 .text          0x00037044      0x1d4 build/aws_demos/debug/_ext/1326886903/pkcs11_init.o
                0x00037044                pkcs11_get_context
                0x0003704c                pkcs11_lock_context
                0x00037062                pkcs11_unlock_context
                0x00037080                pkcs11_init_check
                0x000370b8                pkcs11_init
                0x000371c8                pkcs11_deinit
 .text          0x00037218      0x1d4 build/aws_demos/debug/_ext/1326886903/pkcs11_signature.o
                0x00037218                pkcs11_signature_sign_init
                0x00037256                pkcs11_signature_sign
                0x000372cc                pkcs11_signature_sign_continue
                0x000372d0                pkcs11_signature_sign_finish
                0x000372d4                pkcs11_signature_verify_init
                0x00037312                pkcs11_signature_verify
                0x000373e4                pkcs11_signature_verify_continue
                0x000373e8                pkcs11_signature_verify_finish
 .text          0x000373ec      0x1c8 build/aws_demos/debug/_ext/1456806047/atcacert_pem.o
                0x000373ec                atcacert_encode_pem
                0x000374bc                atcacert_decode_pem
                0x00037544                atcacert_encode_pem_cert
                0x00037560                atcacert_encode_pem_csr
                0x0003757c                atcacert_decode_pem_cert
                0x00037598                atcacert_decode_pem_csr

.text._svfprintf_r%213
                0x000375b4      0x1c8
 .text._svfprintf_r
                0x000375b4      0x1c8 c:/program files/microchip/xc32/v2.40/bin/bin/../../lib/gcc/pic32c/6.2.1/../../../../pic32c/lib/v7e-m/fpv4-sp/hard\libg_nano.a(lib_a-nano-svfprintf.o)
                0x000375b4                _svfiprintf_r
                0x000375b4                _svfprintf_r

.text.validate_structure%214
                0x0003777c      0x1c0
 .text.validate_structure
                0x0003777c      0x1c0 c:/program files/microchip/xc32/v2.40/bin/bin/../../lib/gcc/pic32c/6.2.1/../../../../pic32c/lib/v7e-m/fpv4-sp/hard\libg_nano.a(lib_a-mktime.o)

.rodata%215     0x0003793c      0x1bc
 .rodata        0x0003793c      0x1bc build/aws_demos/debug/_ext/2009324866/iot_secure_sockets.o

.text%216       0x00037af8      0x1b8
 .text          0x00037af8      0x1b8 build/aws_demos/debug/_ext/227692215/iot_logging_task_dynamic_buffers.o
                0x00037b2c                xLoggingTaskInitialize
                0x00037b88                vLoggingPrintf
                0x00037c58                vLoggingPrint

.rodata%217     0x00037cb0      0x1a8
 .rodata        0x00037cb0      0x1a8 build/aws_demos/debug/_ext/684768522/base64.o

.text%218       0x00037e58      0xc14
 .text          0x00037e58      0x1a4 build/aws_demos/debug/_ext/306685378/atca_basic_ecdh.o
                0x00037e58                atcab_ecdh_base
                0x00037f18                atcab_ecdh
                0x00037f30                atcab_ecdh_enc
                0x00037f74                atcab_ecdh_ioenc
                0x00037fac                atcab_ecdh_tempkey
                0x00037fc4                atcab_ecdh_tempkey_ioenc
 .text          0x00037ffc      0x1a4 build/aws_demos/debug/_ext/1326886903/pkcs11_digest.o
                0x00037ffc                pkcs11_digest_init
                0x00038058                pkcs11_digest
                0x000380dc                pkcs11_digest_update
                0x00038134                pkcs11_digest_final
 .text          0x000381a0      0x19c build/aws_demos/debug/_ext/1534684544/sys_console_uart.o
                0x000381a0                Console_UART_Flush
                0x000381a4                Console_UART_Status
                0x000381b4                Console_UART_Tasks
                0x000381b6                Console_UART_Initialize
                0x000381f4                Console_UART_Read
                0x00038230                Console_UART_WriteCountGet
                0x00038264                Console_UART_WriteFreeBufferCountGet
                0x00038298                Console_UART_Write
                0x000382d4                Console_UART_ReadFreeBufferCountGet
                0x00038308                Console_UART_ReadCountGet
 .text          0x0003833c      0x198 build/aws_demos/debug/_ext/1833802790/wdrv_winc_sta.o
                0x0003833c                WDRV_WINC_BSSConnect
                0x00038472                WDRV_WINC_BSSReconnect
                0x000384a4                WDRV_WINC_BSSDisconnect
 .text          0x000384d4      0x18c build/aws_demos/debug/_ext/1149029443/osal_freertos.o
                0x000384d4                OSAL_CRIT_Enter
                0x000384ec                OSAL_CRIT_Leave
                0x00038502                OSAL_SEM_Create
                0x0003855a                OSAL_SEM_Delete
                0x0003856c                OSAL_SEM_Pend
                0x0003858a                OSAL_SEM_Post
                0x000385a2                OSAL_SEM_PostISR
                0x000385e0                OSAL_SEM_GetCount
                0x000385f2                OSAL_MUTEX_Create
                0x0003860a                OSAL_MUTEX_Delete
                0x00038624                OSAL_MUTEX_Lock
                0x00038642                OSAL_MUTEX_Unlock
                0x0003865a                OSAL_Initialize
 .text          0x00038660      0x160 build/aws_demos/debug/_ext/306685378/atca_basic_nonce.o
                0x00038660                atcab_nonce_base
                0x00038758                atcab_nonce
                0x00038768                atcab_nonce_load
                0x00038790                atcab_nonce_rand
                0x000387a0                atcab_challenge
                0x000387b0                atcab_challenge_seed_update
 .text          0x000387c0      0x158 build/aws_demos/debug/_ext/1323727121/plib_clock.o
                0x000387c0                CLOCK_Initialize
 .text          0x00038918      0x154 build/aws_demos/debug/_ext/684768522/pem.o
                0x00038918                mbedtls_pem_init
                0x00038922                mbedtls_pem_read_buffer
                0x00038a48                mbedtls_pem_free

.text.__tzcalc_limits%226
                0x00038a6c      0x150
 .text.__tzcalc_limits
                0x00038a6c      0x150 c:/program files/microchip/xc32/v2.40/bin/bin/../../lib/gcc/pic32c/6.2.1/../../../../pic32c/lib/v7e-m/fpv4-sp/hard\libg_nano.a(lib_a-tzcalc_limits.o)
                0x00038a6c                __tzcalc_limits

.text%227       0x00038bbc      0x286
 .text          0x00038bbc      0x14c build/aws_demos/debug/_ext/1360937237/main.o
                0x00038bbc                main
                0x00038c60                prvWifiConnect
                0x00038c88                vAssertCalled
                0x00038cd0                vApplicationIdleHook
                0x00038cf4                WIFI_RegisterNetworkStateChangeEventCallback
 .text          0x00038d08      0x13a build/aws_demos/debug/_ext/1326886903/pkcs11_cert.o
                0x00038d08                pkcs11_cert_get_encoded
                0x00038d96                pkcs11_cert_get_type
                0x00038dc8                pkcs11_cert_get_subject_key_id
                0x00038e0c                pkcs11_cert_x509_write

.text%229       0x00038e44      0x138
 .text          0x00038e44      0x138 build/aws_demos/debug/_ext/1326886903/pkcs11_mech.o
                0x00038e44                pkcs11_mech_get_list
                0x00038eb4                pkcs_mech_get_info

.text.gmtime_r%230
                0x00038f7c      0x134
 .text.gmtime_r
                0x00038f7c      0x134 c:/program files/microchip/xc32/v2.40/bin/bin/../../lib/gcc/pic32c/6.2.1/../../../../pic32c/lib/v7e-m/fpv4-sp/hard\libg_nano.a(lib_a-gmtime_r.o)
                0x00038f7c                gmtime_r

.rodata%231     0x000390b0      0x37c
 .rodata        0x000390b0      0x130 build/aws_demos/debug/_ext/684768522/pkparse.o
 .rodata        0x000391e0      0x128 build/aws_demos/debug/_ext/684768522/pk_wrap.o
                0x00039200                mbedtls_rsa_alt_info
                0x00039238                mbedtls_ecdsa_info
                0x00039270                mbedtls_eckeydh_info
                0x000392a4                mbedtls_eckey_info
                0x000392d8                mbedtls_rsa_info
 .rodata        0x00039308      0x124 build/aws_demos/debug/_ext/2104392270/drv_spi.o

.text%234       0x0003942c      0x120
 .text          0x0003942c      0x120 build/aws_demos/debug/_ext/1110296786/plib_tc3.o
                0x0003942c                TC3_TimerInitialize
                0x0003946c                TC3_TimerStart
                0x00039484                TC3_TimerStop
                0x0003949c                TC3_TimerFrequencyGet
                0x000394a4                TC3_Timer16bitCounterGet
                0x000394cc                TC3_Timer16bitCounterSet
                0x000394e0                TC3_Timer16bitPeriodSet
                0x000394f4                TC3_Timer16bitPeriodGet
                0x00039500                TC3_Timer16bitCompareSet
                0x00039514                TC3_TimerCallbackRegister
                0x00039520                TC3_TimerInterruptHandler

.rodata%235     0x0003954c      0x118
 .rodata        0x0003954c      0x118 build/aws_demos/debug/_ext/684768522/sha1.o

.text.__sflush_r%236
                0x00039664      0x110
 .text.__sflush_r
                0x00039664      0x110 c:/program files/microchip/xc32/v2.40/bin/bin/../../lib/gcc/pic32c/6.2.1/../../../../pic32c/lib/v7e-m/fpv4-sp/hard\libg_nano.a(lib_a-fflush.o)
                0x00039664                __sflush_r

.text%237       0x00039774      0x20c
 .text          0x00039774      0x108 build/aws_demos/debug/_ext/2090543044/m2m_ota.o
                0x000397ac                m2m_ota_init
                0x000397c8                m2m_ota_start_update
                0x000397ec                m2m_ota_rollback
                0x00039826                m2m_ota_abort
                0x00039842                m2m_ota_switch_firmware
 .text          0x0003987c      0x104 build/aws_demos/debug/_ext/1833802790/wdrv_winc_systime.o
                0x0003987c                WDRV_WINC_LocalTimeToUTC
                0x000398b8                WDRV_WINC_UTCToLocalTime
                0x000398f4                WDRV_WINC_SystemTimeSNTPClientEnable
                0x00039914                WDRV_WINC_SystemTimeSNTPClientDisable
                0x00039934                WDRV_WINC_SystemTimeSetCurrent
                0x0003995c                WDRV_WINC_SystemTimeGetCurrent

.rodata._ctype_%239
                0x00039980      0x101
 .rodata._ctype_
                0x00039980      0x101 c:/program files/microchip/xc32/v2.40/bin/bin/../../lib/gcc/pic32c/6.2.1/../../../../pic32c/lib/v7e-m/fpv4-sp/hard\libg_nano.a(lib_a-ctype_.o)
                0x00039980                _ctype_

.rodata%240     0x00039a84      0x200
 .rodata        0x00039a84      0x100 build/aws_demos/debug/_ext/1070826718/sha2_routines.o
 .rodata        0x00039b84      0x100 build/aws_demos/debug/_ext/2090543044/nmspi.o

.text._strtol_l.isra.0%242
                0x00039c84      0x100
 .text._strtol_l.isra.0
                0x00039c84      0x100 c:/program files/microchip/xc32/v2.40/bin/bin/../../lib/gcc/pic32c/6.2.1/../../../../pic32c/lib/v7e-m/fpv4-sp/hard\libg_nano.a(lib_a-strtol.o)

.text%243       0x00039d84       0xfc
 .text          0x00039d84       0xfc build/aws_demos/debug/_ext/1843479071/plib_nvic.o
                0x00039d84                NVIC_Initialize

.text._strtoul_l.isra.0%244
                0x00039e80       0xfa
 .text._strtoul_l.isra.0
                0x00039e80       0xfa c:/program files/microchip/xc32/v2.40/bin/bin/../../lib/gcc/pic32c/6.2.1/../../../../pic32c/lib/v7e-m/fpv4-sp/hard\libg_nano.a(lib_a-strtoul.o)

.text%245       0x00039f7a       0xec
 .text          0x00039f7a       0xec build/aws_demos/debug/_ext/1009855837/atca_device.o
                0x00039f7a                initATCADevice
                0x00039fb6                newATCADevice
                0x0003a01e                atGetCommands
                0x0003a022                atGetIFace
                0x0003a026                releaseATCADevice
                0x0003a036                deleteATCADevice

.text%246       0x0003a068      0x1d8
 .text          0x0003a068       0xec build/aws_demos/debug/_ext/306685378/atca_basic_checkmac.o
                0x0003a068                atcab_checkmac
 .text          0x0003a154       0xec build/aws_demos/debug/_ext/59476128/plib_eic.o
                0x0003a154                EIC_Initialize
                0x0003a1d4                EIC_InterruptEnable
                0x0003a1e4                EIC_InterruptDisable
                0x0003a1f4                EIC_CallbackRegister
                0x0003a220                EIC_EXTINT_7_InterruptHandler

.text._printf_common%248
                0x0003a240       0xec
 .text._printf_common
                0x0003a240       0xec c:/program files/microchip/xc32/v2.40/bin/bin/../../lib/gcc/pic32c/6.2.1/../../../../pic32c/lib/v7e-m/fpv4-sp/hard\libg_nano.a(lib_a-nano-vfprintf_i.o)
                0x0003a240                _printf_common

.text%249       0x0003a32c      0x2a8
 .text          0x0003a32c       0xe4 build/aws_demos/debug/_ext/1009855837/atca_iface.o
                0x0003a32c                atsend
                0x0003a334                atreceive
                0x0003a33c                atwake
                0x0003a358                atidle
                0x0003a36a                atsleep
                0x0003a37c                atgetifacecfg
                0x0003a380                atgetifacehaldat
                0x0003a384                releaseATCAIface
                0x0003a396                _atinit
                0x0003a3c6                atinit
                0x0003a3f2                initATCAIface
 .text          0x0003a410       0xe4 build/aws_demos/debug/_ext/1833802790/wdrv_winc_bssctx.o
                0x0003a410                WDRV_WINC_BSSCtxIsValid
                0x0003a446                WDRV_WINC_BSSCtxSetDefaults
                0x0003a460                WDRV_WINC_BSSCtxSetSSID
                0x0003a4a4                WDRV_WINC_BSSCtxSetChannel
                0x0003a4d4                WDRV_WINC_BSSCtxSetSSIDVisibility
 .text          0x0003a4f4       0xe0 build/aws_demos/debug/_ext/2090543044/nmbus.o
                0x0003a4f4                nm_bus_iface_init
                0x0003a504                nm_bus_iface_deinit
                0x0003a508                nm_bus_iface_reconfigure
                0x0003a50c                nm_read_reg
                0x0003a514                nm_read_reg_with_ret
                0x0003a51c                nm_write_reg
                0x0003a524                nm_read_block
                0x0003a57c                nm_write_block

.rodata%252     0x0003a5d4       0xe0
 .rodata        0x0003a5d4       0xe0 build/aws_demos/debug/_ext/1534096987/initialization.o
                0x0003a5d4                drvSPI0InitData
                0x0003a604                sysTimeInitData
                0x0003a60c                sysConsole0Init
                0x0003a618                sysCmdInit
                0x0003a61c                debugInit
                0x0003a620                sysConsole0UARTInitData
                0x0003a624                sysConsole0UARTPlibAPI
                0x0003a63c                sysTimePlibAPI
                0x0003a658                drvSPI0InterruptSources
                0x0003a670                drvSPI0remapClockPhase
                0x0003a678                drvSPI0remapClockPolarity
                0x0003a680                drvSPI0remapDataBits
                0x0003a6a4                drvSPI0PlibAPI

.text.__swsetup_r%253
                0x0003a6b4       0xdc
 .text.__swsetup_r
                0x0003a6b4       0xdc c:/program files/microchip/xc32/v2.40/bin/bin/../../lib/gcc/pic32c/6.2.1/../../../../pic32c/lib/v7e-m/fpv4-sp/hard\libg_nano.a(lib_a-wsetup.o)
                0x0003a6b4                __swsetup_r

.text%254       0x0003a790       0xd4
 .text          0x0003a790       0xd4 build/aws_demos/debug/_ext/1833802790/wdrv_winc_authctx.o
                0x0003a790                WDRV_WINC_AuthCtxIsValid
                0x0003a7c8                WDRV_WINC_AuthCtxSetDefaults
                0x0003a7d6                WDRV_WINC_AuthCtxSetOpen
                0x0003a7e4                WDRV_WINC_AuthCtxSetWEP
                0x0003a826                WDRV_WINC_AuthCtxSetWPA

.rodata%255     0x0003a864       0xd0
 .rodata        0x0003a864       0xd0 build/aws_demos/debug/_ext/520142351/iot_clock_freertos.o

.text._puts_r%256
                0x0003a934       0xcc
 .text._puts_r  0x0003a934       0xcc c:/program files/microchip/xc32/v2.40/bin/bin/../../lib/gcc/pic32c/6.2.1/../../../../pic32c/lib/v7e-m/fpv4-sp/hard\libg_nano.a(lib_a-puts.o)
                0x0003a934                _puts_r

.text._scanf_chars%257
                0x0003aa00       0xc8
 .text._scanf_chars
                0x0003aa00       0xc8 c:/program files/microchip/xc32/v2.40/bin/bin/../../lib/gcc/pic32c/6.2.1/../../../../pic32c/lib/v7e-m/fpv4-sp/hard\libg_nano.a(lib_a-nano-vfscanf_i.o)
                0x0003aa00                _scanf_chars

.rodata%258     0x0003aac8       0xc0
 .rodata        0x0003aac8       0xc0 build/aws_demos/debug/_ext/1972722184/iot_pkcs11_secure_element.o
                0x0003ab08                atecc608_config

.text%259       0x0003ab88       0xbc
 .text          0x0003ab88       0xbc build/aws_demos/debug/_ext/684768522/md_wrap.o

.text._malloc_r%260
                0x0003ac44       0xbc
 .text._malloc_r
                0x0003ac44       0xbc c:/program files/microchip/xc32/v2.40/bin/bin/../../lib/gcc/pic32c/6.2.1/../../../../pic32c/lib/v7e-m/fpv4-sp/hard\libg_nano.a(lib_a-nano-mallocr.o)
                0x0003ac44                _malloc_r

.text.__swbuf_r%261
                0x0003ad00       0xbc
 .text.__swbuf_r
                0x0003ad00       0xbc c:/program files/microchip/xc32/v2.40/bin/bin/../../lib/gcc/pic32c/6.2.1/../../../../pic32c/lib/v7e-m/fpv4-sp/hard\libg_nano.a(lib_a-wbuf.o)
                0x0003ad00                __swbuf_r

.text%262       0x0003adbc      0x170
 .text          0x0003adbc       0xb8 build/aws_demos/debug/_ext/306685378/atca_basic_sign.o
                0x0003adbc                atcab_sign_base
                0x0003ae10                atcab_sign
                0x0003ae5c                atcab_sign_internal
 .text          0x0003ae74       0xb8 build/aws_demos/debug/_ext/1326886903/pkcs11_config.o
                0x0003ae74                pkcs11_config_init_private
                0x0003aeb0                pkcs11_config_init_public
                0x0003aeec                pkcs11_config_init_cert
                0x0003af24                pkcs11_config_load

.text.__ssputs_r%264
                0x0003af2c       0xb6
 .text.__ssputs_r
                0x0003af2c       0xb6 c:/program files/microchip/xc32/v2.40/bin/bin/../../lib/gcc/pic32c/6.2.1/../../../../pic32c/lib/v7e-m/fpv4-sp/hard\libg_nano.a(lib_a-__ssputs.o)
                0x0003af2c                __ssputs_r

.text%265       0x0003afe4       0xac
 .text          0x0003afe4       0xac build/aws_demos/debug/_ext/306685378/atca_basic_gendig.o
                0x0003afe4                atcab_gendig

.rodata%266     0x0003b090      0x150
 .rodata        0x0003b090       0xa8 build/aws_demos/debug/_ext/684768522/md_wrap.o
                0x0003b098                mbedtls_sha256_info
                0x0003b0d0                mbedtls_sha224_info
                0x0003b108                mbedtls_sha1_info
 .rodata        0x0003b138       0xa8 build/aws_demos/debug/_ext/1739149067/iot_mqtt_subscription.o

.text%268       0x0003b1e0      0x1ec
 .text          0x0003b1e0       0xa8 build/aws_demos/debug/_ext/2146650376/atca_hal.o
                0x0003b1e0                hal_iface_init
                0x0003b230                hal_iface_release
                0x0003b240                hal_check_wake
 .text          0x0003b288       0xa4 build/aws_demos/debug/_ext/306685378/atca_basic_info.o
                0x0003b288                atcab_info_base
                0x0003b2d8                atcab_info
                0x0003b2ec                atcab_info_get_latch
                0x0003b31c                atcab_info_set_latch
 .text          0x0003b32c       0xa0 build/aws_demos/debug/_ext/1326886903/pkcs11_info.o
                0x0003b32c                pkcs11_get_lib_info

.rodata%271     0x0003b3cc       0xa0
 .rodata        0x0003b3cc       0xa0 build/aws_demos/debug/_ext/684768522/ecp_curves.o

.text%272       0x0003b470      0x13c
 .text          0x0003b470       0xa0 c:/program files/microchip/xc32/v2.40/bin/bin/../../lib/gcc/pic32c/6.2.1/../../../../pic32c/lib/v7e-m/fpv4-sp/hard\libg_nano.a(lib_a-memchr.o)
                0x0003b470                memchr
 .text          0x0003b510       0x9c build/aws_demos/debug/_ext/1534096987/tasks.o
                0x0003b510                _APP_Tasks
                0x0003b522                _SYS_CMD_Tasks
                0x0003b54c                SYS_Tasks

.text._free_r%274
                0x0003b5ac       0x9c
 .text._free_r  0x0003b5ac       0x9c c:/program files/microchip/xc32/v2.40/bin/bin/../../lib/gcc/pic32c/6.2.1/../../../../pic32c/lib/v7e-m/fpv4-sp/hard\libg_nano.a(lib_a-nano-freer.o)
                0x0003b5ac                _free_r

.text%275       0x0003b648      0x1b6
 .text          0x0003b648       0x98 build/aws_demos/debug/_ext/1009855837/atca_execution.o
                0x0003b648                atca_execute_command
 .text          0x0003b6e0       0x90 build/aws_demos/debug/_ext/1762024984/sys_int.o
                0x0003b6e0                SYS_INT_Enable
                0x0003b6e8                SYS_INT_Disable
                0x0003b6fa                SYS_INT_Restore
                0x0003b70c                SYS_INT_SourceDisable
                0x0003b750                SYS_INT_SourceRestore
 .text          0x0003b770       0x8e build/aws_demos/debug/_ext/811507611/list.o
                0x0003b770                vListInitialise
                0x0003b786                vListInitialiseItem
                0x0003b78c                vListInsertEnd
                0x0003b7a4                vListInsert
                0x0003b7d8                uxListRemove

.text%278       0x0003b800      0x114
 .text          0x0003b800       0x8c build/aws_demos/debug/_ext/306685378/atca_basic_lock.o
                0x0003b800                atcab_lock
                0x0003b844                atcab_lock_config_zone
                0x0003b850                atcab_lock_config_zone_crc
                0x0003b85c                atcab_lock_data_zone
                0x0003b868                atcab_lock_data_zone_crc
                0x0003b874                atcab_lock_data_slot
 .text          0x0003b88c       0x88 build/aws_demos/debug/_ext/1534096987/initialization.o
                0x0003b88c                SYS_Initialize

.rodata%280     0x0003b914       0x84
 .rodata        0x0003b914       0x84 build/aws_demos/debug/_ext/1456806047/atcacert_pem.o

.text%281       0x0003b998      0x108
 .text          0x0003b998       0x84 build/aws_demos/debug/_ext/306685378/atca_basic_genkey.o
                0x0003b998                atcab_genkey_base
                0x0003b9fc                atcab_genkey
                0x0003ba0c                atcab_get_pubkey
 .text          0x0003ba1c       0x84 build/aws_demos/debug/_ext/1326886903/pkcs11_attrib.o
                0x0003ba1c                pkcs11_attrib_fill
                0x0003ba54                pkcs11_attrib_value
                0x0003ba6a                pkcs11_attrib_false
                0x0003ba7c                pkcs11_attrib_true
                0x0003ba90                pkcs11_attrib_empty

.rodata%283     0x0003baa0       0x84
 .rodata        0x0003baa0       0x84 build/aws_demos/debug/_ext/227692215/iot_logging_task_dynamic_buffers.o

.text.__fputwc%284
                0x0003bb24       0x82
 .text.__fputwc
                0x0003bb24       0x82 c:/program files/microchip/xc32/v2.40/bin/bin/../../lib/gcc/pic32c/6.2.1/../../../../pic32c/lib/v7e-m/fpv4-sp/hard\libg_nano.a(lib_a-fputwc.o)
                0x0003bb24                __fputwc

.text.__pic32c_data_initialization%285
                0x0003bba8       0x80
 .text.__pic32c_data_initialization
                0x0003bba8       0x80 c:/program files/microchip/xc32/v2.40/bin/bin/../../lib/gcc/pic32c/6.2.1/../../../../pic32c/lib/v7e-m/fpv4-sp/hard\libpic32c.a(data_init.o)
                0x0003bba8                __pic32c_data_initialization

.text._findenv_r%286
                0x0003bc28       0x80
 .text._findenv_r
                0x0003bc28       0x80 c:/program files/microchip/xc32/v2.40/bin/bin/../../lib/gcc/pic32c/6.2.1/../../../../pic32c/lib/v7e-m/fpv4-sp/hard\libg_nano.a(lib_a-getenv_r.o)
                0x0003bc28                _findenv_r

.text.Reset_Handler%287
                0x0003bca8       0x7c
 .text.Reset_Handler
                0x0003bca8       0x7c build/aws_demos/debug/_ext/1534096987/startup_xc32.o
                0x0003bca8                Reset_Handler

.text._sungetc_r%288
                0x0003bd24       0x7a
 .text._sungetc_r
                0x0003bd24       0x7a c:/program files/microchip/xc32/v2.40/bin/bin/../../lib/gcc/pic32c/6.2.1/../../../../pic32c/lib/v7e-m/fpv4-sp/hard\libg_nano.a(lib_a-nano-svfscanf.o)
                0x0003bd24                _sungetc_r

.rodata%289     0x0003bda0       0x78
 .rodata        0x0003bda0       0x78 build/aws_demos/debug/_ext/1326886903/pkcs11_info.o
                0x0003bddc                pkcs11_lib_description
                0x0003bdfc                pkcs11_lib_manufacturer_id

.text%290       0x0003be18       0x78
 .text          0x0003be18       0x78 build/aws_demos/debug/_ext/13066905/iot_init.o
                0x0003be18                IotSdk_Init
                0x0003be64                IotSdk_Cleanup

.text.__sfp%291
                0x0003be90       0x78
 .text.__sfp    0x0003be90       0x78 c:/program files/microchip/xc32/v2.40/bin/bin/../../lib/gcc/pic32c/6.2.1/../../../../pic32c/lib/v7e-m/fpv4-sp/hard\libg_nano.a(lib_a-findfp.o)
                0x0003be90                __sfp

.text.__smakebuf_r%292
                0x0003bf08       0x78
 .text.__smakebuf_r
                0x0003bf08       0x78 c:/program files/microchip/xc32/v2.40/bin/bin/../../lib/gcc/pic32c/6.2.1/../../../../pic32c/lib/v7e-m/fpv4-sp/hard\libg_nano.a(lib_a-makebuf.o)
                0x0003bf08                __smakebuf_r

.text.__submore%293
                0x0003bf80       0x76
 .text.__submore
                0x0003bf80       0x76 c:/program files/microchip/xc32/v2.40/bin/bin/../../lib/gcc/pic32c/6.2.1/../../../../pic32c/lib/v7e-m/fpv4-sp/hard\libg_nano.a(lib_a-ungetc.o)
                0x0003bf80                __submore

.text%294       0x0003bff8       0x74
 .text          0x0003bff8       0x74 build/aws_demos/debug/_ext/1843425920/plib_port.o
                0x0003bff8                PORT_Initialize
                0x0003c044                PORT_GroupRead
                0x0003c048                PORT_GroupWrite
                0x0003c054                PORT_GroupLatchRead
                0x0003c058                PORT_GroupSet
                0x0003c05c                PORT_GroupClear
                0x0003c060                PORT_GroupToggle
                0x0003c064                PORT_GroupInputEnable
                0x0003c068                PORT_GroupOutputEnable

.text.rand%295  0x0003c06c       0x74
 .text.rand     0x0003c06c       0x74 c:/program files/microchip/xc32/v2.40/bin/bin/../../lib/gcc/pic32c/6.2.1/../../../../pic32c/lib/v7e-m/fpv4-sp/hard\libg_nano.a(lib_a-rand.o)
                0x0003c06c                rand

.text%296       0x0003c0e0       0x70
 .text          0x0003c0e0       0x70 build/aws_demos/debug/_ext/306685378/atca_basic_random.o
                0x0003c0e0                atcab_random

.rodata%297     0x0003c150       0xe0
 .rodata        0x0003c150       0x70 build/aws_demos/debug/_ext/13066905/iot_init.o
 .rodata        0x0003c1c0       0x70 build/aws_demos/debug/_ext/350635301/iot_crypto.o

.text._putc_r%299
                0x0003c230       0x6c
 .text._putc_r  0x0003c230       0x6c c:/program files/microchip/xc32/v2.40/bin/bin/../../lib/gcc/pic32c/6.2.1/../../../../pic32c/lib/v7e-m/fpv4-sp/hard\libg_nano.a(lib_a-putc.o)
                0x0003c230                _putc_r

.text.snprintf%300
                0x0003c29c       0x6c
 .text.snprintf
                0x0003c29c       0x6c c:/program files/microchip/xc32/v2.40/bin/bin/../../lib/gcc/pic32c/6.2.1/../../../../pic32c/lib/v7e-m/fpv4-sp/hard\libg_nano.a(lib_a-snprintf.o)
                0x0003c29c                __snprintf_di
                0x0003c29c                snprintf
                0x0003c29c                __snprintf_oxX
                0x0003c29c                __snprintf_u
                0x0003c29c                sniprintf
                0x0003c29c                __snprintf_oxXs
                0x0003c29c                __snprintf_us
                0x0003c29c                __snprintf_c
                0x0003c29c                __snprintf_s
                0x0003c29c                __snprintf_diu
                0x0003c29c                __snprintf_dis

.text%301       0x0003c308       0x6a
 .text          0x0003c308       0x6a build/aws_demos/debug/_ext/2146650376/hal_freertos.o
                0x0003c308                hal_rtos_delay_ms
                0x0003c310                hal_create_mutex
                0x0003c32c                hal_destroy_mutex
                0x0003c33c                hal_lock_mutex
                0x0003c356                hal_unlock_mutex

.rodata%302     0x0003c374       0x64
 .rodata        0x0003c374       0x64 build/aws_demos/debug/_ext/2138053595/iot_pkcs11.o

.text%303       0x0003c3d8       0x60
 .text          0x0003c3d8       0x60 build/aws_demos/debug/_ext/1931625852/sys_debug.o
                0x0003c3d8                SYS_DEBUG_Initialize
                0x0003c3f4                SYS_DEBUG_ConsoleInstanceGet
                0x0003c400                SYS_DEBUG_Status
                0x0003c40c                SYS_DEBUG_ErrorLevelSet
                0x0003c418                SYS_DEBUG_ErrorLevelGet
                0x0003c424                SYS_DEBUG_Redirect

.text.__sinit%304
                0x0003c438       0x60
 .text.__sinit  0x0003c438       0x60 c:/program files/microchip/xc32/v2.40/bin/bin/../../lib/gcc/pic32c/6.2.1/../../../../pic32c/lib/v7e-m/fpv4-sp/hard\libg_nano.a(lib_a-findfp.o)
                0x0003c438                __sinit

.rodata.__month_lengths%305
                0x0003c498       0x60
 .rodata.__month_lengths
                0x0003c498       0x60 c:/program files/microchip/xc32/v2.40/bin/bin/../../lib/gcc/pic32c/6.2.1/../../../../pic32c/lib/v7e-m/fpv4-sp/hard\libg_nano.a(lib_a-month_lengths.o)
                0x0003c498                __month_lengths

.text.__sccl%306
                0x0003c4f8       0x60
 .text.__sccl   0x0003c4f8       0x60 c:/program files/microchip/xc32/v2.40/bin/bin/../../lib/gcc/pic32c/6.2.1/../../../../pic32c/lib/v7e-m/fpv4-sp/hard\libg_nano.a(lib_a-sccl.o)
                0x0003c4f8                __sccl

.text._vsnprintf_r%307
                0x0003c558       0x5c
 .text._vsnprintf_r
                0x0003c558       0x5c c:/program files/microchip/xc32/v2.40/bin/bin/../../lib/gcc/pic32c/6.2.1/../../../../pic32c/lib/v7e-m/fpv4-sp/hard\libg_nano.a(lib_a-vsnprintf.o)
                0x0003c558                _vsniprintf_r
                0x0003c558                _vsnprintf_r

.text%308       0x0003c5b4       0x58
 .text          0x0003c5b4       0x58 build/aws_demos/debug/_ext/1326886903/pkcs11_os.o
                0x0003c5b4                pkcs11_os_create_mutex
                0x0003c5d0                pkcs11_os_destroy_mutex
                0x0003c5e4                pkcs11_os_lock_mutex
                0x0003c5f8                pkcs11_os_unlock_mutex

.text._fflush_r%309
                0x0003c60c       0x54
 .text._fflush_r
                0x0003c60c       0x54 c:/program files/microchip/xc32/v2.40/bin/bin/../../lib/gcc/pic32c/6.2.1/../../../../pic32c/lib/v7e-m/fpv4-sp/hard\libg_nano.a(lib_a-fflush.o)
                0x0003c60c                _fflush_r

.text.sscanf%310
                0x0003c660       0x54
 .text.sscanf   0x0003c660       0x54 c:/program files/microchip/xc32/v2.40/bin/bin/../../lib/gcc/pic32c/6.2.1/../../../../pic32c/lib/v7e-m/fpv4-sp/hard\libg_nano.a(lib_a-sscanf.o)
                0x0003c660                siscanf
                0x0003c660                sscanf

.rodata%311     0x0003c6b4       0x50
 .rodata        0x0003c6b4       0x50 build/aws_demos/debug/_ext/227692215/iot_logging.o

.text._wcrtomb_r%312
                0x0003c704       0x50
 .text._wcrtomb_r
                0x0003c704       0x50 c:/program files/microchip/xc32/v2.40/bin/bin/../../lib/gcc/pic32c/6.2.1/../../../../pic32c/lib/v7e-m/fpv4-sp/hard\libg_nano.a(lib_a-wcrtomb.o)
                0x0003c704                _wcrtomb_r

.rodata%313     0x0003c754       0x4e
 .rodata        0x0003c754       0x4e c:/program files/microchip/xc32/v2.40/bin/bin/../../lib/gcc/pic32c/6.2.1/../../../../pic32c/lib/v7e-m/fpv4-sp/hard\libg_nano.a(lib_a-tzset_r.o)

.text.sprintf%314
                0x0003c7a4       0x4c
 .text.sprintf  0x0003c7a4       0x4c c:/program files/microchip/xc32/v2.40/bin/bin/../../lib/gcc/pic32c/6.2.1/../../../../pic32c/lib/v7e-m/fpv4-sp/hard\libg_nano.a(lib_a-sprintf.o)
                0x0003c7a4                __sprintf_u
                0x0003c7a4                __sprintf_dis
                0x0003c7a4                __sprintf_uc
                0x0003c7a4                sprintf
                0x0003c7a4                siprintf
                0x0003c7a4                __sprintf_di

.text._realloc_r%315
                0x0003c7f0       0x4c
 .text._realloc_r
                0x0003c7f0       0x4c c:/program files/microchip/xc32/v2.40/bin/bin/../../lib/gcc/pic32c/6.2.1/../../../../pic32c/lib/v7e-m/fpv4-sp/hard\libg_nano.a(lib_a-nano-reallocr.o)
                0x0003c7f0                _realloc_r

.text.__ssfputs_r%316
                0x0003c83c       0x4a
 .text.__ssfputs_r
                0x0003c83c       0x4a c:/program files/microchip/xc32/v2.40/bin/bin/../../lib/gcc/pic32c/6.2.1/../../../../pic32c/lib/v7e-m/fpv4-sp/hard\libg_nano.a(lib_a-__ssfputs.o)
                0x0003c83c                __ssfputs_r

.rodata%317     0x0003c888       0x48
 .rodata        0x0003c888       0x48 build/aws_demos/debug/_ext/811507611/tasks.o

.text.__libc_init_array%318
                0x0003c8d0       0x48
 .text.__libc_init_array
                0x0003c8d0       0x48 c:/program files/microchip/xc32/v2.40/bin/bin/../../lib/gcc/pic32c/6.2.1/../../../../pic32c/lib/v7e-m/fpv4-sp/hard\libg_nano.a(lib_a-init.o)
                0x0003c8d0                __libc_init_array

.text.std.isra.0%319
                0x0003c918       0x48
 .text.std.isra.0
                0x0003c918       0x48 c:/program files/microchip/xc32/v2.40/bin/bin/../../lib/gcc/pic32c/6.2.1/../../../../pic32c/lib/v7e-m/fpv4-sp/hard\libg_nano.a(lib_a-findfp.o)

.text.__swhatbuf_r%320
                0x0003c960       0x48
 .text.__swhatbuf_r
                0x0003c960       0x48 c:/program files/microchip/xc32/v2.40/bin/bin/../../lib/gcc/pic32c/6.2.1/../../../../pic32c/lib/v7e-m/fpv4-sp/hard\libg_nano.a(lib_a-makebuf.o)
                0x0003c960                __swhatbuf_r

.text%321       0x0003c9a8       0x8c
 .text          0x0003c9a8       0x46 build/aws_demos/debug/_ext/961827245/atca_crypto_sw_sha1.o
                0x0003c9a8                atcac_sw_sha1_init
                0x0003c9b2                atcac_sw_sha1_update
                0x0003c9bc                atcac_sw_sha1_finish
                0x0003c9c6                atcac_sw_sha1
 .text          0x0003c9ee       0x46 build/aws_demos/debug/_ext/961827245/atca_crypto_sw_sha2.o
                0x0003c9ee                atcac_sw_sha2_256_init
                0x0003c9f8                atcac_sw_sha2_256_update
                0x0003ca02                atcac_sw_sha2_256_finish
                0x0003ca0c                atcac_sw_sha2_256

.rodata%323     0x0003ca34       0x88
 .rodata        0x0003ca34       0x44 build/aws_demos/debug/_ext/1385882503/port.o
 .rodata        0x0003ca78       0x44 build/aws_demos/debug/_ext/1456806047/atcacert_date.o
                0x0003caa8                ATCACERT_DATE_FORMAT_SIZES

.text%325       0x0003cabc       0x84
 .text          0x0003cabc       0x44 build/aws_demos/debug/_ext/306685378/atca_basic_updateextra.o
                0x0003cabc                atcab_updateextra
 .text          0x0003cb00       0x40 c:/program files/microchip/xc32/v2.40/bin/bin/../../lib/gcc/pic32c/6.2.1/v7e-m/fpv4-sp/hard/crtbegin.o

.rodata%327     0x0003cb40       0x40
 .rodata        0x0003cb40       0x40 build/aws_demos/debug/_ext/1168480030/heap_4.o

.text%328       0x0003cb80       0xbc
 .text          0x0003cb80       0x40 build/aws_demos/debug/_ext/2146650376/hal_cortex_m_delay.o
                0x0003cb80                _get_cycles_for_us
                0x0003cb88                _get_cycles_for_ms
                0x0003cb94                _delay_cycles
                0x0003cb9a                hal_delay_us
                0x0003cbaa                hal_delay_ms
 .text          0x0003cbc0       0x40 c:/program files/microchip/xc32/v2.40/bin/bin/../../lib/gcc/pic32c/6.2.1/v7e-m/fpv4-sp/hard\libgcc.a(_arm_fixunsdfsi.o)
                0x0003cbc0                __aeabi_d2uiz
                0x0003cbc0                __fixunsdfsi
 .text          0x0003cc00       0x3c build/aws_demos/debug/_ext/1263901141/xc32_monitor.o
                0x0003cc00                _mon_getc
                0x0003cc20                _mon_putc

.rodata%331     0x0003cc3c       0x3c
 .rodata        0x0003cc3c       0x3c build/aws_demos/debug/_ext/684768522/x509.o

.text._fwalk_reent%332
                0x0003cc78       0x3c
 .text._fwalk_reent
                0x0003cc78       0x3c c:/program files/microchip/xc32/v2.40/bin/bin/../../lib/gcc/pic32c/6.2.1/../../../../pic32c/lib/v7e-m/fpv4-sp/hard\libg_nano.a(lib_a-fwalk.o)
                0x0003cc78                _fwalk_reent

.text.write%333
                0x0003ccb4       0x3c
 .text.write    0x0003ccb4       0x3c c:/program files/microchip/xc32/v2.40/bin/bin/../../lib/gcc/pic32c/6.2.1/../../../../pic32c/lib/v7e-m/fpv4-sp/hard\libpic32c.a(write.o)
                0x0003ccb4                write

.text.__ssrefill_r%334
                0x0003ccf0       0x3a
 .text.__ssrefill_r
                0x0003ccf0       0x3a c:/program files/microchip/xc32/v2.40/bin/bin/../../lib/gcc/pic32c/6.2.1/../../../../pic32c/lib/v7e-m/fpv4-sp/hard\libg_nano.a(lib_a-nano-svfscanf.o)
                0x0003ccf0                __ssrefill_r

.text%335       0x0003cd2a       0x38
 .text          0x0003cd2a       0x38 build/aws_demos/debug/_ext/959252812/sys_dma.o
                0x0003cd2a                SYS_DMA_AddressingModeSetup
                0x0003cd48                SYS_DMA_DataWidthSetup

.text%336       0x0003cd64       0x38
 .text          0x0003cd64       0x38 build/aws_demos/debug/_ext/978667550/wdrv_winc_gpio.o
                0x0003cd64                WDRV_WINC_GPIOResetAssert
                0x0003cd70                WDRV_WINC_GPIOResetDeassert
                0x0003cd7c                WDRV_WINC_GPIOChipEnableAssert
                0x0003cd8c                WDRV_WINC_GPIOChipEnableDeassert

.rodata%337     0x0003cd9c       0x38
 .rodata        0x0003cd9c       0x38 build/aws_demos/debug/_ext/811507611/timers.o

.text%338       0x0003cdd4       0x38
 .text          0x0003cdd4       0x38 build/aws_demos/debug/_ext/684768522/platform.o
                0x0003cdd4                mbedtls_calloc
                0x0003cde4                mbedtls_free
                0x0003cdf4                mbedtls_platform_set_calloc_free
                0x0003ce04                mbedtls_platform_setup
                0x0003ce08                mbedtls_platform_teardown

.rodata%339     0x0003ce0c       0x38
 .rodata        0x0003ce0c       0x38 build/aws_demos/debug/_ext/684768522/rsa_internal.o

.text.__swrite%340
                0x0003ce44       0x38
 .text.__swrite
                0x0003ce44       0x38 c:/program files/microchip/xc32/v2.40/bin/bin/../../lib/gcc/pic32c/6.2.1/../../../../pic32c/lib/v7e-m/fpv4-sp/hard\libg_nano.a(lib_a-stdio.o)
                0x0003ce44                __swrite

.text.strstr%341
                0x0003ce7c       0x36
 .text.strstr   0x0003ce7c       0x36 c:/program files/microchip/xc32/v2.40/bin/bin/../../lib/gcc/pic32c/6.2.1/../../../../pic32c/lib/v7e-m/fpv4-sp/hard\libg_nano.a(lib_a-strstr.o)
                0x0003ce7c                strstr

.text%342       0x0003ceb4       0x34
 .text          0x0003ceb4       0x34 build/aws_demos/debug/_ext/1223942466/aws_demo.o
                0x0003ceb4                vApplicationGetIdleTaskMemory
                0x0003cec8                vApplicationGetTimerTaskMemory

.rodata%343     0x0003cee8       0x34
 .rodata        0x0003cee8       0x34 build/aws_demos/debug/_ext/811507611/event_groups.o

.text.memmove%344
                0x0003cf1c       0x34
 .text.memmove  0x0003cf1c       0x34 c:/program files/microchip/xc32/v2.40/bin/bin/../../lib/gcc/pic32c/6.2.1/../../../../pic32c/lib/v7e-m/fpv4-sp/hard\libg_nano.a(lib_a-memmove.o)
                0x0003cf1c                memmove

.rodata%345     0x0003cf50       0x60
 .rodata        0x0003cf50       0x30 build/aws_demos/debug/_ext/1326886903/pkcs11_token.o
 .rodata        0x0003cf80       0x30 build/aws_demos/debug/_ext/811507611/queue.o

.text%347       0x0003cfb0       0x30
 .text          0x0003cfb0       0x30 c:/program files/microchip/xc32/v2.40/bin/bin/../../lib/gcc/pic32c/6.2.1/v7e-m/fpv4-sp/hard\libgcc.a(_aeabi_uldivmod.o)
                0x0003cfb0                __aeabi_uldivmod

.rodata.DAYS_IN_MONTH%348
                0x0003cfe0       0x30
 .rodata.DAYS_IN_MONTH
                0x0003cfe0       0x30 c:/program files/microchip/xc32/v2.40/bin/bin/../../lib/gcc/pic32c/6.2.1/../../../../pic32c/lib/v7e-m/fpv4-sp/hard\libg_nano.a(lib_a-mktime.o)

.rodata._DAYS_BEFORE_MONTH%349
                0x0003d010       0x30
 .rodata._DAYS_BEFORE_MONTH
                0x0003d010       0x30 c:/program files/microchip/xc32/v2.40/bin/bin/../../lib/gcc/pic32c/6.2.1/../../../../pic32c/lib/v7e-m/fpv4-sp/hard\libg_nano.a(lib_a-mktime.o)

.text.printf%350
                0x0003d040       0x30
 .text.printf   0x0003d040       0x30 c:/program files/microchip/xc32/v2.40/bin/bin/../../lib/gcc/pic32c/6.2.1/../../../../pic32c/lib/v7e-m/fpv4-sp/hard\libg_nano.a(lib_a-printf.o)
                0x0003d040                __printf_oxX
                0x0003d040                __printf_di
                0x0003d040                __printf_s
                0x0003d040                iprintf
                0x0003d040                __printf_u
                0x0003d040                __printf_dis
                0x0003d040                printf

.text.__sfputc_r%351
                0x0003d070       0x30
 .text.__sfputc_r
                0x0003d070       0x30 c:/program files/microchip/xc32/v2.40/bin/bin/../../lib/gcc/pic32c/6.2.1/../../../../pic32c/lib/v7e-m/fpv4-sp/hard\libg_nano.a(lib_a-__ssfputs.o)

.text%352       0x0003d0a0       0x2e
 .text          0x0003d0a0       0x2e build/aws_demos/debug/_ext/2059254151/nm_common.o
                0x0003d0a0                nm_sleep
                0x0003d0a8                nm_reset

.rodata%353     0x0003d0d0       0x84
 .rodata        0x0003d0d0       0x2c build/aws_demos/debug/_ext/1534684544/sys_console_uart.o
                0x0003d0d0                sysConsoleUARTDevDesc
 .rodata        0x0003d0fc       0x2c build/aws_demos/debug/_ext/1534096987/tasks.o
 .rodata        0x0003d128       0x2c build/aws_demos/debug/_ext/684768522/md.o

.text.strtoul%356
                0x0003d154       0x2c
 .text.strtoul  0x0003d154       0x2c c:/program files/microchip/xc32/v2.40/bin/bin/../../lib/gcc/pic32c/6.2.1/../../../../pic32c/lib/v7e-m/fpv4-sp/hard\libg_nano.a(lib_a-strtoul.o)
                0x0003d154                strtoul

.text.__sfmoreglue%357
                0x0003d180       0x2c
 .text.__sfmoreglue
                0x0003d180       0x2c c:/program files/microchip/xc32/v2.40/bin/bin/../../lib/gcc/pic32c/6.2.1/../../../../pic32c/lib/v7e-m/fpv4-sp/hard\libg_nano.a(lib_a-findfp.o)
                0x0003d180                __sfmoreglue

.text._sbrk%358
                0x0003d1ac       0x2c
 .text._sbrk    0x0003d1ac       0x2c c:/program files/microchip/xc32/v2.40/bin/bin/../../lib/gcc/pic32c/6.2.1/../../../../pic32c/lib/v7e-m/fpv4-sp/hard\libpic32c.a(sbrk.o)
                0x0003d1ac                _sbrk

.text.strncpy%359
                0x0003d1d8       0x2a
 .text.strncpy  0x0003d1d8       0x2a c:/program files/microchip/xc32/v2.40/bin/bin/../../lib/gcc/pic32c/6.2.1/../../../../pic32c/lib/v7e-m/fpv4-sp/hard\libg_nano.a(lib_a-strncpy.o)
                0x0003d1d8                strncpy

.text%360       0x0003d202       0x28
 .text          0x0003d202       0x28 build/aws_demos/debug/_ext/1326886903/pkcs11_util.o
                0x0003d202                pkcs11_util_escape_string
                0x0003d220                pkcs11_util_convert_rv

.text%361       0x0003d22c       0x50
 .text          0x0003d22c       0x28 build/aws_demos/debug/_ext/1843304010/plib_trng.o
                0x0003d22c                TRNG_Initialize
                0x0003d22e                TRNG_ReadData
 .text          0x0003d254       0x28 build/aws_demos/debug/_ext/1360937237/app.o
                0x0003d254                APP_Initialize
                0x0003d260                APP_Tasks

.text.putchar%363
                0x0003d27c       0x28
 .text.putchar  0x0003d27c       0x28 c:/program files/microchip/xc32/v2.40/bin/bin/../../lib/gcc/pic32c/6.2.1/../../../../pic32c/lib/v7e-m/fpv4-sp/hard\libg_nano.a(lib_a-putchar.o)
                0x0003d27c                putchar

.text.div%364   0x0003d2a4       0x28
 .text.div      0x0003d2a4       0x28 c:/program files/microchip/xc32/v2.40/bin/bin/../../lib/gcc/pic32c/6.2.1/../../../../pic32c/lib/v7e-m/fpv4-sp/hard\libg_nano.a(lib_a-div.o)
                0x0003d2a4                div

.rodata%365     0x0003d2cc       0x28
 .rodata        0x0003d2cc       0x28 c:/program files/microchip/xc32/v2.40/bin/bin/../../lib/gcc/pic32c/6.2.1/../../../../pic32c/lib/v7e-m/fpv4-sp/hard\libg_nano.a(lib_a-nano-vfscanf_i.o)

.text.read%366  0x0003d2f4       0x28
 .text.read     0x0003d2f4       0x28 c:/program files/microchip/xc32/v2.40/bin/bin/../../lib/gcc/pic32c/6.2.1/../../../../pic32c/lib/v7e-m/fpv4-sp/hard\libpic32c.a(read.o)
                0x0003d2f4                read

.text%367       0x0003d31c       0x6c
 .text          0x0003d31c       0x24 build/aws_demos/debug/_ext/978667550/wdrv_winc_eint.o
                0x0003d31c                WDRV_WINC_INTInitialize
                0x0003d334                WDRV_WINC_INTDeinitialize
 .text          0x0003d340       0x24 build/aws_demos/debug/_ext/1289849308/wdrv_winc_osal.o
                0x0003d340                WDRV_MSDelay
 .text          0x0003d364       0x24 build/aws_demos/debug/_ext/684768522/threading.o
                0x0003d36c                mbedtls_threading_set_alt
                0x0003d384                mbedtls_threading_free_alt

.text.gmtime%370
                0x0003d388       0x24
 .text.gmtime   0x0003d388       0x24 c:/program files/microchip/xc32/v2.40/bin/bin/../../lib/gcc/pic32c/6.2.1/../../../../pic32c/lib/v7e-m/fpv4-sp/hard\libg_nano.a(lib_a-gmtime.o)
                0x0003d388                gmtime

.text.__ascii_mbtowc%371
                0x0003d3ac       0x24
 .text.__ascii_mbtowc
                0x0003d3ac       0x24 c:/program files/microchip/xc32/v2.40/bin/bin/../../lib/gcc/pic32c/6.2.1/../../../../pic32c/lib/v7e-m/fpv4-sp/hard\libg_nano.a(lib_a-mbtowc_r.o)
                0x0003d3ac                __ascii_mbtowc

.text.__sseek%372
                0x0003d3d0       0x24
 .text.__sseek  0x0003d3d0       0x24 c:/program files/microchip/xc32/v2.40/bin/bin/../../lib/gcc/pic32c/6.2.1/../../../../pic32c/lib/v7e-m/fpv4-sp/hard\libg_nano.a(lib_a-stdio.o)
                0x0003d3d0                __sseek

.text.strncmp%373
                0x0003d3f4       0x24
 .text.strncmp  0x0003d3f4       0x24 c:/program files/microchip/xc32/v2.40/bin/bin/../../lib/gcc/pic32c/6.2.1/../../../../pic32c/lib/v7e-m/fpv4-sp/hard\libg_nano.a(lib_a-strncmp.o)
                0x0003d3f4                strncmp

.text._strtol_r%374
                0x0003d418       0x24
 .text._strtol_r
                0x0003d418       0x24 c:/program files/microchip/xc32/v2.40/bin/bin/../../lib/gcc/pic32c/6.2.1/../../../../pic32c/lib/v7e-m/fpv4-sp/hard\libg_nano.a(lib_a-strtol.o)
                0x0003d418                _strtol_r

.text._strtoul_r%375
                0x0003d43c       0x24
 .text._strtoul_r
                0x0003d43c       0x24 c:/program files/microchip/xc32/v2.40/bin/bin/../../lib/gcc/pic32c/6.2.1/../../../../pic32c/lib/v7e-m/fpv4-sp/hard\libg_nano.a(lib_a-strtoul.o)
                0x0003d43c                _strtoul_r

.text._write_r%376
                0x0003d460       0x24
 .text._write_r
                0x0003d460       0x24 c:/program files/microchip/xc32/v2.40/bin/bin/../../lib/gcc/pic32c/6.2.1/../../../../pic32c/lib/v7e-m/fpv4-sp/hard\libg_nano.a(lib_a-writer.o)
                0x0003d460                _write_r

.text._lseek_r%377
                0x0003d484       0x24
 .text._lseek_r
                0x0003d484       0x24 c:/program files/microchip/xc32/v2.40/bin/bin/../../lib/gcc/pic32c/6.2.1/../../../../pic32c/lib/v7e-m/fpv4-sp/hard\libg_nano.a(lib_a-lseekr.o)
                0x0003d484                _lseek_r

.text._read_r%378
                0x0003d4a8       0x24
 .text._read_r  0x0003d4a8       0x24 c:/program files/microchip/xc32/v2.40/bin/bin/../../lib/gcc/pic32c/6.2.1/../../../../pic32c/lib/v7e-m/fpv4-sp/hard\libg_nano.a(lib_a-readr.o)
                0x0003d4a8                _read_r

.text._fstat_r%379
                0x0003d4cc       0x24
 .text._fstat_r
                0x0003d4cc       0x24 c:/program files/microchip/xc32/v2.40/bin/bin/../../lib/gcc/pic32c/6.2.1/../../../../pic32c/lib/v7e-m/fpv4-sp/hard\libg_nano.a(lib_a-fstatr.o)
                0x0003d4cc                _fstat_r

.text.__sread%380
                0x0003d4f0       0x22
 .text.__sread  0x0003d4f0       0x22 c:/program files/microchip/xc32/v2.40/bin/bin/../../lib/gcc/pic32c/6.2.1/../../../../pic32c/lib/v7e-m/fpv4-sp/hard\libg_nano.a(lib_a-stdio.o)
                0x0003d4f0                __sread

.rodata%381     0x0003d512       0x22
 .rodata        0x0003d512       0x22 c:/program files/microchip/xc32/v2.40/bin/bin/../../lib/gcc/pic32c/6.2.1/../../../../pic32c/lib/v7e-m/fpv4-sp/hard\libg_nano.a(lib_a-nano-vfprintf_i.o)

.text._sbrk_r%382
                0x0003d534       0x20
 .text._sbrk_r  0x0003d534       0x20 c:/program files/microchip/xc32/v2.40/bin/bin/../../lib/gcc/pic32c/6.2.1/../../../../pic32c/lib/v7e-m/fpv4-sp/hard\libg_nano.a(lib_a-sbrkr.o)
                0x0003d534                _sbrk_r

.text._close_r%383
                0x0003d554       0x20
 .text._close_r
                0x0003d554       0x20 c:/program files/microchip/xc32/v2.40/bin/bin/../../lib/gcc/pic32c/6.2.1/../../../../pic32c/lib/v7e-m/fpv4-sp/hard\libg_nano.a(lib_a-closer.o)
                0x0003d554                _close_r

.rodata.__sf_fake_stderr%384
                0x0003d574       0x20
 .rodata.__sf_fake_stderr
                0x0003d574       0x20 c:/program files/microchip/xc32/v2.40/bin/bin/../../lib/gcc/pic32c/6.2.1/../../../../pic32c/lib/v7e-m/fpv4-sp/hard\libg_nano.a(lib_a-findfp.o)
                0x0003d574                __sf_fake_stderr

.rodata.__sf_fake_stdin%385
                0x0003d594       0x20
 .rodata.__sf_fake_stdin
                0x0003d594       0x20 c:/program files/microchip/xc32/v2.40/bin/bin/../../lib/gcc/pic32c/6.2.1/../../../../pic32c/lib/v7e-m/fpv4-sp/hard\libg_nano.a(lib_a-findfp.o)
                0x0003d594                __sf_fake_stdin

.rodata.__sf_fake_stdout%386
                0x0003d5b4       0x20
 .rodata.__sf_fake_stdout
                0x0003d5b4       0x20 c:/program files/microchip/xc32/v2.40/bin/bin/../../lib/gcc/pic32c/6.2.1/../../../../pic32c/lib/v7e-m/fpv4-sp/hard\libg_nano.a(lib_a-findfp.o)
                0x0003d5b4                __sf_fake_stdout

.text._isatty_r%387
                0x0003d5d4       0x20
 .text._isatty_r
                0x0003d5d4       0x20 c:/program files/microchip/xc32/v2.40/bin/bin/../../lib/gcc/pic32c/6.2.1/../../../../pic32c/lib/v7e-m/fpv4-sp/hard\libg_nano.a(lib_a-isattyr.o)
                0x0003d5d4                _isatty_r

.text.memcmp%388
                0x0003d5f4       0x1e
 .text.memcmp   0x0003d5f4       0x1e c:/program files/microchip/xc32/v2.40/bin/bin/../../lib/gcc/pic32c/6.2.1/../../../../pic32c/lib/v7e-m/fpv4-sp/hard\libg_nano.a(lib_a-memcmp.o)
                0x0003d5f4                memcmp

.text.strcat%389
                0x0003d612       0x1e
 .text.strcat   0x0003d612       0x1e c:/program files/microchip/xc32/v2.40/bin/bin/../../lib/gcc/pic32c/6.2.1/../../../../pic32c/lib/v7e-m/fpv4-sp/hard\libg_nano.a(lib_a-strcat.o)
                0x0003d612                strcat

.text%390       0x0003d630       0x1c
 .text          0x0003d630       0x1c build/aws_demos/debug/_ext/1223942466/iot_demo_runner.o
                0x0003d630                DEMO_RUNNER_RunDemos

.text.__locale_mb_cur_max%391
                0x0003d64c       0x1c
 .text.__locale_mb_cur_max
                0x0003d64c       0x1c c:/program files/microchip/xc32/v2.40/bin/bin/../../lib/gcc/pic32c/6.2.1/../../../../pic32c/lib/v7e-m/fpv4-sp/hard\libg_nano.a(lib_a-locale.o)
                0x0003d64c                __locale_mb_cur_max

.text.__locale_ctype_ptr%392
                0x0003d668       0x1c
 .text.__locale_ctype_ptr
                0x0003d668       0x1c c:/program files/microchip/xc32/v2.40/bin/bin/../../lib/gcc/pic32c/6.2.1/../../../../pic32c/lib/v7e-m/fpv4-sp/hard\libg_nano.a(lib_a-locale.o)
                0x0003d668                __locale_ctype_ptr

.text._calloc_r%393
                0x0003d684       0x1c
 .text._calloc_r
                0x0003d684       0x1c c:/program files/microchip/xc32/v2.40/bin/bin/../../lib/gcc/pic32c/6.2.1/../../../../pic32c/lib/v7e-m/fpv4-sp/hard\libg_nano.a(lib_a-nano-callocr.o)
                0x0003d684                _calloc_r

.text.vsnprintf%394
                0x0003d6a0       0x1c
 .text.vsnprintf
                0x0003d6a0       0x1c c:/program files/microchip/xc32/v2.40/bin/bin/../../lib/gcc/pic32c/6.2.1/../../../../pic32c/lib/v7e-m/fpv4-sp/hard\libg_nano.a(lib_a-vsnprintf.o)
                0x0003d6a0                vsniprintf
                0x0003d6a0                vsnprintf

.text._fputwc_r%395
                0x0003d6bc       0x1c
 .text._fputwc_r
                0x0003d6bc       0x1c c:/program files/microchip/xc32/v2.40/bin/bin/../../lib/gcc/pic32c/6.2.1/../../../../pic32c/lib/v7e-m/fpv4-sp/hard\libg_nano.a(lib_a-fputwc.o)
                0x0003d6bc                _fputwc_r

.text.__ascii_wctomb%396
                0x0003d6d8       0x1a
 .text.__ascii_wctomb
                0x0003d6d8       0x1a c:/program files/microchip/xc32/v2.40/bin/bin/../../lib/gcc/pic32c/6.2.1/../../../../pic32c/lib/v7e-m/fpv4-sp/hard\libg_nano.a(lib_a-wctomb_r.o)
                0x0003d6d8                __ascii_wctomb

.rodata%397     0x0003d6f4       0x48
 .rodata        0x0003d6f4       0x18 build/aws_demos/debug/_ext/306685378/atca_basic.o
                0x0003d700                atca_version
 .rodata        0x0003d70c       0x18 build/aws_demos/debug/_ext/1326886903/pkcs11_init.o
 .rodata        0x0003d724       0x18 build/aws_demos/debug/_ext/1360937237/main.o

.text%400       0x0003d73c       0x18
 .text          0x0003d73c       0x18 build/aws_demos/debug/_ext/1534096987/exceptions.o
                0x0003d73c                NonMaskableInt_Handler
                0x0003d740                HardFault_Handler
                0x0003d744                DebugMonitor_Handler
                0x0003d748                MemoryManagement_Handler
                0x0003d74c                BusFault_Handler
                0x0003d750                UsageFault_Handler

.rodata%401     0x0003d754       0x30
 .rodata        0x0003d754       0x18 build/aws_demos/debug/_ext/684768522/pem.o
 .rodata        0x0003d76c       0x18 build/aws_demos/debug/_ext/2077790016/mbedtls_utils.o

.text.memcpy%403
                0x0003d784       0x16
 .text.memcpy   0x0003d784       0x16 c:/program files/microchip/xc32/v2.40/bin/bin/../../lib/gcc/pic32c/6.2.1/../../../../pic32c/lib/v7e-m/fpv4-sp/hard\libg_nano.a(lib_a-memcpy-stub.o)
                0x0003d784                memcpy

.rodata%404     0x0003d79c       0x28
 .rodata        0x0003d79c       0x14 build/aws_demos/debug/_ext/1070826718/sha1_routines.o
 .rodata        0x0003d7b0       0x14 build/aws_demos/debug/_ext/1326886903/pkcs11_slot.o

.text%406       0x0003d7c4       0x28
 .text          0x0003d7c4       0x14 build/aws_demos/debug/_ext/684768522/platform_util.o
                0x0003d7c4                mbedtls_platform_zeroize
 .text          0x0003d7d8       0x14 c:/program files/microchip/xc32/v2.40/bin/bin/../../lib/gcc/pic32c/6.2.1/../../../../pic32c/lib/v7e-m/fpv4-sp/hard\libg_nano.a(lib_a-strcmp.o)
                0x0003d7d8                strcmp

.text._malloc_usable_size_r%408
                0x0003d7ec       0x12
 .text._malloc_usable_size_r
                0x0003d7ec       0x12 c:/program files/microchip/xc32/v2.40/bin/bin/../../lib/gcc/pic32c/6.2.1/../../../../pic32c/lib/v7e-m/fpv4-sp/hard\libg_nano.a(lib_a-nano-msizer.o)
                0x0003d7ec                _malloc_usable_size_r

.rodata%409     0x0003d7fe       0x32
 .rodata        0x0003d7fe       0x11 c:/program files/microchip/xc32/v2.40/bin/bin/../../lib/gcc/pic32c/6.2.1/../../../../pic32c/lib/v7e-m/fpv4-sp/hard\libg_nano.a(lib_a-nano-vfprintf.o)
 .rodata        0x0003d80f       0x11 c:/program files/microchip/xc32/v2.40/bin/bin/../../lib/gcc/pic32c/6.2.1/../../../../pic32c/lib/v7e-m/fpv4-sp/hard\libg_nano.a(lib_a-nano-svfprintf.o)
 .rodata        0x0003d820       0x10 build/aws_demos/debug/_ext/2090543044/nmflash.o

.text.calloc%412
                0x0003d830       0x10
 .text.calloc   0x0003d830       0x10 c:/program files/microchip/xc32/v2.40/bin/bin/../../lib/gcc/pic32c/6.2.1/../../../../pic32c/lib/v7e-m/fpv4-sp/hard\libg_nano.a(lib_a-calloc.o)
                0x0003d830                calloc

.text.malloc%413
                0x0003d840       0x10
 .text.malloc   0x0003d840       0x10 c:/program files/microchip/xc32/v2.40/bin/bin/../../lib/gcc/pic32c/6.2.1/../../../../pic32c/lib/v7e-m/fpv4-sp/hard\libg_nano.a(lib_a-malloc.o)
                0x0003d840                malloc

.text.free%414  0x0003d850       0x10
 .text.free     0x0003d850       0x10 c:/program files/microchip/xc32/v2.40/bin/bin/../../lib/gcc/pic32c/6.2.1/../../../../pic32c/lib/v7e-m/fpv4-sp/hard\libg_nano.a(lib_a-malloc.o)
                0x0003d850                free

.text.memset%415
                0x0003d860       0x10
 .text.memset   0x0003d860       0x10 c:/program files/microchip/xc32/v2.40/bin/bin/../../lib/gcc/pic32c/6.2.1/../../../../pic32c/lib/v7e-m/fpv4-sp/hard\libg_nano.a(lib_a-memset.o)
                0x0003d860                memset

.text.puts%416  0x0003d870       0x10
 .text.puts     0x0003d870       0x10 c:/program files/microchip/xc32/v2.40/bin/bin/../../lib/gcc/pic32c/6.2.1/../../../../pic32c/lib/v7e-m/fpv4-sp/hard\libg_nano.a(lib_a-puts.o)
                0x0003d870                puts

.text.strcpy%417
                0x0003d880       0x10
 .text.strcpy   0x0003d880       0x10 c:/program files/microchip/xc32/v2.40/bin/bin/../../lib/gcc/pic32c/6.2.1/../../../../pic32c/lib/v7e-m/fpv4-sp/hard\libg_nano.a(lib_a-strcpy.o)
                0x0003d880                strcpy

.text%418       0x0003d890       0x10
 .text          0x0003d890       0x10 c:/program files/microchip/xc32/v2.40/bin/bin/../../lib/gcc/pic32c/6.2.1/../../../../pic32c/lib/v7e-m/fpv4-sp/hard\libg_nano.a(lib_a-strlen.o)
                0x0003d890                strlen

.text._getenv_r%419
                0x0003d8a0        0xe
 .text._getenv_r
                0x0003d8a0        0xe c:/program files/microchip/xc32/v2.40/bin/bin/../../lib/gcc/pic32c/6.2.1/../../../../pic32c/lib/v7e-m/fpv4-sp/hard\libg_nano.a(lib_a-getenv_r.o)
                0x0003d8a0                _getenv_r

.rodata%420     0x0003d8b0       0x18
 .rodata        0x0003d8b0        0xc build/aws_demos/debug/_ext/1326886903/pkcs11_os.o
 .rodata        0x0003d8bc        0xc build/aws_demos/debug/_ext/684768522/pk.o

.text%422       0x0003d8c8        0xc
 .text          0x0003d8c8        0xc build/aws_demos/debug/_ext/1120274527/iot_system_init.o
                0x0003d8c8                SYSTEM_Init

.text.tzset%423
                0x0003d8d4        0xc
 .text.tzset    0x0003d8d4        0xc c:/program files/microchip/xc32/v2.40/bin/bin/../../lib/gcc/pic32c/6.2.1/../../../../pic32c/lib/v7e-m/fpv4-sp/hard\libg_nano.a(lib_a-tzset.o)
                0x0003d8d4                tzset

.text._cleanup_r%424
                0x0003d8e0        0xc
 .text._cleanup_r
                0x0003d8e0        0xc c:/program files/microchip/xc32/v2.40/bin/bin/../../lib/gcc/pic32c/6.2.1/../../../../pic32c/lib/v7e-m/fpv4-sp/hard\libg_nano.a(lib_a-findfp.o)
                0x0003d8e0                _cleanup_r

.text.fstat%425
                0x0003d8ec        0xc
 .text.fstat    0x0003d8ec        0xc c:/program files/microchip/xc32/v2.40/bin/bin/../../lib/gcc/pic32c/6.2.1/../../../../pic32c/lib/v7e-m/fpv4-sp/hard\libpic32c.a(fstat.o)
                0x0003d8ec                fstat

.rodata%426     0x0003d8f8        0xb
 .rodata        0x0003d8f8        0xb c:/program files/microchip/xc32/v2.40/bin/bin/../../lib/gcc/pic32c/6.2.1/../../../../pic32c/lib/v7e-m/fpv4-sp/hard\libg_nano.a(lib_a-locale.o)

.rodata%427     0x0003d904       0x18
 .rodata        0x0003d904        0x8 build/aws_demos/debug/_ext/1456806047/atcacert_def.o
 .rodata        0x0003d90c        0x8 build/aws_demos/debug/_ext/2090543044/m2m_hif.o
 .rodata        0x0003d914        0x8 build/aws_demos/debug/_ext/2146650376/atca_hal.o

.text.close%430
                0x0003d91c        0x8
 .text.close    0x0003d91c        0x8 c:/program files/microchip/xc32/v2.40/bin/bin/../../lib/gcc/pic32c/6.2.1/../../../../pic32c/lib/v7e-m/fpv4-sp/hard\libpic32c.a(close.o)
                0x0003d91c                close

.text.__sclose%431
                0x0003d924        0x8
 .text.__sclose
                0x0003d924        0x8 c:/program files/microchip/xc32/v2.40/bin/bin/../../lib/gcc/pic32c/6.2.1/../../../../pic32c/lib/v7e-m/fpv4-sp/hard\libg_nano.a(lib_a-stdio.o)
                0x0003d924                __sclose

.text.__gettzinfo%432
                0x0003d92c        0x8
 .text.__gettzinfo
                0x0003d92c        0x8 c:/program files/microchip/xc32/v2.40/bin/bin/../../lib/gcc/pic32c/6.2.1/../../../../pic32c/lib/v7e-m/fpv4-sp/hard\libg_nano.a(lib_a-gettzinfo.o)
                0x0003d92c                __gettzinfo

.text.__locale_ctype_ptr_l%433
                0x0003d934        0x6
 .text.__locale_ctype_ptr_l
                0x0003d934        0x6 c:/program files/microchip/xc32/v2.40/bin/bin/../../lib/gcc/pic32c/6.2.1/../../../../pic32c/lib/v7e-m/fpv4-sp/hard\libg_nano.a(lib_a-locale.o)
                0x0003d934                __locale_ctype_ptr_l

.text.__printf_float%434
                0x0003d93a        0x6
 .text.__printf_float
                0x0003d93a        0x6 c:/program files/microchip/xc32/v2.40/bin/bin/../../lib/gcc/pic32c/6.2.1/../../../../pic32c/lib/v7e-m/fpv4-sp/hard\libg_nano.a(_lib_a-nano-vfprintf.s.o)
                0x0003d93a                _printf_float

.rodata%435     0x0003b46c        0x4
 .rodata        0x0003b46c        0x4 build/aws_demos/debug/_ext/306685378/atca_helpers.o

.rodata%436     0x0003d940        0x4
 .rodata        0x0003d940        0x4 build/aws_demos/debug/_ext/2090543044/m2m_flash.o

.text.Dummy_Handler%437
                0x0003d944        0x4
 .text.Dummy_Handler
                0x0003d944        0x4 build/aws_demos/debug/_ext/1534096987/interrupts.o
                0x0003d944                EIC_EXTINT_9_Handler
                0x0003d944                TCC0_MC5_Handler
                0x0003d944                SERCOM0_2_Handler
                0x0003d944                USB_SOF_HSOF_Handler
                0x0003d944                TCC4_OTHER_Handler
                0x0003d944                TCC2_MC2_Handler
                0x0003d944                EVSYS_0_Handler
                0x0003d944                TRNG_Handler
                0x0003d944                TC2_Handler
                0x0003d944                USB_TRCPT0_Handler
                0x0003d944                DAC_OTHER_Handler
                0x0003d944                AC_Handler
                0x0003d944                DAC_EMPTY_0_Handler
                0x0003d944                EIC_EXTINT_5_Handler
                0x0003d944                SERCOM3_1_Handler
                0x0003d944                SERCOM3_2_Handler
                0x0003d944                EIC_EXTINT_6_Handler
                0x0003d944                TC7_Handler
                0x0003d944                TCC4_MC0_Handler
                0x0003d944                EVSYS_3_Handler
                0x0003d944                QSPI_Handler
                0x0003d944                TCC2_MC0_Handler
                0x0003d944                PDEC_OTHER_Handler
                0x0003d944                TCC3_MC0_Handler
                0x0003d944                PDEC_MC1_Handler
                0x0003d944                TCC2_MC1_Handler
                0x0003d944                OSCCTRL_XOSC1_Handler
                0x0003d944                PDEC_MC0_Handler
                0x0003d944                EIC_EXTINT_4_Handler
                0x0003d944                SERCOM0_OTHER_Handler
                0x0003d944                EVSYS_OTHER_Handler
                0x0003d944                SERCOM0_0_Handler
                0x0003d944                RTC_Handler
                0x0003d944                TCC1_MC0_Handler
                0x0003d944                SERCOM1_OTHER_Handler
                0x0003d944                TCC2_OTHER_Handler
                0x0003d944                EIC_EXTINT_11_Handler
                0x0003d944                SUPC_BODDET_Handler
                0x0003d944                EIC_EXTINT_14_Handler
                0x0003d944                OSC32KCTRL_Handler
                0x0003d944                EVSYS_1_Handler
                0x0003d944                TC6_Handler
                0x0003d944                TCC4_MC1_Handler
                0x0003d944                SUPC_OTHER_Handler
                0x0003d944                WDT_Handler
                0x0003d944                CAN0_Handler
                0x0003d944                EIC_EXTINT_15_Handler
                0x0003d944                EIC_EXTINT_1_Handler
                0x0003d944                TCC3_MC1_Handler
                0x0003d944                SERCOM5_0_Handler
                0x0003d944                TC4_Handler
                0x0003d944                TC1_Handler
                0x0003d944                TCC1_MC1_Handler
                0x0003d944                EIC_EXTINT_0_Handler
                0x0003d944                TCC1_OTHER_Handler
                0x0003d944                PAC_Handler
                0x0003d944                Dummy_Handler
                0x0003d944                DAC_RESRDY_0_Handler
                0x0003d944                SERCOM5_1_Handler
                0x0003d944                TCC0_MC4_Handler
                0x0003d944                USB_TRCPT1_Handler
                0x0003d944                SERCOM0_1_Handler
                0x0003d944                TCC0_MC3_Handler
                0x0003d944                EIC_EXTINT_12_Handler
                0x0003d944                OSCCTRL_DPLL0_Handler
                0x0003d944                SERCOM5_OTHER_Handler
                0x0003d944                PM_Handler
                0x0003d944                OSCCTRL_DFLL_Handler
                0x0003d944                DAC_RESRDY_1_Handler
                0x0003d944                USB_OTHER_Handler
                0x0003d944                GMAC_Handler
                0x0003d944                SDHC1_Handler
                0x0003d944                CAN1_Handler
                0x0003d944                TCC0_OTHER_Handler
                0x0003d944                EIC_EXTINT_10_Handler
                0x0003d944                TCC1_MC3_Handler
                0x0003d944                OSCCTRL_XOSC0_Handler
                0x0003d944                TCC0_MC0_Handler
                0x0003d944                EIC_EXTINT_2_Handler
                0x0003d944                SDHC0_Handler
                0x0003d944                SERCOM1_1_Handler
                0x0003d944                I2S_Handler
                0x0003d944                PCC_Handler
                0x0003d944                TCC3_OTHER_Handler
                0x0003d944                EIC_EXTINT_13_Handler
                0x0003d944                SERCOM1_0_Handler
                0x0003d944                PUKCC_Handler
                0x0003d944                SERCOM1_2_Handler
                0x0003d944                SERCOM3_0_Handler
                0x0003d944                TCC1_MC2_Handler
                0x0003d944                ADC1_RESRDY_Handler
                0x0003d944                NVMCTRL_1_Handler
                0x0003d944                SERCOM5_2_Handler
                0x0003d944                DAC_EMPTY_1_Handler
                0x0003d944                ADC1_OTHER_Handler
                0x0003d944                OSCCTRL_DPLL1_Handler
                0x0003d944                EIC_EXTINT_3_Handler
                0x0003d944                SERCOM3_OTHER_Handler
                0x0003d944                EIC_EXTINT_8_Handler
                0x0003d944                NVMCTRL_0_Handler
                0x0003d944                ADC0_RESRDY_Handler
                0x0003d944                ADC0_OTHER_Handler
                0x0003d944                MCLK_Handler
                0x0003d944                EVSYS_2_Handler
                0x0003d944                FREQM_Handler
                0x0003d944                TC0_Handler
                0x0003d944                TCC0_MC1_Handler
                0x0003d944                RAMECC_Handler
                0x0003d944                TC5_Handler
                0x0003d944                AES_Handler
                0x0003d944                ICM_Handler
                0x0003d944                TCC0_MC2_Handler

.text%438       0x0003d948        0x4
 .text          0x0003d948        0x4 c:/program files/microchip/xc32/v2.40/bin/bin/../../lib/gcc/pic32c/6.2.1/v7e-m/fpv4-sp/hard\libgcc.a(_dvmd_tls.o)
                0x0003d948                __aeabi_idiv0
                0x0003d948                __aeabi_ldiv0

.rodata._global_impure_ptr%439
                0x0003d94c        0x4
 .rodata._global_impure_ptr
                0x0003d94c        0x4 c:/program files/microchip/xc32/v2.40/bin/bin/../../lib/gcc/pic32c/6.2.1/../../../../pic32c/lib/v7e-m/fpv4-sp/hard\libg_nano.a(lib_a-impure.o)
                0x0003d94c                _global_impure_ptr

.text.__seofread%440
                0x0003d950        0x4
 .text.__seofread
                0x0003d950        0x4 c:/program files/microchip/xc32/v2.40/bin/bin/../../lib/gcc/pic32c/6.2.1/../../../../pic32c/lib/v7e-m/fpv4-sp/hard\libg_nano.a(lib_a-stdio.o)
                0x0003d950                __seofread

.text._tzset_unlocked%441
                0x0003d954        0x4
 .text._tzset_unlocked
                0x0003d954        0x4 c:/program files/microchip/xc32/v2.40/bin/bin/../../lib/gcc/pic32c/6.2.1/../../../../pic32c/lib/v7e-m/fpv4-sp/hard\libg_nano.a(lib_a-tzset.o)
                0x0003d954                _tzset_unlocked

.rodata%442     0x0003d958        0x4
 .rodata        0x0003d958        0x4 c:/program files/microchip/xc32/v2.40/bin/bin/../../lib/gcc/pic32c/6.2.1/../../../../pic32c/lib/v7e-m/fpv4-sp/hard\libg_nano.a(lib_a-tzvars.o)

.text.__scanf_float%443
                0x0003d95c        0x4
 .text.__scanf_float
                0x0003d95c        0x4 c:/program files/microchip/xc32/v2.40/bin/bin/../../lib/gcc/pic32c/6.2.1/../../../../pic32c/lib/v7e-m/fpv4-sp/hard\libg_nano.a(_lib_a-nano-vfscanf.cdnopsuxX.o)
                0x0003d95c                _scanf_float

.rodata%444     0x0003d960        0x4
 .rodata        0x0003d960        0x4 c:/program files/microchip/xc32/v2.40/bin/bin/../../lib/gcc/pic32c/6.2.1/../../../../pic32c/lib/v7e-m/fpv4-sp/hard\libg_nano.a(lib_a-nano-svfscanf.o)

.text._close%445
                0x0003d964        0x4
 .text._close   0x0003d964        0x4 c:/program files/microchip/xc32/v2.40/bin/bin/../../lib/gcc/pic32c/6.2.1/../../../../pic32c/lib/v7e-m/fpv4-sp/hard\libpic32c.a(_close.o)
                0x0003d964                _close

.text._fstat%446
                0x0003d968        0x4
 .text._fstat   0x0003d968        0x4 c:/program files/microchip/xc32/v2.40/bin/bin/../../lib/gcc/pic32c/6.2.1/../../../../pic32c/lib/v7e-m/fpv4-sp/hard\libpic32c.a(_fstat.o)
                0x0003d968                _fstat

.text._isatty%447
                0x0003d96c        0x4
 .text._isatty  0x0003d96c        0x4 c:/program files/microchip/xc32/v2.40/bin/bin/../../lib/gcc/pic32c/6.2.1/../../../../pic32c/lib/v7e-m/fpv4-sp/hard\libpic32c.a(_isatty.o)
                0x0003d96c                _isatty

.text._lseek%448
                0x0003d970        0x4
 .text._lseek   0x0003d970        0x4 c:/program files/microchip/xc32/v2.40/bin/bin/../../lib/gcc/pic32c/6.2.1/../../../../pic32c/lib/v7e-m/fpv4-sp/hard\libpic32c.a(_lseek.o)
                0x0003d970                _lseek

.text._read%449
                0x0003d974        0x4
 .text._read    0x0003d974        0x4 c:/program files/microchip/xc32/v2.40/bin/bin/../../lib/gcc/pic32c/6.2.1/../../../../pic32c/lib/v7e-m/fpv4-sp/hard\libpic32c.a(_read.o)
                0x0003d974                _read

.text._write%450
                0x0003d978        0x4
 .text._write   0x0003d978        0x4 c:/program files/microchip/xc32/v2.40/bin/bin/../../lib/gcc/pic32c/6.2.1/../../../../pic32c/lib/v7e-m/fpv4-sp/hard\libpic32c.a(_write.o)
                0x0003d978                _write

.text.isatty%451
                0x0003d97c        0x4
 .text.isatty   0x0003d97c        0x4 c:/program files/microchip/xc32/v2.40/bin/bin/../../lib/gcc/pic32c/6.2.1/../../../../pic32c/lib/v7e-m/fpv4-sp/hard\libpic32c.a(isatty.o)
                0x0003d97c                isatty

.text.lseek%452
                0x0003d980        0x4
 .text.lseek    0x0003d980        0x4 c:/program files/microchip/xc32/v2.40/bin/bin/../../lib/gcc/pic32c/6.2.1/../../../../pic32c/lib/v7e-m/fpv4-sp/hard\libpic32c.a(lseek.o)
                0x0003d980                lseek

.rodata%453     0x00038e42        0x2
 .rodata        0x00038e42        0x2 build/aws_demos/debug/_ext/1326886903/pkcs11_attrib.o

.text%454       0x0003a066        0x2
 .text          0x0003a066        0x2 build/aws_demos/debug/_ext/1321577635/plib_evsys.o
                0x0003a066                EVSYS_Initialize

.text.__malloc_lock%455
                0x0003afe2        0x2
 .text.__malloc_lock
                0x0003afe2        0x2 c:/program files/microchip/xc32/v2.40/bin/bin/../../lib/gcc/pic32c/6.2.1/../../../../pic32c/lib/v7e-m/fpv4-sp/hard\libg_nano.a(lib_a-mlock.o)
                0x0003afe2                __malloc_lock

.text.__malloc_unlock%456
                0x0003b7fe        0x2
 .text.__malloc_unlock
                0x0003b7fe        0x2 c:/program files/microchip/xc32/v2.40/bin/bin/../../lib/gcc/pic32c/6.2.1/../../../../pic32c/lib/v7e-m/fpv4-sp/hard\libg_nano.a(lib_a-mlock.o)
                0x0003b7fe                __malloc_unlock

.text.__env_lock%457
                0x0003bba6        0x2
 .text.__env_lock
                0x0003bba6        0x2 c:/program files/microchip/xc32/v2.40/bin/bin/../../lib/gcc/pic32c/6.2.1/../../../../pic32c/lib/v7e-m/fpv4-sp/hard\libg_nano.a(lib_a-envlock.o)
                0x0003bba6                __env_lock

.text.__env_unlock%458
                0x0003bd9e        0x2
 .text.__env_unlock
                0x0003bd9e        0x2 c:/program files/microchip/xc32/v2.40/bin/bin/../../lib/gcc/pic32c/6.2.1/../../../../pic32c/lib/v7e-m/fpv4-sp/hard\libg_nano.a(lib_a-envlock.o)
                0x0003bd9e                __env_unlock
