Archive member included to satisfy reference by file (symbol)

c:/program files/microchip/xc32/v2.40/bin/bin/../../lib/gcc/pic32c/6.2.1/../../../../pic32c/lib/v7e-m/fpv4-sp/hard\libpic32c.a(data_init.o)
                              build/aws_demos/production/_ext/1534096987/startup_xc32.o (__pic32c_data_initialization)
c:/program files/microchip/xc32/v2.40/bin/bin/../../lib/gcc/pic32c/6.2.1/v7e-m/fpv4-sp/hard\libgcc.a(_arm_addsubdf3.o)
                              build/aws_demos/production/_ext/1057560203/cborpretty.o (__aeabi_i2d)
c:/program files/microchip/xc32/v2.40/bin/bin/../../lib/gcc/pic32c/6.2.1/v7e-m/fpv4-sp/hard\libgcc.a(_arm_cmpdf2.o)
                              build/aws_demos/production/_ext/1057560203/cborpretty.o (__aeabi_dcmpeq)
c:/program files/microchip/xc32/v2.40/bin/bin/../../lib/gcc/pic32c/6.2.1/v7e-m/fpv4-sp/hard\libgcc.a(_arm_unorddf2.o)
                              build/aws_demos/production/_ext/1057560203/cborpretty.o (__aeabi_dcmpun)
c:/program files/microchip/xc32/v2.40/bin/bin/../../lib/gcc/pic32c/6.2.1/v7e-m/fpv4-sp/hard\libgcc.a(_arm_truncdfsf2.o)
                              build/aws_demos/production/_ext/1057560203/cborvalidation.o (__aeabi_d2f)
c:/program files/microchip/xc32/v2.40/bin/bin/../../lib/gcc/pic32c/6.2.1/v7e-m/fpv4-sp/hard\libgcc.a(_aeabi_uldivmod.o)
                              build/aws_demos/production/_ext/1319661984/drv_gmac.o (__aeabi_uldivmod)
c:/program files/microchip/xc32/v2.40/bin/bin/../../lib/gcc/pic32c/6.2.1/v7e-m/fpv4-sp/hard\libgcc.a(_fixunsdfdi.o)
                              build/aws_demos/production/_ext/1057560203/cborpretty.o (__aeabi_d2ulz)
c:/program files/microchip/xc32/v2.40/bin/bin/../../lib/gcc/pic32c/6.2.1/v7e-m/fpv4-sp/hard\libgcc.a(_udivmoddi4.o)
                              c:/program files/microchip/xc32/v2.40/bin/bin/../../lib/gcc/pic32c/6.2.1/v7e-m/fpv4-sp/hard\libgcc.a(_aeabi_uldivmod.o) (__udivmoddi4)
c:/program files/microchip/xc32/v2.40/bin/bin/../../lib/gcc/pic32c/6.2.1/v7e-m/fpv4-sp/hard\libgcc.a(_dvmd_tls.o)
                              c:/program files/microchip/xc32/v2.40/bin/bin/../../lib/gcc/pic32c/6.2.1/v7e-m/fpv4-sp/hard\libgcc.a(_aeabi_uldivmod.o) (__aeabi_ldiv0)
c:/program files/microchip/xc32/v2.40/bin/bin/../../lib/gcc/pic32c/6.2.1/v7e-m/fpv4-sp/hard\libgcc.a(_arm_muldivdf3.o)
                              c:/program files/microchip/xc32/v2.40/bin/bin/../../lib/gcc/pic32c/6.2.1/v7e-m/fpv4-sp/hard\libgcc.a(_fixunsdfdi.o) (__aeabi_dmul)
c:/program files/microchip/xc32/v2.40/bin/bin/../../lib/gcc/pic32c/6.2.1/v7e-m/fpv4-sp/hard\libgcc.a(_arm_fixunsdfsi.o)
                              c:/program files/microchip/xc32/v2.40/bin/bin/../../lib/gcc/pic32c/6.2.1/v7e-m/fpv4-sp/hard\libgcc.a(_fixunsdfdi.o) (__aeabi_d2uiz)
c:/program files/microchip/xc32/v2.40/bin/bin/../../lib/gcc/pic32c/6.2.1/../../../../pic32c/lib/v7e-m/fpv4-sp/hard\libm_nano.a(lib_a-s_ldexp.o)
                              build/aws_demos/production/_ext/1057560203/cborpretty.o (ldexp)
c:/program files/microchip/xc32/v2.40/bin/bin/../../lib/gcc/pic32c/6.2.1/../../../../pic32c/lib/v7e-m/fpv4-sp/hard\libm_nano.a(lib_a-s_scalbn.o)
                              c:/program files/microchip/xc32/v2.40/bin/bin/../../lib/gcc/pic32c/6.2.1/../../../../pic32c/lib/v7e-m/fpv4-sp/hard\libm_nano.a(lib_a-s_ldexp.o) (scalbn)
c:/program files/microchip/xc32/v2.40/bin/bin/../../lib/gcc/pic32c/6.2.1/../../../../pic32c/lib/v7e-m/fpv4-sp/hard\libm_nano.a(lib_a-s_copysign.o)
                              c:/program files/microchip/xc32/v2.40/bin/bin/../../lib/gcc/pic32c/6.2.1/../../../../pic32c/lib/v7e-m/fpv4-sp/hard\libm_nano.a(lib_a-s_scalbn.o) (copysign)
c:/program files/microchip/xc32/v2.40/bin/bin/../../lib/gcc/pic32c/6.2.1/../../../../pic32c/lib/v7e-m/fpv4-sp/hard\libm_nano.a(lib_a-s_finite.o)
                              c:/program files/microchip/xc32/v2.40/bin/bin/../../lib/gcc/pic32c/6.2.1/../../../../pic32c/lib/v7e-m/fpv4-sp/hard\libm_nano.a(lib_a-s_ldexp.o) (finite)
c:/program files/microchip/xc32/v2.40/bin/bin/../../lib/gcc/pic32c/6.2.1/../../../../pic32c/lib/v7e-m/fpv4-sp/hard\libc_nano.a(lib_a-assert.o)
                              build/aws_demos/production/_ext/490551821/http_parser.o (__assert_func)
c:/program files/microchip/xc32/v2.40/bin/bin/../../lib/gcc/pic32c/6.2.1/../../../../pic32c/lib/v7e-m/fpv4-sp/hard\libc_nano.a(lib_a-atoi.o)
                              build/aws_demos/production/_ext/255308820/iot_serializer_json_decoder.o (atoi)
c:/program files/microchip/xc32/v2.40/bin/bin/../../lib/gcc/pic32c/6.2.1/../../../../pic32c/lib/v7e-m/fpv4-sp/hard\libc_nano.a(lib_a-calloc.o)
                              build/aws_demos/production/_ext/1991396724/sys_command.o (calloc)
c:/program files/microchip/xc32/v2.40/bin/bin/../../lib/gcc/pic32c/6.2.1/../../../../pic32c/lib/v7e-m/fpv4-sp/hard\libc_nano.a(lib_a-errno.o)
                              c:/program files/microchip/xc32/v2.40/bin/bin/../../lib/gcc/pic32c/6.2.1/../../../../pic32c/lib/v7e-m/fpv4-sp/hard\libm_nano.a(lib_a-s_ldexp.o) (__errno)
c:/program files/microchip/xc32/v2.40/bin/bin/../../lib/gcc/pic32c/6.2.1/../../../../pic32c/lib/v7e-m/fpv4-sp/hard\libc_nano.a(lib_a-fprintf.o)
                              c:/program files/microchip/xc32/v2.40/bin/bin/../../lib/gcc/pic32c/6.2.1/../../../../pic32c/lib/v7e-m/fpv4-sp/hard\libc_nano.a(lib_a-assert.o) (fiprintf)
c:/program files/microchip/xc32/v2.40/bin/bin/../../lib/gcc/pic32c/6.2.1/../../../../pic32c/lib/v7e-m/fpv4-sp/hard\libc_nano.a(lib_a-impure.o)
                              c:/program files/microchip/xc32/v2.40/bin/bin/../../lib/gcc/pic32c/6.2.1/../../../../pic32c/lib/v7e-m/fpv4-sp/hard\libc_nano.a(lib_a-assert.o) (_impure_ptr)
c:/program files/microchip/xc32/v2.40/bin/bin/../../lib/gcc/pic32c/6.2.1/../../../../pic32c/lib/v7e-m/fpv4-sp/hard\libc_nano.a(lib_a-init.o)
                              build/aws_demos/production/_ext/1534096987/startup_xc32.o (__libc_init_array)
c:/program files/microchip/xc32/v2.40/bin/bin/../../lib/gcc/pic32c/6.2.1/../../../../pic32c/lib/v7e-m/fpv4-sp/hard\libc_nano.a(lib_a-locale.o)
                              build/aws_demos/production/_ext/197858987/helpers.o (__locale_ctype_ptr)
c:/program files/microchip/xc32/v2.40/bin/bin/../../lib/gcc/pic32c/6.2.1/../../../../pic32c/lib/v7e-m/fpv4-sp/hard\libc_nano.a(lib_a-malloc.o)
                              build/aws_demos/production/_ext/1057560203/cborparser_dup_string.o (malloc)
c:/program files/microchip/xc32/v2.40/bin/bin/../../lib/gcc/pic32c/6.2.1/../../../../pic32c/lib/v7e-m/fpv4-sp/hard\libc_nano.a(lib_a-mbtowc_r.o)
                              c:/program files/microchip/xc32/v2.40/bin/bin/../../lib/gcc/pic32c/6.2.1/../../../../pic32c/lib/v7e-m/fpv4-sp/hard\libc_nano.a(lib_a-locale.o) (__ascii_mbtowc)
c:/program files/microchip/xc32/v2.40/bin/bin/../../lib/gcc/pic32c/6.2.1/../../../../pic32c/lib/v7e-m/fpv4-sp/hard\libc_nano.a(lib_a-memcmp.o)
                              build/aws_demos/production/_ext/1319661984/drv_gmac.o (memcmp)
c:/program files/microchip/xc32/v2.40/bin/bin/../../lib/gcc/pic32c/6.2.1/../../../../pic32c/lib/v7e-m/fpv4-sp/hard\libc_nano.a(lib_a-memcpy-stub.o)
                              build/aws_demos/production/_ext/665618993/plib_nvmctrl.o (memcpy)
c:/program files/microchip/xc32/v2.40/bin/bin/../../lib/gcc/pic32c/6.2.1/../../../../pic32c/lib/v7e-m/fpv4-sp/hard\libc_nano.a(lib_a-memmove.o)
                              build/aws_demos/production/_ext/1682906662/FreeRTOS_IP.o (memmove)
c:/program files/microchip/xc32/v2.40/bin/bin/../../lib/gcc/pic32c/6.2.1/../../../../pic32c/lib/v7e-m/fpv4-sp/hard\libc_nano.a(lib_a-memset.o)
                              build/aws_demos/production/_ext/1319661984/drv_gmac.o (memset)
c:/program files/microchip/xc32/v2.40/bin/bin/../../lib/gcc/pic32c/6.2.1/../../../../pic32c/lib/v7e-m/fpv4-sp/hard\libc_nano.a(lib_a-nano-callocr.o)
                              c:/program files/microchip/xc32/v2.40/bin/bin/../../lib/gcc/pic32c/6.2.1/../../../../pic32c/lib/v7e-m/fpv4-sp/hard\libc_nano.a(lib_a-calloc.o) (_calloc_r)
c:/program files/microchip/xc32/v2.40/bin/bin/../../lib/gcc/pic32c/6.2.1/../../../../pic32c/lib/v7e-m/fpv4-sp/hard\libc_nano.a(lib_a-nano-freer.o)
                              c:/program files/microchip/xc32/v2.40/bin/bin/../../lib/gcc/pic32c/6.2.1/../../../../pic32c/lib/v7e-m/fpv4-sp/hard\libc_nano.a(lib_a-malloc.o) (_free_r)
c:/program files/microchip/xc32/v2.40/bin/bin/../../lib/gcc/pic32c/6.2.1/../../../../pic32c/lib/v7e-m/fpv4-sp/hard\libc_nano.a(lib_a-nano-mallocr.o)
                              c:/program files/microchip/xc32/v2.40/bin/bin/../../lib/gcc/pic32c/6.2.1/../../../../pic32c/lib/v7e-m/fpv4-sp/hard\libc_nano.a(lib_a-malloc.o) (_malloc_r)
c:/program files/microchip/xc32/v2.40/bin/bin/../../lib/gcc/pic32c/6.2.1/../../../../pic32c/lib/v7e-m/fpv4-sp/hard\libc_nano.a(lib_a-nano-vfprintf.o)
                              c:/program files/microchip/xc32/v2.40/bin/bin/../../lib/gcc/pic32c/6.2.1/../../../../pic32c/lib/v7e-m/fpv4-sp/hard\libc_nano.a(lib_a-fprintf.o) (_vfprintf_r)
c:/program files/microchip/xc32/v2.40/bin/bin/../../lib/gcc/pic32c/6.2.1/../../../../pic32c/lib/v7e-m/fpv4-sp/hard\libc_nano.a(_lib_a-nano-vfprintf.s.o)
                              c:/program files/microchip/xc32/v2.40/bin/bin/../../lib/gcc/pic32c/6.2.1/../../../../pic32c/lib/v7e-m/fpv4-sp/hard\libc_nano.a(lib_a-nano-vfprintf.o) (_printf_float)
c:/program files/microchip/xc32/v2.40/bin/bin/../../lib/gcc/pic32c/6.2.1/../../../../pic32c/lib/v7e-m/fpv4-sp/hard\libc_nano.a(lib_a-printf.o)
                              build/aws_demos/production/_ext/684768522/base64.o (printf)
c:/program files/microchip/xc32/v2.40/bin/bin/../../lib/gcc/pic32c/6.2.1/../../../../pic32c/lib/v7e-m/fpv4-sp/hard\libc_nano.a(lib_a-putchar.o)
                              build/aws_demos/production/_ext/684768522/aes.o (putchar)
c:/program files/microchip/xc32/v2.40/bin/bin/../../lib/gcc/pic32c/6.2.1/../../../../pic32c/lib/v7e-m/fpv4-sp/hard\libc_nano.a(lib_a-putc.o)
                              c:/program files/microchip/xc32/v2.40/bin/bin/../../lib/gcc/pic32c/6.2.1/../../../../pic32c/lib/v7e-m/fpv4-sp/hard\libc_nano.a(lib_a-putchar.o) (_putc_r)
c:/program files/microchip/xc32/v2.40/bin/bin/../../lib/gcc/pic32c/6.2.1/../../../../pic32c/lib/v7e-m/fpv4-sp/hard\libc_nano.a(lib_a-puts.o)
                              build/aws_demos/production/_ext/1778494626/NetworkInterface_eth.o (puts)
c:/program files/microchip/xc32/v2.40/bin/bin/../../lib/gcc/pic32c/6.2.1/../../../../pic32c/lib/v7e-m/fpv4-sp/hard\libc_nano.a(lib_a-rand.o)
                              build/aws_demos/production/_ext/684768522/rsa.o (rand)
c:/program files/microchip/xc32/v2.40/bin/bin/../../lib/gcc/pic32c/6.2.1/../../../../pic32c/lib/v7e-m/fpv4-sp/hard\libc_nano.a(lib_a-sbrkr.o)
                              c:/program files/microchip/xc32/v2.40/bin/bin/../../lib/gcc/pic32c/6.2.1/../../../../pic32c/lib/v7e-m/fpv4-sp/hard\libc_nano.a(lib_a-nano-mallocr.o) (_sbrk_r)
c:/program files/microchip/xc32/v2.40/bin/bin/../../lib/gcc/pic32c/6.2.1/../../../../pic32c/lib/v7e-m/fpv4-sp/hard\libc_nano.a(lib_a-snprintf.o)
                              build/aws_demos/production/_ext/684768522/x509.o (snprintf)
c:/program files/microchip/xc32/v2.40/bin/bin/../../lib/gcc/pic32c/6.2.1/../../../../pic32c/lib/v7e-m/fpv4-sp/hard\libc_nano.a(lib_a-sprintf.o)
                              (sprintf)
c:/program files/microchip/xc32/v2.40/bin/bin/../../lib/gcc/pic32c/6.2.1/../../../../pic32c/lib/v7e-m/fpv4-sp/hard\libc_nano.a(_lib_a-sscanf.cdnopsuxX.o)
                              (_sscanf_cdnopsuxX)
c:/program files/microchip/xc32/v2.40/bin/bin/../../lib/gcc/pic32c/6.2.1/../../../../pic32c/lib/v7e-m/fpv4-sp/hard\libc_nano.a(lib_a-__ssfputs.o)
                              c:/program files/microchip/xc32/v2.40/bin/bin/../../lib/gcc/pic32c/6.2.1/../../../../pic32c/lib/v7e-m/fpv4-sp/hard\libc_nano.a(lib_a-nano-vfprintf.o) (__ssfputs_r)
c:/program files/microchip/xc32/v2.40/bin/bin/../../lib/gcc/pic32c/6.2.1/../../../../pic32c/lib/v7e-m/fpv4-sp/hard\libc_nano.a(lib_a-stdio.o)
                              c:/program files/microchip/xc32/v2.40/bin/bin/../../lib/gcc/pic32c/6.2.1/../../../../pic32c/lib/v7e-m/fpv4-sp/hard\libc_nano.a(_lib_a-sscanf.cdnopsuxX.o) (__seofread)
c:/program files/microchip/xc32/v2.40/bin/bin/../../lib/gcc/pic32c/6.2.1/../../../../pic32c/lib/v7e-m/fpv4-sp/hard\libc_nano.a(lib_a-strchr.o)
                              build/aws_demos/production/_ext/1741632483/iot_demo_https_common.o (strchr)
c:/program files/microchip/xc32/v2.40/bin/bin/../../lib/gcc/pic32c/6.2.1/../../../../pic32c/lib/v7e-m/fpv4-sp/hard\libc_nano.a(lib_a-strcmp.o)
                              build/aws_demos/production/_ext/1991396724/sys_command.o (strcmp)
c:/program files/microchip/xc32/v2.40/bin/bin/../../lib/gcc/pic32c/6.2.1/../../../../pic32c/lib/v7e-m/fpv4-sp/hard\libc_nano.a(lib_a-strcpy.o)
                              build/aws_demos/production/_ext/1991396724/sys_command.o (strcpy)
c:/program files/microchip/xc32/v2.40/bin/bin/../../lib/gcc/pic32c/6.2.1/../../../../pic32c/lib/v7e-m/fpv4-sp/hard\libc_nano.a(lib_a-strlen.o)
                              build/aws_demos/production/_ext/1991396724/sys_command.o (strlen)
c:/program files/microchip/xc32/v2.40/bin/bin/../../lib/gcc/pic32c/6.2.1/../../../../pic32c/lib/v7e-m/fpv4-sp/hard\libc_nano.a(lib_a-strncmp.o)
                              build/aws_demos/production/_ext/1991396724/sys_command.o (strncmp)
c:/program files/microchip/xc32/v2.40/bin/bin/../../lib/gcc/pic32c/6.2.1/../../../../pic32c/lib/v7e-m/fpv4-sp/hard\libc_nano.a(lib_a-strncpy.o)
                              build/aws_demos/production/_ext/1319661984/drv_gmac.o (strncpy)
c:/program files/microchip/xc32/v2.40/bin/bin/../../lib/gcc/pic32c/6.2.1/../../../../pic32c/lib/v7e-m/fpv4-sp/hard\libc_nano.a(lib_a-strstr.o)
                              build/aws_demos/production/_ext/684768522/pem.o (strstr)
c:/program files/microchip/xc32/v2.40/bin/bin/../../lib/gcc/pic32c/6.2.1/../../../../pic32c/lib/v7e-m/fpv4-sp/hard\libc_nano.a(lib_a-strtol.o)
                              c:/program files/microchip/xc32/v2.40/bin/bin/../../lib/gcc/pic32c/6.2.1/../../../../pic32c/lib/v7e-m/fpv4-sp/hard\libc_nano.a(lib_a-atoi.o) (_strtol_r)
c:/program files/microchip/xc32/v2.40/bin/bin/../../lib/gcc/pic32c/6.2.1/../../../../pic32c/lib/v7e-m/fpv4-sp/hard\libc_nano.a(lib_a-strtoul.o)
                              build/aws_demos/production/_ext/1741632483/iot_demo_https_common.o (strtoul)
c:/program files/microchip/xc32/v2.40/bin/bin/../../lib/gcc/pic32c/6.2.1/../../../../pic32c/lib/v7e-m/fpv4-sp/hard\libc_nano.a(lib_a-vsnprintf.o)
                              build/aws_demos/production/_ext/1991396724/sys_command.o (vsnprintf)
c:/program files/microchip/xc32/v2.40/bin/bin/../../lib/gcc/pic32c/6.2.1/../../../../pic32c/lib/v7e-m/fpv4-sp/hard\libc_nano.a(lib_a-wbuf.o)
                              c:/program files/microchip/xc32/v2.40/bin/bin/../../lib/gcc/pic32c/6.2.1/../../../../pic32c/lib/v7e-m/fpv4-sp/hard\libc_nano.a(lib_a-putc.o) (__swbuf_r)
c:/program files/microchip/xc32/v2.40/bin/bin/../../lib/gcc/pic32c/6.2.1/../../../../pic32c/lib/v7e-m/fpv4-sp/hard\libc_nano.a(lib_a-wctomb_r.o)
                              c:/program files/microchip/xc32/v2.40/bin/bin/../../lib/gcc/pic32c/6.2.1/../../../../pic32c/lib/v7e-m/fpv4-sp/hard\libc_nano.a(lib_a-locale.o) (__ascii_wctomb)
c:/program files/microchip/xc32/v2.40/bin/bin/../../lib/gcc/pic32c/6.2.1/../../../../pic32c/lib/v7e-m/fpv4-sp/hard\libc_nano.a(lib_a-writer.o)
                              c:/program files/microchip/xc32/v2.40/bin/bin/../../lib/gcc/pic32c/6.2.1/../../../../pic32c/lib/v7e-m/fpv4-sp/hard\libc_nano.a(lib_a-stdio.o) (_write_r)
c:/program files/microchip/xc32/v2.40/bin/bin/../../lib/gcc/pic32c/6.2.1/../../../../pic32c/lib/v7e-m/fpv4-sp/hard\libc_nano.a(lib_a-wsetup.o)
                              c:/program files/microchip/xc32/v2.40/bin/bin/../../lib/gcc/pic32c/6.2.1/../../../../pic32c/lib/v7e-m/fpv4-sp/hard\libc_nano.a(lib_a-nano-vfprintf.o) (__swsetup_r)
c:/program files/microchip/xc32/v2.40/bin/bin/../../lib/gcc/pic32c/6.2.1/../../../../pic32c/lib/v7e-m/fpv4-sp/hard\libc_nano.a(lib_a-abort.o)
                              c:/program files/microchip/xc32/v2.40/bin/bin/../../lib/gcc/pic32c/6.2.1/../../../../pic32c/lib/v7e-m/fpv4-sp/hard\libc_nano.a(lib_a-assert.o) (abort)
c:/program files/microchip/xc32/v2.40/bin/bin/../../lib/gcc/pic32c/6.2.1/../../../../pic32c/lib/v7e-m/fpv4-sp/hard\libc_nano.a(lib_a-closer.o)
                              c:/program files/microchip/xc32/v2.40/bin/bin/../../lib/gcc/pic32c/6.2.1/../../../../pic32c/lib/v7e-m/fpv4-sp/hard\libc_nano.a(lib_a-stdio.o) (_close_r)
c:/program files/microchip/xc32/v2.40/bin/bin/../../lib/gcc/pic32c/6.2.1/../../../../pic32c/lib/v7e-m/fpv4-sp/hard\libc_nano.a(lib_a-ctype_.o)
                              c:/program files/microchip/xc32/v2.40/bin/bin/../../lib/gcc/pic32c/6.2.1/../../../../pic32c/lib/v7e-m/fpv4-sp/hard\libc_nano.a(lib_a-locale.o) (_ctype_)
c:/program files/microchip/xc32/v2.40/bin/bin/../../lib/gcc/pic32c/6.2.1/../../../../pic32c/lib/v7e-m/fpv4-sp/hard\libc_nano.a(lib_a-fflush.o)
                              c:/program files/microchip/xc32/v2.40/bin/bin/../../lib/gcc/pic32c/6.2.1/../../../../pic32c/lib/v7e-m/fpv4-sp/hard\libc_nano.a(lib_a-wbuf.o) (_fflush_r)
c:/program files/microchip/xc32/v2.40/bin/bin/../../lib/gcc/pic32c/6.2.1/../../../../pic32c/lib/v7e-m/fpv4-sp/hard\libc_nano.a(lib_a-findfp.o)
                              c:/program files/microchip/xc32/v2.40/bin/bin/../../lib/gcc/pic32c/6.2.1/../../../../pic32c/lib/v7e-m/fpv4-sp/hard\libc_nano.a(lib_a-nano-vfprintf.o) (__sinit)
c:/program files/microchip/xc32/v2.40/bin/bin/../../lib/gcc/pic32c/6.2.1/../../../../pic32c/lib/v7e-m/fpv4-sp/hard\libc_nano.a(lib_a-fputwc.o)
                              c:/program files/microchip/xc32/v2.40/bin/bin/../../lib/gcc/pic32c/6.2.1/../../../../pic32c/lib/v7e-m/fpv4-sp/hard\libc_nano.a(lib_a-__ssfputs.o) (_fputwc_r)
c:/program files/microchip/xc32/v2.40/bin/bin/../../lib/gcc/pic32c/6.2.1/../../../../pic32c/lib/v7e-m/fpv4-sp/hard\libc_nano.a(lib_a-fwalk.o)
                              c:/program files/microchip/xc32/v2.40/bin/bin/../../lib/gcc/pic32c/6.2.1/../../../../pic32c/lib/v7e-m/fpv4-sp/hard\libc_nano.a(lib_a-fflush.o) (_fwalk_reent)
c:/program files/microchip/xc32/v2.40/bin/bin/../../lib/gcc/pic32c/6.2.1/../../../../pic32c/lib/v7e-m/fpv4-sp/hard\libc_nano.a(lib_a-lseekr.o)
                              c:/program files/microchip/xc32/v2.40/bin/bin/../../lib/gcc/pic32c/6.2.1/../../../../pic32c/lib/v7e-m/fpv4-sp/hard\libc_nano.a(lib_a-stdio.o) (_lseek_r)
c:/program files/microchip/xc32/v2.40/bin/bin/../../lib/gcc/pic32c/6.2.1/../../../../pic32c/lib/v7e-m/fpv4-sp/hard\libc_nano.a(lib_a-makebuf.o)
                              c:/program files/microchip/xc32/v2.40/bin/bin/../../lib/gcc/pic32c/6.2.1/../../../../pic32c/lib/v7e-m/fpv4-sp/hard\libc_nano.a(lib_a-wsetup.o) (__smakebuf_r)
c:/program files/microchip/xc32/v2.40/bin/bin/../../lib/gcc/pic32c/6.2.1/../../../../pic32c/lib/v7e-m/fpv4-sp/hard\libc_nano.a(lib_a-memchr.o)
                              c:/program files/microchip/xc32/v2.40/bin/bin/../../lib/gcc/pic32c/6.2.1/../../../../pic32c/lib/v7e-m/fpv4-sp/hard\libc_nano.a(lib_a-nano-vfprintf.o) (memchr)
c:/program files/microchip/xc32/v2.40/bin/bin/../../lib/gcc/pic32c/6.2.1/../../../../pic32c/lib/v7e-m/fpv4-sp/hard\libc_nano.a(lib_a-mlock.o)
                              c:/program files/microchip/xc32/v2.40/bin/bin/../../lib/gcc/pic32c/6.2.1/../../../../pic32c/lib/v7e-m/fpv4-sp/hard\libc_nano.a(lib_a-nano-freer.o) (__malloc_lock)
c:/program files/microchip/xc32/v2.40/bin/bin/../../lib/gcc/pic32c/6.2.1/../../../../pic32c/lib/v7e-m/fpv4-sp/hard\libc_nano.a(lib_a-nano-svfprintf.o)
                              c:/program files/microchip/xc32/v2.40/bin/bin/../../lib/gcc/pic32c/6.2.1/../../../../pic32c/lib/v7e-m/fpv4-sp/hard\libc_nano.a(lib_a-snprintf.o) (_svfprintf_r)
c:/program files/microchip/xc32/v2.40/bin/bin/../../lib/gcc/pic32c/6.2.1/../../../../pic32c/lib/v7e-m/fpv4-sp/hard\libc_nano.a(lib_a-nano-vfprintf_i.o)
                              c:/program files/microchip/xc32/v2.40/bin/bin/../../lib/gcc/pic32c/6.2.1/../../../../pic32c/lib/v7e-m/fpv4-sp/hard\libc_nano.a(_lib_a-nano-vfprintf.s.o) (_printf_common)
c:/program files/microchip/xc32/v2.40/bin/bin/../../lib/gcc/pic32c/6.2.1/../../../../pic32c/lib/v7e-m/fpv4-sp/hard\libc_nano.a(_lib_a-nano-vfscanf.cdnopsuxX.o)
                              c:/program files/microchip/xc32/v2.40/bin/bin/../../lib/gcc/pic32c/6.2.1/../../../../pic32c/lib/v7e-m/fpv4-sp/hard\libc_nano.a(_lib_a-sscanf.cdnopsuxX.o) (_vfscanf_cdnopsuxX)
c:/program files/microchip/xc32/v2.40/bin/bin/../../lib/gcc/pic32c/6.2.1/../../../../pic32c/lib/v7e-m/fpv4-sp/hard\libc_nano.a(lib_a-readr.o)
                              c:/program files/microchip/xc32/v2.40/bin/bin/../../lib/gcc/pic32c/6.2.1/../../../../pic32c/lib/v7e-m/fpv4-sp/hard\libc_nano.a(lib_a-stdio.o) (_read_r)
c:/program files/microchip/xc32/v2.40/bin/bin/../../lib/gcc/pic32c/6.2.1/../../../../pic32c/lib/v7e-m/fpv4-sp/hard\libc_nano.a(lib_a-reent.o)
                              c:/program files/microchip/xc32/v2.40/bin/bin/../../lib/gcc/pic32c/6.2.1/../../../../pic32c/lib/v7e-m/fpv4-sp/hard\libc_nano.a(lib_a-sbrkr.o) (errno)
c:/program files/microchip/xc32/v2.40/bin/bin/../../lib/gcc/pic32c/6.2.1/../../../../pic32c/lib/v7e-m/fpv4-sp/hard\libc_nano.a(lib_a-refill.o)
                              c:/program files/microchip/xc32/v2.40/bin/bin/../../lib/gcc/pic32c/6.2.1/../../../../pic32c/lib/v7e-m/fpv4-sp/hard\libc_nano.a(_lib_a-nano-vfscanf.cdnopsuxX.o) (__srefill_r)
c:/program files/microchip/xc32/v2.40/bin/bin/../../lib/gcc/pic32c/6.2.1/../../../../pic32c/lib/v7e-m/fpv4-sp/hard\libc_nano.a(lib_a-sccl.o)
                              c:/program files/microchip/xc32/v2.40/bin/bin/../../lib/gcc/pic32c/6.2.1/../../../../pic32c/lib/v7e-m/fpv4-sp/hard\libc_nano.a(_lib_a-nano-vfscanf.cdnopsuxX.o) (__sccl)
c:/program files/microchip/xc32/v2.40/bin/bin/../../lib/gcc/pic32c/6.2.1/../../../../pic32c/lib/v7e-m/fpv4-sp/hard\libc_nano.a(lib_a-signal.o)
                              c:/program files/microchip/xc32/v2.40/bin/bin/../../lib/gcc/pic32c/6.2.1/../../../../pic32c/lib/v7e-m/fpv4-sp/hard\libc_nano.a(lib_a-abort.o) (raise)
c:/program files/microchip/xc32/v2.40/bin/bin/../../lib/gcc/pic32c/6.2.1/../../../../pic32c/lib/v7e-m/fpv4-sp/hard\libc_nano.a(lib_a-signalr.o)
                              c:/program files/microchip/xc32/v2.40/bin/bin/../../lib/gcc/pic32c/6.2.1/../../../../pic32c/lib/v7e-m/fpv4-sp/hard\libc_nano.a(lib_a-signal.o) (_kill_r)
c:/program files/microchip/xc32/v2.40/bin/bin/../../lib/gcc/pic32c/6.2.1/../../../../pic32c/lib/v7e-m/fpv4-sp/hard\libc_nano.a(lib_a-__ssputs.o)
                              c:/program files/microchip/xc32/v2.40/bin/bin/../../lib/gcc/pic32c/6.2.1/../../../../pic32c/lib/v7e-m/fpv4-sp/hard\libc_nano.a(lib_a-nano-svfprintf.o) (__ssputs_r)
c:/program files/microchip/xc32/v2.40/bin/bin/../../lib/gcc/pic32c/6.2.1/../../../../pic32c/lib/v7e-m/fpv4-sp/hard\libc_nano.a(lib_a-ungetc.o)
                              c:/program files/microchip/xc32/v2.40/bin/bin/../../lib/gcc/pic32c/6.2.1/../../../../pic32c/lib/v7e-m/fpv4-sp/hard\libc_nano.a(_lib_a-nano-vfscanf.cdnopsuxX.o) (_ungetc_r)
c:/program files/microchip/xc32/v2.40/bin/bin/../../lib/gcc/pic32c/6.2.1/../../../../pic32c/lib/v7e-m/fpv4-sp/hard\libc_nano.a(lib_a-wcrtomb.o)
                              c:/program files/microchip/xc32/v2.40/bin/bin/../../lib/gcc/pic32c/6.2.1/../../../../pic32c/lib/v7e-m/fpv4-sp/hard\libc_nano.a(lib_a-fputwc.o) (_wcrtomb_r)
c:/program files/microchip/xc32/v2.40/bin/bin/../../lib/gcc/pic32c/6.2.1/../../../../pic32c/lib/v7e-m/fpv4-sp/hard\libc_nano.a(lib_a-fstatr.o)
                              c:/program files/microchip/xc32/v2.40/bin/bin/../../lib/gcc/pic32c/6.2.1/../../../../pic32c/lib/v7e-m/fpv4-sp/hard\libc_nano.a(lib_a-makebuf.o) (_fstat_r)
c:/program files/microchip/xc32/v2.40/bin/bin/../../lib/gcc/pic32c/6.2.1/../../../../pic32c/lib/v7e-m/fpv4-sp/hard\libc_nano.a(lib_a-isattyr.o)
                              c:/program files/microchip/xc32/v2.40/bin/bin/../../lib/gcc/pic32c/6.2.1/../../../../pic32c/lib/v7e-m/fpv4-sp/hard\libc_nano.a(lib_a-makebuf.o) (_isatty_r)
c:/program files/microchip/xc32/v2.40/bin/bin/../../lib/gcc/pic32c/6.2.1/../../../../pic32c/lib/v7e-m/fpv4-sp/hard\libc_nano.a(lib_a-nano-reallocr.o)
                              c:/program files/microchip/xc32/v2.40/bin/bin/../../lib/gcc/pic32c/6.2.1/../../../../pic32c/lib/v7e-m/fpv4-sp/hard\libc_nano.a(lib_a-__ssputs.o) (_realloc_r)
c:/program files/microchip/xc32/v2.40/bin/bin/../../lib/gcc/pic32c/6.2.1/../../../../pic32c/lib/v7e-m/fpv4-sp/hard\libc_nano.a(lib_a-nano-msizer.o)
                              c:/program files/microchip/xc32/v2.40/bin/bin/../../lib/gcc/pic32c/6.2.1/../../../../pic32c/lib/v7e-m/fpv4-sp/hard\libc_nano.a(lib_a-nano-reallocr.o) (_malloc_usable_size_r)
c:/program files/microchip/xc32/v2.40/bin/bin/../../lib/gcc/pic32c/6.2.1/../../../../pic32c/lib/v7e-m/fpv4-sp/hard\libpic32c.a(_close.o)
                              c:/program files/microchip/xc32/v2.40/bin/bin/../../lib/gcc/pic32c/6.2.1/../../../../pic32c/lib/v7e-m/fpv4-sp/hard\libc_nano.a(lib_a-closer.o) (_close)
c:/program files/microchip/xc32/v2.40/bin/bin/../../lib/gcc/pic32c/6.2.1/../../../../pic32c/lib/v7e-m/fpv4-sp/hard\libpic32c.a(_fstat.o)
                              c:/program files/microchip/xc32/v2.40/bin/bin/../../lib/gcc/pic32c/6.2.1/../../../../pic32c/lib/v7e-m/fpv4-sp/hard\libc_nano.a(lib_a-fstatr.o) (_fstat)
c:/program files/microchip/xc32/v2.40/bin/bin/../../lib/gcc/pic32c/6.2.1/../../../../pic32c/lib/v7e-m/fpv4-sp/hard\libpic32c.a(_getpid.o)
                              c:/program files/microchip/xc32/v2.40/bin/bin/../../lib/gcc/pic32c/6.2.1/../../../../pic32c/lib/v7e-m/fpv4-sp/hard\libc_nano.a(lib_a-signalr.o) (_getpid)
c:/program files/microchip/xc32/v2.40/bin/bin/../../lib/gcc/pic32c/6.2.1/../../../../pic32c/lib/v7e-m/fpv4-sp/hard\libpic32c.a(_isatty.o)
                              c:/program files/microchip/xc32/v2.40/bin/bin/../../lib/gcc/pic32c/6.2.1/../../../../pic32c/lib/v7e-m/fpv4-sp/hard\libc_nano.a(lib_a-isattyr.o) (_isatty)
c:/program files/microchip/xc32/v2.40/bin/bin/../../lib/gcc/pic32c/6.2.1/../../../../pic32c/lib/v7e-m/fpv4-sp/hard\libpic32c.a(_kill.o)
                              c:/program files/microchip/xc32/v2.40/bin/bin/../../lib/gcc/pic32c/6.2.1/../../../../pic32c/lib/v7e-m/fpv4-sp/hard\libc_nano.a(lib_a-signalr.o) (_kill)
c:/program files/microchip/xc32/v2.40/bin/bin/../../lib/gcc/pic32c/6.2.1/../../../../pic32c/lib/v7e-m/fpv4-sp/hard\libpic32c.a(_lseek.o)
                              c:/program files/microchip/xc32/v2.40/bin/bin/../../lib/gcc/pic32c/6.2.1/../../../../pic32c/lib/v7e-m/fpv4-sp/hard\libc_nano.a(lib_a-lseekr.o) (_lseek)
c:/program files/microchip/xc32/v2.40/bin/bin/../../lib/gcc/pic32c/6.2.1/../../../../pic32c/lib/v7e-m/fpv4-sp/hard\libpic32c.a(_read.o)
                              c:/program files/microchip/xc32/v2.40/bin/bin/../../lib/gcc/pic32c/6.2.1/../../../../pic32c/lib/v7e-m/fpv4-sp/hard\libc_nano.a(lib_a-readr.o) (_read)
c:/program files/microchip/xc32/v2.40/bin/bin/../../lib/gcc/pic32c/6.2.1/../../../../pic32c/lib/v7e-m/fpv4-sp/hard\libpic32c.a(sbrk.o)
                              c:/program files/microchip/xc32/v2.40/bin/bin/../../lib/gcc/pic32c/6.2.1/../../../../pic32c/lib/v7e-m/fpv4-sp/hard\libc_nano.a(lib_a-sbrkr.o) (_sbrk)
c:/program files/microchip/xc32/v2.40/bin/bin/../../lib/gcc/pic32c/6.2.1/../../../../pic32c/lib/v7e-m/fpv4-sp/hard\libpic32c.a(_write.o)
                              c:/program files/microchip/xc32/v2.40/bin/bin/../../lib/gcc/pic32c/6.2.1/../../../../pic32c/lib/v7e-m/fpv4-sp/hard\libc_nano.a(lib_a-writer.o) (_write)
c:/program files/microchip/xc32/v2.40/bin/bin/../../lib/gcc/pic32c/6.2.1/../../../../pic32c/lib/v7e-m/fpv4-sp/hard\libpic32c.a(close.o)
                              c:/program files/microchip/xc32/v2.40/bin/bin/../../lib/gcc/pic32c/6.2.1/../../../../pic32c/lib/v7e-m/fpv4-sp/hard\libpic32c.a(_close.o) (close)
c:/program files/microchip/xc32/v2.40/bin/bin/../../lib/gcc/pic32c/6.2.1/../../../../pic32c/lib/v7e-m/fpv4-sp/hard\libpic32c.a(fstat.o)
                              c:/program files/microchip/xc32/v2.40/bin/bin/../../lib/gcc/pic32c/6.2.1/../../../../pic32c/lib/v7e-m/fpv4-sp/hard\libpic32c.a(_fstat.o) (fstat)
c:/program files/microchip/xc32/v2.40/bin/bin/../../lib/gcc/pic32c/6.2.1/../../../../pic32c/lib/v7e-m/fpv4-sp/hard\libpic32c.a(getpid.o)
                              c:/program files/microchip/xc32/v2.40/bin/bin/../../lib/gcc/pic32c/6.2.1/../../../../pic32c/lib/v7e-m/fpv4-sp/hard\libpic32c.a(_getpid.o) (getpid)
c:/program files/microchip/xc32/v2.40/bin/bin/../../lib/gcc/pic32c/6.2.1/../../../../pic32c/lib/v7e-m/fpv4-sp/hard\libpic32c.a(isatty.o)
                              c:/program files/microchip/xc32/v2.40/bin/bin/../../lib/gcc/pic32c/6.2.1/../../../../pic32c/lib/v7e-m/fpv4-sp/hard\libpic32c.a(_isatty.o) (isatty)
c:/program files/microchip/xc32/v2.40/bin/bin/../../lib/gcc/pic32c/6.2.1/../../../../pic32c/lib/v7e-m/fpv4-sp/hard\libpic32c.a(kill.o)
                              c:/program files/microchip/xc32/v2.40/bin/bin/../../lib/gcc/pic32c/6.2.1/../../../../pic32c/lib/v7e-m/fpv4-sp/hard\libpic32c.a(_kill.o) (kill)
c:/program files/microchip/xc32/v2.40/bin/bin/../../lib/gcc/pic32c/6.2.1/../../../../pic32c/lib/v7e-m/fpv4-sp/hard\libpic32c.a(lseek.o)
                              c:/program files/microchip/xc32/v2.40/bin/bin/../../lib/gcc/pic32c/6.2.1/../../../../pic32c/lib/v7e-m/fpv4-sp/hard\libpic32c.a(_lseek.o) (lseek)
c:/program files/microchip/xc32/v2.40/bin/bin/../../lib/gcc/pic32c/6.2.1/../../../../pic32c/lib/v7e-m/fpv4-sp/hard\libpic32c.a(read.o)
                              c:/program files/microchip/xc32/v2.40/bin/bin/../../lib/gcc/pic32c/6.2.1/../../../../pic32c/lib/v7e-m/fpv4-sp/hard\libpic32c.a(_read.o) (read)
c:/program files/microchip/xc32/v2.40/bin/bin/../../lib/gcc/pic32c/6.2.1/../../../../pic32c/lib/v7e-m/fpv4-sp/hard\libpic32c.a(write.o)
                              c:/program files/microchip/xc32/v2.40/bin/bin/../../lib/gcc/pic32c/6.2.1/../../../../pic32c/lib/v7e-m/fpv4-sp/hard\libpic32c.a(_write.o) (write)

Allocating common symbols
Common symbol       size              file

mbedtls_cipher_supported
                    0x40              build/aws_demos/production/_ext/684768522/cipher_wrap.o
errno               0x4               c:/program files/microchip/xc32/v2.40/bin/bin/../../lib/gcc/pic32c/6.2.1/../../../../pic32c/lib/v7e-m/fpv4-sp/hard\libc_nano.a(lib_a-reent.o)
TC3_CallbackObject  0x8               build/aws_demos/production/_ext/1110296786/plib_tc3.o
sercom6USARTObj     0x38              build/aws_demos/production/_ext/731420310/plib_sercom6_usart.o
_AwsIotShadowSubscriptionsMutex
                    0x54              build/aws_demos/production/_ext/1647995491/aws_iot_shadow_subscription.o
sercom2USARTObj     0x30              build/aws_demos/production/_ext/731420310/plib_sercom2_usart.o
xBoundTCPSocketsList
                    0x14              build/aws_demos/production/_ext/1682906662/FreeRTOS_Sockets.o
_AwsIotShadowPendingOperationsMutex
                    0x54              build/aws_demos/production/_ext/1647995491/aws_iot_shadow_operation.o
eicCallbackObject   0xc0              build/aws_demos/production/_ext/59476128/plib_eic.o
sysObj              0xc               build/aws_demos/production/_ext/1534096987/initialization.o
xBoundUDPSocketsList
                    0x14              build/aws_demos/production/_ext/1682906662/FreeRTOS_Sockets.o

Microchip PIC32 Memory-Usage Report

ROM Program-Memory Usage
section                    address  length [bytes]      (dec)  Description
-------                 ----------  -------------------------  -----------
.vectors                         0          0x264         612   
.text                        0x264           0x20          32  App's exec code 
.ARM.exidx                   0x284            0x8           8   
.text                        0x28c         0x2880       10368  App's exec code 
.rodata                     0x2b0c         0x2664        9828  Read-only const 
.text                       0x5170         0xf490       62608  App's exec code 
.rodata                    0x14600         0x1360        4960  Read-only const 
.text                      0x15960         0x66c4       26308  App's exec code 
.rodata                    0x1c024          0xfb4        4020  Read-only const 
.text                      0x1cfd8         0x1d74        7540  App's exec code 
.rodata                    0x1ed4c          0xeac        3756  Read-only const 
.text                      0x1fbf8         0x1bd4        7124  App's exec code 
.rodata                    0x217cc          0xd28        3368  Read-only const 
.text                      0x224f4         0x18f8        6392  App's exec code 
.text                      0x23dec            0x4           4  App's exec code 
.rodata                    0x23df0          0xc64        3172  Read-only const 
.text                      0x24a54          0xc40        3136  App's exec code 
.rodata                    0x25694          0xc14        3092  Read-only const 
.text                      0x262a8         0x3668       13928  App's exec code 
.rodata                    0x29910         0x1384        4996  Read-only const 
.text                      0x2ac94         0x131c        4892  App's exec code 
.rodata                    0x2bfb0         0x1044        4164  Read-only const 
.dinit                     0x2cff4          0x7e0        2016   
.rodata                    0x2d7d4          0xee0        3808  Read-only const 
.text                      0x2e6b4          0x74c        1868  App's exec code 
.rodata                    0x2ee00          0xe88        3720  Read-only const 
.text                      0x2fc88          0xdbc        3516  App's exec code 
.rodata                    0x30a44          0x6ac        1708  Read-only const 
.text                      0x310f0         0x3ce0       15584  App's exec code 
.rodata                    0x34dd0          0x5a4        1444  Read-only const 
.text                      0x35374          0xb38        2872  App's exec code 
.rodata                    0x35eac          0x58c        1420  Read-only const 
.text                      0x36438          0xf6c        3948  App's exec code 
.rodata                    0x373a4          0x500        1280  Read-only const 
.text                      0x378a4          0x4dc        1244  App's exec code 
.text.___svfscanf_r_cdn    0x37d80          0x4dc        1244   
.text                      0x3825c          0x4a4        1188  App's exec code 
.rodata                    0x38700          0x47c        1148  Read-only const 
.text                      0x38b7c          0x47c        1148  App's exec code 
.rodata                    0x38ff8          0x460        1120  Read-only const 
.text                      0x39458         0x1c18        7192  App's exec code 
.rodata                    0x3b070          0x790        1936  Read-only const 
.text                      0x3b800          0xde4        3556  App's exec code 
.rodata                    0x3c5e4          0x32c         812  Read-only const 
.text                      0x3c910          0xc48        3144  App's exec code 
.rodata                    0x3d558          0x2e8         744  Read-only const 
.text                      0x3d840          0x5b8        1464  App's exec code 
.rodata                    0x3ddf8          0x2b8         696  Read-only const 
.text                      0x3e0b0          0x56c        1388  App's exec code 
.rodata                    0x3e61c          0x2b0         688  Read-only const 
.text                      0x3e8cc          0x74c        1868  App's exec code 
.text._printf_i            0x3f018          0x240         576   
.text                      0x3f258          0x23c         572  App's exec code 
.rodata                    0x3f494          0x22c         556  Read-only const 
.text                      0x3f6c0          0x220         544  App's exec code 
.rodata                    0x3f8e0          0x438        1080  Read-only const 
.text                      0x3fd18          0x42c        1068  App's exec code 
.rodata                    0x40144          0x1fc         508  Read-only const 
.text                      0x40340          0x1f4         500  App's exec code 
.text._vfprintf_r          0x40534          0x1f4         500   
.text                      0x40728          0x3b6         950  App's exec code 
.text                      0x40ade            0x2           2  App's exec code 
.text._svfprintf_r         0x40ae0          0x1c8         456   
.text                      0x40ca8          0x528        1320  App's exec code 
.rodata                    0x411d0          0x1a8         424  Read-only const 
.text                      0x41378          0x770        1904  App's exec code 
.rodata                    0x41ae8          0x150         336  Read-only const 
.text                      0x41c38          0x278         632  App's exec code 
.rodata                    0x41eb0          0x130         304  Read-only const 
.text.__srefill_r          0x41fe0          0x12c         300   
.rodata                    0x4210c          0x250         592  Read-only const 
.text                      0x4235c          0x120         288  App's exec code 
.rodata                    0x4247c          0x23c         572  Read-only const 
.text                      0x426b8          0x11c         284  App's exec code 
.rodata                    0x427d4          0x118         280  Read-only const 
.text.__sflush_r           0x428ec          0x110         272   
.rodata._ctype_            0x429fc          0x101         257   
.text._strtol_l.isra.0     0x42afe          0x100         256   
.text._strtoul_l.isra.0    0x42bfe           0xfa         250   
.text._ungetc_r            0x42cf8           0xf8         248   
.rodata                    0x42df0           0xf4         244  Read-only const 
.text                      0x42ee4           0xec         236  App's exec code 
.text._printf_common       0x42fd0           0xec         236   
.text                      0x430bc           0xe8         232  App's exec code 
.rodata                    0x431a4          0x1bc         444  Read-only const 
.text.__swsetup_r          0x43360           0xdc         220   
.rodata                    0x4343c           0xd0         208  Read-only const 
.text._puts_r              0x4350c           0xcc         204   
.text                      0x435d8          0x184         388  App's exec code 
.text._malloc_r            0x4375c           0xbc         188   
.text.__swbuf_r            0x43818           0xbc         188   
.text                      0x438d4           0xba         186  App's exec code 
.text.__ssputs_r           0x4398e           0xb6         182   
.rodata                    0x43a44          0x1f0         496  Read-only const 
.text                      0x43c34            0xc          12  App's exec code 
.text                      0x43c40           0xa0         160  App's exec code 
.text._free_r              0x43ce0           0x9c         156   
.rodata                    0x43d7c           0x98         152  Read-only const 
.text                      0x43e14          0x1b2         434  App's exec code 
.text.Dummy_Handler        0x43fc6            0x2           2   
.rodata                    0x43fc8          0x198         408  Read-only const 
.text.__fputwc             0x44160           0x82         130   
.text.__malloc_lock        0x441e2            0x2           2   
.rodata                    0x441e4           0x80         128  Read-only const 
.text.__pic32c_data_ini    0x44264           0x80         128   
.text.Reset_Handler        0x442e4           0x78         120   
.text                      0x4435c           0x78         120  App's exec code 
.text.__sfp                0x443d4           0x78         120   
.text.__smakebuf_r         0x4444c           0x78         120   
.text.__submore            0x444c4           0x76         118   
.text.__malloc_unlock      0x4453a            0x2           2   
.text.rand                 0x4453c           0x74         116   
.rodata                    0x445b0           0xe0         224  Read-only const 
.text._putc_r              0x44690           0x6c         108   
.text.snprintf             0x446fc           0x6c         108   
.text                      0x44768           0xcc         204  App's exec code 
.rodata                    0x44834          0x18c         396  Read-only const 
.text.__sinit              0x449c0           0x60          96   
.text.__sccl               0x44a20           0x60          96   
.text._vsnprintf_r         0x44a80           0x5c          92   
.rodata                    0x44adc           0x58          88  Read-only const 
.text._vfscanf_cdnopsux    0x44b34           0x58          88   
.text._fflush_r            0x44b8c           0x54          84   
.rodata                    0x44be0           0xa0         160  Read-only const 
.text._wcrtomb_r           0x44c80           0x50          80   
.text.sprintf              0x44cd0           0x4c          76   
.text._sscanf_cdnopsuxX    0x44d1c           0x4c          76   
.text._realloc_r           0x44d68           0x4c          76   
.text.__ssfputs_r          0x44db4           0x4a          74   
.rodata                    0x44e00           0x48          72  Read-only const 
.text.__libc_init_array    0x44e48           0x48          72   
.text.std.isra.0           0x44e90           0x48          72   
.text.__swhatbuf_r         0x44ed8           0x48          72   
.rodata                    0x44f20           0x44          68  Read-only const 
.text                      0x44f64           0x40          64  App's exec code 
.rodata                    0x44fa4           0x40          64  Read-only const 
.text                      0x44fe4           0x3c          60  App's exec code 
.rodata                    0x45020           0x78         120  Read-only const 
.text._fwalk_reent         0x45098           0x3c          60   
.text.write                0x450d4           0x3c          60   
.rodata                    0x45110           0x38          56  Read-only const 
.text                      0x45148           0x38          56  App's exec code 
.rodata                    0x45180           0x38          56  Read-only const 
.text.__swrite             0x451b8           0x38          56   
.text._fwalk               0x451f0           0x38          56   
.text.strstr               0x45228           0x36          54   
.text                      0x4525e           0x34          52  App's exec code 
.text                      0x45294           0x34          52  App's exec code 
.rodata                    0x452c8           0x34          52  Read-only const 
.text.memmove              0x452fc           0x34          52   
.text                      0x45330           0x30          48  App's exec code 
.rodata                    0x45360           0x30          48  Read-only const 
.text                      0x45390           0x30          48  App's exec code 
.text.printf               0x453c0           0x30          48   
.text.__sfputc_r           0x453f0           0x30          48   
.rodata                    0x45420           0x58          88  Read-only const 
.text.strtol               0x45478           0x2c          44   
.text.__sfmoreglue         0x454a4           0x2c          44   
.rodata                    0x454d0           0x2c          44  Read-only const 
.text._sbrk                0x454fc           0x2c          44   
.text.strncpy              0x45528           0x2a          42   
.text                      0x45554           0x28          40  App's exec code 
.text.putchar              0x4557c           0x28          40   
.text.read                 0x455a4           0x28          40   
.rodata                    0x455cc           0x48          72  Read-only const 
.text                      0x45614           0x24          36  App's exec code 
.text.__ascii_mbtowc       0x45638           0x24          36   
.text.__sseek              0x4565c           0x24          36   
.text.strncmp              0x45680           0x24          36   
.text._strtol_r            0x456a4           0x24          36   
.text._strtoul_r           0x456c8           0x24          36   
.text._write_r             0x456ec           0x24          36   
.text.fflush               0x45710           0x24          36   
.text._lseek_r             0x45734           0x24          36   
.text._read_r              0x45758           0x24          36   
.text._fstat_r             0x4577c           0x24          36   
.text.__sread              0x457a0           0x22          34   
.rodata                    0x457c2           0x42          66  Read-only const 
.text._sbrk_r              0x45804           0x20          32   
.text._close_r             0x45824           0x20          32   
.rodata.__sf_fake_stder    0x45844           0x20          32   
.rodata.__sf_fake_stdin    0x45864           0x20          32   
.rodata.__sf_fake_stdou    0x45884           0x20          32   
.text._isatty_r            0x458a4           0x20          32   
.text.memcmp               0x458c4           0x1e          30   
.text                      0x458e4           0x1c          28  App's exec code 
.text.__locale_mb_cur_m    0x45900           0x1c          28   
.text.__locale_ctype_pt    0x4591c           0x1c          28   
.text._calloc_r            0x45938           0x1c          28   
.text.vsnprintf            0x45954           0x1c          28   
.text._fputwc_r            0x45970           0x1c          28   
.text.__ascii_wctomb       0x4598c           0x1a          26   
.rodata                    0x459a8           0x30          48  Read-only const 
.text.memcpy               0x459d8           0x16          22   
.text                      0x459f0           0x28          40  App's exec code 
.text.lflush               0x45a18           0x12          18   
.text._malloc_usable_si    0x45a2a           0x12          18   
.rodata                    0x45a3c           0x22          34  Read-only const 
.rodata                    0x45a60           0x10          16  Read-only const 
.text.calloc               0x45a70           0x10          16   
.text.malloc               0x45a80           0x10          16   
.text.free                 0x45a90           0x10          16   
.text.memset               0x45aa0           0x10          16   
.text.puts                 0x45ab0           0x10          16   
.text.strcpy               0x45ac0           0x10          16   
.text                      0x45ad0           0x10          16  App's exec code 
.rodata                    0x45ae0            0xc          12  Read-only const 
.text                      0x45aec            0xc          12  App's exec code 
.text._cleanup_r           0x45af8            0xc          12   
.text.fstat                0x45b04            0xc          12   
.rodata                    0x45b10            0xb          11  Read-only const 
.text.__sclose             0x45b1c            0x8           8   
.text.close                0x45b24            0x8           8   
.text.__locale_ctype_pt    0x45b2c            0x6           6   
.text.__printf_float       0x45b32            0x6           6   
.rodata._global_impure_    0x45b38            0x4           4   
.text.__seofread           0x45b3c            0x4           4   
.text._close               0x45b40            0x4           4   
.text._fstat               0x45b44            0x4           4   
.text._isatty              0x45b48            0x4           4   
.text._lseek               0x45b4c            0x4           4   
.text._read                0x45b50            0x4           4   
.text._write               0x45b54            0x4           4   
.text.isatty               0x45b58            0x4           4   
.text.lseek                0x45b5c            0x4           4   
      Total ROM used  :     0x45b50      285520  27.2% of 0x100000
        --------------------------------------------------------------------------
         Total Program Memory used  :     0x45b50      285520  27.2% of 0x100000
        --------------------------------------------------------------------------


RAM Data-Memory Usage
section                    address  length [bytes]      (dec)  Description
-------                 ----------  -------------------------  -----------
.bss                    0x20000100          0x1a8         424  Uninitialized data 
.bss                    0x200002a8        0x2ea58      191064  Uninitialized data 
.data.__global_locale   0x2002ed00          0x16c         364   
.bss                    0x2002ee6c          0x2cc         716  Uninitialized data 
.data                   0x2002f138          0x23c         572  Initialized data 
.bss                    0x2002f374          0x7ba        1978  Uninitialized data 
.bss                    0x2002fb2e            0x2           2  Uninitialized data 
.bss                    0x2002fb30           0x6c         108  Uninitialized data 
.data                   0x2002fb9c            0x4           4  Initialized data 
.bss                    0x2002fba0           0x68         104  Uninitialized data 
.data.impure_data       0x2002fc08           0x60          96   
.bss                    0x2002fc68           0xcc         204  Uninitialized data 
.data                   0x2002fd34           0x28          40  Initialized data 
.bss                    0x2002fd5c           0x60          96  Uninitialized data 
.data                   0x2002fdbc           0x34          52  Initialized data 
.bss                    0x2002fdf0           0x14          20  Uninitialized data 
.data                   0x2002fe04           0x20          32  Initialized data 
.bss                    0x2002fe24           0x16          22  Uninitialized data 
.data                   0x2002fe3a            0x2           2  Initialized data 
.bss                    0x2002fe3c           0x10          16  Uninitialized data 
.data                   0x2002fe4c            0x8           8  Initialized data 
.bss                    0x2002fe54            0x8           8  Uninitialized data 
.data                   0x2002fe5c            0x6           6  Initialized data 
.bss                    0x2002fe64            0x5           5  Uninitialized data 
.bss                    0x2002fe6c           0x14          20  Uninitialized data 
.data                   0x2002fe80            0xc          12  Initialized data 
.data._impure_ptr       0x2002fe8c            0x4           4   
.bss.__malloc_free_list 0x2002fe90            0x4           4   
.bss.__malloc_sbrk_star 0x2002fe94            0x4           4   
.bss                    0x2002fe98            0x4           4  Uninitialized data 
         Total RAM used  :     0x2fd97      195991  74.9% of 0x3fe00
        --------------------------------------------------------------------------
            Total Data Memory used  :     0x2fd97      195991  74.9% of 0x3fe00
        --------------------------------------------------------------------------


Dynamic Data-Memory Reservation
section                    address  length [bytes]      (dec)  Description
-------                 ----------  -------------------------  -----------
heap                    0x2002fea0          0x200         512  Reserved for heap 
stack                   0x200300b8         0xfe38       65080  Reserved for stack 

        --------------------------------------------------------------------------

Discarded input sections

 .text          0x00000000        0x0 c:/program files/microchip/xc32/v2.40/bin/bin/../../lib/gcc/pic32c/6.2.1/v7e-m/fpv4-sp/hard/crti.o
 .data          0x00000000        0x0 c:/program files/microchip/xc32/v2.40/bin/bin/../../lib/gcc/pic32c/6.2.1/v7e-m/fpv4-sp/hard/crti.o
 .bss           0x00000000        0x0 c:/program files/microchip/xc32/v2.40/bin/bin/../../lib/gcc/pic32c/6.2.1/v7e-m/fpv4-sp/hard/crti.o
 .data          0x00000000        0x4 c:/program files/microchip/xc32/v2.40/bin/bin/../../lib/gcc/pic32c/6.2.1/v7e-m/fpv4-sp/hard/crtbegin.o
 .data          0x00000000        0x0 build/aws_demos/production/_ext/1319661984/drv_gmac_lib_samE5x.o
 .data          0x00000000        0x0 build/aws_demos/production/_ext/665618993/plib_nvmctrl.o
 .data          0x00000000        0x0 build/aws_demos/production/_ext/731420310/plib_sercom2_usart.o
 .bss           0x00000000        0x0 build/aws_demos/production/_ext/731420310/plib_sercom2_usart.o
 .data          0x00000000        0x0 build/aws_demos/production/_ext/1321577635/plib_evsys.o
 .bss           0x00000000        0x0 build/aws_demos/production/_ext/1321577635/plib_evsys.o
 .data          0x00000000        0x0 build/aws_demos/production/_ext/1991396724/sys_command.o
 .data          0x00000000        0x0 build/aws_demos/production/_ext/731420310/plib_sercom6_usart.o
 .data          0x00000000        0x0 build/aws_demos/production/_ext/1360937237/main.o
 .data          0x00000000        0x0 build/aws_demos/production/_ext/1534096987/initialization.o
 .bss           0x00000000        0x0 build/aws_demos/production/_ext/1534096987/initialization.o
 .text          0x00000000        0x0 build/aws_demos/production/_ext/1534096987/interrupts.o
 .data          0x00000000        0x0 build/aws_demos/production/_ext/1534096987/interrupts.o
 .bss           0x00000000        0x0 build/aws_demos/production/_ext/1534096987/interrupts.o
 .data          0x00000000        0x0 build/aws_demos/production/_ext/1534096987/exceptions.o
 .bss           0x00000000        0x0 build/aws_demos/production/_ext/1534096987/exceptions.o
 .data          0x00000000        0x0 build/aws_demos/production/_ext/1263901141/xc32_monitor.o
 .bss           0x00000000        0x0 build/aws_demos/production/_ext/1263901141/xc32_monitor.o
 .data          0x00000000        0x0 build/aws_demos/production/_ext/1843425920/plib_port.o
 .bss           0x00000000        0x0 build/aws_demos/production/_ext/1843425920/plib_port.o
 .data          0x00000000        0x0 build/aws_demos/production/_ext/1323727121/plib_clock.o
 .bss           0x00000000        0x0 build/aws_demos/production/_ext/1323727121/plib_clock.o
 .data          0x00000000        0x0 build/aws_demos/production/_ext/1843479071/plib_nvic.o
 .bss           0x00000000        0x0 build/aws_demos/production/_ext/1843479071/plib_nvic.o
 .text          0x00000000        0x0 build/aws_demos/production/_ext/1534096987/startup_xc32.o
 .data          0x00000000        0x0 build/aws_demos/production/_ext/1534096987/startup_xc32.o
 .bss           0x00000000        0x0 build/aws_demos/production/_ext/1534096987/startup_xc32.o
 .text          0x00000000        0x2 build/aws_demos/production/_ext/1534096987/libc_syscalls.o
 .data          0x00000000        0x0 build/aws_demos/production/_ext/1534096987/libc_syscalls.o
 .bss           0x00000000        0x0 build/aws_demos/production/_ext/1534096987/libc_syscalls.o
 .debug_info    0x00000000      0xe7c build/aws_demos/production/_ext/1534096987/libc_syscalls.o
 .debug_abbrev  0x00000000      0x1a6 build/aws_demos/production/_ext/1534096987/libc_syscalls.o
 .debug_aranges
                0x00000000       0x20 build/aws_demos/production/_ext/1534096987/libc_syscalls.o
 .debug_line    0x00000000      0x1d1 build/aws_demos/production/_ext/1534096987/libc_syscalls.o
 .debug_str     0x00000000        0xe build/aws_demos/production/_ext/1534096987/libc_syscalls.o
 .comment       0x00000000       0x3d build/aws_demos/production/_ext/1534096987/libc_syscalls.o
 .debug_frame   0x00000000       0x20 build/aws_demos/production/_ext/1534096987/libc_syscalls.o
 .ARM.attributes
                0x00000000       0x39 build/aws_demos/production/_ext/1534096987/libc_syscalls.o
 .data          0x00000000        0x0 build/aws_demos/production/_ext/1168480030/heap_4.o
 .data          0x00000000        0x0 build/aws_demos/production/_ext/366737/iot_secure_sockets.o
 .data          0x00000000        0x0 build/aws_demos/production/_ext/1682906662/FreeRTOS_ARP.o
 .data          0x00000000        0x0 build/aws_demos/production/_ext/1682906662/FreeRTOS_DHCP.o
 .data          0x00000000        0x0 build/aws_demos/production/_ext/1682906662/FreeRTOS_DNS.o
 .data          0x00000000        0x0 build/aws_demos/production/_ext/1682906662/FreeRTOS_IP.o
 .data          0x00000000        0x0 build/aws_demos/production/_ext/1682906662/FreeRTOS_Sockets.o
 .data          0x00000000        0x0 build/aws_demos/production/_ext/1682906662/FreeRTOS_Stream_Buffer.o
 .bss           0x00000000        0x0 build/aws_demos/production/_ext/1682906662/FreeRTOS_Stream_Buffer.o
 .data          0x00000000        0x0 build/aws_demos/production/_ext/1682906662/FreeRTOS_TCP_IP.o
 .data          0x00000000        0x0 build/aws_demos/production/_ext/1682906662/FreeRTOS_TCP_WIN.o
 .bss           0x00000000        0x0 build/aws_demos/production/_ext/1682906662/FreeRTOS_UDP_IP.o
 .data          0x00000000        0x0 build/aws_demos/production/_ext/1778494626/BufferAllocation_2.o
 .data          0x00000000        0x0 build/aws_demos/production/_ext/1778494626/NetworkInterface_eth.o
 .text          0x00000000      0x744 build/aws_demos/production/_ext/766474417/aws_ota_pal.o
 .data          0x00000000        0x0 build/aws_demos/production/_ext/766474417/aws_ota_pal.o
 .bss           0x00000000       0x10 build/aws_demos/production/_ext/766474417/aws_ota_pal.o
 .rodata        0x00000000      0x684 build/aws_demos/production/_ext/766474417/aws_ota_pal.o
 .debug_info    0x00000000     0x4613 build/aws_demos/production/_ext/766474417/aws_ota_pal.o
 .debug_abbrev  0x00000000      0x587 build/aws_demos/production/_ext/766474417/aws_ota_pal.o
 .debug_loc     0x00000000      0xe5d build/aws_demos/production/_ext/766474417/aws_ota_pal.o
 .debug_aranges
                0x00000000       0x20 build/aws_demos/production/_ext/766474417/aws_ota_pal.o
 .debug_ranges  0x00000000       0xf8 build/aws_demos/production/_ext/766474417/aws_ota_pal.o
 .debug_line    0x00000000      0x653 build/aws_demos/production/_ext/766474417/aws_ota_pal.o
 .debug_str     0x00000000      0x2e1 build/aws_demos/production/_ext/766474417/aws_ota_pal.o
 .comment       0x00000000       0x3d build/aws_demos/production/_ext/766474417/aws_ota_pal.o
 .debug_frame   0x00000000       0xfc build/aws_demos/production/_ext/766474417/aws_ota_pal.o
 .ARM.attributes
                0x00000000       0x39 build/aws_demos/production/_ext/766474417/aws_ota_pal.o
 .data          0x00000000        0x0 build/aws_demos/production/_ext/1972722184/iot_pkcs11_pal.o
 .data          0x00000000        0x0 build/aws_demos/production/_ext/1972722184/pkcs11_nvm.o
 .bss           0x00000000        0x0 build/aws_demos/production/_ext/1972722184/pkcs11_nvm.o
 .text          0x00000000       0x2c build/aws_demos/production/_ext/192046689/sys_time_h2_adapter.o
 .data          0x00000000        0x0 build/aws_demos/production/_ext/192046689/sys_time_h2_adapter.o
 .bss           0x00000000        0x4 build/aws_demos/production/_ext/192046689/sys_time_h2_adapter.o
 .debug_info    0x00000000      0x54b build/aws_demos/production/_ext/192046689/sys_time_h2_adapter.o
 .debug_abbrev  0x00000000      0x126 build/aws_demos/production/_ext/192046689/sys_time_h2_adapter.o
 .debug_loc     0x00000000       0xde build/aws_demos/production/_ext/192046689/sys_time_h2_adapter.o
 .debug_aranges
                0x00000000       0x20 build/aws_demos/production/_ext/192046689/sys_time_h2_adapter.o
 .debug_line    0x00000000      0x19b build/aws_demos/production/_ext/192046689/sys_time_h2_adapter.o
 .debug_str     0x00000000       0x25 build/aws_demos/production/_ext/192046689/sys_time_h2_adapter.o
 .comment       0x00000000       0x3d build/aws_demos/production/_ext/192046689/sys_time_h2_adapter.o
 .debug_frame   0x00000000       0x40 build/aws_demos/production/_ext/192046689/sys_time_h2_adapter.o
 .ARM.attributes
                0x00000000       0x39 build/aws_demos/production/_ext/192046689/sys_time_h2_adapter.o
 .text          0x00000000       0x60 build/aws_demos/production/_ext/197858987/hash_fnv.o
 .data          0x00000000        0x0 build/aws_demos/production/_ext/197858987/hash_fnv.o
 .bss           0x00000000        0x0 build/aws_demos/production/_ext/197858987/hash_fnv.o
 .debug_info    0x00000000      0xf47 build/aws_demos/production/_ext/197858987/hash_fnv.o
 .debug_abbrev  0x00000000      0x1ce build/aws_demos/production/_ext/197858987/hash_fnv.o
 .debug_loc     0x00000000      0x278 build/aws_demos/production/_ext/197858987/hash_fnv.o
 .debug_aranges
                0x00000000       0x20 build/aws_demos/production/_ext/197858987/hash_fnv.o
 .debug_line    0x00000000      0x1d6 build/aws_demos/production/_ext/197858987/hash_fnv.o
 .debug_str     0x00000000        0xe build/aws_demos/production/_ext/197858987/hash_fnv.o
 .comment       0x00000000       0x3d build/aws_demos/production/_ext/197858987/hash_fnv.o
 .debug_frame   0x00000000       0x30 build/aws_demos/production/_ext/197858987/hash_fnv.o
 .ARM.attributes
                0x00000000       0x39 build/aws_demos/production/_ext/197858987/hash_fnv.o
 .data          0x00000000        0x0 build/aws_demos/production/_ext/197858987/helpers.o
 .bss           0x00000000        0x0 build/aws_demos/production/_ext/197858987/helpers.o
 .text          0x00000000      0x1d2 build/aws_demos/production/_ext/197858987/oahash.o
 .data          0x00000000        0x0 build/aws_demos/production/_ext/197858987/oahash.o
 .bss           0x00000000        0x0 build/aws_demos/production/_ext/197858987/oahash.o
 .debug_info    0x00000000     0x15c1 build/aws_demos/production/_ext/197858987/oahash.o
 .debug_abbrev  0x00000000      0x34a build/aws_demos/production/_ext/197858987/oahash.o
 .debug_loc     0x00000000      0x3b5 build/aws_demos/production/_ext/197858987/oahash.o
 .debug_aranges
                0x00000000       0x20 build/aws_demos/production/_ext/197858987/oahash.o
 .debug_line    0x00000000      0x261 build/aws_demos/production/_ext/197858987/oahash.o
 .debug_str     0x00000000       0x18 build/aws_demos/production/_ext/197858987/oahash.o
 .comment       0x00000000       0x3d build/aws_demos/production/_ext/197858987/oahash.o
 .debug_frame   0x00000000       0xc0 build/aws_demos/production/_ext/197858987/oahash.o
 .ARM.attributes
                0x00000000       0x39 build/aws_demos/production/_ext/197858987/oahash.o
 .data          0x00000000        0x0 build/aws_demos/production/_ext/197858987/tcpip_heap_alloc.o
 .bss           0x00000000        0x0 build/aws_demos/production/_ext/197858987/tcpip_heap_alloc.o
 .data          0x00000000        0x0 build/aws_demos/production/_ext/197858987/tcpip_heap_external.o
 .bss           0x00000000        0x0 build/aws_demos/production/_ext/197858987/tcpip_heap_external.o
 .text          0x00000000      0x3a4 build/aws_demos/production/_ext/197858987/tcpip_heap_internal.o
 .data          0x00000000        0x0 build/aws_demos/production/_ext/197858987/tcpip_heap_internal.o
 .bss           0x00000000        0x0 build/aws_demos/production/_ext/197858987/tcpip_heap_internal.o
 .rodata        0x00000000       0x24 build/aws_demos/production/_ext/197858987/tcpip_heap_internal.o
 .debug_info    0x00000000     0x4dab build/aws_demos/production/_ext/197858987/tcpip_heap_internal.o
 .debug_abbrev  0x00000000      0x3f0 build/aws_demos/production/_ext/197858987/tcpip_heap_internal.o
 .debug_loc     0x00000000      0xb01 build/aws_demos/production/_ext/197858987/tcpip_heap_internal.o
 .debug_aranges
                0x00000000       0x20 build/aws_demos/production/_ext/197858987/tcpip_heap_internal.o
 .debug_line    0x00000000      0x4f7 build/aws_demos/production/_ext/197858987/tcpip_heap_internal.o
 .debug_str     0x00000000       0x90 build/aws_demos/production/_ext/197858987/tcpip_heap_internal.o
 .comment       0x00000000       0x3d build/aws_demos/production/_ext/197858987/tcpip_heap_internal.o
 .debug_frame   0x00000000      0x138 build/aws_demos/production/_ext/197858987/tcpip_heap_internal.o
 .ARM.attributes
                0x00000000       0x39 build/aws_demos/production/_ext/197858987/tcpip_heap_internal.o
 .data          0x00000000        0x0 build/aws_demos/production/_ext/197858987/tcpip_helpers.o
 .bss           0x00000000        0x0 build/aws_demos/production/_ext/197858987/tcpip_helpers.o
 .text          0x00000000       0x70 build/aws_demos/production/_ext/197858987/tcpip_notify.o
 .data          0x00000000        0x0 build/aws_demos/production/_ext/197858987/tcpip_notify.o
 .bss           0x00000000        0x0 build/aws_demos/production/_ext/197858987/tcpip_notify.o
 .debug_info    0x00000000     0x42c5 build/aws_demos/production/_ext/197858987/tcpip_notify.o
 .debug_abbrev  0x00000000      0x2e9 build/aws_demos/production/_ext/197858987/tcpip_notify.o
 .debug_loc     0x00000000      0x2dc build/aws_demos/production/_ext/197858987/tcpip_notify.o
 .debug_aranges
                0x00000000       0x20 build/aws_demos/production/_ext/197858987/tcpip_notify.o
 .debug_line    0x00000000      0x3fa build/aws_demos/production/_ext/197858987/tcpip_notify.o
 .debug_str     0x00000000       0xfe build/aws_demos/production/_ext/197858987/tcpip_notify.o
 .comment       0x00000000       0x3d build/aws_demos/production/_ext/197858987/tcpip_notify.o
 .debug_frame   0x00000000       0x94 build/aws_demos/production/_ext/197858987/tcpip_notify.o
 .ARM.attributes
                0x00000000       0x39 build/aws_demos/production/_ext/197858987/tcpip_notify.o
 .data          0x00000000        0x0 build/aws_demos/production/_ext/197858987/tcpip_packet.o
 .data          0x00000000        0x0 build/aws_demos/production/_ext/59476128/plib_eic.o
 .bss           0x00000000        0x0 build/aws_demos/production/_ext/59476128/plib_eic.o
 .data          0x00000000        0x0 build/aws_demos/production/_ext/211704168/drv_miim.o
 .data          0x00000000        0x0 build/aws_demos/production/_ext/1110296786/plib_tc3.o
 .bss           0x00000000        0x0 build/aws_demos/production/_ext/1110296786/plib_tc3.o
 .text          0x00000000      0x24c build/aws_demos/production/_ext/988341903/aws_iot_demo_defender.o
 .data          0x00000000        0x0 build/aws_demos/production/_ext/988341903/aws_iot_demo_defender.o
 .bss           0x00000000        0x0 build/aws_demos/production/_ext/988341903/aws_iot_demo_defender.o
 .rodata        0x00000000      0x200 build/aws_demos/production/_ext/988341903/aws_iot_demo_defender.o
 .debug_info    0x00000000     0x2443 build/aws_demos/production/_ext/988341903/aws_iot_demo_defender.o
 .debug_abbrev  0x00000000      0x331 build/aws_demos/production/_ext/988341903/aws_iot_demo_defender.o
 .debug_loc     0x00000000      0x4ce build/aws_demos/production/_ext/988341903/aws_iot_demo_defender.o
 .debug_aranges
                0x00000000       0x20 build/aws_demos/production/_ext/988341903/aws_iot_demo_defender.o
 .debug_ranges  0x00000000       0x18 build/aws_demos/production/_ext/988341903/aws_iot_demo_defender.o
 .debug_line    0x00000000      0x3e8 build/aws_demos/production/_ext/988341903/aws_iot_demo_defender.o
 .debug_str     0x00000000      0x217 build/aws_demos/production/_ext/988341903/aws_iot_demo_defender.o
 .comment       0x00000000       0x3d build/aws_demos/production/_ext/988341903/aws_iot_demo_defender.o
 .debug_frame   0x00000000       0x5c build/aws_demos/production/_ext/988341903/aws_iot_demo_defender.o
 .ARM.attributes
                0x00000000       0x39 build/aws_demos/production/_ext/988341903/aws_iot_demo_defender.o
 .data          0x00000000        0x0 build/aws_demos/production/_ext/1223942466/aws_demo.o
 .bss           0x00000000        0x0 build/aws_demos/production/_ext/1223942466/aws_demo_network_addr.o
 .text          0x00000000        0x0 build/aws_demos/production/_ext/1223942466/aws_demo_version.o
 .data          0x00000000        0x0 build/aws_demos/production/_ext/1223942466/aws_demo_version.o
 .bss           0x00000000        0x0 build/aws_demos/production/_ext/1223942466/aws_demo_version.o
 .rodata        0x00000000        0x4 build/aws_demos/production/_ext/1223942466/aws_demo_version.o
 .debug_info    0x00000000      0x3f7 build/aws_demos/production/_ext/1223942466/aws_demo_version.o
 .debug_abbrev  0x00000000       0x90 build/aws_demos/production/_ext/1223942466/aws_demo_version.o
 .debug_aranges
                0x00000000       0x18 build/aws_demos/production/_ext/1223942466/aws_demo_version.o
 .debug_line    0x00000000      0x184 build/aws_demos/production/_ext/1223942466/aws_demo_version.o
 .debug_str     0x00000000        0x0 build/aws_demos/production/_ext/1223942466/aws_demo_version.o
 .comment       0x00000000       0x3d build/aws_demos/production/_ext/1223942466/aws_demo_version.o
 .ARM.attributes
                0x00000000       0x39 build/aws_demos/production/_ext/1223942466/aws_demo_version.o
 .data          0x00000000        0x0 build/aws_demos/production/_ext/1223942466/iot_demo_freertos.o
 .bss           0x00000000        0x0 build/aws_demos/production/_ext/1223942466/iot_demo_runner.o
 .data          0x00000000        0x0 build/aws_demos/production/_ext/198771642/aws_dev_mode_key_provisioning.o
 .bss           0x00000000        0x0 build/aws_demos/production/_ext/198771642/aws_dev_mode_key_provisioning.o
 .text          0x00000000      0x284 build/aws_demos/production/_ext/905468053/aws_greengrass_discovery_demo.o
 .data          0x00000000        0x0 build/aws_demos/production/_ext/905468053/aws_greengrass_discovery_demo.o
 .bss           0x00000000      0x9c4 build/aws_demos/production/_ext/905468053/aws_greengrass_discovery_demo.o
 .rodata        0x00000000      0xe0c build/aws_demos/production/_ext/905468053/aws_greengrass_discovery_demo.o
 .debug_info    0x00000000     0x23e9 build/aws_demos/production/_ext/905468053/aws_greengrass_discovery_demo.o
 .debug_abbrev  0x00000000      0x363 build/aws_demos/production/_ext/905468053/aws_greengrass_discovery_demo.o
 .debug_loc     0x00000000      0x39f build/aws_demos/production/_ext/905468053/aws_greengrass_discovery_demo.o
 .debug_aranges
                0x00000000       0x20 build/aws_demos/production/_ext/905468053/aws_greengrass_discovery_demo.o
 .debug_ranges  0x00000000       0x30 build/aws_demos/production/_ext/905468053/aws_greengrass_discovery_demo.o
 .debug_line    0x00000000      0x499 build/aws_demos/production/_ext/905468053/aws_greengrass_discovery_demo.o
 .debug_str     0x00000000      0x140 build/aws_demos/production/_ext/905468053/aws_greengrass_discovery_demo.o
 .comment       0x00000000       0x3d build/aws_demos/production/_ext/905468053/aws_greengrass_discovery_demo.o
 .debug_frame   0x00000000       0x64 build/aws_demos/production/_ext/905468053/aws_greengrass_discovery_demo.o
 .ARM.attributes
                0x00000000       0x39 build/aws_demos/production/_ext/905468053/aws_greengrass_discovery_demo.o
 .text          0x00000000      0x224 build/aws_demos/production/_ext/1741632483/iot_demo_https_common.o
 .data          0x00000000        0x0 build/aws_demos/production/_ext/1741632483/iot_demo_https_common.o
 .bss           0x00000000        0x0 build/aws_demos/production/_ext/1741632483/iot_demo_https_common.o
 .rodata        0x00000000      0x3ec build/aws_demos/production/_ext/1741632483/iot_demo_https_common.o
 .debug_info    0x00000000     0x2329 build/aws_demos/production/_ext/1741632483/iot_demo_https_common.o
 .debug_abbrev  0x00000000      0x27a build/aws_demos/production/_ext/1741632483/iot_demo_https_common.o
 .debug_loc     0x00000000      0x2d5 build/aws_demos/production/_ext/1741632483/iot_demo_https_common.o
 .debug_aranges
                0x00000000       0x20 build/aws_demos/production/_ext/1741632483/iot_demo_https_common.o
 .debug_line    0x00000000      0x30d build/aws_demos/production/_ext/1741632483/iot_demo_https_common.o
 .debug_str     0x00000000       0xc0 build/aws_demos/production/_ext/1741632483/iot_demo_https_common.o
 .comment       0x00000000       0x3d build/aws_demos/production/_ext/1741632483/iot_demo_https_common.o
 .debug_frame   0x00000000       0x38 build/aws_demos/production/_ext/1741632483/iot_demo_https_common.o
 .ARM.attributes
                0x00000000       0x39 build/aws_demos/production/_ext/1741632483/iot_demo_https_common.o
 .text          0x00000000      0xa84 build/aws_demos/production/_ext/1741632483/iot_demo_https_s3_download_async.o
 .data          0x00000000        0x0 build/aws_demos/production/_ext/1741632483/iot_demo_https_s3_download_async.o
 .bss           0x00000000     0x1894 build/aws_demos/production/_ext/1741632483/iot_demo_https_s3_download_async.o
 .rodata        0x00000000      0xff4 build/aws_demos/production/_ext/1741632483/iot_demo_https_s3_download_async.o
 .debug_info    0x00000000     0x42ca build/aws_demos/production/_ext/1741632483/iot_demo_https_s3_download_async.o
 .debug_abbrev  0x00000000      0x3a9 build/aws_demos/production/_ext/1741632483/iot_demo_https_s3_download_async.o
 .debug_loc     0x00000000      0xe42 build/aws_demos/production/_ext/1741632483/iot_demo_https_s3_download_async.o
 .debug_aranges
                0x00000000       0x20 build/aws_demos/production/_ext/1741632483/iot_demo_https_s3_download_async.o
 .debug_ranges  0x00000000       0x88 build/aws_demos/production/_ext/1741632483/iot_demo_https_s3_download_async.o
 .debug_line    0x00000000      0x6cd build/aws_demos/production/_ext/1741632483/iot_demo_https_s3_download_async.o
 .debug_str     0x00000000      0x3a6 build/aws_demos/production/_ext/1741632483/iot_demo_https_s3_download_async.o
 .comment       0x00000000       0x3d build/aws_demos/production/_ext/1741632483/iot_demo_https_s3_download_async.o
 .debug_frame   0x00000000       0xf0 build/aws_demos/production/_ext/1741632483/iot_demo_https_s3_download_async.o
 .ARM.attributes
                0x00000000       0x39 build/aws_demos/production/_ext/1741632483/iot_demo_https_s3_download_async.o
 .text          0x00000000      0x4f4 build/aws_demos/production/_ext/1741632483/iot_demo_https_s3_download_sync.o
 .data          0x00000000        0x0 build/aws_demos/production/_ext/1741632483/iot_demo_https_s3_download_sync.o
 .bss           0x00000000      0xa00 build/aws_demos/production/_ext/1741632483/iot_demo_https_s3_download_sync.o
 .rodata        0x00000000      0xac8 build/aws_demos/production/_ext/1741632483/iot_demo_https_s3_download_sync.o
 .debug_info    0x00000000     0x2d5f build/aws_demos/production/_ext/1741632483/iot_demo_https_s3_download_sync.o
 .debug_abbrev  0x00000000      0x2ea build/aws_demos/production/_ext/1741632483/iot_demo_https_s3_download_sync.o
 .debug_loc     0x00000000      0x52c build/aws_demos/production/_ext/1741632483/iot_demo_https_s3_download_sync.o
 .debug_aranges
                0x00000000       0x20 build/aws_demos/production/_ext/1741632483/iot_demo_https_s3_download_sync.o
 .debug_ranges  0x00000000       0x20 build/aws_demos/production/_ext/1741632483/iot_demo_https_s3_download_sync.o
 .debug_line    0x00000000      0x422 build/aws_demos/production/_ext/1741632483/iot_demo_https_s3_download_sync.o
 .debug_str     0x00000000      0x1f2 build/aws_demos/production/_ext/1741632483/iot_demo_https_s3_download_sync.o
 .comment       0x00000000       0x3d build/aws_demos/production/_ext/1741632483/iot_demo_https_s3_download_sync.o
 .debug_frame   0x00000000       0x40 build/aws_demos/production/_ext/1741632483/iot_demo_https_s3_download_sync.o
 .ARM.attributes
                0x00000000       0x39 build/aws_demos/production/_ext/1741632483/iot_demo_https_s3_download_sync.o
 .text          0x00000000      0x2f4 build/aws_demos/production/_ext/1741632483/iot_demo_https_s3_upload_async.o
 .data          0x00000000        0x0 build/aws_demos/production/_ext/1741632483/iot_demo_https_s3_upload_async.o
 .bss           0x00000000      0x850 build/aws_demos/production/_ext/1741632483/iot_demo_https_s3_upload_async.o
 .rodata        0x00000000      0x848 build/aws_demos/production/_ext/1741632483/iot_demo_https_s3_upload_async.o
 .debug_info    0x00000000     0x2d3b build/aws_demos/production/_ext/1741632483/iot_demo_https_s3_upload_async.o
 .debug_abbrev  0x00000000      0x316 build/aws_demos/production/_ext/1741632483/iot_demo_https_s3_upload_async.o
 .debug_loc     0x00000000      0x536 build/aws_demos/production/_ext/1741632483/iot_demo_https_s3_upload_async.o
 .debug_aranges
                0x00000000       0x20 build/aws_demos/production/_ext/1741632483/iot_demo_https_s3_upload_async.o
 .debug_line    0x00000000      0x527 build/aws_demos/production/_ext/1741632483/iot_demo_https_s3_upload_async.o
 .debug_str     0x00000000      0x222 build/aws_demos/production/_ext/1741632483/iot_demo_https_s3_upload_async.o
 .comment       0x00000000       0x3d build/aws_demos/production/_ext/1741632483/iot_demo_https_s3_upload_async.o
 .debug_frame   0x00000000       0x78 build/aws_demos/production/_ext/1741632483/iot_demo_https_s3_upload_async.o
 .ARM.attributes
                0x00000000       0x39 build/aws_demos/production/_ext/1741632483/iot_demo_https_s3_upload_async.o
 .text          0x00000000      0x2b0 build/aws_demos/production/_ext/1741632483/iot_demo_https_s3_upload_sync.o
 .data          0x00000000        0x0 build/aws_demos/production/_ext/1741632483/iot_demo_https_s3_upload_sync.o
 .bss           0x00000000      0x800 build/aws_demos/production/_ext/1741632483/iot_demo_https_s3_upload_sync.o
 .rodata        0x00000000      0x874 build/aws_demos/production/_ext/1741632483/iot_demo_https_s3_upload_sync.o
 .debug_info    0x00000000     0x28d8 build/aws_demos/production/_ext/1741632483/iot_demo_https_s3_upload_sync.o
 .debug_abbrev  0x00000000      0x2b5 build/aws_demos/production/_ext/1741632483/iot_demo_https_s3_upload_sync.o
 .debug_loc     0x00000000      0x39f build/aws_demos/production/_ext/1741632483/iot_demo_https_s3_upload_sync.o
 .debug_aranges
                0x00000000       0x20 build/aws_demos/production/_ext/1741632483/iot_demo_https_s3_upload_sync.o
 .debug_line    0x00000000      0x3b8 build/aws_demos/production/_ext/1741632483/iot_demo_https_s3_upload_sync.o
 .debug_str     0x00000000      0x16f build/aws_demos/production/_ext/1741632483/iot_demo_https_s3_upload_sync.o
 .comment       0x00000000       0x3d build/aws_demos/production/_ext/1741632483/iot_demo_https_s3_upload_sync.o
 .debug_frame   0x00000000       0x3c build/aws_demos/production/_ext/1741632483/iot_demo_https_s3_upload_sync.o
 .ARM.attributes
                0x00000000       0x39 build/aws_demos/production/_ext/1741632483/iot_demo_https_s3_upload_sync.o
 .data          0x00000000        0x0 build/aws_demos/production/_ext/1441508942/iot_demo_mqtt.o
 .bss           0x00000000        0x0 build/aws_demos/production/_ext/1441508942/iot_demo_mqtt.o
 .text          0x00000000        0x0 build/aws_demos/production/_ext/2040524622/aws_iot_demo_network.o
 .data          0x00000000        0x0 build/aws_demos/production/_ext/2040524622/aws_iot_demo_network.o
 .bss           0x00000000        0x0 build/aws_demos/production/_ext/2040524622/aws_iot_demo_network.o
 .debug_line    0x00000000        0x0 build/aws_demos/production/_ext/2040524622/aws_iot_demo_network.o
 .debug_str     0x00000000        0x0 build/aws_demos/production/_ext/2040524622/aws_iot_demo_network.o
 .comment       0x00000000       0x3d build/aws_demos/production/_ext/2040524622/aws_iot_demo_network.o
 .ARM.attributes
                0x00000000       0x39 build/aws_demos/production/_ext/2040524622/aws_iot_demo_network.o
 .text          0x00000000      0x1a0 build/aws_demos/production/_ext/1986160946/aws_iot_ota_update_demo.o
 .data          0x00000000       0x28 build/aws_demos/production/_ext/1986160946/aws_iot_ota_update_demo.o
 .bss           0x00000000        0xc build/aws_demos/production/_ext/1986160946/aws_iot_ota_update_demo.o
 .rodata        0x00000000      0x1f8 build/aws_demos/production/_ext/1986160946/aws_iot_ota_update_demo.o
 .debug_info    0x00000000     0x2654 build/aws_demos/production/_ext/1986160946/aws_iot_ota_update_demo.o
 .debug_abbrev  0x00000000      0x34c build/aws_demos/production/_ext/1986160946/aws_iot_ota_update_demo.o
 .debug_loc     0x00000000      0x3de build/aws_demos/production/_ext/1986160946/aws_iot_ota_update_demo.o
 .debug_aranges
                0x00000000       0x20 build/aws_demos/production/_ext/1986160946/aws_iot_ota_update_demo.o
 .debug_ranges  0x00000000       0x18 build/aws_demos/production/_ext/1986160946/aws_iot_ota_update_demo.o
 .debug_line    0x00000000      0x568 build/aws_demos/production/_ext/1986160946/aws_iot_ota_update_demo.o
 .debug_str     0x00000000      0x1c7 build/aws_demos/production/_ext/1986160946/aws_iot_ota_update_demo.o
 .comment       0x00000000       0x3d build/aws_demos/production/_ext/1986160946/aws_iot_ota_update_demo.o
 .debug_frame   0x00000000       0x88 build/aws_demos/production/_ext/1986160946/aws_iot_ota_update_demo.o
 .ARM.attributes
                0x00000000       0x39 build/aws_demos/production/_ext/1986160946/aws_iot_ota_update_demo.o
 .text          0x00000000      0x644 build/aws_demos/production/_ext/2147228718/aws_iot_demo_shadow.o
 .data          0x00000000        0x0 build/aws_demos/production/_ext/2147228718/aws_iot_demo_shadow.o
 .bss           0x00000000       0x7b build/aws_demos/production/_ext/2147228718/aws_iot_demo_shadow.o
 .rodata        0x00000000      0x55c build/aws_demos/production/_ext/2147228718/aws_iot_demo_shadow.o
 .debug_info    0x00000000     0x36ce build/aws_demos/production/_ext/2147228718/aws_iot_demo_shadow.o
 .debug_abbrev  0x00000000      0x40c build/aws_demos/production/_ext/2147228718/aws_iot_demo_shadow.o
 .debug_loc     0x00000000      0xf45 build/aws_demos/production/_ext/2147228718/aws_iot_demo_shadow.o
 .debug_aranges
                0x00000000       0x20 build/aws_demos/production/_ext/2147228718/aws_iot_demo_shadow.o
 .debug_ranges  0x00000000       0x80 build/aws_demos/production/_ext/2147228718/aws_iot_demo_shadow.o
 .debug_line    0x00000000      0x69e build/aws_demos/production/_ext/2147228718/aws_iot_demo_shadow.o
 .debug_str     0x00000000      0x359 build/aws_demos/production/_ext/2147228718/aws_iot_demo_shadow.o
 .comment       0x00000000       0x3d build/aws_demos/production/_ext/2147228718/aws_iot_demo_shadow.o
 .debug_frame   0x00000000       0xd4 build/aws_demos/production/_ext/2147228718/aws_iot_demo_shadow.o
 .ARM.attributes
                0x00000000       0x39 build/aws_demos/production/_ext/2147228718/aws_iot_demo_shadow.o
 .text          0x00000000      0x2c8 build/aws_demos/production/_ext/1986156653/aws_tcp_echo_client_single_task.o
 .data          0x00000000        0x1 build/aws_demos/production/_ext/1986156653/aws_tcp_echo_client_single_task.o
 .bss           0x00000000      0xfb4 build/aws_demos/production/_ext/1986156653/aws_tcp_echo_client_single_task.o
 .rodata        0x00000000      0x218 build/aws_demos/production/_ext/1986156653/aws_tcp_echo_client_single_task.o
 .debug_info    0x00000000     0x1b19 build/aws_demos/production/_ext/1986156653/aws_tcp_echo_client_single_task.o
 .debug_abbrev  0x00000000      0x34d build/aws_demos/production/_ext/1986156653/aws_tcp_echo_client_single_task.o
 .debug_loc     0x00000000      0x408 build/aws_demos/production/_ext/1986156653/aws_tcp_echo_client_single_task.o
 .debug_aranges
                0x00000000       0x20 build/aws_demos/production/_ext/1986156653/aws_tcp_echo_client_single_task.o
 .debug_ranges  0x00000000       0x18 build/aws_demos/production/_ext/1986156653/aws_tcp_echo_client_single_task.o
 .debug_line    0x00000000      0x3fa build/aws_demos/production/_ext/1986156653/aws_tcp_echo_client_single_task.o
 .debug_str     0x00000000       0xd9 build/aws_demos/production/_ext/1986156653/aws_tcp_echo_client_single_task.o
 .comment       0x00000000       0x3d build/aws_demos/production/_ext/1986156653/aws_tcp_echo_client_single_task.o
 .debug_frame   0x00000000       0x68 build/aws_demos/production/_ext/1986156653/aws_tcp_echo_client_single_task.o
 .ARM.attributes
                0x00000000       0x39 build/aws_demos/production/_ext/1986156653/aws_tcp_echo_client_single_task.o
 .text          0x00000000        0x0 build/aws_demos/production/_ext/811507611/croutine.o
 .data          0x00000000        0x0 build/aws_demos/production/_ext/811507611/croutine.o
 .bss           0x00000000        0x0 build/aws_demos/production/_ext/811507611/croutine.o
 .debug_info    0x00000000      0x2b5 build/aws_demos/production/_ext/811507611/croutine.o
 .debug_abbrev  0x00000000       0x1b build/aws_demos/production/_ext/811507611/croutine.o
 .debug_aranges
                0x00000000       0x18 build/aws_demos/production/_ext/811507611/croutine.o
 .debug_line    0x00000000       0x1d build/aws_demos/production/_ext/811507611/croutine.o
 .debug_str     0x00000000        0x0 build/aws_demos/production/_ext/811507611/croutine.o
 .comment       0x00000000       0x3d build/aws_demos/production/_ext/811507611/croutine.o
 .ARM.attributes
                0x00000000       0x39 build/aws_demos/production/_ext/811507611/croutine.o
 .data          0x00000000        0x0 build/aws_demos/production/_ext/811507611/event_groups.o
 .bss           0x00000000        0x0 build/aws_demos/production/_ext/811507611/event_groups.o
 .data          0x00000000        0x0 build/aws_demos/production/_ext/811507611/list.o
 .bss           0x00000000        0x0 build/aws_demos/production/_ext/811507611/list.o
 .data          0x00000000        0x0 build/aws_demos/production/_ext/811507611/queue.o
 .bss           0x00000000        0x0 build/aws_demos/production/_ext/811507611/queue.o
 .text          0x00000000      0x864 build/aws_demos/production/_ext/811507611/stream_buffer.o
 .data          0x00000000        0x0 build/aws_demos/production/_ext/811507611/stream_buffer.o
 .bss           0x00000000        0x0 build/aws_demos/production/_ext/811507611/stream_buffer.o
 .rodata        0x00000000       0x38 build/aws_demos/production/_ext/811507611/stream_buffer.o
 .debug_info    0x00000000     0x2bee build/aws_demos/production/_ext/811507611/stream_buffer.o
 .debug_abbrev  0x00000000      0x450 build/aws_demos/production/_ext/811507611/stream_buffer.o
 .debug_loc     0x00000000     0x1b98 build/aws_demos/production/_ext/811507611/stream_buffer.o
 .debug_aranges
                0x00000000       0x20 build/aws_demos/production/_ext/811507611/stream_buffer.o
 .debug_ranges  0x00000000       0x30 build/aws_demos/production/_ext/811507611/stream_buffer.o
 .debug_line    0x00000000      0x53a build/aws_demos/production/_ext/811507611/stream_buffer.o
 .debug_str     0x00000000      0x27d build/aws_demos/production/_ext/811507611/stream_buffer.o
 .comment       0x00000000       0x3d build/aws_demos/production/_ext/811507611/stream_buffer.o
 .debug_frame   0x00000000      0x300 build/aws_demos/production/_ext/811507611/stream_buffer.o
 .ARM.attributes
                0x00000000       0x39 build/aws_demos/production/_ext/811507611/stream_buffer.o
 .data          0x00000000        0x0 build/aws_demos/production/_ext/811507611/tasks.o
 .data          0x00000000        0x0 build/aws_demos/production/_ext/811507611/timers.o
 .text          0x00000000     0x3ae8 build/aws_demos/production/_ext/490551821/http_parser.o
 .data          0x00000000        0x4 build/aws_demos/production/_ext/490551821/http_parser.o
 .bss           0x00000000        0x0 build/aws_demos/production/_ext/490551821/http_parser.o
 .rodata        0x00000000     0x12c8 build/aws_demos/production/_ext/490551821/http_parser.o
 .debug_info    0x00000000     0x3dfa build/aws_demos/production/_ext/490551821/http_parser.o
 .debug_abbrev  0x00000000      0x440 build/aws_demos/production/_ext/490551821/http_parser.o
 .debug_loc     0x00000000     0x4907 build/aws_demos/production/_ext/490551821/http_parser.o
 .debug_aranges
                0x00000000       0x20 build/aws_demos/production/_ext/490551821/http_parser.o
 .debug_ranges  0x00000000      0x210 build/aws_demos/production/_ext/490551821/http_parser.o
 .debug_line    0x00000000      0x9fd build/aws_demos/production/_ext/490551821/http_parser.o
 .debug_str     0x00000000       0x7a build/aws_demos/production/_ext/490551821/http_parser.o
 .comment       0x00000000       0x3d build/aws_demos/production/_ext/490551821/http_parser.o
 .debug_frame   0x00000000      0x1bc build/aws_demos/production/_ext/490551821/http_parser.o
 .ARM.attributes
                0x00000000       0x39 build/aws_demos/production/_ext/490551821/http_parser.o
 .text          0x00000000      0x4e0 build/aws_demos/production/_ext/1206754867/jsmn.o
 .data          0x00000000        0x0 build/aws_demos/production/_ext/1206754867/jsmn.o
 .bss           0x00000000        0x0 build/aws_demos/production/_ext/1206754867/jsmn.o
 .debug_info    0x00000000      0x811 build/aws_demos/production/_ext/1206754867/jsmn.o
 .debug_abbrev  0x00000000      0x225 build/aws_demos/production/_ext/1206754867/jsmn.o
 .debug_loc     0x00000000      0x575 build/aws_demos/production/_ext/1206754867/jsmn.o
 .debug_aranges
                0x00000000       0x20 build/aws_demos/production/_ext/1206754867/jsmn.o
 .debug_ranges  0x00000000       0xc0 build/aws_demos/production/_ext/1206754867/jsmn.o
 .debug_line    0x00000000      0x1b3 build/aws_demos/production/_ext/1206754867/jsmn.o
 .debug_str     0x00000000       0x25 build/aws_demos/production/_ext/1206754867/jsmn.o
 .comment       0x00000000       0x3d build/aws_demos/production/_ext/1206754867/jsmn.o
 .debug_frame   0x00000000       0x58 build/aws_demos/production/_ext/1206754867/jsmn.o
 .ARM.attributes
                0x00000000       0x39 build/aws_demos/production/_ext/1206754867/jsmn.o
 .data          0x00000000        0x0 build/aws_demos/production/_ext/684768522/aes.o
 .bss           0x00000000        0x0 build/aws_demos/production/_ext/684768522/aes.o
 .text          0x00000000        0x0 build/aws_demos/production/_ext/684768522/aesni.o
 .data          0x00000000        0x0 build/aws_demos/production/_ext/684768522/aesni.o
 .bss           0x00000000        0x0 build/aws_demos/production/_ext/684768522/aesni.o
 .debug_info    0x00000000      0x203 build/aws_demos/production/_ext/684768522/aesni.o
 .debug_abbrev  0x00000000       0x1b build/aws_demos/production/_ext/684768522/aesni.o
 .debug_aranges
                0x00000000       0x18 build/aws_demos/production/_ext/684768522/aesni.o
 .debug_line    0x00000000       0x1d build/aws_demos/production/_ext/684768522/aesni.o
 .debug_str     0x00000000        0x0 build/aws_demos/production/_ext/684768522/aesni.o
 .comment       0x00000000       0x3d build/aws_demos/production/_ext/684768522/aesni.o
 .ARM.attributes
                0x00000000       0x39 build/aws_demos/production/_ext/684768522/aesni.o
 .text          0x00000000        0x0 build/aws_demos/production/_ext/684768522/arc4.o
 .data          0x00000000        0x0 build/aws_demos/production/_ext/684768522/arc4.o
 .bss           0x00000000        0x0 build/aws_demos/production/_ext/684768522/arc4.o
 .debug_info    0x00000000      0x202 build/aws_demos/production/_ext/684768522/arc4.o
 .debug_abbrev  0x00000000       0x1b build/aws_demos/production/_ext/684768522/arc4.o
 .debug_aranges
                0x00000000       0x18 build/aws_demos/production/_ext/684768522/arc4.o
 .debug_line    0x00000000       0x1d build/aws_demos/production/_ext/684768522/arc4.o
 .debug_str     0x00000000        0x0 build/aws_demos/production/_ext/684768522/arc4.o
 .comment       0x00000000       0x3d build/aws_demos/production/_ext/684768522/arc4.o
 .ARM.attributes
                0x00000000       0x39 build/aws_demos/production/_ext/684768522/arc4.o
 .data          0x00000000        0x0 build/aws_demos/production/_ext/684768522/asn1parse.o
 .bss           0x00000000        0x0 build/aws_demos/production/_ext/684768522/asn1parse.o
 .data          0x00000000        0x0 build/aws_demos/production/_ext/684768522/asn1write.o
 .bss           0x00000000        0x0 build/aws_demos/production/_ext/684768522/asn1write.o
 .data          0x00000000        0x0 build/aws_demos/production/_ext/684768522/base64.o
 .bss           0x00000000        0x0 build/aws_demos/production/_ext/684768522/base64.o
 .data          0x00000000        0x0 build/aws_demos/production/_ext/684768522/bignum.o
 .bss           0x00000000        0x0 build/aws_demos/production/_ext/684768522/bignum.o
 .text          0x00000000        0x0 build/aws_demos/production/_ext/684768522/blowfish.o
 .data          0x00000000        0x0 build/aws_demos/production/_ext/684768522/blowfish.o
 .bss           0x00000000        0x0 build/aws_demos/production/_ext/684768522/blowfish.o
 .debug_info    0x00000000      0x206 build/aws_demos/production/_ext/684768522/blowfish.o
 .debug_abbrev  0x00000000       0x1b build/aws_demos/production/_ext/684768522/blowfish.o
 .debug_aranges
                0x00000000       0x18 build/aws_demos/production/_ext/684768522/blowfish.o
 .debug_line    0x00000000       0x1d build/aws_demos/production/_ext/684768522/blowfish.o
 .debug_str     0x00000000        0x0 build/aws_demos/production/_ext/684768522/blowfish.o
 .comment       0x00000000       0x3d build/aws_demos/production/_ext/684768522/blowfish.o
 .ARM.attributes
                0x00000000       0x39 build/aws_demos/production/_ext/684768522/blowfish.o
 .text          0x00000000        0x0 build/aws_demos/production/_ext/684768522/camellia.o
 .data          0x00000000        0x0 build/aws_demos/production/_ext/684768522/camellia.o
 .bss           0x00000000        0x0 build/aws_demos/production/_ext/684768522/camellia.o
 .debug_info    0x00000000      0x206 build/aws_demos/production/_ext/684768522/camellia.o
 .debug_abbrev  0x00000000       0x1b build/aws_demos/production/_ext/684768522/camellia.o
 .debug_aranges
                0x00000000       0x18 build/aws_demos/production/_ext/684768522/camellia.o
 .debug_line    0x00000000       0x1d build/aws_demos/production/_ext/684768522/camellia.o
 .debug_str     0x00000000        0x0 build/aws_demos/production/_ext/684768522/camellia.o
 .comment       0x00000000       0x3d build/aws_demos/production/_ext/684768522/camellia.o
 .ARM.attributes
                0x00000000       0x39 build/aws_demos/production/_ext/684768522/camellia.o
 .text          0x00000000        0x0 build/aws_demos/production/_ext/684768522/ccm.o
 .data          0x00000000        0x0 build/aws_demos/production/_ext/684768522/ccm.o
 .bss           0x00000000        0x0 build/aws_demos/production/_ext/684768522/ccm.o
 .debug_info    0x00000000      0x201 build/aws_demos/production/_ext/684768522/ccm.o
 .debug_abbrev  0x00000000       0x1b build/aws_demos/production/_ext/684768522/ccm.o
 .debug_aranges
                0x00000000       0x18 build/aws_demos/production/_ext/684768522/ccm.o
 .debug_line    0x00000000       0x1d build/aws_demos/production/_ext/684768522/ccm.o
 .debug_str     0x00000000        0x0 build/aws_demos/production/_ext/684768522/ccm.o
 .comment       0x00000000       0x3d build/aws_demos/production/_ext/684768522/ccm.o
 .ARM.attributes
                0x00000000       0x39 build/aws_demos/production/_ext/684768522/ccm.o
 .text          0x00000000        0x0 build/aws_demos/production/_ext/684768522/certs.o
 .data          0x00000000        0x0 build/aws_demos/production/_ext/684768522/certs.o
 .bss           0x00000000        0x0 build/aws_demos/production/_ext/684768522/certs.o
 .debug_info    0x00000000      0x88c build/aws_demos/production/_ext/684768522/certs.o
 .debug_abbrev  0x00000000       0x57 build/aws_demos/production/_ext/684768522/certs.o
 .debug_aranges
                0x00000000       0x18 build/aws_demos/production/_ext/684768522/certs.o
 .debug_line    0x00000000       0xb7 build/aws_demos/production/_ext/684768522/certs.o
 .debug_str     0x00000000        0x0 build/aws_demos/production/_ext/684768522/certs.o
 .comment       0x00000000       0x3d build/aws_demos/production/_ext/684768522/certs.o
 .ARM.attributes
                0x00000000       0x39 build/aws_demos/production/_ext/684768522/certs.o
 .data          0x00000000        0x0 build/aws_demos/production/_ext/684768522/cipher.o
 .data          0x00000000        0x0 build/aws_demos/production/_ext/684768522/cipher_wrap.o
 .bss           0x00000000        0x0 build/aws_demos/production/_ext/684768522/cipher_wrap.o
 .text          0x00000000        0x0 build/aws_demos/production/_ext/684768522/cmac.o
 .data          0x00000000        0x0 build/aws_demos/production/_ext/684768522/cmac.o
 .bss           0x00000000        0x0 build/aws_demos/production/_ext/684768522/cmac.o
 .debug_info    0x00000000      0x202 build/aws_demos/production/_ext/684768522/cmac.o
 .debug_abbrev  0x00000000       0x1b build/aws_demos/production/_ext/684768522/cmac.o
 .debug_aranges
                0x00000000       0x18 build/aws_demos/production/_ext/684768522/cmac.o
 .debug_line    0x00000000       0x1d build/aws_demos/production/_ext/684768522/cmac.o
 .debug_str     0x00000000        0x0 build/aws_demos/production/_ext/684768522/cmac.o
 .comment       0x00000000       0x3d build/aws_demos/production/_ext/684768522/cmac.o
 .ARM.attributes
                0x00000000       0x39 build/aws_demos/production/_ext/684768522/cmac.o
 .data          0x00000000        0x0 build/aws_demos/production/_ext/684768522/ctr_drbg.o
 .text          0x00000000        0x0 build/aws_demos/production/_ext/684768522/debug.o
 .data          0x00000000        0x0 build/aws_demos/production/_ext/684768522/debug.o
 .bss           0x00000000        0x0 build/aws_demos/production/_ext/684768522/debug.o
 .debug_info    0x00000000      0x203 build/aws_demos/production/_ext/684768522/debug.o
 .debug_abbrev  0x00000000       0x1b build/aws_demos/production/_ext/684768522/debug.o
 .debug_aranges
                0x00000000       0x18 build/aws_demos/production/_ext/684768522/debug.o
 .debug_line    0x00000000       0x1d build/aws_demos/production/_ext/684768522/debug.o
 .debug_str     0x00000000        0x0 build/aws_demos/production/_ext/684768522/debug.o
 .comment       0x00000000       0x3d build/aws_demos/production/_ext/684768522/debug.o
 .ARM.attributes
                0x00000000       0x39 build/aws_demos/production/_ext/684768522/debug.o
 .text          0x00000000        0x0 build/aws_demos/production/_ext/684768522/des.o
 .data          0x00000000        0x0 build/aws_demos/production/_ext/684768522/des.o
 .bss           0x00000000        0x0 build/aws_demos/production/_ext/684768522/des.o
 .debug_info    0x00000000      0x201 build/aws_demos/production/_ext/684768522/des.o
 .debug_abbrev  0x00000000       0x1b build/aws_demos/production/_ext/684768522/des.o
 .debug_aranges
                0x00000000       0x18 build/aws_demos/production/_ext/684768522/des.o
 .debug_line    0x00000000       0x1d build/aws_demos/production/_ext/684768522/des.o
 .debug_str     0x00000000        0x0 build/aws_demos/production/_ext/684768522/des.o
 .comment       0x00000000       0x3d build/aws_demos/production/_ext/684768522/des.o
 .ARM.attributes
                0x00000000       0x39 build/aws_demos/production/_ext/684768522/des.o
 .text          0x00000000        0x0 build/aws_demos/production/_ext/684768522/dhm.o
 .data          0x00000000        0x0 build/aws_demos/production/_ext/684768522/dhm.o
 .bss           0x00000000        0x0 build/aws_demos/production/_ext/684768522/dhm.o
 .debug_info    0x00000000      0x201 build/aws_demos/production/_ext/684768522/dhm.o
 .debug_abbrev  0x00000000       0x1b build/aws_demos/production/_ext/684768522/dhm.o
 .debug_aranges
                0x00000000       0x18 build/aws_demos/production/_ext/684768522/dhm.o
 .debug_line    0x00000000       0x1d build/aws_demos/production/_ext/684768522/dhm.o
 .debug_str     0x00000000        0x0 build/aws_demos/production/_ext/684768522/dhm.o
 .comment       0x00000000       0x3d build/aws_demos/production/_ext/684768522/dhm.o
 .ARM.attributes
                0x00000000       0x39 build/aws_demos/production/_ext/684768522/dhm.o
 .data          0x00000000        0x0 build/aws_demos/production/_ext/684768522/ecdh.o
 .bss           0x00000000        0x0 build/aws_demos/production/_ext/684768522/ecdh.o
 .data          0x00000000        0x0 build/aws_demos/production/_ext/684768522/ecdsa.o
 .bss           0x00000000        0x0 build/aws_demos/production/_ext/684768522/ecdsa.o
 .text          0x00000000        0x0 build/aws_demos/production/_ext/684768522/ecjpake.o
 .data          0x00000000        0x0 build/aws_demos/production/_ext/684768522/ecjpake.o
 .bss           0x00000000        0x0 build/aws_demos/production/_ext/684768522/ecjpake.o
 .debug_info    0x00000000      0x205 build/aws_demos/production/_ext/684768522/ecjpake.o
 .debug_abbrev  0x00000000       0x1b build/aws_demos/production/_ext/684768522/ecjpake.o
 .debug_aranges
                0x00000000       0x18 build/aws_demos/production/_ext/684768522/ecjpake.o
 .debug_line    0x00000000       0x1d build/aws_demos/production/_ext/684768522/ecjpake.o
 .debug_str     0x00000000        0x0 build/aws_demos/production/_ext/684768522/ecjpake.o
 .comment       0x00000000       0x3d build/aws_demos/production/_ext/684768522/ecjpake.o
 .ARM.attributes
                0x00000000       0x39 build/aws_demos/production/_ext/684768522/ecjpake.o
 .data          0x00000000        0x0 build/aws_demos/production/_ext/684768522/ecp.o
 .bss           0x00000000        0x0 build/aws_demos/production/_ext/684768522/ecp_curves.o
 .data          0x00000000        0x0 build/aws_demos/production/_ext/684768522/entropy.o
 .bss           0x00000000        0x0 build/aws_demos/production/_ext/684768522/entropy.o
 .text          0x00000000        0x0 build/aws_demos/production/_ext/684768522/entropy_poll.o
 .data          0x00000000        0x0 build/aws_demos/production/_ext/684768522/entropy_poll.o
 .bss           0x00000000        0x0 build/aws_demos/production/_ext/684768522/entropy_poll.o
 .debug_info    0x00000000      0xf2d build/aws_demos/production/_ext/684768522/entropy_poll.o
 .debug_abbrev  0x00000000      0x171 build/aws_demos/production/_ext/684768522/entropy_poll.o
 .debug_aranges
                0x00000000       0x18 build/aws_demos/production/_ext/684768522/entropy_poll.o
 .debug_line    0x00000000      0x1e8 build/aws_demos/production/_ext/684768522/entropy_poll.o
 .debug_str     0x00000000        0xe build/aws_demos/production/_ext/684768522/entropy_poll.o
 .comment       0x00000000       0x3d build/aws_demos/production/_ext/684768522/entropy_poll.o
 .ARM.attributes
                0x00000000       0x39 build/aws_demos/production/_ext/684768522/entropy_poll.o
 .text          0x00000000        0x0 build/aws_demos/production/_ext/684768522/error.o
 .data          0x00000000        0x0 build/aws_demos/production/_ext/684768522/error.o
 .bss           0x00000000        0x0 build/aws_demos/production/_ext/684768522/error.o
 .debug_info    0x00000000      0xe3a build/aws_demos/production/_ext/684768522/error.o
 .debug_abbrev  0x00000000      0x171 build/aws_demos/production/_ext/684768522/error.o
 .debug_aranges
                0x00000000       0x18 build/aws_demos/production/_ext/684768522/error.o
 .debug_line    0x00000000      0x111 build/aws_demos/production/_ext/684768522/error.o
 .debug_str     0x00000000        0xe build/aws_demos/production/_ext/684768522/error.o
 .comment       0x00000000       0x3d build/aws_demos/production/_ext/684768522/error.o
 .ARM.attributes
                0x00000000       0x39 build/aws_demos/production/_ext/684768522/error.o
 .data          0x00000000        0x0 build/aws_demos/production/_ext/684768522/gcm.o
 .bss           0x00000000        0x0 build/aws_demos/production/_ext/684768522/gcm.o
 .text          0x00000000        0x0 build/aws_demos/production/_ext/684768522/havege.o
 .data          0x00000000        0x0 build/aws_demos/production/_ext/684768522/havege.o
 .bss           0x00000000        0x0 build/aws_demos/production/_ext/684768522/havege.o
 .debug_info    0x00000000      0x204 build/aws_demos/production/_ext/684768522/havege.o
 .debug_abbrev  0x00000000       0x1b build/aws_demos/production/_ext/684768522/havege.o
 .debug_aranges
                0x00000000       0x18 build/aws_demos/production/_ext/684768522/havege.o
 .debug_line    0x00000000       0x1d build/aws_demos/production/_ext/684768522/havege.o
 .debug_str     0x00000000        0x0 build/aws_demos/production/_ext/684768522/havege.o
 .comment       0x00000000       0x3d build/aws_demos/production/_ext/684768522/havege.o
 .ARM.attributes
                0x00000000       0x39 build/aws_demos/production/_ext/684768522/havege.o
 .text          0x00000000        0x0 build/aws_demos/production/_ext/684768522/hmac_drbg.o
 .data          0x00000000        0x0 build/aws_demos/production/_ext/684768522/hmac_drbg.o
 .bss           0x00000000        0x0 build/aws_demos/production/_ext/684768522/hmac_drbg.o
 .debug_info    0x00000000      0x207 build/aws_demos/production/_ext/684768522/hmac_drbg.o
 .debug_abbrev  0x00000000       0x1b build/aws_demos/production/_ext/684768522/hmac_drbg.o
 .debug_aranges
                0x00000000       0x18 build/aws_demos/production/_ext/684768522/hmac_drbg.o
 .debug_line    0x00000000       0x1d build/aws_demos/production/_ext/684768522/hmac_drbg.o
 .debug_str     0x00000000        0x0 build/aws_demos/production/_ext/684768522/hmac_drbg.o
 .comment       0x00000000       0x3d build/aws_demos/production/_ext/684768522/hmac_drbg.o
 .ARM.attributes
                0x00000000       0x39 build/aws_demos/production/_ext/684768522/hmac_drbg.o
 .data          0x00000000        0x0 build/aws_demos/production/_ext/684768522/md.o
 .bss           0x00000000        0x0 build/aws_demos/production/_ext/684768522/md.o
 .text          0x00000000        0x0 build/aws_demos/production/_ext/684768522/md2.o
 .data          0x00000000        0x0 build/aws_demos/production/_ext/684768522/md2.o
 .bss           0x00000000        0x0 build/aws_demos/production/_ext/684768522/md2.o
 .debug_info    0x00000000      0x201 build/aws_demos/production/_ext/684768522/md2.o
 .debug_abbrev  0x00000000       0x1b build/aws_demos/production/_ext/684768522/md2.o
 .debug_aranges
                0x00000000       0x18 build/aws_demos/production/_ext/684768522/md2.o
 .debug_line    0x00000000       0x1d build/aws_demos/production/_ext/684768522/md2.o
 .debug_str     0x00000000        0x0 build/aws_demos/production/_ext/684768522/md2.o
 .comment       0x00000000       0x3d build/aws_demos/production/_ext/684768522/md2.o
 .ARM.attributes
                0x00000000       0x39 build/aws_demos/production/_ext/684768522/md2.o
 .text          0x00000000        0x0 build/aws_demos/production/_ext/684768522/md4.o
 .data          0x00000000        0x0 build/aws_demos/production/_ext/684768522/md4.o
 .bss           0x00000000        0x0 build/aws_demos/production/_ext/684768522/md4.o
 .debug_info    0x00000000      0x201 build/aws_demos/production/_ext/684768522/md4.o
 .debug_abbrev  0x00000000       0x1b build/aws_demos/production/_ext/684768522/md4.o
 .debug_aranges
                0x00000000       0x18 build/aws_demos/production/_ext/684768522/md4.o
 .debug_line    0x00000000       0x1d build/aws_demos/production/_ext/684768522/md4.o
 .debug_str     0x00000000        0x0 build/aws_demos/production/_ext/684768522/md4.o
 .comment       0x00000000       0x3d build/aws_demos/production/_ext/684768522/md4.o
 .ARM.attributes
                0x00000000       0x39 build/aws_demos/production/_ext/684768522/md4.o
 .text          0x00000000        0x0 build/aws_demos/production/_ext/684768522/md5.o
 .data          0x00000000        0x0 build/aws_demos/production/_ext/684768522/md5.o
 .bss           0x00000000        0x0 build/aws_demos/production/_ext/684768522/md5.o
 .debug_info    0x00000000      0x201 build/aws_demos/production/_ext/684768522/md5.o
 .debug_abbrev  0x00000000       0x1b build/aws_demos/production/_ext/684768522/md5.o
 .debug_aranges
                0x00000000       0x18 build/aws_demos/production/_ext/684768522/md5.o
 .debug_line    0x00000000       0x1d build/aws_demos/production/_ext/684768522/md5.o
 .debug_str     0x00000000        0x0 build/aws_demos/production/_ext/684768522/md5.o
 .comment       0x00000000       0x3d build/aws_demos/production/_ext/684768522/md5.o
 .ARM.attributes
                0x00000000       0x39 build/aws_demos/production/_ext/684768522/md5.o
 .data          0x00000000        0x0 build/aws_demos/production/_ext/684768522/md_wrap.o
 .bss           0x00000000        0x0 build/aws_demos/production/_ext/684768522/md_wrap.o
 .text          0x00000000        0x0 build/aws_demos/production/_ext/684768522/memory_buffer_alloc.o
 .data          0x00000000        0x0 build/aws_demos/production/_ext/684768522/memory_buffer_alloc.o
 .bss           0x00000000        0x0 build/aws_demos/production/_ext/684768522/memory_buffer_alloc.o
 .debug_info    0x00000000      0x211 build/aws_demos/production/_ext/684768522/memory_buffer_alloc.o
 .debug_abbrev  0x00000000       0x1b build/aws_demos/production/_ext/684768522/memory_buffer_alloc.o
 .debug_aranges
                0x00000000       0x18 build/aws_demos/production/_ext/684768522/memory_buffer_alloc.o
 .debug_line    0x00000000       0x1d build/aws_demos/production/_ext/684768522/memory_buffer_alloc.o
 .debug_str     0x00000000        0x0 build/aws_demos/production/_ext/684768522/memory_buffer_alloc.o
 .comment       0x00000000       0x3d build/aws_demos/production/_ext/684768522/memory_buffer_alloc.o
 .ARM.attributes
                0x00000000       0x39 build/aws_demos/production/_ext/684768522/memory_buffer_alloc.o
 .text          0x00000000        0x0 build/aws_demos/production/_ext/684768522/net_sockets.o
 .data          0x00000000        0x0 build/aws_demos/production/_ext/684768522/net_sockets.o
 .bss           0x00000000        0x0 build/aws_demos/production/_ext/684768522/net_sockets.o
 .debug_info    0x00000000      0x209 build/aws_demos/production/_ext/684768522/net_sockets.o
 .debug_abbrev  0x00000000       0x1b build/aws_demos/production/_ext/684768522/net_sockets.o
 .debug_aranges
                0x00000000       0x18 build/aws_demos/production/_ext/684768522/net_sockets.o
 .debug_line    0x00000000       0x1d build/aws_demos/production/_ext/684768522/net_sockets.o
 .debug_str     0x00000000        0x0 build/aws_demos/production/_ext/684768522/net_sockets.o
 .comment       0x00000000       0x3d build/aws_demos/production/_ext/684768522/net_sockets.o
 .ARM.attributes
                0x00000000       0x39 build/aws_demos/production/_ext/684768522/net_sockets.o
 .data          0x00000000        0x0 build/aws_demos/production/_ext/684768522/oid.o
 .bss           0x00000000        0x0 build/aws_demos/production/_ext/684768522/oid.o
 .text          0x00000000        0x0 build/aws_demos/production/_ext/684768522/padlock.o
 .data          0x00000000        0x0 build/aws_demos/production/_ext/684768522/padlock.o
 .bss           0x00000000        0x0 build/aws_demos/production/_ext/684768522/padlock.o
 .debug_info    0x00000000      0x205 build/aws_demos/production/_ext/684768522/padlock.o
 .debug_abbrev  0x00000000       0x1b build/aws_demos/production/_ext/684768522/padlock.o
 .debug_aranges
                0x00000000       0x18 build/aws_demos/production/_ext/684768522/padlock.o
 .debug_line    0x00000000       0x1d build/aws_demos/production/_ext/684768522/padlock.o
 .debug_str     0x00000000        0x0 build/aws_demos/production/_ext/684768522/padlock.o
 .comment       0x00000000       0x3d build/aws_demos/production/_ext/684768522/padlock.o
 .ARM.attributes
                0x00000000       0x39 build/aws_demos/production/_ext/684768522/padlock.o
 .data          0x00000000        0x0 build/aws_demos/production/_ext/684768522/pem.o
 .bss           0x00000000        0x0 build/aws_demos/production/_ext/684768522/pem.o
 .data          0x00000000        0x0 build/aws_demos/production/_ext/684768522/pk.o
 .bss           0x00000000        0x0 build/aws_demos/production/_ext/684768522/pk.o
 .text          0x00000000        0x0 build/aws_demos/production/_ext/684768522/pkcs12.o
 .data          0x00000000        0x0 build/aws_demos/production/_ext/684768522/pkcs12.o
 .bss           0x00000000        0x0 build/aws_demos/production/_ext/684768522/pkcs12.o
 .debug_info    0x00000000      0x204 build/aws_demos/production/_ext/684768522/pkcs12.o
 .debug_abbrev  0x00000000       0x1b build/aws_demos/production/_ext/684768522/pkcs12.o
 .debug_aranges
                0x00000000       0x18 build/aws_demos/production/_ext/684768522/pkcs12.o
 .debug_line    0x00000000       0x1d build/aws_demos/production/_ext/684768522/pkcs12.o
 .debug_str     0x00000000        0x0 build/aws_demos/production/_ext/684768522/pkcs12.o
 .comment       0x00000000       0x3d build/aws_demos/production/_ext/684768522/pkcs12.o
 .ARM.attributes
                0x00000000       0x39 build/aws_demos/production/_ext/684768522/pkcs12.o
 .text          0x00000000        0x0 build/aws_demos/production/_ext/684768522/pkcs5.o
 .data          0x00000000        0x0 build/aws_demos/production/_ext/684768522/pkcs5.o
 .bss           0x00000000        0x0 build/aws_demos/production/_ext/684768522/pkcs5.o
 .debug_info    0x00000000      0x203 build/aws_demos/production/_ext/684768522/pkcs5.o
 .debug_abbrev  0x00000000       0x1b build/aws_demos/production/_ext/684768522/pkcs5.o
 .debug_aranges
                0x00000000       0x18 build/aws_demos/production/_ext/684768522/pkcs5.o
 .debug_line    0x00000000       0x1d build/aws_demos/production/_ext/684768522/pkcs5.o
 .debug_str     0x00000000        0x0 build/aws_demos/production/_ext/684768522/pkcs5.o
 .comment       0x00000000       0x3d build/aws_demos/production/_ext/684768522/pkcs5.o
 .ARM.attributes
                0x00000000       0x39 build/aws_demos/production/_ext/684768522/pkcs5.o
 .data          0x00000000        0x0 build/aws_demos/production/_ext/684768522/pkparse.o
 .bss           0x00000000        0x0 build/aws_demos/production/_ext/684768522/pkparse.o
 .data          0x00000000        0x0 build/aws_demos/production/_ext/684768522/pkwrite.o
 .bss           0x00000000        0x0 build/aws_demos/production/_ext/684768522/pkwrite.o
 .data          0x00000000        0x0 build/aws_demos/production/_ext/684768522/pk_wrap.o
 .bss           0x00000000        0x0 build/aws_demos/production/_ext/684768522/pk_wrap.o
 .bss           0x00000000        0x0 build/aws_demos/production/_ext/684768522/platform.o
 .bss           0x00000000        0x0 build/aws_demos/production/_ext/684768522/platform_util.o
 .text          0x00000000        0x0 build/aws_demos/production/_ext/684768522/ripemd160.o
 .data          0x00000000        0x0 build/aws_demos/production/_ext/684768522/ripemd160.o
 .bss           0x00000000        0x0 build/aws_demos/production/_ext/684768522/ripemd160.o
 .debug_info    0x00000000      0x207 build/aws_demos/production/_ext/684768522/ripemd160.o
 .debug_abbrev  0x00000000       0x1b build/aws_demos/production/_ext/684768522/ripemd160.o
 .debug_aranges
                0x00000000       0x18 build/aws_demos/production/_ext/684768522/ripemd160.o
 .debug_line    0x00000000       0x1d build/aws_demos/production/_ext/684768522/ripemd160.o
 .debug_str     0x00000000        0x0 build/aws_demos/production/_ext/684768522/ripemd160.o
 .comment       0x00000000       0x3d build/aws_demos/production/_ext/684768522/ripemd160.o
 .ARM.attributes
                0x00000000       0x39 build/aws_demos/production/_ext/684768522/ripemd160.o
 .data          0x00000000        0x0 build/aws_demos/production/_ext/684768522/rsa.o
 .bss           0x00000000        0x0 build/aws_demos/production/_ext/684768522/rsa.o
 .data          0x00000000        0x0 build/aws_demos/production/_ext/684768522/rsa_internal.o
 .bss           0x00000000        0x0 build/aws_demos/production/_ext/684768522/rsa_internal.o
 .data          0x00000000        0x0 build/aws_demos/production/_ext/684768522/sha1.o
 .bss           0x00000000        0x0 build/aws_demos/production/_ext/684768522/sha1.o
 .data          0x00000000        0x0 build/aws_demos/production/_ext/684768522/sha256.o
 .bss           0x00000000        0x0 build/aws_demos/production/_ext/684768522/sha256.o
 .text          0x00000000        0x0 build/aws_demos/production/_ext/684768522/sha512.o
 .data          0x00000000        0x0 build/aws_demos/production/_ext/684768522/sha512.o
 .bss           0x00000000        0x0 build/aws_demos/production/_ext/684768522/sha512.o
 .debug_info    0x00000000      0x204 build/aws_demos/production/_ext/684768522/sha512.o
 .debug_abbrev  0x00000000       0x1b build/aws_demos/production/_ext/684768522/sha512.o
 .debug_aranges
                0x00000000       0x18 build/aws_demos/production/_ext/684768522/sha512.o
 .debug_line    0x00000000       0x1d build/aws_demos/production/_ext/684768522/sha512.o
 .debug_str     0x00000000        0x0 build/aws_demos/production/_ext/684768522/sha512.o
 .comment       0x00000000       0x3d build/aws_demos/production/_ext/684768522/sha512.o
 .ARM.attributes
                0x00000000       0x39 build/aws_demos/production/_ext/684768522/sha512.o
 .text          0x00000000        0x0 build/aws_demos/production/_ext/684768522/ssl_cache.o
 .data          0x00000000        0x0 build/aws_demos/production/_ext/684768522/ssl_cache.o
 .bss           0x00000000        0x0 build/aws_demos/production/_ext/684768522/ssl_cache.o
 .debug_info    0x00000000      0x207 build/aws_demos/production/_ext/684768522/ssl_cache.o
 .debug_abbrev  0x00000000       0x1b build/aws_demos/production/_ext/684768522/ssl_cache.o
 .debug_aranges
                0x00000000       0x18 build/aws_demos/production/_ext/684768522/ssl_cache.o
 .debug_line    0x00000000       0x1d build/aws_demos/production/_ext/684768522/ssl_cache.o
 .debug_str     0x00000000        0x0 build/aws_demos/production/_ext/684768522/ssl_cache.o
 .comment       0x00000000       0x3d build/aws_demos/production/_ext/684768522/ssl_cache.o
 .ARM.attributes
                0x00000000       0x39 build/aws_demos/production/_ext/684768522/ssl_cache.o
 .data          0x00000000        0x0 build/aws_demos/production/_ext/684768522/ssl_ciphersuites.o
 .data          0x00000000        0x0 build/aws_demos/production/_ext/684768522/ssl_cli.o
 .bss           0x00000000        0x0 build/aws_demos/production/_ext/684768522/ssl_cli.o
 .text          0x00000000        0x0 build/aws_demos/production/_ext/684768522/ssl_cookie.o
 .data          0x00000000        0x0 build/aws_demos/production/_ext/684768522/ssl_cookie.o
 .bss           0x00000000        0x0 build/aws_demos/production/_ext/684768522/ssl_cookie.o
 .debug_info    0x00000000      0x208 build/aws_demos/production/_ext/684768522/ssl_cookie.o
 .debug_abbrev  0x00000000       0x1b build/aws_demos/production/_ext/684768522/ssl_cookie.o
 .debug_aranges
                0x00000000       0x18 build/aws_demos/production/_ext/684768522/ssl_cookie.o
 .debug_line    0x00000000       0x1d build/aws_demos/production/_ext/684768522/ssl_cookie.o
 .debug_str     0x00000000        0x0 build/aws_demos/production/_ext/684768522/ssl_cookie.o
 .comment       0x00000000       0x3d build/aws_demos/production/_ext/684768522/ssl_cookie.o
 .ARM.attributes
                0x00000000       0x39 build/aws_demos/production/_ext/684768522/ssl_cookie.o
 .text          0x00000000        0x0 build/aws_demos/production/_ext/684768522/ssl_srv.o
 .data          0x00000000        0x0 build/aws_demos/production/_ext/684768522/ssl_srv.o
 .bss           0x00000000        0x0 build/aws_demos/production/_ext/684768522/ssl_srv.o
 .debug_info    0x00000000      0x205 build/aws_demos/production/_ext/684768522/ssl_srv.o
 .debug_abbrev  0x00000000       0x1b build/aws_demos/production/_ext/684768522/ssl_srv.o
 .debug_aranges
                0x00000000       0x18 build/aws_demos/production/_ext/684768522/ssl_srv.o
 .debug_line    0x00000000       0x1d build/aws_demos/production/_ext/684768522/ssl_srv.o
 .debug_str     0x00000000        0x0 build/aws_demos/production/_ext/684768522/ssl_srv.o
 .comment       0x00000000       0x3d build/aws_demos/production/_ext/684768522/ssl_srv.o
 .ARM.attributes
                0x00000000       0x39 build/aws_demos/production/_ext/684768522/ssl_srv.o
 .text          0x00000000        0x0 build/aws_demos/production/_ext/684768522/ssl_ticket.o
 .data          0x00000000        0x0 build/aws_demos/production/_ext/684768522/ssl_ticket.o
 .bss           0x00000000        0x0 build/aws_demos/production/_ext/684768522/ssl_ticket.o
 .debug_info    0x00000000      0x208 build/aws_demos/production/_ext/684768522/ssl_ticket.o
 .debug_abbrev  0x00000000       0x1b build/aws_demos/production/_ext/684768522/ssl_ticket.o
 .debug_aranges
                0x00000000       0x18 build/aws_demos/production/_ext/684768522/ssl_ticket.o
 .debug_line    0x00000000       0x1d build/aws_demos/production/_ext/684768522/ssl_ticket.o
 .debug_str     0x00000000        0x0 build/aws_demos/production/_ext/684768522/ssl_ticket.o
 .comment       0x00000000       0x3d build/aws_demos/production/_ext/684768522/ssl_ticket.o
 .ARM.attributes
                0x00000000       0x39 build/aws_demos/production/_ext/684768522/ssl_ticket.o
 .bss           0x00000000        0x0 build/aws_demos/production/_ext/684768522/ssl_tls.o
 .bss           0x00000000        0x0 build/aws_demos/production/_ext/684768522/threading.o
 .text          0x00000000        0x0 build/aws_demos/production/_ext/684768522/timing.o
 .data          0x00000000        0x0 build/aws_demos/production/_ext/684768522/timing.o
 .bss           0x00000000        0x0 build/aws_demos/production/_ext/684768522/timing.o
 .debug_info    0x00000000      0xe3b build/aws_demos/production/_ext/684768522/timing.o
 .debug_abbrev  0x00000000      0x171 build/aws_demos/production/_ext/684768522/timing.o
 .debug_aranges
                0x00000000       0x18 build/aws_demos/production/_ext/684768522/timing.o
 .debug_line    0x00000000      0x111 build/aws_demos/production/_ext/684768522/timing.o
 .debug_str     0x00000000        0xe build/aws_demos/production/_ext/684768522/timing.o
 .comment       0x00000000       0x3d build/aws_demos/production/_ext/684768522/timing.o
 .ARM.attributes
                0x00000000       0x39 build/aws_demos/production/_ext/684768522/timing.o
 .text          0x00000000       0x34 build/aws_demos/production/_ext/684768522/version.o
 .data          0x00000000        0x0 build/aws_demos/production/_ext/684768522/version.o
 .bss           0x00000000        0x0 build/aws_demos/production/_ext/684768522/version.o
 .rodata        0x00000000       0x18 build/aws_demos/production/_ext/684768522/version.o
 .debug_info    0x00000000      0xea6 build/aws_demos/production/_ext/684768522/version.o
 .debug_abbrev  0x00000000      0x1c1 build/aws_demos/production/_ext/684768522/version.o
 .debug_loc     0x00000000       0x76 build/aws_demos/production/_ext/684768522/version.o
 .debug_aranges
                0x00000000       0x20 build/aws_demos/production/_ext/684768522/version.o
 .debug_line    0x00000000      0x120 build/aws_demos/production/_ext/684768522/version.o
 .debug_str     0x00000000        0xe build/aws_demos/production/_ext/684768522/version.o
 .comment       0x00000000       0x3d build/aws_demos/production/_ext/684768522/version.o
 .debug_frame   0x00000000       0x4c build/aws_demos/production/_ext/684768522/version.o
 .ARM.attributes
                0x00000000       0x39 build/aws_demos/production/_ext/684768522/version.o
 .text          0x00000000       0x38 build/aws_demos/production/_ext/684768522/version_features.o
 .data          0x00000000       0xfc build/aws_demos/production/_ext/684768522/version_features.o
 .bss           0x00000000        0x0 build/aws_demos/production/_ext/684768522/version_features.o
 .rodata        0x00000000      0x60c build/aws_demos/production/_ext/684768522/version_features.o
 .debug_info    0x00000000      0xea0 build/aws_demos/production/_ext/684768522/version_features.o
 .debug_abbrev  0x00000000      0x1d6 build/aws_demos/production/_ext/684768522/version_features.o
 .debug_loc     0x00000000       0x7e build/aws_demos/production/_ext/684768522/version_features.o
 .debug_aranges
                0x00000000       0x20 build/aws_demos/production/_ext/684768522/version_features.o
 .debug_line    0x00000000      0x16f build/aws_demos/production/_ext/684768522/version_features.o
 .debug_str     0x00000000        0xe build/aws_demos/production/_ext/684768522/version_features.o
 .comment       0x00000000       0x3d build/aws_demos/production/_ext/684768522/version_features.o
 .debug_frame   0x00000000       0x2c build/aws_demos/production/_ext/684768522/version_features.o
 .ARM.attributes
                0x00000000       0x39 build/aws_demos/production/_ext/684768522/version_features.o
 .data          0x00000000        0x0 build/aws_demos/production/_ext/684768522/x509.o
 .bss           0x00000000        0x0 build/aws_demos/production/_ext/684768522/x509.o
 .text          0x00000000        0x0 build/aws_demos/production/_ext/684768522/x509write_crt.o
 .data          0x00000000        0x0 build/aws_demos/production/_ext/684768522/x509write_crt.o
 .bss           0x00000000        0x0 build/aws_demos/production/_ext/684768522/x509write_crt.o
 .debug_info    0x00000000      0x20b build/aws_demos/production/_ext/684768522/x509write_crt.o
 .debug_abbrev  0x00000000       0x1b build/aws_demos/production/_ext/684768522/x509write_crt.o
 .debug_aranges
                0x00000000       0x18 build/aws_demos/production/_ext/684768522/x509write_crt.o
 .debug_line    0x00000000       0x1d build/aws_demos/production/_ext/684768522/x509write_crt.o
 .debug_str     0x00000000        0x0 build/aws_demos/production/_ext/684768522/x509write_crt.o
 .comment       0x00000000       0x3d build/aws_demos/production/_ext/684768522/x509write_crt.o
 .ARM.attributes
                0x00000000       0x39 build/aws_demos/production/_ext/684768522/x509write_crt.o
 .text          0x00000000        0x0 build/aws_demos/production/_ext/684768522/x509write_csr.o
 .data          0x00000000        0x0 build/aws_demos/production/_ext/684768522/x509write_csr.o
 .bss           0x00000000        0x0 build/aws_demos/production/_ext/684768522/x509write_csr.o
 .debug_info    0x00000000      0x20b build/aws_demos/production/_ext/684768522/x509write_csr.o
 .debug_abbrev  0x00000000       0x1b build/aws_demos/production/_ext/684768522/x509write_csr.o
 .debug_aranges
                0x00000000       0x18 build/aws_demos/production/_ext/684768522/x509write_csr.o
 .debug_line    0x00000000       0x1d build/aws_demos/production/_ext/684768522/x509write_csr.o
 .debug_str     0x00000000        0x0 build/aws_demos/production/_ext/684768522/x509write_csr.o
 .comment       0x00000000       0x3d build/aws_demos/production/_ext/684768522/x509write_csr.o
 .ARM.attributes
                0x00000000       0x39 build/aws_demos/production/_ext/684768522/x509write_csr.o
 .text          0x00000000        0x0 build/aws_demos/production/_ext/684768522/x509_create.o
 .data          0x00000000        0x0 build/aws_demos/production/_ext/684768522/x509_create.o
 .bss           0x00000000        0x0 build/aws_demos/production/_ext/684768522/x509_create.o
 .debug_info    0x00000000      0x209 build/aws_demos/production/_ext/684768522/x509_create.o
 .debug_abbrev  0x00000000       0x1b build/aws_demos/production/_ext/684768522/x509_create.o
 .debug_aranges
                0x00000000       0x18 build/aws_demos/production/_ext/684768522/x509_create.o
 .debug_line    0x00000000       0x1d build/aws_demos/production/_ext/684768522/x509_create.o
 .debug_str     0x00000000        0x0 build/aws_demos/production/_ext/684768522/x509_create.o
 .comment       0x00000000       0x3d build/aws_demos/production/_ext/684768522/x509_create.o
 .ARM.attributes
                0x00000000       0x39 build/aws_demos/production/_ext/684768522/x509_create.o
 .text          0x00000000        0x0 build/aws_demos/production/_ext/684768522/x509_crl.o
 .data          0x00000000        0x0 build/aws_demos/production/_ext/684768522/x509_crl.o
 .bss           0x00000000        0x0 build/aws_demos/production/_ext/684768522/x509_crl.o
 .debug_info    0x00000000      0x206 build/aws_demos/production/_ext/684768522/x509_crl.o
 .debug_abbrev  0x00000000       0x1b build/aws_demos/production/_ext/684768522/x509_crl.o
 .debug_aranges
                0x00000000       0x18 build/aws_demos/production/_ext/684768522/x509_crl.o
 .debug_line    0x00000000       0x1d build/aws_demos/production/_ext/684768522/x509_crl.o
 .debug_str     0x00000000        0x0 build/aws_demos/production/_ext/684768522/x509_crl.o
 .comment       0x00000000       0x3d build/aws_demos/production/_ext/684768522/x509_crl.o
 .ARM.attributes
                0x00000000       0x39 build/aws_demos/production/_ext/684768522/x509_crl.o
 .data          0x00000000        0x0 build/aws_demos/production/_ext/684768522/x509_crt.o
 .bss           0x00000000        0x0 build/aws_demos/production/_ext/684768522/x509_crt.o
 .text          0x00000000        0x0 build/aws_demos/production/_ext/684768522/x509_csr.o
 .data          0x00000000        0x0 build/aws_demos/production/_ext/684768522/x509_csr.o
 .bss           0x00000000        0x0 build/aws_demos/production/_ext/684768522/x509_csr.o
 .debug_info    0x00000000      0x206 build/aws_demos/production/_ext/684768522/x509_csr.o
 .debug_abbrev  0x00000000       0x1b build/aws_demos/production/_ext/684768522/x509_csr.o
 .debug_aranges
                0x00000000       0x18 build/aws_demos/production/_ext/684768522/x509_csr.o
 .debug_line    0x00000000       0x1d build/aws_demos/production/_ext/684768522/x509_csr.o
 .debug_str     0x00000000        0x0 build/aws_demos/production/_ext/684768522/x509_csr.o
 .comment       0x00000000       0x3d build/aws_demos/production/_ext/684768522/x509_csr.o
 .ARM.attributes
                0x00000000       0x39 build/aws_demos/production/_ext/684768522/x509_csr.o
 .text          0x00000000        0x0 build/aws_demos/production/_ext/684768522/xtea.o
 .data          0x00000000        0x0 build/aws_demos/production/_ext/684768522/xtea.o
 .bss           0x00000000        0x0 build/aws_demos/production/_ext/684768522/xtea.o
 .debug_info    0x00000000      0x202 build/aws_demos/production/_ext/684768522/xtea.o
 .debug_abbrev  0x00000000       0x1b build/aws_demos/production/_ext/684768522/xtea.o
 .debug_aranges
                0x00000000       0x18 build/aws_demos/production/_ext/684768522/xtea.o
 .debug_line    0x00000000       0x1d build/aws_demos/production/_ext/684768522/xtea.o
 .debug_str     0x00000000        0x0 build/aws_demos/production/_ext/684768522/xtea.o
 .comment       0x00000000       0x3d build/aws_demos/production/_ext/684768522/xtea.o
 .ARM.attributes
                0x00000000       0x39 build/aws_demos/production/_ext/684768522/xtea.o
 .data          0x00000000        0x0 build/aws_demos/production/_ext/2077790016/mbedtls_utils.o
 .bss           0x00000000        0x0 build/aws_demos/production/_ext/2077790016/mbedtls_utils.o
 .text          0x00000000      0x624 build/aws_demos/production/_ext/1057560203/cborencoder.o
 .data          0x00000000        0x0 build/aws_demos/production/_ext/1057560203/cborencoder.o
 .bss           0x00000000        0x0 build/aws_demos/production/_ext/1057560203/cborencoder.o
 .rodata        0x00000000       0xb0 build/aws_demos/production/_ext/1057560203/cborencoder.o
 .debug_info    0x00000000     0x2dc2 build/aws_demos/production/_ext/1057560203/cborencoder.o
 .debug_abbrev  0x00000000      0x44d build/aws_demos/production/_ext/1057560203/cborencoder.o
 .debug_loc     0x00000000     0x240d build/aws_demos/production/_ext/1057560203/cborencoder.o
 .debug_aranges
                0x00000000       0x20 build/aws_demos/production/_ext/1057560203/cborencoder.o
 .debug_ranges  0x00000000      0x228 build/aws_demos/production/_ext/1057560203/cborencoder.o
 .debug_line    0x00000000      0x43e build/aws_demos/production/_ext/1057560203/cborencoder.o
 .debug_str     0x00000000       0x72 build/aws_demos/production/_ext/1057560203/cborencoder.o
 .comment       0x00000000       0x3d build/aws_demos/production/_ext/1057560203/cborencoder.o
 .debug_frame   0x00000000      0x1bc build/aws_demos/production/_ext/1057560203/cborencoder.o
 .ARM.attributes
                0x00000000       0x39 build/aws_demos/production/_ext/1057560203/cborencoder.o
 .text          0x00000000        0x8 build/aws_demos/production/_ext/1057560203/cborencoder_close_container_checked.o
 .data          0x00000000        0x0 build/aws_demos/production/_ext/1057560203/cborencoder_close_container_checked.o
 .bss           0x00000000        0x0 build/aws_demos/production/_ext/1057560203/cborencoder_close_container_checked.o
 .debug_info    0x00000000     0x1342 build/aws_demos/production/_ext/1057560203/cborencoder_close_container_checked.o
 .debug_abbrev  0x00000000      0x218 build/aws_demos/production/_ext/1057560203/cborencoder_close_container_checked.o
 .debug_loc     0x00000000       0x62 build/aws_demos/production/_ext/1057560203/cborencoder_close_container_checked.o
 .debug_aranges
                0x00000000       0x20 build/aws_demos/production/_ext/1057560203/cborencoder_close_container_checked.o
 .debug_line    0x00000000      0x199 build/aws_demos/production/_ext/1057560203/cborencoder_close_container_checked.o
 .debug_str     0x00000000       0x41 build/aws_demos/production/_ext/1057560203/cborencoder_close_container_checked.o
 .comment       0x00000000       0x3d build/aws_demos/production/_ext/1057560203/cborencoder_close_container_checked.o
 .debug_frame   0x00000000       0x28 build/aws_demos/production/_ext/1057560203/cborencoder_close_container_checked.o
 .ARM.attributes
                0x00000000       0x39 build/aws_demos/production/_ext/1057560203/cborencoder_close_container_checked.o
 .text          0x00000000      0x1f8 build/aws_demos/production/_ext/1057560203/cborerrorstrings.o
 .data          0x00000000        0x0 build/aws_demos/production/_ext/1057560203/cborerrorstrings.o
 .bss           0x00000000        0x0 build/aws_demos/production/_ext/1057560203/cborerrorstrings.o
 .rodata        0x00000000      0x434 build/aws_demos/production/_ext/1057560203/cborerrorstrings.o
 .debug_info    0x00000000     0x1210 build/aws_demos/production/_ext/1057560203/cborerrorstrings.o
 .debug_abbrev  0x00000000      0x1f5 build/aws_demos/production/_ext/1057560203/cborerrorstrings.o
 .debug_loc     0x00000000      0x32f build/aws_demos/production/_ext/1057560203/cborerrorstrings.o
 .debug_aranges
                0x00000000       0x20 build/aws_demos/production/_ext/1057560203/cborerrorstrings.o
 .debug_line    0x00000000      0x188 build/aws_demos/production/_ext/1057560203/cborerrorstrings.o
 .debug_str     0x00000000       0x18 build/aws_demos/production/_ext/1057560203/cborerrorstrings.o
 .comment       0x00000000       0x3d build/aws_demos/production/_ext/1057560203/cborerrorstrings.o
 .debug_frame   0x00000000       0x28 build/aws_demos/production/_ext/1057560203/cborerrorstrings.o
 .ARM.attributes
                0x00000000       0x39 build/aws_demos/production/_ext/1057560203/cborerrorstrings.o
 .text          0x00000000      0x9f0 build/aws_demos/production/_ext/1057560203/cborparser.o
 .data          0x00000000        0x0 build/aws_demos/production/_ext/1057560203/cborparser.o
 .bss           0x00000000        0x0 build/aws_demos/production/_ext/1057560203/cborparser.o
 .rodata        0x00000000      0x464 build/aws_demos/production/_ext/1057560203/cborparser.o
 .debug_info    0x00000000     0x3425 build/aws_demos/production/_ext/1057560203/cborparser.o
 .debug_abbrev  0x00000000      0x4e6 build/aws_demos/production/_ext/1057560203/cborparser.o
 .debug_loc     0x00000000     0x1a50 build/aws_demos/production/_ext/1057560203/cborparser.o
 .debug_aranges
                0x00000000       0x20 build/aws_demos/production/_ext/1057560203/cborparser.o
 .debug_ranges  0x00000000       0x68 build/aws_demos/production/_ext/1057560203/cborparser.o
 .debug_line    0x00000000      0x4bc build/aws_demos/production/_ext/1057560203/cborparser.o
 .debug_str     0x00000000       0x7e build/aws_demos/production/_ext/1057560203/cborparser.o
 .comment       0x00000000       0x3d build/aws_demos/production/_ext/1057560203/cborparser.o
 .debug_frame   0x00000000      0x378 build/aws_demos/production/_ext/1057560203/cborparser.o
 .ARM.attributes
                0x00000000       0x39 build/aws_demos/production/_ext/1057560203/cborparser.o
 .text          0x00000000       0x7c build/aws_demos/production/_ext/1057560203/cborparser_dup_string.o
 .data          0x00000000        0x0 build/aws_demos/production/_ext/1057560203/cborparser_dup_string.o
 .bss           0x00000000        0x0 build/aws_demos/production/_ext/1057560203/cborparser_dup_string.o
 .rodata        0x00000000       0x74 build/aws_demos/production/_ext/1057560203/cborparser_dup_string.o
 .debug_info    0x00000000     0x14d3 build/aws_demos/production/_ext/1057560203/cborparser_dup_string.o
 .debug_abbrev  0x00000000      0x283 build/aws_demos/production/_ext/1057560203/cborparser_dup_string.o
 .debug_loc     0x00000000      0x193 build/aws_demos/production/_ext/1057560203/cborparser_dup_string.o
 .debug_aranges
                0x00000000       0x20 build/aws_demos/production/_ext/1057560203/cborparser_dup_string.o
 .debug_line    0x00000000      0x1eb build/aws_demos/production/_ext/1057560203/cborparser_dup_string.o
 .debug_str     0x00000000       0x53 build/aws_demos/production/_ext/1057560203/cborparser_dup_string.o
 .comment       0x00000000       0x3d build/aws_demos/production/_ext/1057560203/cborparser_dup_string.o
 .debug_frame   0x00000000       0x30 build/aws_demos/production/_ext/1057560203/cborparser_dup_string.o
 .ARM.attributes
                0x00000000       0x39 build/aws_demos/production/_ext/1057560203/cborparser_dup_string.o
 .text          0x00000000      0x898 build/aws_demos/production/_ext/1057560203/cborpretty.o
 .data          0x00000000        0x0 build/aws_demos/production/_ext/1057560203/cborpretty.o
 .bss           0x00000000        0x0 build/aws_demos/production/_ext/1057560203/cborpretty.o
 .rodata        0x00000000      0x1dc build/aws_demos/production/_ext/1057560203/cborpretty.o
 .debug_info    0x00000000     0x2d36 build/aws_demos/production/_ext/1057560203/cborpretty.o
 .debug_abbrev  0x00000000      0x48c build/aws_demos/production/_ext/1057560203/cborpretty.o
 .debug_loc     0x00000000     0x19ef build/aws_demos/production/_ext/1057560203/cborpretty.o
 .debug_aranges
                0x00000000       0x20 build/aws_demos/production/_ext/1057560203/cborpretty.o
 .debug_ranges  0x00000000      0x228 build/aws_demos/production/_ext/1057560203/cborpretty.o
 .debug_line    0x00000000      0x43b build/aws_demos/production/_ext/1057560203/cborpretty.o
 .debug_str     0x00000000      0x1fa build/aws_demos/production/_ext/1057560203/cborpretty.o
 .comment       0x00000000       0x3d build/aws_demos/production/_ext/1057560203/cborpretty.o
 .debug_frame   0x00000000       0x80 build/aws_demos/production/_ext/1057560203/cborpretty.o
 .ARM.attributes
                0x00000000       0x39 build/aws_demos/production/_ext/1057560203/cborpretty.o
 .text          0x00000000       0x4c build/aws_demos/production/_ext/1057560203/cborpretty_stdio.o
 .data          0x00000000        0x0 build/aws_demos/production/_ext/1057560203/cborpretty_stdio.o
 .bss           0x00000000        0x0 build/aws_demos/production/_ext/1057560203/cborpretty_stdio.o
 .debug_info    0x00000000     0x1641 build/aws_demos/production/_ext/1057560203/cborpretty_stdio.o
 .debug_abbrev  0x00000000      0x2a1 build/aws_demos/production/_ext/1057560203/cborpretty_stdio.o
 .debug_loc     0x00000000      0x1ac build/aws_demos/production/_ext/1057560203/cborpretty_stdio.o
 .debug_aranges
                0x00000000       0x20 build/aws_demos/production/_ext/1057560203/cborpretty_stdio.o
 .debug_line    0x00000000      0x1ec build/aws_demos/production/_ext/1057560203/cborpretty_stdio.o
 .debug_str     0x00000000       0x52 build/aws_demos/production/_ext/1057560203/cborpretty_stdio.o
 .comment       0x00000000       0x3d build/aws_demos/production/_ext/1057560203/cborpretty_stdio.o
 .debug_frame   0x00000000       0x70 build/aws_demos/production/_ext/1057560203/cborpretty_stdio.o
 .ARM.attributes
                0x00000000       0x39 build/aws_demos/production/_ext/1057560203/cborpretty_stdio.o
 .text          0x00000000      0x8f8 build/aws_demos/production/_ext/1057560203/cborvalidation.o
 .data          0x00000000        0x0 build/aws_demos/production/_ext/1057560203/cborvalidation.o
 .bss           0x00000000        0x0 build/aws_demos/production/_ext/1057560203/cborvalidation.o
 .rodata        0x00000000      0x2a4 build/aws_demos/production/_ext/1057560203/cborvalidation.o
 .debug_info    0x00000000     0x2f22 build/aws_demos/production/_ext/1057560203/cborvalidation.o
 .debug_abbrev  0x00000000      0x438 build/aws_demos/production/_ext/1057560203/cborvalidation.o
 .debug_loc     0x00000000     0x157e build/aws_demos/production/_ext/1057560203/cborvalidation.o
 .debug_aranges
                0x00000000       0x20 build/aws_demos/production/_ext/1057560203/cborvalidation.o
 .debug_ranges  0x00000000      0x2e0 build/aws_demos/production/_ext/1057560203/cborvalidation.o
 .debug_line    0x00000000      0x4d3 build/aws_demos/production/_ext/1057560203/cborvalidation.o
 .debug_str     0x00000000      0x207 build/aws_demos/production/_ext/1057560203/cborvalidation.o
 .comment       0x00000000       0x3d build/aws_demos/production/_ext/1057560203/cborvalidation.o
 .debug_frame   0x00000000       0x64 build/aws_demos/production/_ext/1057560203/cborvalidation.o
 .ARM.attributes
                0x00000000       0x39 build/aws_demos/production/_ext/1057560203/cborvalidation.o
 .text          0x00000000      0xe58 build/aws_demos/production/_ext/1193839791/aes_decrypt.o
 .data          0x00000000        0x0 build/aws_demos/production/_ext/1193839791/aes_decrypt.o
 .bss           0x00000000        0x0 build/aws_demos/production/_ext/1193839791/aes_decrypt.o
 .rodata        0x00000000      0x100 build/aws_demos/production/_ext/1193839791/aes_decrypt.o
 .debug_info    0x00000000     0x1270 build/aws_demos/production/_ext/1193839791/aes_decrypt.o
 .debug_abbrev  0x00000000      0x16f build/aws_demos/production/_ext/1193839791/aes_decrypt.o
 .debug_loc     0x00000000      0x4ad build/aws_demos/production/_ext/1193839791/aes_decrypt.o
 .debug_aranges
                0x00000000       0x20 build/aws_demos/production/_ext/1193839791/aes_decrypt.o
 .debug_line    0x00000000      0x1f4 build/aws_demos/production/_ext/1193839791/aes_decrypt.o
 .debug_str     0x00000000       0x27 build/aws_demos/production/_ext/1193839791/aes_decrypt.o
 .comment       0x00000000       0x3d build/aws_demos/production/_ext/1193839791/aes_decrypt.o
 .debug_frame   0x00000000       0x64 build/aws_demos/production/_ext/1193839791/aes_decrypt.o
 .ARM.attributes
                0x00000000       0x39 build/aws_demos/production/_ext/1193839791/aes_decrypt.o
 .text          0x00000000      0x7a0 build/aws_demos/production/_ext/1193839791/aes_encrypt.o
 .data          0x00000000        0x0 build/aws_demos/production/_ext/1193839791/aes_encrypt.o
 .bss           0x00000000        0x0 build/aws_demos/production/_ext/1193839791/aes_encrypt.o
 .rodata        0x00000000      0x12c build/aws_demos/production/_ext/1193839791/aes_encrypt.o
 .debug_info    0x00000000      0x9ae build/aws_demos/production/_ext/1193839791/aes_encrypt.o
 .debug_abbrev  0x00000000      0x1a9 build/aws_demos/production/_ext/1193839791/aes_encrypt.o
 .debug_loc     0x00000000      0x522 build/aws_demos/production/_ext/1193839791/aes_encrypt.o
 .debug_aranges
                0x00000000       0x20 build/aws_demos/production/_ext/1193839791/aes_encrypt.o
 .debug_ranges  0x00000000       0x18 build/aws_demos/production/_ext/1193839791/aes_encrypt.o
 .debug_line    0x00000000      0x205 build/aws_demos/production/_ext/1193839791/aes_encrypt.o
 .debug_str     0x00000000        0xd build/aws_demos/production/_ext/1193839791/aes_encrypt.o
 .comment       0x00000000       0x3d build/aws_demos/production/_ext/1193839791/aes_encrypt.o
 .debug_frame   0x00000000       0x78 build/aws_demos/production/_ext/1193839791/aes_encrypt.o
 .ARM.attributes
                0x00000000       0x39 build/aws_demos/production/_ext/1193839791/aes_encrypt.o
 .text          0x00000000      0x14c build/aws_demos/production/_ext/1193839791/cbc_mode.o
 .data          0x00000000        0x0 build/aws_demos/production/_ext/1193839791/cbc_mode.o
 .bss           0x00000000        0x0 build/aws_demos/production/_ext/1193839791/cbc_mode.o
 .debug_info    0x00000000      0x5c5 build/aws_demos/production/_ext/1193839791/cbc_mode.o
 .debug_abbrev  0x00000000       0xfd build/aws_demos/production/_ext/1193839791/cbc_mode.o
 .debug_loc     0x00000000      0x58a build/aws_demos/production/_ext/1193839791/cbc_mode.o
 .debug_aranges
                0x00000000       0x20 build/aws_demos/production/_ext/1193839791/cbc_mode.o
 .debug_line    0x00000000      0x1b1 build/aws_demos/production/_ext/1193839791/cbc_mode.o
 .debug_str     0x00000000       0x1e build/aws_demos/production/_ext/1193839791/cbc_mode.o
 .comment       0x00000000       0x3d build/aws_demos/production/_ext/1193839791/cbc_mode.o
 .debug_frame   0x00000000       0x98 build/aws_demos/production/_ext/1193839791/cbc_mode.o
 .ARM.attributes
                0x00000000       0x39 build/aws_demos/production/_ext/1193839791/cbc_mode.o
 .text          0x00000000      0x408 build/aws_demos/production/_ext/1193839791/ccm_mode.o
 .data          0x00000000        0x0 build/aws_demos/production/_ext/1193839791/ccm_mode.o
 .bss           0x00000000        0x0 build/aws_demos/production/_ext/1193839791/ccm_mode.o
 .debug_info    0x00000000     0x1476 build/aws_demos/production/_ext/1193839791/ccm_mode.o
 .debug_abbrev  0x00000000      0x254 build/aws_demos/production/_ext/1193839791/ccm_mode.o
 .debug_loc     0x00000000      0xb9f build/aws_demos/production/_ext/1193839791/ccm_mode.o
 .debug_aranges
                0x00000000       0x20 build/aws_demos/production/_ext/1193839791/ccm_mode.o
 .debug_line    0x00000000      0x2b7 build/aws_demos/production/_ext/1193839791/ccm_mode.o
 .debug_str     0x00000000       0x3c build/aws_demos/production/_ext/1193839791/ccm_mode.o
 .comment       0x00000000       0x3d build/aws_demos/production/_ext/1193839791/ccm_mode.o
 .debug_frame   0x00000000       0xf8 build/aws_demos/production/_ext/1193839791/ccm_mode.o
 .ARM.attributes
                0x00000000       0x39 build/aws_demos/production/_ext/1193839791/ccm_mode.o
 .text          0x00000000      0x230 build/aws_demos/production/_ext/1193839791/cmac_mode.o
 .data          0x00000000        0x0 build/aws_demos/production/_ext/1193839791/cmac_mode.o
 .bss           0x00000000        0x0 build/aws_demos/production/_ext/1193839791/cmac_mode.o
 .rodata        0x00000000        0x1 build/aws_demos/production/_ext/1193839791/cmac_mode.o
 .debug_info    0x00000000      0x8cc build/aws_demos/production/_ext/1193839791/cmac_mode.o
 .debug_abbrev  0x00000000      0x14b build/aws_demos/production/_ext/1193839791/cmac_mode.o
 .debug_loc     0x00000000      0x4d3 build/aws_demos/production/_ext/1193839791/cmac_mode.o
 .debug_aranges
                0x00000000       0x20 build/aws_demos/production/_ext/1193839791/cmac_mode.o
 .debug_ranges  0x00000000       0x18 build/aws_demos/production/_ext/1193839791/cmac_mode.o
 .debug_line    0x00000000      0x244 build/aws_demos/production/_ext/1193839791/cmac_mode.o
 .debug_str     0x00000000       0x29 build/aws_demos/production/_ext/1193839791/cmac_mode.o
 .comment       0x00000000       0x3d build/aws_demos/production/_ext/1193839791/cmac_mode.o
 .debug_frame   0x00000000      0x104 build/aws_demos/production/_ext/1193839791/cmac_mode.o
 .ARM.attributes
                0x00000000       0x39 build/aws_demos/production/_ext/1193839791/cmac_mode.o
 .text          0x00000000       0xf0 build/aws_demos/production/_ext/1193839791/ctr_mode.o
 .data          0x00000000        0x0 build/aws_demos/production/_ext/1193839791/ctr_mode.o
 .bss           0x00000000        0x0 build/aws_demos/production/_ext/1193839791/ctr_mode.o
 .debug_info    0x00000000      0x49b build/aws_demos/production/_ext/1193839791/ctr_mode.o
 .debug_abbrev  0x00000000       0xfd build/aws_demos/production/_ext/1193839791/ctr_mode.o
 .debug_loc     0x00000000      0x2e1 build/aws_demos/production/_ext/1193839791/ctr_mode.o
 .debug_aranges
                0x00000000       0x20 build/aws_demos/production/_ext/1193839791/ctr_mode.o
 .debug_line    0x00000000      0x19a build/aws_demos/production/_ext/1193839791/ctr_mode.o
 .debug_str     0x00000000        0xf build/aws_demos/production/_ext/1193839791/ctr_mode.o
 .comment       0x00000000       0x3d build/aws_demos/production/_ext/1193839791/ctr_mode.o
 .debug_frame   0x00000000       0x58 build/aws_demos/production/_ext/1193839791/ctr_mode.o
 .ARM.attributes
                0x00000000       0x39 build/aws_demos/production/_ext/1193839791/ctr_mode.o
 .text          0x00000000      0x2ae build/aws_demos/production/_ext/1193839791/ctr_prng.o
 .data          0x00000000        0x0 build/aws_demos/production/_ext/1193839791/ctr_prng.o
 .bss           0x00000000        0x0 build/aws_demos/production/_ext/1193839791/ctr_prng.o
 .debug_info    0x00000000     0x1603 build/aws_demos/production/_ext/1193839791/ctr_prng.o
 .debug_abbrev  0x00000000      0x2b8 build/aws_demos/production/_ext/1193839791/ctr_prng.o
 .debug_loc     0x00000000      0x759 build/aws_demos/production/_ext/1193839791/ctr_prng.o
 .debug_aranges
                0x00000000       0x20 build/aws_demos/production/_ext/1193839791/ctr_prng.o
 .debug_line    0x00000000      0x25b build/aws_demos/production/_ext/1193839791/ctr_prng.o
 .debug_str     0x00000000       0xa1 build/aws_demos/production/_ext/1193839791/ctr_prng.o
 .comment       0x00000000       0x3d build/aws_demos/production/_ext/1193839791/ctr_prng.o
 .debug_frame   0x00000000       0xf0 build/aws_demos/production/_ext/1193839791/ctr_prng.o
 .ARM.attributes
                0x00000000       0x39 build/aws_demos/production/_ext/1193839791/ctr_prng.o
 .text          0x00000000     0x1134 build/aws_demos/production/_ext/1193839791/ecc.o
 .data          0x00000000        0x0 build/aws_demos/production/_ext/1193839791/ecc.o
 .bss           0x00000000        0x4 build/aws_demos/production/_ext/1193839791/ecc.o
 .rodata        0x00000000       0xb0 build/aws_demos/production/_ext/1193839791/ecc.o
 .debug_info    0x00000000     0x40ee build/aws_demos/production/_ext/1193839791/ecc.o
 .debug_abbrev  0x00000000      0x4f8 build/aws_demos/production/_ext/1193839791/ecc.o
 .debug_loc     0x00000000     0x2627 build/aws_demos/production/_ext/1193839791/ecc.o
 .debug_aranges
                0x00000000       0x20 build/aws_demos/production/_ext/1193839791/ecc.o
 .debug_ranges  0x00000000       0x80 build/aws_demos/production/_ext/1193839791/ecc.o
 .debug_line    0x00000000      0x478 build/aws_demos/production/_ext/1193839791/ecc.o
 .debug_str     0x00000000       0x87 build/aws_demos/production/_ext/1193839791/ecc.o
 .comment       0x00000000       0x3d build/aws_demos/production/_ext/1193839791/ecc.o
 .debug_frame   0x00000000      0x500 build/aws_demos/production/_ext/1193839791/ecc.o
 .ARM.attributes
                0x00000000       0x39 build/aws_demos/production/_ext/1193839791/ecc.o
 .text          0x00000000      0x1bc build/aws_demos/production/_ext/1193839791/ecc_dh.o
 .data          0x00000000        0x0 build/aws_demos/production/_ext/1193839791/ecc_dh.o
 .bss           0x00000000        0x0 build/aws_demos/production/_ext/1193839791/ecc_dh.o
 .debug_info    0x00000000     0x155f build/aws_demos/production/_ext/1193839791/ecc_dh.o
 .debug_abbrev  0x00000000      0x276 build/aws_demos/production/_ext/1193839791/ecc_dh.o
 .debug_loc     0x00000000      0x2ee build/aws_demos/production/_ext/1193839791/ecc_dh.o
 .debug_aranges
                0x00000000       0x20 build/aws_demos/production/_ext/1193839791/ecc_dh.o
 .debug_ranges  0x00000000       0x18 build/aws_demos/production/_ext/1193839791/ecc_dh.o
 .debug_line    0x00000000      0x216 build/aws_demos/production/_ext/1193839791/ecc_dh.o
 .debug_str     0x00000000       0xda build/aws_demos/production/_ext/1193839791/ecc_dh.o
 .comment       0x00000000       0x3d build/aws_demos/production/_ext/1193839791/ecc_dh.o
 .debug_frame   0x00000000       0x90 build/aws_demos/production/_ext/1193839791/ecc_dh.o
 .ARM.attributes
                0x00000000       0x39 build/aws_demos/production/_ext/1193839791/ecc_dh.o
 .text          0x00000000      0x540 build/aws_demos/production/_ext/1193839791/ecc_dsa.o
 .data          0x00000000        0x0 build/aws_demos/production/_ext/1193839791/ecc_dsa.o
 .bss           0x00000000        0x0 build/aws_demos/production/_ext/1193839791/ecc_dsa.o
 .debug_info    0x00000000     0x140b build/aws_demos/production/_ext/1193839791/ecc_dsa.o
 .debug_abbrev  0x00000000      0x211 build/aws_demos/production/_ext/1193839791/ecc_dsa.o
 .debug_loc     0x00000000      0x63f build/aws_demos/production/_ext/1193839791/ecc_dsa.o
 .debug_aranges
                0x00000000       0x20 build/aws_demos/production/_ext/1193839791/ecc_dsa.o
 .debug_ranges  0x00000000       0x38 build/aws_demos/production/_ext/1193839791/ecc_dsa.o
 .debug_line    0x00000000      0x201 build/aws_demos/production/_ext/1193839791/ecc_dsa.o
 .debug_str     0x00000000      0x1a3 build/aws_demos/production/_ext/1193839791/ecc_dsa.o
 .comment       0x00000000       0x3d build/aws_demos/production/_ext/1193839791/ecc_dsa.o
 .debug_frame   0x00000000       0xc4 build/aws_demos/production/_ext/1193839791/ecc_dsa.o
 .ARM.attributes
                0x00000000       0x39 build/aws_demos/production/_ext/1193839791/ecc_dsa.o
 .text          0x00000000        0x0 build/aws_demos/production/_ext/1193839791/ecc_platform_specific.o
 .data          0x00000000        0x0 build/aws_demos/production/_ext/1193839791/ecc_platform_specific.o
 .bss           0x00000000        0x0 build/aws_demos/production/_ext/1193839791/ecc_platform_specific.o
 .debug_line    0x00000000        0x0 build/aws_demos/production/_ext/1193839791/ecc_platform_specific.o
 .debug_str     0x00000000        0x0 build/aws_demos/production/_ext/1193839791/ecc_platform_specific.o
 .comment       0x00000000       0x3d build/aws_demos/production/_ext/1193839791/ecc_platform_specific.o
 .ARM.attributes
                0x00000000       0x39 build/aws_demos/production/_ext/1193839791/ecc_platform_specific.o
 .text          0x00000000      0x152 build/aws_demos/production/_ext/1193839791/hmac.o
 .data          0x00000000        0x0 build/aws_demos/production/_ext/1193839791/hmac.o
 .bss           0x00000000        0x0 build/aws_demos/production/_ext/1193839791/hmac.o
 .debug_info    0x00000000      0x838 build/aws_demos/production/_ext/1193839791/hmac.o
 .debug_abbrev  0x00000000      0x166 build/aws_demos/production/_ext/1193839791/hmac.o
 .debug_loc     0x00000000      0x534 build/aws_demos/production/_ext/1193839791/hmac.o
 .debug_aranges
                0x00000000       0x20 build/aws_demos/production/_ext/1193839791/hmac.o
 .debug_line    0x00000000      0x212 build/aws_demos/production/_ext/1193839791/hmac.o
 .debug_str     0x00000000       0x39 build/aws_demos/production/_ext/1193839791/hmac.o
 .comment       0x00000000       0x3d build/aws_demos/production/_ext/1193839791/hmac.o
 .debug_frame   0x00000000       0xe8 build/aws_demos/production/_ext/1193839791/hmac.o
 .ARM.attributes
                0x00000000       0x39 build/aws_demos/production/_ext/1193839791/hmac.o
 .text          0x00000000      0x1e6 build/aws_demos/production/_ext/1193839791/hmac_prng.o
 .data          0x00000000        0x0 build/aws_demos/production/_ext/1193839791/hmac_prng.o
 .bss           0x00000000        0x0 build/aws_demos/production/_ext/1193839791/hmac_prng.o
 .debug_info    0x00000000      0xa8f build/aws_demos/production/_ext/1193839791/hmac_prng.o
 .debug_abbrev  0x00000000      0x15c build/aws_demos/production/_ext/1193839791/hmac_prng.o
 .debug_loc     0x00000000      0x447 build/aws_demos/production/_ext/1193839791/hmac_prng.o
 .debug_aranges
                0x00000000       0x20 build/aws_demos/production/_ext/1193839791/hmac_prng.o
 .debug_line    0x00000000      0x232 build/aws_demos/production/_ext/1193839791/hmac_prng.o
 .debug_str     0x00000000       0x3a build/aws_demos/production/_ext/1193839791/hmac_prng.o
 .comment       0x00000000       0x3d build/aws_demos/production/_ext/1193839791/hmac_prng.o
 .debug_frame   0x00000000       0xe4 build/aws_demos/production/_ext/1193839791/hmac_prng.o
 .ARM.attributes
                0x00000000       0x39 build/aws_demos/production/_ext/1193839791/hmac_prng.o
 .text          0x00000000      0x380 build/aws_demos/production/_ext/1193839791/sha256.o
 .data          0x00000000        0x0 build/aws_demos/production/_ext/1193839791/sha256.o
 .bss           0x00000000        0x0 build/aws_demos/production/_ext/1193839791/sha256.o
 .rodata        0x00000000      0x100 build/aws_demos/production/_ext/1193839791/sha256.o
 .debug_info    0x00000000      0x813 build/aws_demos/production/_ext/1193839791/sha256.o
 .debug_abbrev  0x00000000      0x17d build/aws_demos/production/_ext/1193839791/sha256.o
 .debug_loc     0x00000000      0xa00 build/aws_demos/production/_ext/1193839791/sha256.o
 .debug_aranges
                0x00000000       0x20 build/aws_demos/production/_ext/1193839791/sha256.o
 .debug_line    0x00000000      0x261 build/aws_demos/production/_ext/1193839791/sha256.o
 .debug_str     0x00000000        0x0 build/aws_demos/production/_ext/1193839791/sha256.o
 .comment       0x00000000       0x3d build/aws_demos/production/_ext/1193839791/sha256.o
 .debug_frame   0x00000000       0xc4 build/aws_demos/production/_ext/1193839791/sha256.o
 .ARM.attributes
                0x00000000       0x39 build/aws_demos/production/_ext/1193839791/sha256.o
 .text          0x00000000       0x56 build/aws_demos/production/_ext/1193839791/utils.o
 .data          0x00000000        0x0 build/aws_demos/production/_ext/1193839791/utils.o
 .bss           0x00000000        0x0 build/aws_demos/production/_ext/1193839791/utils.o
 .debug_info    0x00000000      0xfef build/aws_demos/production/_ext/1193839791/utils.o
 .debug_abbrev  0x00000000      0x20b build/aws_demos/production/_ext/1193839791/utils.o
 .debug_loc     0x00000000      0x326 build/aws_demos/production/_ext/1193839791/utils.o
 .debug_aranges
                0x00000000       0x20 build/aws_demos/production/_ext/1193839791/utils.o
 .debug_line    0x00000000      0x1d2 build/aws_demos/production/_ext/1193839791/utils.o
 .debug_str     0x00000000        0xe build/aws_demos/production/_ext/1193839791/utils.o
 .comment       0x00000000       0x3d build/aws_demos/production/_ext/1193839791/utils.o
 .debug_frame   0x00000000       0x6c build/aws_demos/production/_ext/1193839791/utils.o
 .ARM.attributes
                0x00000000       0x39 build/aws_demos/production/_ext/1193839791/utils.o
 .data          0x00000000        0x0 build/aws_demos/production/_ext/520142351/iot_clock_freertos.o
 .bss           0x00000000        0x0 build/aws_demos/production/_ext/520142351/iot_clock_freertos.o
 .text          0x00000000        0x0 build/aws_demos/production/_ext/520142351/iot_metrics.o
 .data          0x00000000        0x0 build/aws_demos/production/_ext/520142351/iot_metrics.o
 .bss           0x00000000        0x0 build/aws_demos/production/_ext/520142351/iot_metrics.o
 .debug_info    0x00000000      0xdec build/aws_demos/production/_ext/520142351/iot_metrics.o
 .debug_abbrev  0x00000000      0x160 build/aws_demos/production/_ext/520142351/iot_metrics.o
 .debug_aranges
                0x00000000       0x18 build/aws_demos/production/_ext/520142351/iot_metrics.o
 .debug_line    0x00000000       0xc6 build/aws_demos/production/_ext/520142351/iot_metrics.o
 .debug_str     0x00000000        0xe build/aws_demos/production/_ext/520142351/iot_metrics.o
 .comment       0x00000000       0x3d build/aws_demos/production/_ext/520142351/iot_metrics.o
 .ARM.attributes
                0x00000000       0x39 build/aws_demos/production/_ext/520142351/iot_metrics.o
 .data          0x00000000        0x0 build/aws_demos/production/_ext/520142351/iot_network_freertos.o
 .bss           0x00000000        0x0 build/aws_demos/production/_ext/520142351/iot_network_freertos.o
 .data          0x00000000        0x0 build/aws_demos/production/_ext/520142351/iot_threads_freertos.o
 .bss           0x00000000        0x0 build/aws_demos/production/_ext/520142351/iot_threads_freertos.o
 .text          0x00000000      0x5b4 build/aws_demos/production/_ext/1901419232/aws_iot_defender_api.o
 .data          0x00000000       0x2c build/aws_demos/production/_ext/1901419232/aws_iot_defender_api.o
 .bss           0x00000000       0xc4 build/aws_demos/production/_ext/1901419232/aws_iot_defender_api.o
 .rodata        0x00000000      0x528 build/aws_demos/production/_ext/1901419232/aws_iot_defender_api.o
 .debug_info    0x00000000     0x37c7 build/aws_demos/production/_ext/1901419232/aws_iot_defender_api.o
 .debug_abbrev  0x00000000      0x3eb build/aws_demos/production/_ext/1901419232/aws_iot_defender_api.o
 .debug_loc     0x00000000      0xa5e build/aws_demos/production/_ext/1901419232/aws_iot_defender_api.o
 .debug_aranges
                0x00000000       0x20 build/aws_demos/production/_ext/1901419232/aws_iot_defender_api.o
 .debug_ranges  0x00000000       0x30 build/aws_demos/production/_ext/1901419232/aws_iot_defender_api.o
 .debug_line    0x00000000      0x7b4 build/aws_demos/production/_ext/1901419232/aws_iot_defender_api.o
 .debug_str     0x00000000      0x352 build/aws_demos/production/_ext/1901419232/aws_iot_defender_api.o
 .comment       0x00000000       0x3d build/aws_demos/production/_ext/1901419232/aws_iot_defender_api.o
 .debug_frame   0x00000000      0x178 build/aws_demos/production/_ext/1901419232/aws_iot_defender_api.o
 .ARM.attributes
                0x00000000       0x39 build/aws_demos/production/_ext/1901419232/aws_iot_defender_api.o
 .text          0x00000000      0x404 build/aws_demos/production/_ext/1901419232/aws_iot_defender_collector.o
 .data          0x00000000       0x10 build/aws_demos/production/_ext/1901419232/aws_iot_defender_collector.o
 .bss           0x00000000       0x18 build/aws_demos/production/_ext/1901419232/aws_iot_defender_collector.o
 .rodata        0x00000000       0xd4 build/aws_demos/production/_ext/1901419232/aws_iot_defender_collector.o
 .debug_info    0x00000000     0x2710 build/aws_demos/production/_ext/1901419232/aws_iot_defender_collector.o
 .debug_abbrev  0x00000000      0x3e9 build/aws_demos/production/_ext/1901419232/aws_iot_defender_collector.o
 .debug_loc     0x00000000      0x68e build/aws_demos/production/_ext/1901419232/aws_iot_defender_collector.o
 .debug_aranges
                0x00000000       0x20 build/aws_demos/production/_ext/1901419232/aws_iot_defender_collector.o
 .debug_ranges  0x00000000       0x18 build/aws_demos/production/_ext/1901419232/aws_iot_defender_collector.o
 .debug_line    0x00000000      0x623 build/aws_demos/production/_ext/1901419232/aws_iot_defender_collector.o
 .debug_str     0x00000000       0xc0 build/aws_demos/production/_ext/1901419232/aws_iot_defender_collector.o
 .comment       0x00000000       0x3d build/aws_demos/production/_ext/1901419232/aws_iot_defender_collector.o
 .debug_frame   0x00000000       0xf4 build/aws_demos/production/_ext/1901419232/aws_iot_defender_collector.o
 .ARM.attributes
                0x00000000       0x39 build/aws_demos/production/_ext/1901419232/aws_iot_defender_collector.o
 .text          0x00000000      0x1f0 build/aws_demos/production/_ext/1901419232/aws_iot_defender_mqtt.o
 .data          0x00000000        0x0 build/aws_demos/production/_ext/1901419232/aws_iot_defender_mqtt.o
 .bss           0x00000000       0x18 build/aws_demos/production/_ext/1901419232/aws_iot_defender_mqtt.o
 .rodata        0x00000000       0x70 build/aws_demos/production/_ext/1901419232/aws_iot_defender_mqtt.o
 .debug_info    0x00000000     0x2b28 build/aws_demos/production/_ext/1901419232/aws_iot_defender_mqtt.o
 .debug_abbrev  0x00000000      0x2cd build/aws_demos/production/_ext/1901419232/aws_iot_defender_mqtt.o
 .debug_loc     0x00000000      0x24c build/aws_demos/production/_ext/1901419232/aws_iot_defender_mqtt.o
 .debug_aranges
                0x00000000       0x20 build/aws_demos/production/_ext/1901419232/aws_iot_defender_mqtt.o
 .debug_line    0x00000000      0x50b build/aws_demos/production/_ext/1901419232/aws_iot_defender_mqtt.o
 .debug_str     0x00000000       0xff build/aws_demos/production/_ext/1901419232/aws_iot_defender_mqtt.o
 .comment       0x00000000       0x3d build/aws_demos/production/_ext/1901419232/aws_iot_defender_mqtt.o
 .debug_frame   0x00000000       0xac build/aws_demos/production/_ext/1901419232/aws_iot_defender_mqtt.o
 .ARM.attributes
                0x00000000       0x39 build/aws_demos/production/_ext/1901419232/aws_iot_defender_mqtt.o
 .text          0x00000000      0x20c build/aws_demos/production/_ext/1901419232/aws_iot_defender_v1.o
 .data          0x00000000       0x30 build/aws_demos/production/_ext/1901419232/aws_iot_defender_v1.o
 .bss           0x00000000        0x5 build/aws_demos/production/_ext/1901419232/aws_iot_defender_v1.o
 .rodata        0x00000000      0xcd8 build/aws_demos/production/_ext/1901419232/aws_iot_defender_v1.o
 .debug_info    0x00000000     0x26b9 build/aws_demos/production/_ext/1901419232/aws_iot_defender_v1.o
 .debug_abbrev  0x00000000      0x361 build/aws_demos/production/_ext/1901419232/aws_iot_defender_v1.o
 .debug_loc     0x00000000      0x4a9 build/aws_demos/production/_ext/1901419232/aws_iot_defender_v1.o
 .debug_aranges
                0x00000000       0x20 build/aws_demos/production/_ext/1901419232/aws_iot_defender_v1.o
 .debug_ranges  0x00000000       0x30 build/aws_demos/production/_ext/1901419232/aws_iot_defender_v1.o
 .debug_line    0x00000000      0x406 build/aws_demos/production/_ext/1901419232/aws_iot_defender_v1.o
 .debug_str     0x00000000      0x138 build/aws_demos/production/_ext/1901419232/aws_iot_defender_v1.o
 .comment       0x00000000       0x3d build/aws_demos/production/_ext/1901419232/aws_iot_defender_v1.o
 .debug_frame   0x00000000       0xec build/aws_demos/production/_ext/1901419232/aws_iot_defender_v1.o
 .ARM.attributes
                0x00000000       0x39 build/aws_demos/production/_ext/1901419232/aws_iot_defender_v1.o
 .text          0x00000000      0xd14 build/aws_demos/production/_ext/1647995491/aws_iot_shadow_api.o
 .data          0x00000000        0x4 build/aws_demos/production/_ext/1647995491/aws_iot_shadow_api.o
 .bss           0x00000000        0x0 build/aws_demos/production/_ext/1647995491/aws_iot_shadow_api.o
 .rodata        0x00000000      0x84c build/aws_demos/production/_ext/1647995491/aws_iot_shadow_api.o
 .debug_info    0x00000000     0x421f build/aws_demos/production/_ext/1647995491/aws_iot_shadow_api.o
 .debug_abbrev  0x00000000      0x410 build/aws_demos/production/_ext/1647995491/aws_iot_shadow_api.o
 .debug_loc     0x00000000     0x18d8 build/aws_demos/production/_ext/1647995491/aws_iot_shadow_api.o
 .debug_aranges
                0x00000000       0x20 build/aws_demos/production/_ext/1647995491/aws_iot_shadow_api.o
 .debug_ranges  0x00000000      0x108 build/aws_demos/production/_ext/1647995491/aws_iot_shadow_api.o
 .debug_line    0x00000000      0x8eb build/aws_demos/production/_ext/1647995491/aws_iot_shadow_api.o
 .debug_str     0x00000000      0x331 build/aws_demos/production/_ext/1647995491/aws_iot_shadow_api.o
 .comment       0x00000000       0x3d build/aws_demos/production/_ext/1647995491/aws_iot_shadow_api.o
 .debug_frame   0x00000000      0x2ac build/aws_demos/production/_ext/1647995491/aws_iot_shadow_api.o
 .ARM.attributes
                0x00000000       0x39 build/aws_demos/production/_ext/1647995491/aws_iot_shadow_api.o
 .text          0x00000000      0x8f0 build/aws_demos/production/_ext/1647995491/aws_iot_shadow_operation.o
 .data          0x00000000        0x0 build/aws_demos/production/_ext/1647995491/aws_iot_shadow_operation.o
 .bss           0x00000000        0x8 build/aws_demos/production/_ext/1647995491/aws_iot_shadow_operation.o
 .rodata        0x00000000      0x534 build/aws_demos/production/_ext/1647995491/aws_iot_shadow_operation.o
 .debug_info    0x00000000     0x38fc build/aws_demos/production/_ext/1647995491/aws_iot_shadow_operation.o
 .debug_abbrev  0x00000000      0x470 build/aws_demos/production/_ext/1647995491/aws_iot_shadow_operation.o
 .debug_loc     0x00000000      0xcb5 build/aws_demos/production/_ext/1647995491/aws_iot_shadow_operation.o
 .debug_aranges
                0x00000000       0x20 build/aws_demos/production/_ext/1647995491/aws_iot_shadow_operation.o
 .debug_ranges  0x00000000       0xa0 build/aws_demos/production/_ext/1647995491/aws_iot_shadow_operation.o
 .debug_line    0x00000000      0x858 build/aws_demos/production/_ext/1647995491/aws_iot_shadow_operation.o
 .debug_str     0x00000000      0x2f4 build/aws_demos/production/_ext/1647995491/aws_iot_shadow_operation.o
 .comment       0x00000000       0x3d build/aws_demos/production/_ext/1647995491/aws_iot_shadow_operation.o
 .debug_frame   0x00000000      0x158 build/aws_demos/production/_ext/1647995491/aws_iot_shadow_operation.o
 .ARM.attributes
                0x00000000       0x39 build/aws_demos/production/_ext/1647995491/aws_iot_shadow_operation.o
 COMMON         0x00000000       0x54 build/aws_demos/production/_ext/1647995491/aws_iot_shadow_operation.o
 .text          0x00000000      0x238 build/aws_demos/production/_ext/1647995491/aws_iot_shadow_parser.o
 .data          0x00000000        0x0 build/aws_demos/production/_ext/1647995491/aws_iot_shadow_parser.o
 .bss           0x00000000        0x0 build/aws_demos/production/_ext/1647995491/aws_iot_shadow_parser.o
 .rodata        0x00000000      0x108 build/aws_demos/production/_ext/1647995491/aws_iot_shadow_parser.o
 .debug_info    0x00000000     0x1a46 build/aws_demos/production/_ext/1647995491/aws_iot_shadow_parser.o
 .debug_abbrev  0x00000000      0x2b3 build/aws_demos/production/_ext/1647995491/aws_iot_shadow_parser.o
 .debug_loc     0x00000000      0x321 build/aws_demos/production/_ext/1647995491/aws_iot_shadow_parser.o
 .debug_aranges
                0x00000000       0x20 build/aws_demos/production/_ext/1647995491/aws_iot_shadow_parser.o
 .debug_line    0x00000000      0x5ab build/aws_demos/production/_ext/1647995491/aws_iot_shadow_parser.o
 .debug_str     0x00000000       0x73 build/aws_demos/production/_ext/1647995491/aws_iot_shadow_parser.o
 .comment       0x00000000       0x3d build/aws_demos/production/_ext/1647995491/aws_iot_shadow_parser.o
 .debug_frame   0x00000000       0x90 build/aws_demos/production/_ext/1647995491/aws_iot_shadow_parser.o
 .ARM.attributes
                0x00000000       0x39 build/aws_demos/production/_ext/1647995491/aws_iot_shadow_parser.o
 .text          0x00000000        0x0 build/aws_demos/production/_ext/1647995491/aws_iot_shadow_static_memory.o
 .data          0x00000000        0x0 build/aws_demos/production/_ext/1647995491/aws_iot_shadow_static_memory.o
 .bss           0x00000000        0x0 build/aws_demos/production/_ext/1647995491/aws_iot_shadow_static_memory.o
 .debug_info    0x00000000      0x2d8 build/aws_demos/production/_ext/1647995491/aws_iot_shadow_static_memory.o
 .debug_abbrev  0x00000000       0x1b build/aws_demos/production/_ext/1647995491/aws_iot_shadow_static_memory.o
 .debug_aranges
                0x00000000       0x18 build/aws_demos/production/_ext/1647995491/aws_iot_shadow_static_memory.o
 .debug_line    0x00000000       0x1d build/aws_demos/production/_ext/1647995491/aws_iot_shadow_static_memory.o
 .debug_str     0x00000000        0x0 build/aws_demos/production/_ext/1647995491/aws_iot_shadow_static_memory.o
 .comment       0x00000000       0x3d build/aws_demos/production/_ext/1647995491/aws_iot_shadow_static_memory.o
 .ARM.attributes
                0x00000000       0x39 build/aws_demos/production/_ext/1647995491/aws_iot_shadow_static_memory.o
 .text          0x00000000      0x870 build/aws_demos/production/_ext/1647995491/aws_iot_shadow_subscription.o
 .data          0x00000000        0x0 build/aws_demos/production/_ext/1647995491/aws_iot_shadow_subscription.o
 .bss           0x00000000        0x8 build/aws_demos/production/_ext/1647995491/aws_iot_shadow_subscription.o
 .rodata        0x00000000      0x60c build/aws_demos/production/_ext/1647995491/aws_iot_shadow_subscription.o
 .debug_info    0x00000000     0x3576 build/aws_demos/production/_ext/1647995491/aws_iot_shadow_subscription.o
 .debug_abbrev  0x00000000      0x425 build/aws_demos/production/_ext/1647995491/aws_iot_shadow_subscription.o
 .debug_loc     0x00000000      0xcc8 build/aws_demos/production/_ext/1647995491/aws_iot_shadow_subscription.o
 .debug_aranges
                0x00000000       0x20 build/aws_demos/production/_ext/1647995491/aws_iot_shadow_subscription.o
 .debug_ranges  0x00000000       0x30 build/aws_demos/production/_ext/1647995491/aws_iot_shadow_subscription.o
 .debug_line    0x00000000      0x773 build/aws_demos/production/_ext/1647995491/aws_iot_shadow_subscription.o
 .debug_str     0x00000000      0x1d6 build/aws_demos/production/_ext/1647995491/aws_iot_shadow_subscription.o
 .comment       0x00000000       0x3d build/aws_demos/production/_ext/1647995491/aws_iot_shadow_subscription.o
 .debug_frame   0x00000000      0x14c build/aws_demos/production/_ext/1647995491/aws_iot_shadow_subscription.o
 .ARM.attributes
                0x00000000       0x39 build/aws_demos/production/_ext/1647995491/aws_iot_shadow_subscription.o
 COMMON         0x00000000       0x54 build/aws_demos/production/_ext/1647995491/aws_iot_shadow_subscription.o
 .text          0x00000000      0x4c0 build/aws_demos/production/_ext/1647995491/aws_shadow.o
 .data          0x00000000        0x4 build/aws_demos/production/_ext/1647995491/aws_shadow.o
 .bss           0x00000000        0x4 build/aws_demos/production/_ext/1647995491/aws_shadow.o
 .rodata        0x00000000       0xf4 build/aws_demos/production/_ext/1647995491/aws_shadow.o
 .debug_info    0x00000000     0x2d89 build/aws_demos/production/_ext/1647995491/aws_shadow.o
 .debug_abbrev  0x00000000      0x340 build/aws_demos/production/_ext/1647995491/aws_shadow.o
 .debug_loc     0x00000000      0xcff build/aws_demos/production/_ext/1647995491/aws_shadow.o
 .debug_aranges
                0x00000000       0x20 build/aws_demos/production/_ext/1647995491/aws_shadow.o
 .debug_line    0x00000000      0x53f build/aws_demos/production/_ext/1647995491/aws_shadow.o
 .debug_str     0x00000000      0x2a7 build/aws_demos/production/_ext/1647995491/aws_shadow.o
 .comment       0x00000000       0x3d build/aws_demos/production/_ext/1647995491/aws_shadow.o
 .debug_frame   0x00000000      0x188 build/aws_demos/production/_ext/1647995491/aws_shadow.o
 .ARM.attributes
                0x00000000       0x39 build/aws_demos/production/_ext/1647995491/aws_shadow.o
 .data          0x00000000        0x0 build/aws_demos/production/_ext/13066905/iot_device_metrics.o
 .data          0x00000000        0x0 build/aws_demos/production/_ext/13066905/iot_init.o
 .bss           0x00000000        0x0 build/aws_demos/production/_ext/13066905/iot_init.o
 .text          0x00000000        0x0 build/aws_demos/production/_ext/13066905/iot_static_memory_common.o
 .data          0x00000000        0x0 build/aws_demos/production/_ext/13066905/iot_static_memory_common.o
 .bss           0x00000000        0x0 build/aws_demos/production/_ext/13066905/iot_static_memory_common.o
 .debug_info    0x00000000      0x2d5 build/aws_demos/production/_ext/13066905/iot_static_memory_common.o
 .debug_abbrev  0x00000000       0x1b build/aws_demos/production/_ext/13066905/iot_static_memory_common.o
 .debug_aranges
                0x00000000       0x18 build/aws_demos/production/_ext/13066905/iot_static_memory_common.o
 .debug_line    0x00000000       0x1d build/aws_demos/production/_ext/13066905/iot_static_memory_common.o
 .debug_str     0x00000000        0x0 build/aws_demos/production/_ext/13066905/iot_static_memory_common.o
 .comment       0x00000000       0x3d build/aws_demos/production/_ext/13066905/iot_static_memory_common.o
 .ARM.attributes
                0x00000000       0x39 build/aws_demos/production/_ext/13066905/iot_static_memory_common.o
 .data          0x00000000        0x0 build/aws_demos/production/_ext/227692215/iot_logging.o
 .bss           0x00000000        0x0 build/aws_demos/production/_ext/227692215/iot_logging.o
 .data          0x00000000        0x0 build/aws_demos/production/_ext/227692215/iot_logging_task_dynamic_buffers.o
 .data          0x00000000        0x0 build/aws_demos/production/_ext/333408969/iot_taskpool.o
 .text          0x00000000        0x0 build/aws_demos/production/_ext/333408969/iot_taskpool_static_memory.o
 .data          0x00000000        0x0 build/aws_demos/production/_ext/333408969/iot_taskpool_static_memory.o
 .bss           0x00000000        0x0 build/aws_demos/production/_ext/333408969/iot_taskpool_static_memory.o
 .debug_info    0x00000000      0x2e0 build/aws_demos/production/_ext/333408969/iot_taskpool_static_memory.o
 .debug_abbrev  0x00000000       0x1b build/aws_demos/production/_ext/333408969/iot_taskpool_static_memory.o
 .debug_aranges
                0x00000000       0x18 build/aws_demos/production/_ext/333408969/iot_taskpool_static_memory.o
 .debug_line    0x00000000       0x1d build/aws_demos/production/_ext/333408969/iot_taskpool_static_memory.o
 .debug_str     0x00000000        0x0 build/aws_demos/production/_ext/333408969/iot_taskpool_static_memory.o
 .comment       0x00000000       0x3d build/aws_demos/production/_ext/333408969/iot_taskpool_static_memory.o
 .ARM.attributes
                0x00000000       0x39 build/aws_demos/production/_ext/333408969/iot_taskpool_static_memory.o
 .text          0x00000000     0x2690 build/aws_demos/production/_ext/1046953532/iot_https_client.o
 .data          0x00000000        0x0 build/aws_demos/production/_ext/1046953532/iot_https_client.o
 .bss           0x00000000      0x428 build/aws_demos/production/_ext/1046953532/iot_https_client.o
 .rodata        0x00000000     0x226c build/aws_demos/production/_ext/1046953532/iot_https_client.o
 .debug_info    0x00000000     0x8ec4 build/aws_demos/production/_ext/1046953532/iot_https_client.o
 .debug_abbrev  0x00000000      0x4dd build/aws_demos/production/_ext/1046953532/iot_https_client.o
 .debug_loc     0x00000000     0x50b3 build/aws_demos/production/_ext/1046953532/iot_https_client.o
 .debug_aranges
                0x00000000       0x20 build/aws_demos/production/_ext/1046953532/iot_https_client.o
 .debug_ranges  0x00000000      0x340 build/aws_demos/production/_ext/1046953532/iot_https_client.o
 .debug_line    0x00000000      0xe5b build/aws_demos/production/_ext/1046953532/iot_https_client.o
 .debug_str     0x00000000      0x3f6 build/aws_demos/production/_ext/1046953532/iot_https_client.o
 .comment       0x00000000       0x3d build/aws_demos/production/_ext/1046953532/iot_https_client.o
 .debug_frame   0x00000000      0x588 build/aws_demos/production/_ext/1046953532/iot_https_client.o
 .ARM.attributes
                0x00000000       0x39 build/aws_demos/production/_ext/1046953532/iot_https_client.o
 .text          0x00000000       0xf8 build/aws_demos/production/_ext/1046953532/iot_https_utils.o
 .data          0x00000000        0x0 build/aws_demos/production/_ext/1046953532/iot_https_utils.o
 .bss           0x00000000        0x0 build/aws_demos/production/_ext/1046953532/iot_https_utils.o
 .rodata        0x00000000       0xb8 build/aws_demos/production/_ext/1046953532/iot_https_utils.o
 .debug_info    0x00000000     0x15f2 build/aws_demos/production/_ext/1046953532/iot_https_utils.o
 .debug_abbrev  0x00000000      0x236 build/aws_demos/production/_ext/1046953532/iot_https_utils.o
 .debug_loc     0x00000000      0x322 build/aws_demos/production/_ext/1046953532/iot_https_utils.o
 .debug_aranges
                0x00000000       0x20 build/aws_demos/production/_ext/1046953532/iot_https_utils.o
 .debug_line    0x00000000      0x348 build/aws_demos/production/_ext/1046953532/iot_https_utils.o
 .debug_str     0x00000000       0x6c build/aws_demos/production/_ext/1046953532/iot_https_utils.o
 .comment       0x00000000       0x3d build/aws_demos/production/_ext/1046953532/iot_https_utils.o
 .debug_frame   0x00000000       0x60 build/aws_demos/production/_ext/1046953532/iot_https_utils.o
 .ARM.attributes
                0x00000000       0x39 build/aws_demos/production/_ext/1046953532/iot_https_utils.o
 .text          0x00000000      0x4d0 build/aws_demos/production/_ext/1739149067/iot_mqtt_agent.o
 .data          0x00000000        0x4 build/aws_demos/production/_ext/1739149067/iot_mqtt_agent.o
 .bss           0x00000000        0x0 build/aws_demos/production/_ext/1739149067/iot_mqtt_agent.o
 .rodata        0x00000000      0xb90 build/aws_demos/production/_ext/1739149067/iot_mqtt_agent.o
 .debug_info    0x00000000     0x33d0 build/aws_demos/production/_ext/1739149067/iot_mqtt_agent.o
 .debug_abbrev  0x00000000      0x461 build/aws_demos/production/_ext/1739149067/iot_mqtt_agent.o
 .debug_loc     0x00000000      0xeb7 build/aws_demos/production/_ext/1739149067/iot_mqtt_agent.o
 .debug_aranges
                0x00000000       0x20 build/aws_demos/production/_ext/1739149067/iot_mqtt_agent.o
 .debug_ranges  0x00000000       0xc0 build/aws_demos/production/_ext/1739149067/iot_mqtt_agent.o
 .debug_line    0x00000000      0x530 build/aws_demos/production/_ext/1739149067/iot_mqtt_agent.o
 .debug_str     0x00000000      0x1ec build/aws_demos/production/_ext/1739149067/iot_mqtt_agent.o
 .comment       0x00000000       0x3d build/aws_demos/production/_ext/1739149067/iot_mqtt_agent.o
 .debug_frame   0x00000000      0x1a8 build/aws_demos/production/_ext/1739149067/iot_mqtt_agent.o
 .ARM.attributes
                0x00000000       0x39 build/aws_demos/production/_ext/1739149067/iot_mqtt_agent.o
 .data          0x00000000        0x0 build/aws_demos/production/_ext/1739149067/iot_mqtt_api.o
 .bss           0x00000000        0x0 build/aws_demos/production/_ext/1739149067/iot_mqtt_api.o
 .data          0x00000000        0x0 build/aws_demos/production/_ext/1739149067/iot_mqtt_network.o
 .bss           0x00000000        0x0 build/aws_demos/production/_ext/1739149067/iot_mqtt_network.o
 .data          0x00000000        0x0 build/aws_demos/production/_ext/1739149067/iot_mqtt_operation.o
 .bss           0x00000000        0x0 build/aws_demos/production/_ext/1739149067/iot_mqtt_operation.o
 .bss           0x00000000        0x0 build/aws_demos/production/_ext/1739149067/iot_mqtt_serialize.o
 .text          0x00000000        0x0 build/aws_demos/production/_ext/1739149067/iot_mqtt_static_memory.o
 .data          0x00000000        0x0 build/aws_demos/production/_ext/1739149067/iot_mqtt_static_memory.o
 .bss           0x00000000        0x0 build/aws_demos/production/_ext/1739149067/iot_mqtt_static_memory.o
 .debug_info    0x00000000      0x2d5 build/aws_demos/production/_ext/1739149067/iot_mqtt_static_memory.o
 .debug_abbrev  0x00000000       0x1b build/aws_demos/production/_ext/1739149067/iot_mqtt_static_memory.o
 .debug_aranges
                0x00000000       0x18 build/aws_demos/production/_ext/1739149067/iot_mqtt_static_memory.o
 .debug_line    0x00000000       0x1d build/aws_demos/production/_ext/1739149067/iot_mqtt_static_memory.o
 .debug_str     0x00000000        0x0 build/aws_demos/production/_ext/1739149067/iot_mqtt_static_memory.o
 .comment       0x00000000       0x3d build/aws_demos/production/_ext/1739149067/iot_mqtt_static_memory.o
 .ARM.attributes
                0x00000000       0x39 build/aws_demos/production/_ext/1739149067/iot_mqtt_static_memory.o
 .data          0x00000000        0x0 build/aws_demos/production/_ext/1739149067/iot_mqtt_subscription.o
 .bss           0x00000000        0x0 build/aws_demos/production/_ext/1739149067/iot_mqtt_subscription.o
 .data          0x00000000        0x0 build/aws_demos/production/_ext/1739149067/iot_mqtt_validate.o
 .bss           0x00000000        0x0 build/aws_demos/production/_ext/1739149067/iot_mqtt_validate.o
 .text          0x00000000      0x35c build/aws_demos/production/_ext/255083950/iot_serializer_tinycbor_decoder.o
 .data          0x00000000       0x20 build/aws_demos/production/_ext/255083950/iot_serializer_tinycbor_decoder.o
 .bss           0x00000000        0x0 build/aws_demos/production/_ext/255083950/iot_serializer_tinycbor_decoder.o
 .rodata        0x00000000      0x124 build/aws_demos/production/_ext/255083950/iot_serializer_tinycbor_decoder.o
 .debug_info    0x00000000     0x2bf7 build/aws_demos/production/_ext/255083950/iot_serializer_tinycbor_decoder.o
 .debug_abbrev  0x00000000      0x4bc build/aws_demos/production/_ext/255083950/iot_serializer_tinycbor_decoder.o
 .debug_loc     0x00000000      0xc51 build/aws_demos/production/_ext/255083950/iot_serializer_tinycbor_decoder.o
 .debug_aranges
                0x00000000       0x20 build/aws_demos/production/_ext/255083950/iot_serializer_tinycbor_decoder.o
 .debug_ranges  0x00000000       0xa0 build/aws_demos/production/_ext/255083950/iot_serializer_tinycbor_decoder.o
 .debug_line    0x00000000      0x3e4 build/aws_demos/production/_ext/255083950/iot_serializer_tinycbor_decoder.o
 .debug_str     0x00000000      0x1cf build/aws_demos/production/_ext/255083950/iot_serializer_tinycbor_decoder.o
 .comment       0x00000000       0x3d build/aws_demos/production/_ext/255083950/iot_serializer_tinycbor_decoder.o
 .debug_frame   0x00000000      0x148 build/aws_demos/production/_ext/255083950/iot_serializer_tinycbor_decoder.o
 .ARM.attributes
                0x00000000       0x39 build/aws_demos/production/_ext/255083950/iot_serializer_tinycbor_decoder.o
 .text          0x00000000      0x20a build/aws_demos/production/_ext/255083950/iot_serializer_tinycbor_encoder.o
 .data          0x00000000       0x24 build/aws_demos/production/_ext/255083950/iot_serializer_tinycbor_encoder.o
 .bss           0x00000000        0x0 build/aws_demos/production/_ext/255083950/iot_serializer_tinycbor_encoder.o
 .debug_info    0x00000000     0x2515 build/aws_demos/production/_ext/255083950/iot_serializer_tinycbor_encoder.o
 .debug_abbrev  0x00000000      0x413 build/aws_demos/production/_ext/255083950/iot_serializer_tinycbor_encoder.o
 .debug_loc     0x00000000      0x70f build/aws_demos/production/_ext/255083950/iot_serializer_tinycbor_encoder.o
 .debug_aranges
                0x00000000       0x20 build/aws_demos/production/_ext/255083950/iot_serializer_tinycbor_encoder.o
 .debug_ranges  0x00000000       0x18 build/aws_demos/production/_ext/255083950/iot_serializer_tinycbor_encoder.o
 .debug_line    0x00000000      0x350 build/aws_demos/production/_ext/255083950/iot_serializer_tinycbor_encoder.o
 .debug_str     0x00000000      0x18b build/aws_demos/production/_ext/255083950/iot_serializer_tinycbor_encoder.o
 .comment       0x00000000       0x3d build/aws_demos/production/_ext/255083950/iot_serializer_tinycbor_encoder.o
 .debug_frame   0x00000000      0x138 build/aws_demos/production/_ext/255083950/iot_serializer_tinycbor_encoder.o
 .ARM.attributes
                0x00000000       0x39 build/aws_demos/production/_ext/255083950/iot_serializer_tinycbor_encoder.o
 .text          0x00000000      0x194 build/aws_demos/production/_ext/2051690653/iot_json_utils.o
 .data          0x00000000        0x0 build/aws_demos/production/_ext/2051690653/iot_json_utils.o
 .bss           0x00000000        0x0 build/aws_demos/production/_ext/2051690653/iot_json_utils.o
 .debug_info    0x00000000      0xf8c build/aws_demos/production/_ext/2051690653/iot_json_utils.o
 .debug_abbrev  0x00000000      0x1c7 build/aws_demos/production/_ext/2051690653/iot_json_utils.o
 .debug_loc     0x00000000      0x3c8 build/aws_demos/production/_ext/2051690653/iot_json_utils.o
 .debug_aranges
                0x00000000       0x20 build/aws_demos/production/_ext/2051690653/iot_json_utils.o
 .debug_line    0x00000000      0x1f3 build/aws_demos/production/_ext/2051690653/iot_json_utils.o
 .debug_str     0x00000000        0xe build/aws_demos/production/_ext/2051690653/iot_json_utils.o
 .comment       0x00000000       0x3d build/aws_demos/production/_ext/2051690653/iot_json_utils.o
 .debug_frame   0x00000000       0x38 build/aws_demos/production/_ext/2051690653/iot_json_utils.o
 .ARM.attributes
                0x00000000       0x39 build/aws_demos/production/_ext/2051690653/iot_json_utils.o
 .text          0x00000000        0x0 build/aws_demos/production/_ext/2051690653/iot_serializer_static_memory.o
 .data          0x00000000        0x0 build/aws_demos/production/_ext/2051690653/iot_serializer_static_memory.o
 .bss           0x00000000        0x0 build/aws_demos/production/_ext/2051690653/iot_serializer_static_memory.o
 .debug_info    0x00000000      0x2e1 build/aws_demos/production/_ext/2051690653/iot_serializer_static_memory.o
 .debug_abbrev  0x00000000       0x1b build/aws_demos/production/_ext/2051690653/iot_serializer_static_memory.o
 .debug_aranges
                0x00000000       0x18 build/aws_demos/production/_ext/2051690653/iot_serializer_static_memory.o
 .debug_line    0x00000000       0x1d build/aws_demos/production/_ext/2051690653/iot_serializer_static_memory.o
 .debug_str     0x00000000        0x0 build/aws_demos/production/_ext/2051690653/iot_serializer_static_memory.o
 .comment       0x00000000       0x3d build/aws_demos/production/_ext/2051690653/iot_serializer_static_memory.o
 .ARM.attributes
                0x00000000       0x39 build/aws_demos/production/_ext/2051690653/iot_serializer_static_memory.o
 .text          0x00000000      0x67c build/aws_demos/production/_ext/255308820/iot_serializer_json_decoder.o
 .data          0x00000000       0x20 build/aws_demos/production/_ext/255308820/iot_serializer_json_decoder.o
 .bss           0x00000000        0x0 build/aws_demos/production/_ext/255308820/iot_serializer_json_decoder.o
 .debug_info    0x00000000     0x256d build/aws_demos/production/_ext/255308820/iot_serializer_json_decoder.o
 .debug_abbrev  0x00000000      0x458 build/aws_demos/production/_ext/255308820/iot_serializer_json_decoder.o
 .debug_loc     0x00000000     0x12e9 build/aws_demos/production/_ext/255308820/iot_serializer_json_decoder.o
 .debug_aranges
                0x00000000       0x20 build/aws_demos/production/_ext/255308820/iot_serializer_json_decoder.o
 .debug_ranges  0x00000000       0x80 build/aws_demos/production/_ext/255308820/iot_serializer_json_decoder.o
 .debug_line    0x00000000      0x4bf build/aws_demos/production/_ext/255308820/iot_serializer_json_decoder.o
 .debug_str     0x00000000       0xb1 build/aws_demos/production/_ext/255308820/iot_serializer_json_decoder.o
 .comment       0x00000000       0x3d build/aws_demos/production/_ext/255308820/iot_serializer_json_decoder.o
 .debug_frame   0x00000000      0x1e4 build/aws_demos/production/_ext/255308820/iot_serializer_json_decoder.o
 .ARM.attributes
                0x00000000       0x39 build/aws_demos/production/_ext/255308820/iot_serializer_json_decoder.o
 .text          0x00000000      0x53c build/aws_demos/production/_ext/255308820/iot_serializer_json_encoder.o
 .data          0x00000000       0x24 build/aws_demos/production/_ext/255308820/iot_serializer_json_encoder.o
 .bss           0x00000000        0x0 build/aws_demos/production/_ext/255308820/iot_serializer_json_encoder.o
 .rodata        0x00000000       0x20 build/aws_demos/production/_ext/255308820/iot_serializer_json_encoder.o
 .debug_info    0x00000000     0x2501 build/aws_demos/production/_ext/255308820/iot_serializer_json_encoder.o
 .debug_abbrev  0x00000000      0x372 build/aws_demos/production/_ext/255308820/iot_serializer_json_encoder.o
 .debug_loc     0x00000000     0x1305 build/aws_demos/production/_ext/255308820/iot_serializer_json_encoder.o
 .debug_aranges
                0x00000000       0x20 build/aws_demos/production/_ext/255308820/iot_serializer_json_encoder.o
 .debug_ranges  0x00000000       0x50 build/aws_demos/production/_ext/255308820/iot_serializer_json_encoder.o
 .debug_line    0x00000000      0x46f build/aws_demos/production/_ext/255308820/iot_serializer_json_encoder.o
 .debug_str     0x00000000       0xfb build/aws_demos/production/_ext/255308820/iot_serializer_json_encoder.o
 .comment       0x00000000       0x3d build/aws_demos/production/_ext/255308820/iot_serializer_json_encoder.o
 .debug_frame   0x00000000      0x1c0 build/aws_demos/production/_ext/255308820/iot_serializer_json_encoder.o
 .ARM.attributes
                0x00000000       0x39 build/aws_demos/production/_ext/255308820/iot_serializer_json_encoder.o
 .text          0x00000000      0x7ac build/aws_demos/production/_ext/524897113/aws_greengrass_discovery.o
 .data          0x00000000        0x0 build/aws_demos/production/_ext/524897113/aws_greengrass_discovery.o
 .bss           0x00000000        0x0 build/aws_demos/production/_ext/524897113/aws_greengrass_discovery.o
 .rodata        0x00000000      0x3a0 build/aws_demos/production/_ext/524897113/aws_greengrass_discovery.o
 .debug_info    0x00000000     0x24e5 build/aws_demos/production/_ext/524897113/aws_greengrass_discovery.o
 .debug_abbrev  0x00000000      0x3a3 build/aws_demos/production/_ext/524897113/aws_greengrass_discovery.o
 .debug_loc     0x00000000     0x11b0 build/aws_demos/production/_ext/524897113/aws_greengrass_discovery.o
 .debug_aranges
                0x00000000       0x20 build/aws_demos/production/_ext/524897113/aws_greengrass_discovery.o
 .debug_ranges  0x00000000       0x68 build/aws_demos/production/_ext/524897113/aws_greengrass_discovery.o
 .debug_line    0x00000000      0x5a1 build/aws_demos/production/_ext/524897113/aws_greengrass_discovery.o
 .debug_str     0x00000000      0x1ab build/aws_demos/production/_ext/524897113/aws_greengrass_discovery.o
 .comment       0x00000000       0x3d build/aws_demos/production/_ext/524897113/aws_greengrass_discovery.o
 .debug_frame   0x00000000      0x174 build/aws_demos/production/_ext/524897113/aws_greengrass_discovery.o
 .ARM.attributes
                0x00000000       0x39 build/aws_demos/production/_ext/524897113/aws_greengrass_discovery.o
 .text          0x00000000      0x348 build/aws_demos/production/_ext/524897113/aws_helper_secure_connect.o
 .data          0x00000000        0x0 build/aws_demos/production/_ext/524897113/aws_helper_secure_connect.o
 .bss           0x00000000        0x0 build/aws_demos/production/_ext/524897113/aws_helper_secure_connect.o
 .rodata        0x00000000      0x14c build/aws_demos/production/_ext/524897113/aws_helper_secure_connect.o
 .debug_info    0x00000000     0x18da build/aws_demos/production/_ext/524897113/aws_helper_secure_connect.o
 .debug_abbrev  0x00000000      0x309 build/aws_demos/production/_ext/524897113/aws_helper_secure_connect.o
 .debug_loc     0x00000000      0x7ab build/aws_demos/production/_ext/524897113/aws_helper_secure_connect.o
 .debug_aranges
                0x00000000       0x20 build/aws_demos/production/_ext/524897113/aws_helper_secure_connect.o
 .debug_ranges  0x00000000       0x28 build/aws_demos/production/_ext/524897113/aws_helper_secure_connect.o
 .debug_line    0x00000000      0x43d build/aws_demos/production/_ext/524897113/aws_helper_secure_connect.o
 .debug_str     0x00000000       0xf2 build/aws_demos/production/_ext/524897113/aws_helper_secure_connect.o
 .comment       0x00000000       0x3d build/aws_demos/production/_ext/524897113/aws_helper_secure_connect.o
 .debug_frame   0x00000000       0xac build/aws_demos/production/_ext/524897113/aws_helper_secure_connect.o
 .ARM.attributes
                0x00000000       0x39 build/aws_demos/production/_ext/524897113/aws_helper_secure_connect.o
 .text          0x00000000     0x19a0 build/aws_demos/production/_ext/2101504238/aws_iot_ota_agent.o
 .data          0x00000000      0x200 build/aws_demos/production/_ext/2101504238/aws_iot_ota_agent.o
 .bss           0x00000000     0x1140 build/aws_demos/production/_ext/2101504238/aws_iot_ota_agent.o
 .rodata        0x00000000     0x1410 build/aws_demos/production/_ext/2101504238/aws_iot_ota_agent.o
 .debug_info    0x00000000     0x694f build/aws_demos/production/_ext/2101504238/aws_iot_ota_agent.o
 .debug_abbrev  0x00000000      0x542 build/aws_demos/production/_ext/2101504238/aws_iot_ota_agent.o
 .debug_loc     0x00000000     0x2be0 build/aws_demos/production/_ext/2101504238/aws_iot_ota_agent.o
 .debug_aranges
                0x00000000       0x20 build/aws_demos/production/_ext/2101504238/aws_iot_ota_agent.o
 .debug_ranges  0x00000000      0x268 build/aws_demos/production/_ext/2101504238/aws_iot_ota_agent.o
 .debug_line    0x00000000      0xa54 build/aws_demos/production/_ext/2101504238/aws_iot_ota_agent.o
 .debug_str     0x00000000      0x3e6 build/aws_demos/production/_ext/2101504238/aws_iot_ota_agent.o
 .comment       0x00000000       0x3d build/aws_demos/production/_ext/2101504238/aws_iot_ota_agent.o
 .debug_frame   0x00000000      0x4b4 build/aws_demos/production/_ext/2101504238/aws_iot_ota_agent.o
 .ARM.attributes
                0x00000000       0x39 build/aws_demos/production/_ext/2101504238/aws_iot_ota_agent.o
 .text          0x00000000       0x8c build/aws_demos/production/_ext/2101504238/aws_iot_ota_interface.o
 .data          0x00000000        0x8 build/aws_demos/production/_ext/2101504238/aws_iot_ota_interface.o
 .bss           0x00000000        0x0 build/aws_demos/production/_ext/2101504238/aws_iot_ota_interface.o
 .rodata        0x00000000       0x4c build/aws_demos/production/_ext/2101504238/aws_iot_ota_interface.o
 .debug_info    0x00000000     0x2381 build/aws_demos/production/_ext/2101504238/aws_iot_ota_interface.o
 .debug_abbrev  0x00000000      0x2a2 build/aws_demos/production/_ext/2101504238/aws_iot_ota_interface.o
 .debug_loc     0x00000000       0xba build/aws_demos/production/_ext/2101504238/aws_iot_ota_interface.o
 .debug_aranges
                0x00000000       0x20 build/aws_demos/production/_ext/2101504238/aws_iot_ota_interface.o
 .debug_line    0x00000000      0x311 build/aws_demos/production/_ext/2101504238/aws_iot_ota_interface.o
 .debug_str     0x00000000       0x2c build/aws_demos/production/_ext/2101504238/aws_iot_ota_interface.o
 .comment       0x00000000       0x3d build/aws_demos/production/_ext/2101504238/aws_iot_ota_interface.o
 .debug_frame   0x00000000       0x44 build/aws_demos/production/_ext/2101504238/aws_iot_ota_interface.o
 .ARM.attributes
                0x00000000       0x39 build/aws_demos/production/_ext/2101504238/aws_iot_ota_interface.o
 .text          0x00000000      0x2a0 build/aws_demos/production/_ext/2024380417/aws_iot_ota_cbor.o
 .data          0x00000000        0x0 build/aws_demos/production/_ext/2024380417/aws_iot_ota_cbor.o
 .bss           0x00000000        0x0 build/aws_demos/production/_ext/2024380417/aws_iot_ota_cbor.o
 .rodata        0x00000000       0x98 build/aws_demos/production/_ext/2024380417/aws_iot_ota_cbor.o
 .debug_info    0x00000000     0x2122 build/aws_demos/production/_ext/2024380417/aws_iot_ota_cbor.o
 .debug_abbrev  0x00000000      0x393 build/aws_demos/production/_ext/2024380417/aws_iot_ota_cbor.o
 .debug_loc     0x00000000      0x864 build/aws_demos/production/_ext/2024380417/aws_iot_ota_cbor.o
 .debug_aranges
                0x00000000       0x20 build/aws_demos/production/_ext/2024380417/aws_iot_ota_cbor.o
 .debug_ranges  0x00000000       0x90 build/aws_demos/production/_ext/2024380417/aws_iot_ota_cbor.o
 .debug_line    0x00000000      0x379 build/aws_demos/production/_ext/2024380417/aws_iot_ota_cbor.o
 .debug_str     0x00000000      0x1d9 build/aws_demos/production/_ext/2024380417/aws_iot_ota_cbor.o
 .comment       0x00000000       0x3d build/aws_demos/production/_ext/2024380417/aws_iot_ota_cbor.o
 .debug_frame   0x00000000       0x58 build/aws_demos/production/_ext/2024380417/aws_iot_ota_cbor.o
 .ARM.attributes
                0x00000000       0x39 build/aws_demos/production/_ext/2024380417/aws_iot_ota_cbor.o
 .text          0x00000000      0x784 build/aws_demos/production/_ext/2024380417/aws_iot_ota_mqtt.o
 .data          0x00000000       0x2c build/aws_demos/production/_ext/2024380417/aws_iot_ota_mqtt.o
 .bss           0x00000000        0x4 build/aws_demos/production/_ext/2024380417/aws_iot_ota_mqtt.o
 .rodata        0x00000000      0x508 build/aws_demos/production/_ext/2024380417/aws_iot_ota_mqtt.o
 .debug_info    0x00000000     0x467c build/aws_demos/production/_ext/2024380417/aws_iot_ota_mqtt.o
 .debug_abbrev  0x00000000      0x472 build/aws_demos/production/_ext/2024380417/aws_iot_ota_mqtt.o
 .debug_loc     0x00000000      0xf76 build/aws_demos/production/_ext/2024380417/aws_iot_ota_mqtt.o
 .debug_aranges
                0x00000000       0x20 build/aws_demos/production/_ext/2024380417/aws_iot_ota_mqtt.o
 .debug_ranges  0x00000000       0x98 build/aws_demos/production/_ext/2024380417/aws_iot_ota_mqtt.o
 .debug_line    0x00000000      0x5ea build/aws_demos/production/_ext/2024380417/aws_iot_ota_mqtt.o
 .debug_str     0x00000000      0x251 build/aws_demos/production/_ext/2024380417/aws_iot_ota_mqtt.o
 .comment       0x00000000       0x3d build/aws_demos/production/_ext/2024380417/aws_iot_ota_mqtt.o
 .debug_frame   0x00000000      0x1b0 build/aws_demos/production/_ext/2024380417/aws_iot_ota_mqtt.o
 .ARM.attributes
                0x00000000       0x39 build/aws_demos/production/_ext/2024380417/aws_iot_ota_mqtt.o
 .data          0x00000000        0x0 build/aws_demos/production/_ext/350635301/iot_crypto.o
 .bss           0x00000000        0x0 build/aws_demos/production/_ext/350635301/iot_crypto.o
 .data          0x00000000        0x0 build/aws_demos/production/_ext/2138053595/iot_pkcs11.o
 .bss           0x00000000        0x0 build/aws_demos/production/_ext/2138053595/iot_pkcs11.o
 .data          0x00000000        0x0 build/aws_demos/production/_ext/2039890517/iot_tls.o
 .bss           0x00000000        0x0 build/aws_demos/production/_ext/2039890517/iot_tls.o
 .data          0x00000000        0x0 build/aws_demos/production/_ext/1120274527/iot_pki_utils.o
 .bss           0x00000000        0x0 build/aws_demos/production/_ext/1120274527/iot_pki_utils.o
 .data          0x00000000        0x0 build/aws_demos/production/_ext/1120274527/iot_system_init.o
 .bss           0x00000000        0x0 build/aws_demos/production/_ext/1120274527/iot_system_init.o
 .data          0x00000000        0x0 build/aws_demos/production/_ext/1200684192/drv_ethphy.o
 .data          0x00000000        0x0 build/aws_demos/production/_ext/1200684192/drv_extphy_ksz8091.o
 .bss           0x00000000        0x0 build/aws_demos/production/_ext/1200684192/drv_extphy_ksz8091.o
 .data          0x00000000        0x0 build/aws_demos/production/_ext/1843304010/plib_trng.o
 .bss           0x00000000        0x0 build/aws_demos/production/_ext/1843304010/plib_trng.o
 .data          0x00000000        0x0 build/aws_demos/production/_ext/1534684544/sys_console.o
 .data          0x00000000        0x0 build/aws_demos/production/_ext/1534684544/sys_console_uart.o
 .data          0x00000000        0x0 build/aws_demos/production/_ext/1762024984/sys_int.o
 .bss           0x00000000        0x0 build/aws_demos/production/_ext/1762024984/sys_int.o
 .data          0x00000000        0x0 build/aws_demos/production/_ext/1149029443/osal_freertos.o
 .bss           0x00000000        0x0 build/aws_demos/production/_ext/1149029443/osal_freertos.o
 .data          0x00000000        0x0 build/aws_demos/production/_ext/1534096987/tasks.o
 .bss           0x00000000        0x0 build/aws_demos/production/_ext/1534096987/tasks.o
 .text          0x00000000        0x0 c:/program files/microchip/xc32/v2.40/bin/bin/../../lib/gcc/pic32c/6.2.1/../../../../pic32c/lib/v7e-m/fpv4-sp/hard\libpic32c.a(data_init.o)
 .data          0x00000000        0x0 c:/program files/microchip/xc32/v2.40/bin/bin/../../lib/gcc/pic32c/6.2.1/../../../../pic32c/lib/v7e-m/fpv4-sp/hard\libpic32c.a(data_init.o)
 .bss           0x00000000        0x0 c:/program files/microchip/xc32/v2.40/bin/bin/../../lib/gcc/pic32c/6.2.1/../../../../pic32c/lib/v7e-m/fpv4-sp/hard\libpic32c.a(data_init.o)
 .text          0x00000000      0x370 c:/program files/microchip/xc32/v2.40/bin/bin/../../lib/gcc/pic32c/6.2.1/v7e-m/fpv4-sp/hard\libgcc.a(_arm_addsubdf3.o)
 .data          0x00000000        0x0 c:/program files/microchip/xc32/v2.40/bin/bin/../../lib/gcc/pic32c/6.2.1/v7e-m/fpv4-sp/hard\libgcc.a(_arm_addsubdf3.o)
 .bss           0x00000000        0x0 c:/program files/microchip/xc32/v2.40/bin/bin/../../lib/gcc/pic32c/6.2.1/v7e-m/fpv4-sp/hard\libgcc.a(_arm_addsubdf3.o)
 .debug_line    0x00000000      0x1be c:/program files/microchip/xc32/v2.40/bin/bin/../../lib/gcc/pic32c/6.2.1/v7e-m/fpv4-sp/hard\libgcc.a(_arm_addsubdf3.o)
 .debug_info    0x00000000      0x102 c:/program files/microchip/xc32/v2.40/bin/bin/../../lib/gcc/pic32c/6.2.1/v7e-m/fpv4-sp/hard\libgcc.a(_arm_addsubdf3.o)
 .debug_abbrev  0x00000000       0x14 c:/program files/microchip/xc32/v2.40/bin/bin/../../lib/gcc/pic32c/6.2.1/v7e-m/fpv4-sp/hard\libgcc.a(_arm_addsubdf3.o)
 .debug_aranges
                0x00000000       0x20 c:/program files/microchip/xc32/v2.40/bin/bin/../../lib/gcc/pic32c/6.2.1/v7e-m/fpv4-sp/hard\libgcc.a(_arm_addsubdf3.o)
 .debug_frame   0x00000000       0xac c:/program files/microchip/xc32/v2.40/bin/bin/../../lib/gcc/pic32c/6.2.1/v7e-m/fpv4-sp/hard\libgcc.a(_arm_addsubdf3.o)
 .ARM.attributes
                0x00000000       0x22 c:/program files/microchip/xc32/v2.40/bin/bin/../../lib/gcc/pic32c/6.2.1/v7e-m/fpv4-sp/hard\libgcc.a(_arm_addsubdf3.o)
 .text          0x00000000      0x110 c:/program files/microchip/xc32/v2.40/bin/bin/../../lib/gcc/pic32c/6.2.1/v7e-m/fpv4-sp/hard\libgcc.a(_arm_cmpdf2.o)
 .data          0x00000000        0x0 c:/program files/microchip/xc32/v2.40/bin/bin/../../lib/gcc/pic32c/6.2.1/v7e-m/fpv4-sp/hard\libgcc.a(_arm_cmpdf2.o)
 .bss           0x00000000        0x0 c:/program files/microchip/xc32/v2.40/bin/bin/../../lib/gcc/pic32c/6.2.1/v7e-m/fpv4-sp/hard\libgcc.a(_arm_cmpdf2.o)
 .debug_line    0x00000000       0xf9 c:/program files/microchip/xc32/v2.40/bin/bin/../../lib/gcc/pic32c/6.2.1/v7e-m/fpv4-sp/hard\libgcc.a(_arm_cmpdf2.o)
 .debug_info    0x00000000      0x102 c:/program files/microchip/xc32/v2.40/bin/bin/../../lib/gcc/pic32c/6.2.1/v7e-m/fpv4-sp/hard\libgcc.a(_arm_cmpdf2.o)
 .debug_abbrev  0x00000000       0x14 c:/program files/microchip/xc32/v2.40/bin/bin/../../lib/gcc/pic32c/6.2.1/v7e-m/fpv4-sp/hard\libgcc.a(_arm_cmpdf2.o)
 .debug_aranges
                0x00000000       0x20 c:/program files/microchip/xc32/v2.40/bin/bin/../../lib/gcc/pic32c/6.2.1/v7e-m/fpv4-sp/hard\libgcc.a(_arm_cmpdf2.o)
 .debug_frame   0x00000000       0xc4 c:/program files/microchip/xc32/v2.40/bin/bin/../../lib/gcc/pic32c/6.2.1/v7e-m/fpv4-sp/hard\libgcc.a(_arm_cmpdf2.o)
 .ARM.attributes
                0x00000000       0x22 c:/program files/microchip/xc32/v2.40/bin/bin/../../lib/gcc/pic32c/6.2.1/v7e-m/fpv4-sp/hard\libgcc.a(_arm_cmpdf2.o)
 .text          0x00000000       0x2c c:/program files/microchip/xc32/v2.40/bin/bin/../../lib/gcc/pic32c/6.2.1/v7e-m/fpv4-sp/hard\libgcc.a(_arm_unorddf2.o)
 .data          0x00000000        0x0 c:/program files/microchip/xc32/v2.40/bin/bin/../../lib/gcc/pic32c/6.2.1/v7e-m/fpv4-sp/hard\libgcc.a(_arm_unorddf2.o)
 .bss           0x00000000        0x0 c:/program files/microchip/xc32/v2.40/bin/bin/../../lib/gcc/pic32c/6.2.1/v7e-m/fpv4-sp/hard\libgcc.a(_arm_unorddf2.o)
 .debug_line    0x00000000       0xaa c:/program files/microchip/xc32/v2.40/bin/bin/../../lib/gcc/pic32c/6.2.1/v7e-m/fpv4-sp/hard\libgcc.a(_arm_unorddf2.o)
 .debug_info    0x00000000      0x102 c:/program files/microchip/xc32/v2.40/bin/bin/../../lib/gcc/pic32c/6.2.1/v7e-m/fpv4-sp/hard\libgcc.a(_arm_unorddf2.o)
 .debug_abbrev  0x00000000       0x14 c:/program files/microchip/xc32/v2.40/bin/bin/../../lib/gcc/pic32c/6.2.1/v7e-m/fpv4-sp/hard\libgcc.a(_arm_unorddf2.o)
 .debug_aranges
                0x00000000       0x20 c:/program files/microchip/xc32/v2.40/bin/bin/../../lib/gcc/pic32c/6.2.1/v7e-m/fpv4-sp/hard\libgcc.a(_arm_unorddf2.o)
 .debug_frame   0x00000000       0x20 c:/program files/microchip/xc32/v2.40/bin/bin/../../lib/gcc/pic32c/6.2.1/v7e-m/fpv4-sp/hard\libgcc.a(_arm_unorddf2.o)
 .ARM.attributes
                0x00000000       0x22 c:/program files/microchip/xc32/v2.40/bin/bin/../../lib/gcc/pic32c/6.2.1/v7e-m/fpv4-sp/hard\libgcc.a(_arm_unorddf2.o)
 .text          0x00000000       0xa0 c:/program files/microchip/xc32/v2.40/bin/bin/../../lib/gcc/pic32c/6.2.1/v7e-m/fpv4-sp/hard\libgcc.a(_arm_truncdfsf2.o)
 .data          0x00000000        0x0 c:/program files/microchip/xc32/v2.40/bin/bin/../../lib/gcc/pic32c/6.2.1/v7e-m/fpv4-sp/hard\libgcc.a(_arm_truncdfsf2.o)
 .bss           0x00000000        0x0 c:/program files/microchip/xc32/v2.40/bin/bin/../../lib/gcc/pic32c/6.2.1/v7e-m/fpv4-sp/hard\libgcc.a(_arm_truncdfsf2.o)
 .debug_line    0x00000000       0xc9 c:/program files/microchip/xc32/v2.40/bin/bin/../../lib/gcc/pic32c/6.2.1/v7e-m/fpv4-sp/hard\libgcc.a(_arm_truncdfsf2.o)
 .debug_info    0x00000000      0x102 c:/program files/microchip/xc32/v2.40/bin/bin/../../lib/gcc/pic32c/6.2.1/v7e-m/fpv4-sp/hard\libgcc.a(_arm_truncdfsf2.o)
 .debug_abbrev  0x00000000       0x14 c:/program files/microchip/xc32/v2.40/bin/bin/../../lib/gcc/pic32c/6.2.1/v7e-m/fpv4-sp/hard\libgcc.a(_arm_truncdfsf2.o)
 .debug_aranges
                0x00000000       0x20 c:/program files/microchip/xc32/v2.40/bin/bin/../../lib/gcc/pic32c/6.2.1/v7e-m/fpv4-sp/hard\libgcc.a(_arm_truncdfsf2.o)
 .debug_frame   0x00000000       0x24 c:/program files/microchip/xc32/v2.40/bin/bin/../../lib/gcc/pic32c/6.2.1/v7e-m/fpv4-sp/hard\libgcc.a(_arm_truncdfsf2.o)
 .ARM.attributes
                0x00000000       0x22 c:/program files/microchip/xc32/v2.40/bin/bin/../../lib/gcc/pic32c/6.2.1/v7e-m/fpv4-sp/hard\libgcc.a(_arm_truncdfsf2.o)
 .data          0x00000000        0x0 c:/program files/microchip/xc32/v2.40/bin/bin/../../lib/gcc/pic32c/6.2.1/v7e-m/fpv4-sp/hard\libgcc.a(_aeabi_uldivmod.o)
 .bss           0x00000000        0x0 c:/program files/microchip/xc32/v2.40/bin/bin/../../lib/gcc/pic32c/6.2.1/v7e-m/fpv4-sp/hard\libgcc.a(_aeabi_uldivmod.o)
 .text          0x00000000       0x48 c:/program files/microchip/xc32/v2.40/bin/bin/../../lib/gcc/pic32c/6.2.1/v7e-m/fpv4-sp/hard\libgcc.a(_fixunsdfdi.o)
 .data          0x00000000        0x0 c:/program files/microchip/xc32/v2.40/bin/bin/../../lib/gcc/pic32c/6.2.1/v7e-m/fpv4-sp/hard\libgcc.a(_fixunsdfdi.o)
 .bss           0x00000000        0x0 c:/program files/microchip/xc32/v2.40/bin/bin/../../lib/gcc/pic32c/6.2.1/v7e-m/fpv4-sp/hard\libgcc.a(_fixunsdfdi.o)
 .debug_info    0x00000000     0x1324 c:/program files/microchip/xc32/v2.40/bin/bin/../../lib/gcc/pic32c/6.2.1/v7e-m/fpv4-sp/hard\libgcc.a(_fixunsdfdi.o)
 .debug_abbrev  0x00000000      0x12a c:/program files/microchip/xc32/v2.40/bin/bin/../../lib/gcc/pic32c/6.2.1/v7e-m/fpv4-sp/hard\libgcc.a(_fixunsdfdi.o)
 .debug_loc     0x00000000       0xca c:/program files/microchip/xc32/v2.40/bin/bin/../../lib/gcc/pic32c/6.2.1/v7e-m/fpv4-sp/hard\libgcc.a(_fixunsdfdi.o)
 .debug_aranges
                0x00000000       0x20 c:/program files/microchip/xc32/v2.40/bin/bin/../../lib/gcc/pic32c/6.2.1/v7e-m/fpv4-sp/hard\libgcc.a(_fixunsdfdi.o)
 .debug_line    0x00000000      0x295 c:/program files/microchip/xc32/v2.40/bin/bin/../../lib/gcc/pic32c/6.2.1/v7e-m/fpv4-sp/hard\libgcc.a(_fixunsdfdi.o)
 .debug_str     0x00000000        0x0 c:/program files/microchip/xc32/v2.40/bin/bin/../../lib/gcc/pic32c/6.2.1/v7e-m/fpv4-sp/hard\libgcc.a(_fixunsdfdi.o)
 .comment       0x00000000       0x3d c:/program files/microchip/xc32/v2.40/bin/bin/../../lib/gcc/pic32c/6.2.1/v7e-m/fpv4-sp/hard\libgcc.a(_fixunsdfdi.o)
 .debug_frame   0x00000000       0x2c c:/program files/microchip/xc32/v2.40/bin/bin/../../lib/gcc/pic32c/6.2.1/v7e-m/fpv4-sp/hard\libgcc.a(_fixunsdfdi.o)
 .ARM.attributes
                0x00000000       0x34 c:/program files/microchip/xc32/v2.40/bin/bin/../../lib/gcc/pic32c/6.2.1/v7e-m/fpv4-sp/hard\libgcc.a(_fixunsdfdi.o)
 .data          0x00000000        0x0 c:/program files/microchip/xc32/v2.40/bin/bin/../../lib/gcc/pic32c/6.2.1/v7e-m/fpv4-sp/hard\libgcc.a(_udivmoddi4.o)
 .bss           0x00000000        0x0 c:/program files/microchip/xc32/v2.40/bin/bin/../../lib/gcc/pic32c/6.2.1/v7e-m/fpv4-sp/hard\libgcc.a(_udivmoddi4.o)
 .ARM.extab     0x00000000        0x0 c:/program files/microchip/xc32/v2.40/bin/bin/../../lib/gcc/pic32c/6.2.1/v7e-m/fpv4-sp/hard\libgcc.a(_udivmoddi4.o)
 .data          0x00000000        0x0 c:/program files/microchip/xc32/v2.40/bin/bin/../../lib/gcc/pic32c/6.2.1/v7e-m/fpv4-sp/hard\libgcc.a(_dvmd_tls.o)
 .bss           0x00000000        0x0 c:/program files/microchip/xc32/v2.40/bin/bin/../../lib/gcc/pic32c/6.2.1/v7e-m/fpv4-sp/hard\libgcc.a(_dvmd_tls.o)
 .text          0x00000000      0x424 c:/program files/microchip/xc32/v2.40/bin/bin/../../lib/gcc/pic32c/6.2.1/v7e-m/fpv4-sp/hard\libgcc.a(_arm_muldivdf3.o)
 .data          0x00000000        0x0 c:/program files/microchip/xc32/v2.40/bin/bin/../../lib/gcc/pic32c/6.2.1/v7e-m/fpv4-sp/hard\libgcc.a(_arm_muldivdf3.o)
 .bss           0x00000000        0x0 c:/program files/microchip/xc32/v2.40/bin/bin/../../lib/gcc/pic32c/6.2.1/v7e-m/fpv4-sp/hard\libgcc.a(_arm_muldivdf3.o)
 .debug_line    0x00000000      0x1da c:/program files/microchip/xc32/v2.40/bin/bin/../../lib/gcc/pic32c/6.2.1/v7e-m/fpv4-sp/hard\libgcc.a(_arm_muldivdf3.o)
 .debug_info    0x00000000      0x102 c:/program files/microchip/xc32/v2.40/bin/bin/../../lib/gcc/pic32c/6.2.1/v7e-m/fpv4-sp/hard\libgcc.a(_arm_muldivdf3.o)
 .debug_abbrev  0x00000000       0x14 c:/program files/microchip/xc32/v2.40/bin/bin/../../lib/gcc/pic32c/6.2.1/v7e-m/fpv4-sp/hard\libgcc.a(_arm_muldivdf3.o)
 .debug_aranges
                0x00000000       0x20 c:/program files/microchip/xc32/v2.40/bin/bin/../../lib/gcc/pic32c/6.2.1/v7e-m/fpv4-sp/hard\libgcc.a(_arm_muldivdf3.o)
 .debug_frame   0x00000000       0x50 c:/program files/microchip/xc32/v2.40/bin/bin/../../lib/gcc/pic32c/6.2.1/v7e-m/fpv4-sp/hard\libgcc.a(_arm_muldivdf3.o)
 .ARM.attributes
                0x00000000       0x22 c:/program files/microchip/xc32/v2.40/bin/bin/../../lib/gcc/pic32c/6.2.1/v7e-m/fpv4-sp/hard\libgcc.a(_arm_muldivdf3.o)
 .text          0x00000000       0x40 c:/program files/microchip/xc32/v2.40/bin/bin/../../lib/gcc/pic32c/6.2.1/v7e-m/fpv4-sp/hard\libgcc.a(_arm_fixunsdfsi.o)
 .data          0x00000000        0x0 c:/program files/microchip/xc32/v2.40/bin/bin/../../lib/gcc/pic32c/6.2.1/v7e-m/fpv4-sp/hard\libgcc.a(_arm_fixunsdfsi.o)
 .bss           0x00000000        0x0 c:/program files/microchip/xc32/v2.40/bin/bin/../../lib/gcc/pic32c/6.2.1/v7e-m/fpv4-sp/hard\libgcc.a(_arm_fixunsdfsi.o)
 .debug_line    0x00000000       0xb1 c:/program files/microchip/xc32/v2.40/bin/bin/../../lib/gcc/pic32c/6.2.1/v7e-m/fpv4-sp/hard\libgcc.a(_arm_fixunsdfsi.o)
 .debug_info    0x00000000      0x102 c:/program files/microchip/xc32/v2.40/bin/bin/../../lib/gcc/pic32c/6.2.1/v7e-m/fpv4-sp/hard\libgcc.a(_arm_fixunsdfsi.o)
 .debug_abbrev  0x00000000       0x14 c:/program files/microchip/xc32/v2.40/bin/bin/../../lib/gcc/pic32c/6.2.1/v7e-m/fpv4-sp/hard\libgcc.a(_arm_fixunsdfsi.o)
 .debug_aranges
                0x00000000       0x20 c:/program files/microchip/xc32/v2.40/bin/bin/../../lib/gcc/pic32c/6.2.1/v7e-m/fpv4-sp/hard\libgcc.a(_arm_fixunsdfsi.o)
 .debug_frame   0x00000000       0x24 c:/program files/microchip/xc32/v2.40/bin/bin/../../lib/gcc/pic32c/6.2.1/v7e-m/fpv4-sp/hard\libgcc.a(_arm_fixunsdfsi.o)
 .ARM.attributes
                0x00000000       0x22 c:/program files/microchip/xc32/v2.40/bin/bin/../../lib/gcc/pic32c/6.2.1/v7e-m/fpv4-sp/hard\libgcc.a(_arm_fixunsdfsi.o)
 .text          0x00000000        0x0 c:/program files/microchip/xc32/v2.40/bin/bin/../../lib/gcc/pic32c/6.2.1/../../../../pic32c/lib/v7e-m/fpv4-sp/hard\libm_nano.a(lib_a-s_ldexp.o)
 .data          0x00000000        0x0 c:/program files/microchip/xc32/v2.40/bin/bin/../../lib/gcc/pic32c/6.2.1/../../../../pic32c/lib/v7e-m/fpv4-sp/hard\libm_nano.a(lib_a-s_ldexp.o)
 .bss           0x00000000        0x0 c:/program files/microchip/xc32/v2.40/bin/bin/../../lib/gcc/pic32c/6.2.1/../../../../pic32c/lib/v7e-m/fpv4-sp/hard\libm_nano.a(lib_a-s_ldexp.o)
 .text.ldexp    0x00000000       0x64 c:/program files/microchip/xc32/v2.40/bin/bin/../../lib/gcc/pic32c/6.2.1/../../../../pic32c/lib/v7e-m/fpv4-sp/hard\libm_nano.a(lib_a-s_ldexp.o)
 .debug_info    0x00000000      0xf7b c:/program files/microchip/xc32/v2.40/bin/bin/../../lib/gcc/pic32c/6.2.1/../../../../pic32c/lib/v7e-m/fpv4-sp/hard\libm_nano.a(lib_a-s_ldexp.o)
 .debug_abbrev  0x00000000      0x1cb c:/program files/microchip/xc32/v2.40/bin/bin/../../lib/gcc/pic32c/6.2.1/../../../../pic32c/lib/v7e-m/fpv4-sp/hard\libm_nano.a(lib_a-s_ldexp.o)
 .debug_loc     0x00000000       0xb8 c:/program files/microchip/xc32/v2.40/bin/bin/../../lib/gcc/pic32c/6.2.1/../../../../pic32c/lib/v7e-m/fpv4-sp/hard\libm_nano.a(lib_a-s_ldexp.o)
 .debug_aranges
                0x00000000       0x20 c:/program files/microchip/xc32/v2.40/bin/bin/../../lib/gcc/pic32c/6.2.1/../../../../pic32c/lib/v7e-m/fpv4-sp/hard\libm_nano.a(lib_a-s_ldexp.o)
 .debug_ranges  0x00000000       0x10 c:/program files/microchip/xc32/v2.40/bin/bin/../../lib/gcc/pic32c/6.2.1/../../../../pic32c/lib/v7e-m/fpv4-sp/hard\libm_nano.a(lib_a-s_ldexp.o)
 .debug_line    0x00000000      0x214 c:/program files/microchip/xc32/v2.40/bin/bin/../../lib/gcc/pic32c/6.2.1/../../../../pic32c/lib/v7e-m/fpv4-sp/hard\libm_nano.a(lib_a-s_ldexp.o)
 .debug_str     0x00000000        0x9 c:/program files/microchip/xc32/v2.40/bin/bin/../../lib/gcc/pic32c/6.2.1/../../../../pic32c/lib/v7e-m/fpv4-sp/hard\libm_nano.a(lib_a-s_ldexp.o)
 .comment       0x00000000       0x3d c:/program files/microchip/xc32/v2.40/bin/bin/../../lib/gcc/pic32c/6.2.1/../../../../pic32c/lib/v7e-m/fpv4-sp/hard\libm_nano.a(lib_a-s_ldexp.o)
 .debug_frame   0x00000000       0x38 c:/program files/microchip/xc32/v2.40/bin/bin/../../lib/gcc/pic32c/6.2.1/../../../../pic32c/lib/v7e-m/fpv4-sp/hard\libm_nano.a(lib_a-s_ldexp.o)
 .ARM.attributes
                0x00000000       0x34 c:/program files/microchip/xc32/v2.40/bin/bin/../../lib/gcc/pic32c/6.2.1/../../../../pic32c/lib/v7e-m/fpv4-sp/hard\libm_nano.a(lib_a-s_ldexp.o)
 .text          0x00000000        0x0 c:/program files/microchip/xc32/v2.40/bin/bin/../../lib/gcc/pic32c/6.2.1/../../../../pic32c/lib/v7e-m/fpv4-sp/hard\libm_nano.a(lib_a-s_scalbn.o)
 .data          0x00000000        0x0 c:/program files/microchip/xc32/v2.40/bin/bin/../../lib/gcc/pic32c/6.2.1/../../../../pic32c/lib/v7e-m/fpv4-sp/hard\libm_nano.a(lib_a-s_scalbn.o)
 .bss           0x00000000        0x0 c:/program files/microchip/xc32/v2.40/bin/bin/../../lib/gcc/pic32c/6.2.1/../../../../pic32c/lib/v7e-m/fpv4-sp/hard\libm_nano.a(lib_a-s_scalbn.o)
 .text.scalbn   0x00000000       0xf4 c:/program files/microchip/xc32/v2.40/bin/bin/../../lib/gcc/pic32c/6.2.1/../../../../pic32c/lib/v7e-m/fpv4-sp/hard\libm_nano.a(lib_a-s_scalbn.o)
 .debug_info    0x00000000     0x107e c:/program files/microchip/xc32/v2.40/bin/bin/../../lib/gcc/pic32c/6.2.1/../../../../pic32c/lib/v7e-m/fpv4-sp/hard\libm_nano.a(lib_a-s_scalbn.o)
 .debug_abbrev  0x00000000      0x209 c:/program files/microchip/xc32/v2.40/bin/bin/../../lib/gcc/pic32c/6.2.1/../../../../pic32c/lib/v7e-m/fpv4-sp/hard\libm_nano.a(lib_a-s_scalbn.o)
 .debug_loc     0x00000000      0x24b c:/program files/microchip/xc32/v2.40/bin/bin/../../lib/gcc/pic32c/6.2.1/../../../../pic32c/lib/v7e-m/fpv4-sp/hard\libm_nano.a(lib_a-s_scalbn.o)
 .debug_aranges
                0x00000000       0x20 c:/program files/microchip/xc32/v2.40/bin/bin/../../lib/gcc/pic32c/6.2.1/../../../../pic32c/lib/v7e-m/fpv4-sp/hard\libm_nano.a(lib_a-s_scalbn.o)
 .debug_ranges  0x00000000       0x28 c:/program files/microchip/xc32/v2.40/bin/bin/../../lib/gcc/pic32c/6.2.1/../../../../pic32c/lib/v7e-m/fpv4-sp/hard\libm_nano.a(lib_a-s_scalbn.o)
 .debug_line    0x00000000      0x2c1 c:/program files/microchip/xc32/v2.40/bin/bin/../../lib/gcc/pic32c/6.2.1/../../../../pic32c/lib/v7e-m/fpv4-sp/hard\libm_nano.a(lib_a-s_scalbn.o)
 .debug_str     0x00000000       0x12 c:/program files/microchip/xc32/v2.40/bin/bin/../../lib/gcc/pic32c/6.2.1/../../../../pic32c/lib/v7e-m/fpv4-sp/hard\libm_nano.a(lib_a-s_scalbn.o)
 .comment       0x00000000       0x3d c:/program files/microchip/xc32/v2.40/bin/bin/../../lib/gcc/pic32c/6.2.1/../../../../pic32c/lib/v7e-m/fpv4-sp/hard\libm_nano.a(lib_a-s_scalbn.o)
 .debug_frame   0x00000000       0x2c c:/program files/microchip/xc32/v2.40/bin/bin/../../lib/gcc/pic32c/6.2.1/../../../../pic32c/lib/v7e-m/fpv4-sp/hard\libm_nano.a(lib_a-s_scalbn.o)
 .ARM.attributes
                0x00000000       0x34 c:/program files/microchip/xc32/v2.40/bin/bin/../../lib/gcc/pic32c/6.2.1/../../../../pic32c/lib/v7e-m/fpv4-sp/hard\libm_nano.a(lib_a-s_scalbn.o)
 .text          0x00000000        0x0 c:/program files/microchip/xc32/v2.40/bin/bin/../../lib/gcc/pic32c/6.2.1/../../../../pic32c/lib/v7e-m/fpv4-sp/hard\libm_nano.a(lib_a-s_copysign.o)
 .data          0x00000000        0x0 c:/program files/microchip/xc32/v2.40/bin/bin/../../lib/gcc/pic32c/6.2.1/../../../../pic32c/lib/v7e-m/fpv4-sp/hard\libm_nano.a(lib_a-s_copysign.o)
 .bss           0x00000000        0x0 c:/program files/microchip/xc32/v2.40/bin/bin/../../lib/gcc/pic32c/6.2.1/../../../../pic32c/lib/v7e-m/fpv4-sp/hard\libm_nano.a(lib_a-s_copysign.o)
 .text.copysign
                0x00000000       0x1a c:/program files/microchip/xc32/v2.40/bin/bin/../../lib/gcc/pic32c/6.2.1/../../../../pic32c/lib/v7e-m/fpv4-sp/hard\libm_nano.a(lib_a-s_copysign.o)
 .debug_info    0x00000000      0xf76 c:/program files/microchip/xc32/v2.40/bin/bin/../../lib/gcc/pic32c/6.2.1/../../../../pic32c/lib/v7e-m/fpv4-sp/hard\libm_nano.a(lib_a-s_copysign.o)
 .debug_abbrev  0x00000000      0x1dc c:/program files/microchip/xc32/v2.40/bin/bin/../../lib/gcc/pic32c/6.2.1/../../../../pic32c/lib/v7e-m/fpv4-sp/hard\libm_nano.a(lib_a-s_copysign.o)
 .debug_loc     0x00000000       0x3d c:/program files/microchip/xc32/v2.40/bin/bin/../../lib/gcc/pic32c/6.2.1/../../../../pic32c/lib/v7e-m/fpv4-sp/hard\libm_nano.a(lib_a-s_copysign.o)
 .debug_aranges
                0x00000000       0x20 c:/program files/microchip/xc32/v2.40/bin/bin/../../lib/gcc/pic32c/6.2.1/../../../../pic32c/lib/v7e-m/fpv4-sp/hard\libm_nano.a(lib_a-s_copysign.o)
 .debug_ranges  0x00000000       0x10 c:/program files/microchip/xc32/v2.40/bin/bin/../../lib/gcc/pic32c/6.2.1/../../../../pic32c/lib/v7e-m/fpv4-sp/hard\libm_nano.a(lib_a-s_copysign.o)
 .debug_line    0x00000000      0x292 c:/program files/microchip/xc32/v2.40/bin/bin/../../lib/gcc/pic32c/6.2.1/../../../../pic32c/lib/v7e-m/fpv4-sp/hard\libm_nano.a(lib_a-s_copysign.o)
 .debug_str     0x00000000        0x9 c:/program files/microchip/xc32/v2.40/bin/bin/../../lib/gcc/pic32c/6.2.1/../../../../pic32c/lib/v7e-m/fpv4-sp/hard\libm_nano.a(lib_a-s_copysign.o)
 .comment       0x00000000       0x3d c:/program files/microchip/xc32/v2.40/bin/bin/../../lib/gcc/pic32c/6.2.1/../../../../pic32c/lib/v7e-m/fpv4-sp/hard\libm_nano.a(lib_a-s_copysign.o)
 .debug_frame   0x00000000       0x20 c:/program files/microchip/xc32/v2.40/bin/bin/../../lib/gcc/pic32c/6.2.1/../../../../pic32c/lib/v7e-m/fpv4-sp/hard\libm_nano.a(lib_a-s_copysign.o)
 .ARM.attributes
                0x00000000       0x34 c:/program files/microchip/xc32/v2.40/bin/bin/../../lib/gcc/pic32c/6.2.1/../../../../pic32c/lib/v7e-m/fpv4-sp/hard\libm_nano.a(lib_a-s_copysign.o)
 .text          0x00000000        0x0 c:/program files/microchip/xc32/v2.40/bin/bin/../../lib/gcc/pic32c/6.2.1/../../../../pic32c/lib/v7e-m/fpv4-sp/hard\libm_nano.a(lib_a-s_finite.o)
 .data          0x00000000        0x0 c:/program files/microchip/xc32/v2.40/bin/bin/../../lib/gcc/pic32c/6.2.1/../../../../pic32c/lib/v7e-m/fpv4-sp/hard\libm_nano.a(lib_a-s_finite.o)
 .bss           0x00000000        0x0 c:/program files/microchip/xc32/v2.40/bin/bin/../../lib/gcc/pic32c/6.2.1/../../../../pic32c/lib/v7e-m/fpv4-sp/hard\libm_nano.a(lib_a-s_finite.o)
 .text.finite   0x00000000       0x10 c:/program files/microchip/xc32/v2.40/bin/bin/../../lib/gcc/pic32c/6.2.1/../../../../pic32c/lib/v7e-m/fpv4-sp/hard\libm_nano.a(lib_a-s_finite.o)
 .debug_info    0x00000000      0xf34 c:/program files/microchip/xc32/v2.40/bin/bin/../../lib/gcc/pic32c/6.2.1/../../../../pic32c/lib/v7e-m/fpv4-sp/hard\libm_nano.a(lib_a-s_finite.o)
 .debug_abbrev  0x00000000      0x1a4 c:/program files/microchip/xc32/v2.40/bin/bin/../../lib/gcc/pic32c/6.2.1/../../../../pic32c/lib/v7e-m/fpv4-sp/hard\libm_nano.a(lib_a-s_finite.o)
 .debug_aranges
                0x00000000       0x20 c:/program files/microchip/xc32/v2.40/bin/bin/../../lib/gcc/pic32c/6.2.1/../../../../pic32c/lib/v7e-m/fpv4-sp/hard\libm_nano.a(lib_a-s_finite.o)
 .debug_ranges  0x00000000       0x10 c:/program files/microchip/xc32/v2.40/bin/bin/../../lib/gcc/pic32c/6.2.1/../../../../pic32c/lib/v7e-m/fpv4-sp/hard\libm_nano.a(lib_a-s_finite.o)
 .debug_line    0x00000000      0x28e c:/program files/microchip/xc32/v2.40/bin/bin/../../lib/gcc/pic32c/6.2.1/../../../../pic32c/lib/v7e-m/fpv4-sp/hard\libm_nano.a(lib_a-s_finite.o)
 .debug_str     0x00000000        0x9 c:/program files/microchip/xc32/v2.40/bin/bin/../../lib/gcc/pic32c/6.2.1/../../../../pic32c/lib/v7e-m/fpv4-sp/hard\libm_nano.a(lib_a-s_finite.o)
 .comment       0x00000000       0x3d c:/program files/microchip/xc32/v2.40/bin/bin/../../lib/gcc/pic32c/6.2.1/../../../../pic32c/lib/v7e-m/fpv4-sp/hard\libm_nano.a(lib_a-s_finite.o)
 .debug_frame   0x00000000       0x20 c:/program files/microchip/xc32/v2.40/bin/bin/../../lib/gcc/pic32c/6.2.1/../../../../pic32c/lib/v7e-m/fpv4-sp/hard\libm_nano.a(lib_a-s_finite.o)
 .ARM.attributes
                0x00000000       0x34 c:/program files/microchip/xc32/v2.40/bin/bin/../../lib/gcc/pic32c/6.2.1/../../../../pic32c/lib/v7e-m/fpv4-sp/hard\libm_nano.a(lib_a-s_finite.o)
 .text          0x00000000        0x0 c:/program files/microchip/xc32/v2.40/bin/bin/../../lib/gcc/pic32c/6.2.1/../../../../pic32c/lib/v7e-m/fpv4-sp/hard\libc_nano.a(lib_a-assert.o)
 .data          0x00000000        0x0 c:/program files/microchip/xc32/v2.40/bin/bin/../../lib/gcc/pic32c/6.2.1/../../../../pic32c/lib/v7e-m/fpv4-sp/hard\libc_nano.a(lib_a-assert.o)
 .bss           0x00000000        0x0 c:/program files/microchip/xc32/v2.40/bin/bin/../../lib/gcc/pic32c/6.2.1/../../../../pic32c/lib/v7e-m/fpv4-sp/hard\libc_nano.a(lib_a-assert.o)
 .text.__assert_func
                0x00000000       0x3c c:/program files/microchip/xc32/v2.40/bin/bin/../../lib/gcc/pic32c/6.2.1/../../../../pic32c/lib/v7e-m/fpv4-sp/hard\libc_nano.a(lib_a-assert.o)
 .text.__assert
                0x00000000        0xa c:/program files/microchip/xc32/v2.40/bin/bin/../../lib/gcc/pic32c/6.2.1/../../../../pic32c/lib/v7e-m/fpv4-sp/hard\libc_nano.a(lib_a-assert.o)
 .rodata        0x00000000       0x3d c:/program files/microchip/xc32/v2.40/bin/bin/../../lib/gcc/pic32c/6.2.1/../../../../pic32c/lib/v7e-m/fpv4-sp/hard\libc_nano.a(lib_a-assert.o)
 .debug_info    0x00000000      0xf8c c:/program files/microchip/xc32/v2.40/bin/bin/../../lib/gcc/pic32c/6.2.1/../../../../pic32c/lib/v7e-m/fpv4-sp/hard\libc_nano.a(lib_a-assert.o)
 .debug_abbrev  0x00000000      0x1c0 c:/program files/microchip/xc32/v2.40/bin/bin/../../lib/gcc/pic32c/6.2.1/../../../../pic32c/lib/v7e-m/fpv4-sp/hard\libc_nano.a(lib_a-assert.o)
 .debug_loc     0x00000000      0x15c c:/program files/microchip/xc32/v2.40/bin/bin/../../lib/gcc/pic32c/6.2.1/../../../../pic32c/lib/v7e-m/fpv4-sp/hard\libc_nano.a(lib_a-assert.o)
 .debug_aranges
                0x00000000       0x28 c:/program files/microchip/xc32/v2.40/bin/bin/../../lib/gcc/pic32c/6.2.1/../../../../pic32c/lib/v7e-m/fpv4-sp/hard\libc_nano.a(lib_a-assert.o)
 .debug_ranges  0x00000000       0x18 c:/program files/microchip/xc32/v2.40/bin/bin/../../lib/gcc/pic32c/6.2.1/../../../../pic32c/lib/v7e-m/fpv4-sp/hard\libc_nano.a(lib_a-assert.o)
 .debug_line    0x00000000      0x230 c:/program files/microchip/xc32/v2.40/bin/bin/../../lib/gcc/pic32c/6.2.1/../../../../pic32c/lib/v7e-m/fpv4-sp/hard\libc_nano.a(lib_a-assert.o)
 .debug_str     0x00000000       0x1d c:/program files/microchip/xc32/v2.40/bin/bin/../../lib/gcc/pic32c/6.2.1/../../../../pic32c/lib/v7e-m/fpv4-sp/hard\libc_nano.a(lib_a-assert.o)
 .comment       0x00000000       0x3d c:/program files/microchip/xc32/v2.40/bin/bin/../../lib/gcc/pic32c/6.2.1/../../../../pic32c/lib/v7e-m/fpv4-sp/hard\libc_nano.a(lib_a-assert.o)
 .debug_frame   0x00000000       0x40 c:/program files/microchip/xc32/v2.40/bin/bin/../../lib/gcc/pic32c/6.2.1/../../../../pic32c/lib/v7e-m/fpv4-sp/hard\libc_nano.a(lib_a-assert.o)
 .ARM.attributes
                0x00000000       0x34 c:/program files/microchip/xc32/v2.40/bin/bin/../../lib/gcc/pic32c/6.2.1/../../../../pic32c/lib/v7e-m/fpv4-sp/hard\libc_nano.a(lib_a-assert.o)
 .text          0x00000000        0x0 c:/program files/microchip/xc32/v2.40/bin/bin/../../lib/gcc/pic32c/6.2.1/../../../../pic32c/lib/v7e-m/fpv4-sp/hard\libc_nano.a(lib_a-atoi.o)
 .data          0x00000000        0x0 c:/program files/microchip/xc32/v2.40/bin/bin/../../lib/gcc/pic32c/6.2.1/../../../../pic32c/lib/v7e-m/fpv4-sp/hard\libc_nano.a(lib_a-atoi.o)
 .bss           0x00000000        0x0 c:/program files/microchip/xc32/v2.40/bin/bin/../../lib/gcc/pic32c/6.2.1/../../../../pic32c/lib/v7e-m/fpv4-sp/hard\libc_nano.a(lib_a-atoi.o)
 .text.atoi     0x00000000        0x8 c:/program files/microchip/xc32/v2.40/bin/bin/../../lib/gcc/pic32c/6.2.1/../../../../pic32c/lib/v7e-m/fpv4-sp/hard\libc_nano.a(lib_a-atoi.o)
 .text._atoi_r  0x00000000        0x8 c:/program files/microchip/xc32/v2.40/bin/bin/../../lib/gcc/pic32c/6.2.1/../../../../pic32c/lib/v7e-m/fpv4-sp/hard\libc_nano.a(lib_a-atoi.o)
 .debug_info    0x00000000      0xea7 c:/program files/microchip/xc32/v2.40/bin/bin/../../lib/gcc/pic32c/6.2.1/../../../../pic32c/lib/v7e-m/fpv4-sp/hard\libc_nano.a(lib_a-atoi.o)
 .debug_abbrev  0x00000000      0x199 c:/program files/microchip/xc32/v2.40/bin/bin/../../lib/gcc/pic32c/6.2.1/../../../../pic32c/lib/v7e-m/fpv4-sp/hard\libc_nano.a(lib_a-atoi.o)
 .debug_loc     0x00000000       0x63 c:/program files/microchip/xc32/v2.40/bin/bin/../../lib/gcc/pic32c/6.2.1/../../../../pic32c/lib/v7e-m/fpv4-sp/hard\libc_nano.a(lib_a-atoi.o)
 .debug_aranges
                0x00000000       0x28 c:/program files/microchip/xc32/v2.40/bin/bin/../../lib/gcc/pic32c/6.2.1/../../../../pic32c/lib/v7e-m/fpv4-sp/hard\libc_nano.a(lib_a-atoi.o)
 .debug_ranges  0x00000000       0x18 c:/program files/microchip/xc32/v2.40/bin/bin/../../lib/gcc/pic32c/6.2.1/../../../../pic32c/lib/v7e-m/fpv4-sp/hard\libc_nano.a(lib_a-atoi.o)
 .debug_line    0x00000000      0x210 c:/program files/microchip/xc32/v2.40/bin/bin/../../lib/gcc/pic32c/6.2.1/../../../../pic32c/lib/v7e-m/fpv4-sp/hard\libc_nano.a(lib_a-atoi.o)
 .debug_str     0x00000000       0x13 c:/program files/microchip/xc32/v2.40/bin/bin/../../lib/gcc/pic32c/6.2.1/../../../../pic32c/lib/v7e-m/fpv4-sp/hard\libc_nano.a(lib_a-atoi.o)
 .comment       0x00000000       0x3d c:/program files/microchip/xc32/v2.40/bin/bin/../../lib/gcc/pic32c/6.2.1/../../../../pic32c/lib/v7e-m/fpv4-sp/hard\libc_nano.a(lib_a-atoi.o)
 .debug_frame   0x00000000       0x30 c:/program files/microchip/xc32/v2.40/bin/bin/../../lib/gcc/pic32c/6.2.1/../../../../pic32c/lib/v7e-m/fpv4-sp/hard\libc_nano.a(lib_a-atoi.o)
 .ARM.attributes
                0x00000000       0x34 c:/program files/microchip/xc32/v2.40/bin/bin/../../lib/gcc/pic32c/6.2.1/../../../../pic32c/lib/v7e-m/fpv4-sp/hard\libc_nano.a(lib_a-atoi.o)
 .text          0x00000000        0x0 c:/program files/microchip/xc32/v2.40/bin/bin/../../lib/gcc/pic32c/6.2.1/../../../../pic32c/lib/v7e-m/fpv4-sp/hard\libc_nano.a(lib_a-calloc.o)
 .data          0x00000000        0x0 c:/program files/microchip/xc32/v2.40/bin/bin/../../lib/gcc/pic32c/6.2.1/../../../../pic32c/lib/v7e-m/fpv4-sp/hard\libc_nano.a(lib_a-calloc.o)
 .bss           0x00000000        0x0 c:/program files/microchip/xc32/v2.40/bin/bin/../../lib/gcc/pic32c/6.2.1/../../../../pic32c/lib/v7e-m/fpv4-sp/hard\libc_nano.a(lib_a-calloc.o)
 .text          0x00000000        0x0 c:/program files/microchip/xc32/v2.40/bin/bin/../../lib/gcc/pic32c/6.2.1/../../../../pic32c/lib/v7e-m/fpv4-sp/hard\libc_nano.a(lib_a-errno.o)
 .data          0x00000000        0x0 c:/program files/microchip/xc32/v2.40/bin/bin/../../lib/gcc/pic32c/6.2.1/../../../../pic32c/lib/v7e-m/fpv4-sp/hard\libc_nano.a(lib_a-errno.o)
 .bss           0x00000000        0x0 c:/program files/microchip/xc32/v2.40/bin/bin/../../lib/gcc/pic32c/6.2.1/../../../../pic32c/lib/v7e-m/fpv4-sp/hard\libc_nano.a(lib_a-errno.o)
 .text.__errno  0x00000000        0xc c:/program files/microchip/xc32/v2.40/bin/bin/../../lib/gcc/pic32c/6.2.1/../../../../pic32c/lib/v7e-m/fpv4-sp/hard\libc_nano.a(lib_a-errno.o)
 .debug_info    0x00000000      0xe2c c:/program files/microchip/xc32/v2.40/bin/bin/../../lib/gcc/pic32c/6.2.1/../../../../pic32c/lib/v7e-m/fpv4-sp/hard\libc_nano.a(lib_a-errno.o)
 .debug_abbrev  0x00000000      0x14f c:/program files/microchip/xc32/v2.40/bin/bin/../../lib/gcc/pic32c/6.2.1/../../../../pic32c/lib/v7e-m/fpv4-sp/hard\libc_nano.a(lib_a-errno.o)
 .debug_aranges
                0x00000000       0x20 c:/program files/microchip/xc32/v2.40/bin/bin/../../lib/gcc/pic32c/6.2.1/../../../../pic32c/lib/v7e-m/fpv4-sp/hard\libc_nano.a(lib_a-errno.o)
 .debug_ranges  0x00000000       0x10 c:/program files/microchip/xc32/v2.40/bin/bin/../../lib/gcc/pic32c/6.2.1/../../../../pic32c/lib/v7e-m/fpv4-sp/hard\libc_nano.a(lib_a-errno.o)
 .debug_line    0x00000000      0x198 c:/program files/microchip/xc32/v2.40/bin/bin/../../lib/gcc/pic32c/6.2.1/../../../../pic32c/lib/v7e-m/fpv4-sp/hard\libc_nano.a(lib_a-errno.o)
 .debug_str     0x00000000        0x9 c:/program files/microchip/xc32/v2.40/bin/bin/../../lib/gcc/pic32c/6.2.1/../../../../pic32c/lib/v7e-m/fpv4-sp/hard\libc_nano.a(lib_a-errno.o)
 .comment       0x00000000       0x3d c:/program files/microchip/xc32/v2.40/bin/bin/../../lib/gcc/pic32c/6.2.1/../../../../pic32c/lib/v7e-m/fpv4-sp/hard\libc_nano.a(lib_a-errno.o)
 .debug_frame   0x00000000       0x20 c:/program files/microchip/xc32/v2.40/bin/bin/../../lib/gcc/pic32c/6.2.1/../../../../pic32c/lib/v7e-m/fpv4-sp/hard\libc_nano.a(lib_a-errno.o)
 .ARM.attributes
                0x00000000       0x34 c:/program files/microchip/xc32/v2.40/bin/bin/../../lib/gcc/pic32c/6.2.1/../../../../pic32c/lib/v7e-m/fpv4-sp/hard\libc_nano.a(lib_a-errno.o)
 .text          0x00000000        0x0 c:/program files/microchip/xc32/v2.40/bin/bin/../../lib/gcc/pic32c/6.2.1/../../../../pic32c/lib/v7e-m/fpv4-sp/hard\libc_nano.a(lib_a-fprintf.o)
 .data          0x00000000        0x0 c:/program files/microchip/xc32/v2.40/bin/bin/../../lib/gcc/pic32c/6.2.1/../../../../pic32c/lib/v7e-m/fpv4-sp/hard\libc_nano.a(lib_a-fprintf.o)
 .bss           0x00000000        0x0 c:/program files/microchip/xc32/v2.40/bin/bin/../../lib/gcc/pic32c/6.2.1/../../../../pic32c/lib/v7e-m/fpv4-sp/hard\libc_nano.a(lib_a-fprintf.o)
 .text._fprintf_r
                0x00000000       0x1a c:/program files/microchip/xc32/v2.40/bin/bin/../../lib/gcc/pic32c/6.2.1/../../../../pic32c/lib/v7e-m/fpv4-sp/hard\libc_nano.a(lib_a-fprintf.o)
 .text.fprintf  0x00000000       0x24 c:/program files/microchip/xc32/v2.40/bin/bin/../../lib/gcc/pic32c/6.2.1/../../../../pic32c/lib/v7e-m/fpv4-sp/hard\libc_nano.a(lib_a-fprintf.o)
 .debug_info    0x00000000      0xfbc c:/program files/microchip/xc32/v2.40/bin/bin/../../lib/gcc/pic32c/6.2.1/../../../../pic32c/lib/v7e-m/fpv4-sp/hard\libc_nano.a(lib_a-fprintf.o)
 .debug_abbrev  0x00000000      0x1c1 c:/program files/microchip/xc32/v2.40/bin/bin/../../lib/gcc/pic32c/6.2.1/../../../../pic32c/lib/v7e-m/fpv4-sp/hard\libc_nano.a(lib_a-fprintf.o)
 .debug_loc     0x00000000      0x10e c:/program files/microchip/xc32/v2.40/bin/bin/../../lib/gcc/pic32c/6.2.1/../../../../pic32c/lib/v7e-m/fpv4-sp/hard\libc_nano.a(lib_a-fprintf.o)
 .debug_aranges
                0x00000000       0x28 c:/program files/microchip/xc32/v2.40/bin/bin/../../lib/gcc/pic32c/6.2.1/../../../../pic32c/lib/v7e-m/fpv4-sp/hard\libc_nano.a(lib_a-fprintf.o)
 .debug_ranges  0x00000000       0x18 c:/program files/microchip/xc32/v2.40/bin/bin/../../lib/gcc/pic32c/6.2.1/../../../../pic32c/lib/v7e-m/fpv4-sp/hard\libc_nano.a(lib_a-fprintf.o)
 .debug_line    0x00000000      0x233 c:/program files/microchip/xc32/v2.40/bin/bin/../../lib/gcc/pic32c/6.2.1/../../../../pic32c/lib/v7e-m/fpv4-sp/hard\libc_nano.a(lib_a-fprintf.o)
 .debug_str     0x00000000       0x15 c:/program files/microchip/xc32/v2.40/bin/bin/../../lib/gcc/pic32c/6.2.1/../../../../pic32c/lib/v7e-m/fpv4-sp/hard\libc_nano.a(lib_a-fprintf.o)
 .comment       0x00000000       0x3d c:/program files/microchip/xc32/v2.40/bin/bin/../../lib/gcc/pic32c/6.2.1/../../../../pic32c/lib/v7e-m/fpv4-sp/hard\libc_nano.a(lib_a-fprintf.o)
 .debug_frame   0x00000000       0x64 c:/program files/microchip/xc32/v2.40/bin/bin/../../lib/gcc/pic32c/6.2.1/../../../../pic32c/lib/v7e-m/fpv4-sp/hard\libc_nano.a(lib_a-fprintf.o)
 .ARM.attributes
                0x00000000       0x34 c:/program files/microchip/xc32/v2.40/bin/bin/../../lib/gcc/pic32c/6.2.1/../../../../pic32c/lib/v7e-m/fpv4-sp/hard\libc_nano.a(lib_a-fprintf.o)
 .text          0x00000000        0x0 c:/program files/microchip/xc32/v2.40/bin/bin/../../lib/gcc/pic32c/6.2.1/../../../../pic32c/lib/v7e-m/fpv4-sp/hard\libc_nano.a(lib_a-impure.o)
 .data          0x00000000        0x0 c:/program files/microchip/xc32/v2.40/bin/bin/../../lib/gcc/pic32c/6.2.1/../../../../pic32c/lib/v7e-m/fpv4-sp/hard\libc_nano.a(lib_a-impure.o)
 .bss           0x00000000        0x0 c:/program files/microchip/xc32/v2.40/bin/bin/../../lib/gcc/pic32c/6.2.1/../../../../pic32c/lib/v7e-m/fpv4-sp/hard\libc_nano.a(lib_a-impure.o)
 .text          0x00000000        0x0 c:/program files/microchip/xc32/v2.40/bin/bin/../../lib/gcc/pic32c/6.2.1/../../../../pic32c/lib/v7e-m/fpv4-sp/hard\libc_nano.a(lib_a-init.o)
 .data          0x00000000        0x0 c:/program files/microchip/xc32/v2.40/bin/bin/../../lib/gcc/pic32c/6.2.1/../../../../pic32c/lib/v7e-m/fpv4-sp/hard\libc_nano.a(lib_a-init.o)
 .bss           0x00000000        0x0 c:/program files/microchip/xc32/v2.40/bin/bin/../../lib/gcc/pic32c/6.2.1/../../../../pic32c/lib/v7e-m/fpv4-sp/hard\libc_nano.a(lib_a-init.o)
 .text          0x00000000        0x0 c:/program files/microchip/xc32/v2.40/bin/bin/../../lib/gcc/pic32c/6.2.1/../../../../pic32c/lib/v7e-m/fpv4-sp/hard\libc_nano.a(lib_a-locale.o)
 .data          0x00000000        0x0 c:/program files/microchip/xc32/v2.40/bin/bin/../../lib/gcc/pic32c/6.2.1/../../../../pic32c/lib/v7e-m/fpv4-sp/hard\libc_nano.a(lib_a-locale.o)
 .bss           0x00000000        0x0 c:/program files/microchip/xc32/v2.40/bin/bin/../../lib/gcc/pic32c/6.2.1/../../../../pic32c/lib/v7e-m/fpv4-sp/hard\libc_nano.a(lib_a-locale.o)
 .text._setlocale_r
                0x00000000       0x38 c:/program files/microchip/xc32/v2.40/bin/bin/../../lib/gcc/pic32c/6.2.1/../../../../pic32c/lib/v7e-m/fpv4-sp/hard\libc_nano.a(lib_a-locale.o)
 .text.setlocale
                0x00000000       0x10 c:/program files/microchip/xc32/v2.40/bin/bin/../../lib/gcc/pic32c/6.2.1/../../../../pic32c/lib/v7e-m/fpv4-sp/hard\libc_nano.a(lib_a-locale.o)
 .bss._PathLocale
                0x00000000        0x4 c:/program files/microchip/xc32/v2.40/bin/bin/../../lib/gcc/pic32c/6.2.1/../../../../pic32c/lib/v7e-m/fpv4-sp/hard\libc_nano.a(lib_a-locale.o)
 .text          0x00000000        0x0 c:/program files/microchip/xc32/v2.40/bin/bin/../../lib/gcc/pic32c/6.2.1/../../../../pic32c/lib/v7e-m/fpv4-sp/hard\libc_nano.a(lib_a-malloc.o)
 .data          0x00000000        0x0 c:/program files/microchip/xc32/v2.40/bin/bin/../../lib/gcc/pic32c/6.2.1/../../../../pic32c/lib/v7e-m/fpv4-sp/hard\libc_nano.a(lib_a-malloc.o)
 .bss           0x00000000        0x0 c:/program files/microchip/xc32/v2.40/bin/bin/../../lib/gcc/pic32c/6.2.1/../../../../pic32c/lib/v7e-m/fpv4-sp/hard\libc_nano.a(lib_a-malloc.o)
 .text          0x00000000        0x0 c:/program files/microchip/xc32/v2.40/bin/bin/../../lib/gcc/pic32c/6.2.1/../../../../pic32c/lib/v7e-m/fpv4-sp/hard\libc_nano.a(lib_a-mbtowc_r.o)
 .data          0x00000000        0x0 c:/program files/microchip/xc32/v2.40/bin/bin/../../lib/gcc/pic32c/6.2.1/../../../../pic32c/lib/v7e-m/fpv4-sp/hard\libc_nano.a(lib_a-mbtowc_r.o)
 .bss           0x00000000        0x0 c:/program files/microchip/xc32/v2.40/bin/bin/../../lib/gcc/pic32c/6.2.1/../../../../pic32c/lib/v7e-m/fpv4-sp/hard\libc_nano.a(lib_a-mbtowc_r.o)
 .text._mbtowc_r
                0x00000000       0x24 c:/program files/microchip/xc32/v2.40/bin/bin/../../lib/gcc/pic32c/6.2.1/../../../../pic32c/lib/v7e-m/fpv4-sp/hard\libc_nano.a(lib_a-mbtowc_r.o)
 .text          0x00000000        0x0 c:/program files/microchip/xc32/v2.40/bin/bin/../../lib/gcc/pic32c/6.2.1/../../../../pic32c/lib/v7e-m/fpv4-sp/hard\libc_nano.a(lib_a-memcmp.o)
 .data          0x00000000        0x0 c:/program files/microchip/xc32/v2.40/bin/bin/../../lib/gcc/pic32c/6.2.1/../../../../pic32c/lib/v7e-m/fpv4-sp/hard\libc_nano.a(lib_a-memcmp.o)
 .bss           0x00000000        0x0 c:/program files/microchip/xc32/v2.40/bin/bin/../../lib/gcc/pic32c/6.2.1/../../../../pic32c/lib/v7e-m/fpv4-sp/hard\libc_nano.a(lib_a-memcmp.o)
 .text          0x00000000        0x0 c:/program files/microchip/xc32/v2.40/bin/bin/../../lib/gcc/pic32c/6.2.1/../../../../pic32c/lib/v7e-m/fpv4-sp/hard\libc_nano.a(lib_a-memcpy-stub.o)
 .data          0x00000000        0x0 c:/program files/microchip/xc32/v2.40/bin/bin/../../lib/gcc/pic32c/6.2.1/../../../../pic32c/lib/v7e-m/fpv4-sp/hard\libc_nano.a(lib_a-memcpy-stub.o)
 .bss           0x00000000        0x0 c:/program files/microchip/xc32/v2.40/bin/bin/../../lib/gcc/pic32c/6.2.1/../../../../pic32c/lib/v7e-m/fpv4-sp/hard\libc_nano.a(lib_a-memcpy-stub.o)
 .text          0x00000000        0x0 c:/program files/microchip/xc32/v2.40/bin/bin/../../lib/gcc/pic32c/6.2.1/../../../../pic32c/lib/v7e-m/fpv4-sp/hard\libc_nano.a(lib_a-memmove.o)
 .data          0x00000000        0x0 c:/program files/microchip/xc32/v2.40/bin/bin/../../lib/gcc/pic32c/6.2.1/../../../../pic32c/lib/v7e-m/fpv4-sp/hard\libc_nano.a(lib_a-memmove.o)
 .bss           0x00000000        0x0 c:/program files/microchip/xc32/v2.40/bin/bin/../../lib/gcc/pic32c/6.2.1/../../../../pic32c/lib/v7e-m/fpv4-sp/hard\libc_nano.a(lib_a-memmove.o)
 .text          0x00000000        0x0 c:/program files/microchip/xc32/v2.40/bin/bin/../../lib/gcc/pic32c/6.2.1/../../../../pic32c/lib/v7e-m/fpv4-sp/hard\libc_nano.a(lib_a-memset.o)
 .data          0x00000000        0x0 c:/program files/microchip/xc32/v2.40/bin/bin/../../lib/gcc/pic32c/6.2.1/../../../../pic32c/lib/v7e-m/fpv4-sp/hard\libc_nano.a(lib_a-memset.o)
 .bss           0x00000000        0x0 c:/program files/microchip/xc32/v2.40/bin/bin/../../lib/gcc/pic32c/6.2.1/../../../../pic32c/lib/v7e-m/fpv4-sp/hard\libc_nano.a(lib_a-memset.o)
 .text          0x00000000        0x0 c:/program files/microchip/xc32/v2.40/bin/bin/../../lib/gcc/pic32c/6.2.1/../../../../pic32c/lib/v7e-m/fpv4-sp/hard\libc_nano.a(lib_a-nano-callocr.o)
 .data          0x00000000        0x0 c:/program files/microchip/xc32/v2.40/bin/bin/../../lib/gcc/pic32c/6.2.1/../../../../pic32c/lib/v7e-m/fpv4-sp/hard\libc_nano.a(lib_a-nano-callocr.o)
 .bss           0x00000000        0x0 c:/program files/microchip/xc32/v2.40/bin/bin/../../lib/gcc/pic32c/6.2.1/../../../../pic32c/lib/v7e-m/fpv4-sp/hard\libc_nano.a(lib_a-nano-callocr.o)
 .text          0x00000000        0x0 c:/program files/microchip/xc32/v2.40/bin/bin/../../lib/gcc/pic32c/6.2.1/../../../../pic32c/lib/v7e-m/fpv4-sp/hard\libc_nano.a(lib_a-nano-freer.o)
 .data          0x00000000        0x0 c:/program files/microchip/xc32/v2.40/bin/bin/../../lib/gcc/pic32c/6.2.1/../../../../pic32c/lib/v7e-m/fpv4-sp/hard\libc_nano.a(lib_a-nano-freer.o)
 .bss           0x00000000        0x0 c:/program files/microchip/xc32/v2.40/bin/bin/../../lib/gcc/pic32c/6.2.1/../../../../pic32c/lib/v7e-m/fpv4-sp/hard\libc_nano.a(lib_a-nano-freer.o)
 .text          0x00000000        0x0 c:/program files/microchip/xc32/v2.40/bin/bin/../../lib/gcc/pic32c/6.2.1/../../../../pic32c/lib/v7e-m/fpv4-sp/hard\libc_nano.a(lib_a-nano-mallocr.o)
 .data          0x00000000        0x0 c:/program files/microchip/xc32/v2.40/bin/bin/../../lib/gcc/pic32c/6.2.1/../../../../pic32c/lib/v7e-m/fpv4-sp/hard\libc_nano.a(lib_a-nano-mallocr.o)
 .bss           0x00000000        0x0 c:/program files/microchip/xc32/v2.40/bin/bin/../../lib/gcc/pic32c/6.2.1/../../../../pic32c/lib/v7e-m/fpv4-sp/hard\libc_nano.a(lib_a-nano-mallocr.o)
 .text          0x00000000        0x0 c:/program files/microchip/xc32/v2.40/bin/bin/../../lib/gcc/pic32c/6.2.1/../../../../pic32c/lib/v7e-m/fpv4-sp/hard\libc_nano.a(lib_a-nano-vfprintf.o)
 .data          0x00000000        0x0 c:/program files/microchip/xc32/v2.40/bin/bin/../../lib/gcc/pic32c/6.2.1/../../../../pic32c/lib/v7e-m/fpv4-sp/hard\libc_nano.a(lib_a-nano-vfprintf.o)
 .bss           0x00000000        0x0 c:/program files/microchip/xc32/v2.40/bin/bin/../../lib/gcc/pic32c/6.2.1/../../../../pic32c/lib/v7e-m/fpv4-sp/hard\libc_nano.a(lib_a-nano-vfprintf.o)
 .text.vfprintf
                0x00000000       0x14 c:/program files/microchip/xc32/v2.40/bin/bin/../../lib/gcc/pic32c/6.2.1/../../../../pic32c/lib/v7e-m/fpv4-sp/hard\libc_nano.a(lib_a-nano-vfprintf.o)
 .text          0x00000000        0x0 c:/program files/microchip/xc32/v2.40/bin/bin/../../lib/gcc/pic32c/6.2.1/../../../../pic32c/lib/v7e-m/fpv4-sp/hard\libc_nano.a(_lib_a-nano-vfprintf.s.o)
 .data          0x00000000        0x0 c:/program files/microchip/xc32/v2.40/bin/bin/../../lib/gcc/pic32c/6.2.1/../../../../pic32c/lib/v7e-m/fpv4-sp/hard\libc_nano.a(_lib_a-nano-vfprintf.s.o)
 .bss           0x00000000        0x0 c:/program files/microchip/xc32/v2.40/bin/bin/../../lib/gcc/pic32c/6.2.1/../../../../pic32c/lib/v7e-m/fpv4-sp/hard\libc_nano.a(_lib_a-nano-vfprintf.s.o)
 .text._vfprintf_r_s
                0x00000000      0x288 c:/program files/microchip/xc32/v2.40/bin/bin/../../lib/gcc/pic32c/6.2.1/../../../../pic32c/lib/v7e-m/fpv4-sp/hard\libc_nano.a(_lib_a-nano-vfprintf.s.o)
 .text._vfprintf_s
                0x00000000       0x14 c:/program files/microchip/xc32/v2.40/bin/bin/../../lib/gcc/pic32c/6.2.1/../../../../pic32c/lib/v7e-m/fpv4-sp/hard\libc_nano.a(_lib_a-nano-vfprintf.s.o)
 .rodata        0x00000000       0x11 c:/program files/microchip/xc32/v2.40/bin/bin/../../lib/gcc/pic32c/6.2.1/../../../../pic32c/lib/v7e-m/fpv4-sp/hard\libc_nano.a(_lib_a-nano-vfprintf.s.o)
 .text          0x00000000        0x0 c:/program files/microchip/xc32/v2.40/bin/bin/../../lib/gcc/pic32c/6.2.1/../../../../pic32c/lib/v7e-m/fpv4-sp/hard\libc_nano.a(lib_a-printf.o)
 .data          0x00000000        0x0 c:/program files/microchip/xc32/v2.40/bin/bin/../../lib/gcc/pic32c/6.2.1/../../../../pic32c/lib/v7e-m/fpv4-sp/hard\libc_nano.a(lib_a-printf.o)
 .bss           0x00000000        0x0 c:/program files/microchip/xc32/v2.40/bin/bin/../../lib/gcc/pic32c/6.2.1/../../../../pic32c/lib/v7e-m/fpv4-sp/hard\libc_nano.a(lib_a-printf.o)
 .text._printf_r
                0x00000000       0x28 c:/program files/microchip/xc32/v2.40/bin/bin/../../lib/gcc/pic32c/6.2.1/../../../../pic32c/lib/v7e-m/fpv4-sp/hard\libc_nano.a(lib_a-printf.o)
 .text          0x00000000        0x0 c:/program files/microchip/xc32/v2.40/bin/bin/../../lib/gcc/pic32c/6.2.1/../../../../pic32c/lib/v7e-m/fpv4-sp/hard\libc_nano.a(lib_a-putchar.o)
 .data          0x00000000        0x0 c:/program files/microchip/xc32/v2.40/bin/bin/../../lib/gcc/pic32c/6.2.1/../../../../pic32c/lib/v7e-m/fpv4-sp/hard\libc_nano.a(lib_a-putchar.o)
 .bss           0x00000000        0x0 c:/program files/microchip/xc32/v2.40/bin/bin/../../lib/gcc/pic32c/6.2.1/../../../../pic32c/lib/v7e-m/fpv4-sp/hard\libc_nano.a(lib_a-putchar.o)
 .text._putchar_r
                0x00000000       0x1e c:/program files/microchip/xc32/v2.40/bin/bin/../../lib/gcc/pic32c/6.2.1/../../../../pic32c/lib/v7e-m/fpv4-sp/hard\libc_nano.a(lib_a-putchar.o)
 .text          0x00000000        0x0 c:/program files/microchip/xc32/v2.40/bin/bin/../../lib/gcc/pic32c/6.2.1/../../../../pic32c/lib/v7e-m/fpv4-sp/hard\libc_nano.a(lib_a-putc.o)
 .data          0x00000000        0x0 c:/program files/microchip/xc32/v2.40/bin/bin/../../lib/gcc/pic32c/6.2.1/../../../../pic32c/lib/v7e-m/fpv4-sp/hard\libc_nano.a(lib_a-putc.o)
 .bss           0x00000000        0x0 c:/program files/microchip/xc32/v2.40/bin/bin/../../lib/gcc/pic32c/6.2.1/../../../../pic32c/lib/v7e-m/fpv4-sp/hard\libc_nano.a(lib_a-putc.o)
 .text.putc     0x00000000       0x10 c:/program files/microchip/xc32/v2.40/bin/bin/../../lib/gcc/pic32c/6.2.1/../../../../pic32c/lib/v7e-m/fpv4-sp/hard\libc_nano.a(lib_a-putc.o)
 .text          0x00000000        0x0 c:/program files/microchip/xc32/v2.40/bin/bin/../../lib/gcc/pic32c/6.2.1/../../../../pic32c/lib/v7e-m/fpv4-sp/hard\libc_nano.a(lib_a-puts.o)
 .data          0x00000000        0x0 c:/program files/microchip/xc32/v2.40/bin/bin/../../lib/gcc/pic32c/6.2.1/../../../../pic32c/lib/v7e-m/fpv4-sp/hard\libc_nano.a(lib_a-puts.o)
 .bss           0x00000000        0x0 c:/program files/microchip/xc32/v2.40/bin/bin/../../lib/gcc/pic32c/6.2.1/../../../../pic32c/lib/v7e-m/fpv4-sp/hard\libc_nano.a(lib_a-puts.o)
 .text          0x00000000        0x0 c:/program files/microchip/xc32/v2.40/bin/bin/../../lib/gcc/pic32c/6.2.1/../../../../pic32c/lib/v7e-m/fpv4-sp/hard\libc_nano.a(lib_a-rand.o)
 .data          0x00000000        0x0 c:/program files/microchip/xc32/v2.40/bin/bin/../../lib/gcc/pic32c/6.2.1/../../../../pic32c/lib/v7e-m/fpv4-sp/hard\libc_nano.a(lib_a-rand.o)
 .bss           0x00000000        0x0 c:/program files/microchip/xc32/v2.40/bin/bin/../../lib/gcc/pic32c/6.2.1/../../../../pic32c/lib/v7e-m/fpv4-sp/hard\libc_nano.a(lib_a-rand.o)
 .text.srand    0x00000000       0x50 c:/program files/microchip/xc32/v2.40/bin/bin/../../lib/gcc/pic32c/6.2.1/../../../../pic32c/lib/v7e-m/fpv4-sp/hard\libc_nano.a(lib_a-rand.o)
 .text          0x00000000        0x0 c:/program files/microchip/xc32/v2.40/bin/bin/../../lib/gcc/pic32c/6.2.1/../../../../pic32c/lib/v7e-m/fpv4-sp/hard\libc_nano.a(lib_a-sbrkr.o)
 .data          0x00000000        0x0 c:/program files/microchip/xc32/v2.40/bin/bin/../../lib/gcc/pic32c/6.2.1/../../../../pic32c/lib/v7e-m/fpv4-sp/hard\libc_nano.a(lib_a-sbrkr.o)
 .bss           0x00000000        0x0 c:/program files/microchip/xc32/v2.40/bin/bin/../../lib/gcc/pic32c/6.2.1/../../../../pic32c/lib/v7e-m/fpv4-sp/hard\libc_nano.a(lib_a-sbrkr.o)
 .text          0x00000000        0x0 c:/program files/microchip/xc32/v2.40/bin/bin/../../lib/gcc/pic32c/6.2.1/../../../../pic32c/lib/v7e-m/fpv4-sp/hard\libc_nano.a(lib_a-snprintf.o)
 .data          0x00000000        0x0 c:/program files/microchip/xc32/v2.40/bin/bin/../../lib/gcc/pic32c/6.2.1/../../../../pic32c/lib/v7e-m/fpv4-sp/hard\libc_nano.a(lib_a-snprintf.o)
 .bss           0x00000000        0x0 c:/program files/microchip/xc32/v2.40/bin/bin/../../lib/gcc/pic32c/6.2.1/../../../../pic32c/lib/v7e-m/fpv4-sp/hard\libc_nano.a(lib_a-snprintf.o)
 .text._snprintf_r
                0x00000000       0x62 c:/program files/microchip/xc32/v2.40/bin/bin/../../lib/gcc/pic32c/6.2.1/../../../../pic32c/lib/v7e-m/fpv4-sp/hard\libc_nano.a(lib_a-snprintf.o)
 .text          0x00000000        0x0 c:/program files/microchip/xc32/v2.40/bin/bin/../../lib/gcc/pic32c/6.2.1/../../../../pic32c/lib/v7e-m/fpv4-sp/hard\libc_nano.a(lib_a-sprintf.o)
 .data          0x00000000        0x0 c:/program files/microchip/xc32/v2.40/bin/bin/../../lib/gcc/pic32c/6.2.1/../../../../pic32c/lib/v7e-m/fpv4-sp/hard\libc_nano.a(lib_a-sprintf.o)
 .bss           0x00000000        0x0 c:/program files/microchip/xc32/v2.40/bin/bin/../../lib/gcc/pic32c/6.2.1/../../../../pic32c/lib/v7e-m/fpv4-sp/hard\libc_nano.a(lib_a-sprintf.o)
 .text._sprintf_r
                0x00000000       0x42 c:/program files/microchip/xc32/v2.40/bin/bin/../../lib/gcc/pic32c/6.2.1/../../../../pic32c/lib/v7e-m/fpv4-sp/hard\libc_nano.a(lib_a-sprintf.o)
 .text          0x00000000        0x0 c:/program files/microchip/xc32/v2.40/bin/bin/../../lib/gcc/pic32c/6.2.1/../../../../pic32c/lib/v7e-m/fpv4-sp/hard\libc_nano.a(_lib_a-sscanf.cdnopsuxX.o)
 .data          0x00000000        0x0 c:/program files/microchip/xc32/v2.40/bin/bin/../../lib/gcc/pic32c/6.2.1/../../../../pic32c/lib/v7e-m/fpv4-sp/hard\libc_nano.a(_lib_a-sscanf.cdnopsuxX.o)
 .bss           0x00000000        0x0 c:/program files/microchip/xc32/v2.40/bin/bin/../../lib/gcc/pic32c/6.2.1/../../../../pic32c/lib/v7e-m/fpv4-sp/hard\libc_nano.a(_lib_a-sscanf.cdnopsuxX.o)
 .text          0x00000000        0x0 c:/program files/microchip/xc32/v2.40/bin/bin/../../lib/gcc/pic32c/6.2.1/../../../../pic32c/lib/v7e-m/fpv4-sp/hard\libc_nano.a(lib_a-__ssfputs.o)
 .data          0x00000000        0x0 c:/program files/microchip/xc32/v2.40/bin/bin/../../lib/gcc/pic32c/6.2.1/../../../../pic32c/lib/v7e-m/fpv4-sp/hard\libc_nano.a(lib_a-__ssfputs.o)
 .bss           0x00000000        0x0 c:/program files/microchip/xc32/v2.40/bin/bin/../../lib/gcc/pic32c/6.2.1/../../../../pic32c/lib/v7e-m/fpv4-sp/hard\libc_nano.a(lib_a-__ssfputs.o)
 .text          0x00000000        0x0 c:/program files/microchip/xc32/v2.40/bin/bin/../../lib/gcc/pic32c/6.2.1/../../../../pic32c/lib/v7e-m/fpv4-sp/hard\libc_nano.a(lib_a-stdio.o)
 .data          0x00000000        0x0 c:/program files/microchip/xc32/v2.40/bin/bin/../../lib/gcc/pic32c/6.2.1/../../../../pic32c/lib/v7e-m/fpv4-sp/hard\libc_nano.a(lib_a-stdio.o)
 .bss           0x00000000        0x0 c:/program files/microchip/xc32/v2.40/bin/bin/../../lib/gcc/pic32c/6.2.1/../../../../pic32c/lib/v7e-m/fpv4-sp/hard\libc_nano.a(lib_a-stdio.o)
 .text          0x00000000        0x0 c:/program files/microchip/xc32/v2.40/bin/bin/../../lib/gcc/pic32c/6.2.1/../../../../pic32c/lib/v7e-m/fpv4-sp/hard\libc_nano.a(lib_a-strchr.o)
 .data          0x00000000        0x0 c:/program files/microchip/xc32/v2.40/bin/bin/../../lib/gcc/pic32c/6.2.1/../../../../pic32c/lib/v7e-m/fpv4-sp/hard\libc_nano.a(lib_a-strchr.o)
 .bss           0x00000000        0x0 c:/program files/microchip/xc32/v2.40/bin/bin/../../lib/gcc/pic32c/6.2.1/../../../../pic32c/lib/v7e-m/fpv4-sp/hard\libc_nano.a(lib_a-strchr.o)
 .text.strchr   0x00000000       0x1c c:/program files/microchip/xc32/v2.40/bin/bin/../../lib/gcc/pic32c/6.2.1/../../../../pic32c/lib/v7e-m/fpv4-sp/hard\libc_nano.a(lib_a-strchr.o)
 .debug_info    0x00000000      0xe2c c:/program files/microchip/xc32/v2.40/bin/bin/../../lib/gcc/pic32c/6.2.1/../../../../pic32c/lib/v7e-m/fpv4-sp/hard\libc_nano.a(lib_a-strchr.o)
 .debug_abbrev  0x00000000      0x168 c:/program files/microchip/xc32/v2.40/bin/bin/../../lib/gcc/pic32c/6.2.1/../../../../pic32c/lib/v7e-m/fpv4-sp/hard\libc_nano.a(lib_a-strchr.o)
 .debug_loc     0x00000000       0x6b c:/program files/microchip/xc32/v2.40/bin/bin/../../lib/gcc/pic32c/6.2.1/../../../../pic32c/lib/v7e-m/fpv4-sp/hard\libc_nano.a(lib_a-strchr.o)
 .debug_aranges
                0x00000000       0x20 c:/program files/microchip/xc32/v2.40/bin/bin/../../lib/gcc/pic32c/6.2.1/../../../../pic32c/lib/v7e-m/fpv4-sp/hard\libc_nano.a(lib_a-strchr.o)
 .debug_ranges  0x00000000       0x10 c:/program files/microchip/xc32/v2.40/bin/bin/../../lib/gcc/pic32c/6.2.1/../../../../pic32c/lib/v7e-m/fpv4-sp/hard\libc_nano.a(lib_a-strchr.o)
 .debug_line    0x00000000      0x208 c:/program files/microchip/xc32/v2.40/bin/bin/../../lib/gcc/pic32c/6.2.1/../../../../pic32c/lib/v7e-m/fpv4-sp/hard\libc_nano.a(lib_a-strchr.o)
 .debug_str     0x00000000        0x9 c:/program files/microchip/xc32/v2.40/bin/bin/../../lib/gcc/pic32c/6.2.1/../../../../pic32c/lib/v7e-m/fpv4-sp/hard\libc_nano.a(lib_a-strchr.o)
 .comment       0x00000000       0x3d c:/program files/microchip/xc32/v2.40/bin/bin/../../lib/gcc/pic32c/6.2.1/../../../../pic32c/lib/v7e-m/fpv4-sp/hard\libc_nano.a(lib_a-strchr.o)
 .debug_frame   0x00000000       0x20 c:/program files/microchip/xc32/v2.40/bin/bin/../../lib/gcc/pic32c/6.2.1/../../../../pic32c/lib/v7e-m/fpv4-sp/hard\libc_nano.a(lib_a-strchr.o)
 .ARM.attributes
                0x00000000       0x34 c:/program files/microchip/xc32/v2.40/bin/bin/../../lib/gcc/pic32c/6.2.1/../../../../pic32c/lib/v7e-m/fpv4-sp/hard\libc_nano.a(lib_a-strchr.o)
 .data          0x00000000        0x0 c:/program files/microchip/xc32/v2.40/bin/bin/../../lib/gcc/pic32c/6.2.1/../../../../pic32c/lib/v7e-m/fpv4-sp/hard\libc_nano.a(lib_a-strcmp.o)
 .bss           0x00000000        0x0 c:/program files/microchip/xc32/v2.40/bin/bin/../../lib/gcc/pic32c/6.2.1/../../../../pic32c/lib/v7e-m/fpv4-sp/hard\libc_nano.a(lib_a-strcmp.o)
 .text          0x00000000        0x0 c:/program files/microchip/xc32/v2.40/bin/bin/../../lib/gcc/pic32c/6.2.1/../../../../pic32c/lib/v7e-m/fpv4-sp/hard\libc_nano.a(lib_a-strcpy.o)
 .data          0x00000000        0x0 c:/program files/microchip/xc32/v2.40/bin/bin/../../lib/gcc/pic32c/6.2.1/../../../../pic32c/lib/v7e-m/fpv4-sp/hard\libc_nano.a(lib_a-strcpy.o)
 .bss           0x00000000        0x0 c:/program files/microchip/xc32/v2.40/bin/bin/../../lib/gcc/pic32c/6.2.1/../../../../pic32c/lib/v7e-m/fpv4-sp/hard\libc_nano.a(lib_a-strcpy.o)
 .data          0x00000000        0x0 c:/program files/microchip/xc32/v2.40/bin/bin/../../lib/gcc/pic32c/6.2.1/../../../../pic32c/lib/v7e-m/fpv4-sp/hard\libc_nano.a(lib_a-strlen.o)
 .bss           0x00000000        0x0 c:/program files/microchip/xc32/v2.40/bin/bin/../../lib/gcc/pic32c/6.2.1/../../../../pic32c/lib/v7e-m/fpv4-sp/hard\libc_nano.a(lib_a-strlen.o)
 .text          0x00000000        0x0 c:/program files/microchip/xc32/v2.40/bin/bin/../../lib/gcc/pic32c/6.2.1/../../../../pic32c/lib/v7e-m/fpv4-sp/hard\libc_nano.a(lib_a-strncmp.o)
 .data          0x00000000        0x0 c:/program files/microchip/xc32/v2.40/bin/bin/../../lib/gcc/pic32c/6.2.1/../../../../pic32c/lib/v7e-m/fpv4-sp/hard\libc_nano.a(lib_a-strncmp.o)
 .bss           0x00000000        0x0 c:/program files/microchip/xc32/v2.40/bin/bin/../../lib/gcc/pic32c/6.2.1/../../../../pic32c/lib/v7e-m/fpv4-sp/hard\libc_nano.a(lib_a-strncmp.o)
 .text          0x00000000        0x0 c:/program files/microchip/xc32/v2.40/bin/bin/../../lib/gcc/pic32c/6.2.1/../../../../pic32c/lib/v7e-m/fpv4-sp/hard\libc_nano.a(lib_a-strncpy.o)
 .data          0x00000000        0x0 c:/program files/microchip/xc32/v2.40/bin/bin/../../lib/gcc/pic32c/6.2.1/../../../../pic32c/lib/v7e-m/fpv4-sp/hard\libc_nano.a(lib_a-strncpy.o)
 .bss           0x00000000        0x0 c:/program files/microchip/xc32/v2.40/bin/bin/../../lib/gcc/pic32c/6.2.1/../../../../pic32c/lib/v7e-m/fpv4-sp/hard\libc_nano.a(lib_a-strncpy.o)
 .text          0x00000000        0x0 c:/program files/microchip/xc32/v2.40/bin/bin/../../lib/gcc/pic32c/6.2.1/../../../../pic32c/lib/v7e-m/fpv4-sp/hard\libc_nano.a(lib_a-strstr.o)
 .data          0x00000000        0x0 c:/program files/microchip/xc32/v2.40/bin/bin/../../lib/gcc/pic32c/6.2.1/../../../../pic32c/lib/v7e-m/fpv4-sp/hard\libc_nano.a(lib_a-strstr.o)
 .bss           0x00000000        0x0 c:/program files/microchip/xc32/v2.40/bin/bin/../../lib/gcc/pic32c/6.2.1/../../../../pic32c/lib/v7e-m/fpv4-sp/hard\libc_nano.a(lib_a-strstr.o)
 .text          0x00000000        0x0 c:/program files/microchip/xc32/v2.40/bin/bin/../../lib/gcc/pic32c/6.2.1/../../../../pic32c/lib/v7e-m/fpv4-sp/hard\libc_nano.a(lib_a-strtol.o)
 .data          0x00000000        0x0 c:/program files/microchip/xc32/v2.40/bin/bin/../../lib/gcc/pic32c/6.2.1/../../../../pic32c/lib/v7e-m/fpv4-sp/hard\libc_nano.a(lib_a-strtol.o)
 .bss           0x00000000        0x0 c:/program files/microchip/xc32/v2.40/bin/bin/../../lib/gcc/pic32c/6.2.1/../../../../pic32c/lib/v7e-m/fpv4-sp/hard\libc_nano.a(lib_a-strtol.o)
 .text.strtol_l
                0x00000000       0x1c c:/program files/microchip/xc32/v2.40/bin/bin/../../lib/gcc/pic32c/6.2.1/../../../../pic32c/lib/v7e-m/fpv4-sp/hard\libc_nano.a(lib_a-strtol.o)
 .text          0x00000000        0x0 c:/program files/microchip/xc32/v2.40/bin/bin/../../lib/gcc/pic32c/6.2.1/../../../../pic32c/lib/v7e-m/fpv4-sp/hard\libc_nano.a(lib_a-strtoul.o)
 .data          0x00000000        0x0 c:/program files/microchip/xc32/v2.40/bin/bin/../../lib/gcc/pic32c/6.2.1/../../../../pic32c/lib/v7e-m/fpv4-sp/hard\libc_nano.a(lib_a-strtoul.o)
 .bss           0x00000000        0x0 c:/program files/microchip/xc32/v2.40/bin/bin/../../lib/gcc/pic32c/6.2.1/../../../../pic32c/lib/v7e-m/fpv4-sp/hard\libc_nano.a(lib_a-strtoul.o)
 .text.strtoul_l
                0x00000000       0x1c c:/program files/microchip/xc32/v2.40/bin/bin/../../lib/gcc/pic32c/6.2.1/../../../../pic32c/lib/v7e-m/fpv4-sp/hard\libc_nano.a(lib_a-strtoul.o)
 .text.strtoul  0x00000000       0x2c c:/program files/microchip/xc32/v2.40/bin/bin/../../lib/gcc/pic32c/6.2.1/../../../../pic32c/lib/v7e-m/fpv4-sp/hard\libc_nano.a(lib_a-strtoul.o)
 .text          0x00000000        0x0 c:/program files/microchip/xc32/v2.40/bin/bin/../../lib/gcc/pic32c/6.2.1/../../../../pic32c/lib/v7e-m/fpv4-sp/hard\libc_nano.a(lib_a-vsnprintf.o)
 .data          0x00000000        0x0 c:/program files/microchip/xc32/v2.40/bin/bin/../../lib/gcc/pic32c/6.2.1/../../../../pic32c/lib/v7e-m/fpv4-sp/hard\libc_nano.a(lib_a-vsnprintf.o)
 .bss           0x00000000        0x0 c:/program files/microchip/xc32/v2.40/bin/bin/../../lib/gcc/pic32c/6.2.1/../../../../pic32c/lib/v7e-m/fpv4-sp/hard\libc_nano.a(lib_a-vsnprintf.o)
 .text          0x00000000        0x0 c:/program files/microchip/xc32/v2.40/bin/bin/../../lib/gcc/pic32c/6.2.1/../../../../pic32c/lib/v7e-m/fpv4-sp/hard\libc_nano.a(lib_a-wbuf.o)
 .data          0x00000000        0x0 c:/program files/microchip/xc32/v2.40/bin/bin/../../lib/gcc/pic32c/6.2.1/../../../../pic32c/lib/v7e-m/fpv4-sp/hard\libc_nano.a(lib_a-wbuf.o)
 .bss           0x00000000        0x0 c:/program files/microchip/xc32/v2.40/bin/bin/../../lib/gcc/pic32c/6.2.1/../../../../pic32c/lib/v7e-m/fpv4-sp/hard\libc_nano.a(lib_a-wbuf.o)
 .text.__swbuf  0x00000000       0x10 c:/program files/microchip/xc32/v2.40/bin/bin/../../lib/gcc/pic32c/6.2.1/../../../../pic32c/lib/v7e-m/fpv4-sp/hard\libc_nano.a(lib_a-wbuf.o)
 .text          0x00000000        0x0 c:/program files/microchip/xc32/v2.40/bin/bin/../../lib/gcc/pic32c/6.2.1/../../../../pic32c/lib/v7e-m/fpv4-sp/hard\libc_nano.a(lib_a-wctomb_r.o)
 .data          0x00000000        0x0 c:/program files/microchip/xc32/v2.40/bin/bin/../../lib/gcc/pic32c/6.2.1/../../../../pic32c/lib/v7e-m/fpv4-sp/hard\libc_nano.a(lib_a-wctomb_r.o)
 .bss           0x00000000        0x0 c:/program files/microchip/xc32/v2.40/bin/bin/../../lib/gcc/pic32c/6.2.1/../../../../pic32c/lib/v7e-m/fpv4-sp/hard\libc_nano.a(lib_a-wctomb_r.o)
 .text._wctomb_r
                0x00000000       0x24 c:/program files/microchip/xc32/v2.40/bin/bin/../../lib/gcc/pic32c/6.2.1/../../../../pic32c/lib/v7e-m/fpv4-sp/hard\libc_nano.a(lib_a-wctomb_r.o)
 .text          0x00000000        0x0 c:/program files/microchip/xc32/v2.40/bin/bin/../../lib/gcc/pic32c/6.2.1/../../../../pic32c/lib/v7e-m/fpv4-sp/hard\libc_nano.a(lib_a-writer.o)
 .data          0x00000000        0x0 c:/program files/microchip/xc32/v2.40/bin/bin/../../lib/gcc/pic32c/6.2.1/../../../../pic32c/lib/v7e-m/fpv4-sp/hard\libc_nano.a(lib_a-writer.o)
 .bss           0x00000000        0x0 c:/program files/microchip/xc32/v2.40/bin/bin/../../lib/gcc/pic32c/6.2.1/../../../../pic32c/lib/v7e-m/fpv4-sp/hard\libc_nano.a(lib_a-writer.o)
 .text          0x00000000        0x0 c:/program files/microchip/xc32/v2.40/bin/bin/../../lib/gcc/pic32c/6.2.1/../../../../pic32c/lib/v7e-m/fpv4-sp/hard\libc_nano.a(lib_a-wsetup.o)
 .data          0x00000000        0x0 c:/program files/microchip/xc32/v2.40/bin/bin/../../lib/gcc/pic32c/6.2.1/../../../../pic32c/lib/v7e-m/fpv4-sp/hard\libc_nano.a(lib_a-wsetup.o)
 .bss           0x00000000        0x0 c:/program files/microchip/xc32/v2.40/bin/bin/../../lib/gcc/pic32c/6.2.1/../../../../pic32c/lib/v7e-m/fpv4-sp/hard\libc_nano.a(lib_a-wsetup.o)
 .text          0x00000000        0x0 c:/program files/microchip/xc32/v2.40/bin/bin/../../lib/gcc/pic32c/6.2.1/../../../../pic32c/lib/v7e-m/fpv4-sp/hard\libc_nano.a(lib_a-abort.o)
 .data          0x00000000        0x0 c:/program files/microchip/xc32/v2.40/bin/bin/../../lib/gcc/pic32c/6.2.1/../../../../pic32c/lib/v7e-m/fpv4-sp/hard\libc_nano.a(lib_a-abort.o)
 .bss           0x00000000        0x0 c:/program files/microchip/xc32/v2.40/bin/bin/../../lib/gcc/pic32c/6.2.1/../../../../pic32c/lib/v7e-m/fpv4-sp/hard\libc_nano.a(lib_a-abort.o)
 .text.abort    0x00000000        0xe c:/program files/microchip/xc32/v2.40/bin/bin/../../lib/gcc/pic32c/6.2.1/../../../../pic32c/lib/v7e-m/fpv4-sp/hard\libc_nano.a(lib_a-abort.o)
 .debug_info    0x00000000      0xeaa c:/program files/microchip/xc32/v2.40/bin/bin/../../lib/gcc/pic32c/6.2.1/../../../../pic32c/lib/v7e-m/fpv4-sp/hard\libc_nano.a(lib_a-abort.o)
 .debug_abbrev  0x00000000      0x183 c:/program files/microchip/xc32/v2.40/bin/bin/../../lib/gcc/pic32c/6.2.1/../../../../pic32c/lib/v7e-m/fpv4-sp/hard\libc_nano.a(lib_a-abort.o)
 .debug_loc     0x00000000       0x20 c:/program files/microchip/xc32/v2.40/bin/bin/../../lib/gcc/pic32c/6.2.1/../../../../pic32c/lib/v7e-m/fpv4-sp/hard\libc_nano.a(lib_a-abort.o)
 .debug_aranges
                0x00000000       0x20 c:/program files/microchip/xc32/v2.40/bin/bin/../../lib/gcc/pic32c/6.2.1/../../../../pic32c/lib/v7e-m/fpv4-sp/hard\libc_nano.a(lib_a-abort.o)
 .debug_ranges  0x00000000       0x10 c:/program files/microchip/xc32/v2.40/bin/bin/../../lib/gcc/pic32c/6.2.1/../../../../pic32c/lib/v7e-m/fpv4-sp/hard\libc_nano.a(lib_a-abort.o)
 .debug_line    0x00000000      0x218 c:/program files/microchip/xc32/v2.40/bin/bin/../../lib/gcc/pic32c/6.2.1/../../../../pic32c/lib/v7e-m/fpv4-sp/hard\libc_nano.a(lib_a-abort.o)
 .debug_str     0x00000000        0x9 c:/program files/microchip/xc32/v2.40/bin/bin/../../lib/gcc/pic32c/6.2.1/../../../../pic32c/lib/v7e-m/fpv4-sp/hard\libc_nano.a(lib_a-abort.o)
 .comment       0x00000000       0x3d c:/program files/microchip/xc32/v2.40/bin/bin/../../lib/gcc/pic32c/6.2.1/../../../../pic32c/lib/v7e-m/fpv4-sp/hard\libc_nano.a(lib_a-abort.o)
 .debug_frame   0x00000000       0x28 c:/program files/microchip/xc32/v2.40/bin/bin/../../lib/gcc/pic32c/6.2.1/../../../../pic32c/lib/v7e-m/fpv4-sp/hard\libc_nano.a(lib_a-abort.o)
 .ARM.attributes
                0x00000000       0x34 c:/program files/microchip/xc32/v2.40/bin/bin/../../lib/gcc/pic32c/6.2.1/../../../../pic32c/lib/v7e-m/fpv4-sp/hard\libc_nano.a(lib_a-abort.o)
 .text          0x00000000        0x0 c:/program files/microchip/xc32/v2.40/bin/bin/../../lib/gcc/pic32c/6.2.1/../../../../pic32c/lib/v7e-m/fpv4-sp/hard\libc_nano.a(lib_a-closer.o)
 .data          0x00000000        0x0 c:/program files/microchip/xc32/v2.40/bin/bin/../../lib/gcc/pic32c/6.2.1/../../../../pic32c/lib/v7e-m/fpv4-sp/hard\libc_nano.a(lib_a-closer.o)
 .bss           0x00000000        0x0 c:/program files/microchip/xc32/v2.40/bin/bin/../../lib/gcc/pic32c/6.2.1/../../../../pic32c/lib/v7e-m/fpv4-sp/hard\libc_nano.a(lib_a-closer.o)
 .text          0x00000000        0x0 c:/program files/microchip/xc32/v2.40/bin/bin/../../lib/gcc/pic32c/6.2.1/../../../../pic32c/lib/v7e-m/fpv4-sp/hard\libc_nano.a(lib_a-ctype_.o)
 .data          0x00000000        0x0 c:/program files/microchip/xc32/v2.40/bin/bin/../../lib/gcc/pic32c/6.2.1/../../../../pic32c/lib/v7e-m/fpv4-sp/hard\libc_nano.a(lib_a-ctype_.o)
 .bss           0x00000000        0x0 c:/program files/microchip/xc32/v2.40/bin/bin/../../lib/gcc/pic32c/6.2.1/../../../../pic32c/lib/v7e-m/fpv4-sp/hard\libc_nano.a(lib_a-ctype_.o)
 .text          0x00000000        0x0 c:/program files/microchip/xc32/v2.40/bin/bin/../../lib/gcc/pic32c/6.2.1/../../../../pic32c/lib/v7e-m/fpv4-sp/hard\libc_nano.a(lib_a-fflush.o)
 .data          0x00000000        0x0 c:/program files/microchip/xc32/v2.40/bin/bin/../../lib/gcc/pic32c/6.2.1/../../../../pic32c/lib/v7e-m/fpv4-sp/hard\libc_nano.a(lib_a-fflush.o)
 .bss           0x00000000        0x0 c:/program files/microchip/xc32/v2.40/bin/bin/../../lib/gcc/pic32c/6.2.1/../../../../pic32c/lib/v7e-m/fpv4-sp/hard\libc_nano.a(lib_a-fflush.o)
 .text          0x00000000        0x0 c:/program files/microchip/xc32/v2.40/bin/bin/../../lib/gcc/pic32c/6.2.1/../../../../pic32c/lib/v7e-m/fpv4-sp/hard\libc_nano.a(lib_a-findfp.o)
 .data          0x00000000        0x0 c:/program files/microchip/xc32/v2.40/bin/bin/../../lib/gcc/pic32c/6.2.1/../../../../pic32c/lib/v7e-m/fpv4-sp/hard\libc_nano.a(lib_a-findfp.o)
 .bss           0x00000000        0x0 c:/program files/microchip/xc32/v2.40/bin/bin/../../lib/gcc/pic32c/6.2.1/../../../../pic32c/lib/v7e-m/fpv4-sp/hard\libc_nano.a(lib_a-findfp.o)
 .text._cleanup
                0x00000000        0xc c:/program files/microchip/xc32/v2.40/bin/bin/../../lib/gcc/pic32c/6.2.1/../../../../pic32c/lib/v7e-m/fpv4-sp/hard\libc_nano.a(lib_a-findfp.o)
 .text          0x00000000        0x0 c:/program files/microchip/xc32/v2.40/bin/bin/../../lib/gcc/pic32c/6.2.1/../../../../pic32c/lib/v7e-m/fpv4-sp/hard\libc_nano.a(lib_a-fputwc.o)
 .data          0x00000000        0x0 c:/program files/microchip/xc32/v2.40/bin/bin/../../lib/gcc/pic32c/6.2.1/../../../../pic32c/lib/v7e-m/fpv4-sp/hard\libc_nano.a(lib_a-fputwc.o)
 .bss           0x00000000        0x0 c:/program files/microchip/xc32/v2.40/bin/bin/../../lib/gcc/pic32c/6.2.1/../../../../pic32c/lib/v7e-m/fpv4-sp/hard\libc_nano.a(lib_a-fputwc.o)
 .text.fputwc   0x00000000       0x50 c:/program files/microchip/xc32/v2.40/bin/bin/../../lib/gcc/pic32c/6.2.1/../../../../pic32c/lib/v7e-m/fpv4-sp/hard\libc_nano.a(lib_a-fputwc.o)
 .text          0x00000000        0x0 c:/program files/microchip/xc32/v2.40/bin/bin/../../lib/gcc/pic32c/6.2.1/../../../../pic32c/lib/v7e-m/fpv4-sp/hard\libc_nano.a(lib_a-fwalk.o)
 .data          0x00000000        0x0 c:/program files/microchip/xc32/v2.40/bin/bin/../../lib/gcc/pic32c/6.2.1/../../../../pic32c/lib/v7e-m/fpv4-sp/hard\libc_nano.a(lib_a-fwalk.o)
 .bss           0x00000000        0x0 c:/program files/microchip/xc32/v2.40/bin/bin/../../lib/gcc/pic32c/6.2.1/../../../../pic32c/lib/v7e-m/fpv4-sp/hard\libc_nano.a(lib_a-fwalk.o)
 .text          0x00000000        0x0 c:/program files/microchip/xc32/v2.40/bin/bin/../../lib/gcc/pic32c/6.2.1/../../../../pic32c/lib/v7e-m/fpv4-sp/hard\libc_nano.a(lib_a-lseekr.o)
 .data          0x00000000        0x0 c:/program files/microchip/xc32/v2.40/bin/bin/../../lib/gcc/pic32c/6.2.1/../../../../pic32c/lib/v7e-m/fpv4-sp/hard\libc_nano.a(lib_a-lseekr.o)
 .bss           0x00000000        0x0 c:/program files/microchip/xc32/v2.40/bin/bin/../../lib/gcc/pic32c/6.2.1/../../../../pic32c/lib/v7e-m/fpv4-sp/hard\libc_nano.a(lib_a-lseekr.o)
 .text          0x00000000        0x0 c:/program files/microchip/xc32/v2.40/bin/bin/../../lib/gcc/pic32c/6.2.1/../../../../pic32c/lib/v7e-m/fpv4-sp/hard\libc_nano.a(lib_a-makebuf.o)
 .data          0x00000000        0x0 c:/program files/microchip/xc32/v2.40/bin/bin/../../lib/gcc/pic32c/6.2.1/../../../../pic32c/lib/v7e-m/fpv4-sp/hard\libc_nano.a(lib_a-makebuf.o)
 .bss           0x00000000        0x0 c:/program files/microchip/xc32/v2.40/bin/bin/../../lib/gcc/pic32c/6.2.1/../../../../pic32c/lib/v7e-m/fpv4-sp/hard\libc_nano.a(lib_a-makebuf.o)
 .data          0x00000000        0x0 c:/program files/microchip/xc32/v2.40/bin/bin/../../lib/gcc/pic32c/6.2.1/../../../../pic32c/lib/v7e-m/fpv4-sp/hard\libc_nano.a(lib_a-memchr.o)
 .bss           0x00000000        0x0 c:/program files/microchip/xc32/v2.40/bin/bin/../../lib/gcc/pic32c/6.2.1/../../../../pic32c/lib/v7e-m/fpv4-sp/hard\libc_nano.a(lib_a-memchr.o)
 .text          0x00000000        0x0 c:/program files/microchip/xc32/v2.40/bin/bin/../../lib/gcc/pic32c/6.2.1/../../../../pic32c/lib/v7e-m/fpv4-sp/hard\libc_nano.a(lib_a-mlock.o)
 .data          0x00000000        0x0 c:/program files/microchip/xc32/v2.40/bin/bin/../../lib/gcc/pic32c/6.2.1/../../../../pic32c/lib/v7e-m/fpv4-sp/hard\libc_nano.a(lib_a-mlock.o)
 .bss           0x00000000        0x0 c:/program files/microchip/xc32/v2.40/bin/bin/../../lib/gcc/pic32c/6.2.1/../../../../pic32c/lib/v7e-m/fpv4-sp/hard\libc_nano.a(lib_a-mlock.o)
 .text          0x00000000        0x0 c:/program files/microchip/xc32/v2.40/bin/bin/../../lib/gcc/pic32c/6.2.1/../../../../pic32c/lib/v7e-m/fpv4-sp/hard\libc_nano.a(lib_a-nano-svfprintf.o)
 .data          0x00000000        0x0 c:/program files/microchip/xc32/v2.40/bin/bin/../../lib/gcc/pic32c/6.2.1/../../../../pic32c/lib/v7e-m/fpv4-sp/hard\libc_nano.a(lib_a-nano-svfprintf.o)
 .bss           0x00000000        0x0 c:/program files/microchip/xc32/v2.40/bin/bin/../../lib/gcc/pic32c/6.2.1/../../../../pic32c/lib/v7e-m/fpv4-sp/hard\libc_nano.a(lib_a-nano-svfprintf.o)
 .text          0x00000000        0x0 c:/program files/microchip/xc32/v2.40/bin/bin/../../lib/gcc/pic32c/6.2.1/../../../../pic32c/lib/v7e-m/fpv4-sp/hard\libc_nano.a(lib_a-nano-vfprintf_i.o)
 .data          0x00000000        0x0 c:/program files/microchip/xc32/v2.40/bin/bin/../../lib/gcc/pic32c/6.2.1/../../../../pic32c/lib/v7e-m/fpv4-sp/hard\libc_nano.a(lib_a-nano-vfprintf_i.o)
 .bss           0x00000000        0x0 c:/program files/microchip/xc32/v2.40/bin/bin/../../lib/gcc/pic32c/6.2.1/../../../../pic32c/lib/v7e-m/fpv4-sp/hard\libc_nano.a(lib_a-nano-vfprintf_i.o)
 .text          0x00000000        0x0 c:/program files/microchip/xc32/v2.40/bin/bin/../../lib/gcc/pic32c/6.2.1/../../../../pic32c/lib/v7e-m/fpv4-sp/hard\libc_nano.a(_lib_a-nano-vfscanf.cdnopsuxX.o)
 .data          0x00000000        0x0 c:/program files/microchip/xc32/v2.40/bin/bin/../../lib/gcc/pic32c/6.2.1/../../../../pic32c/lib/v7e-m/fpv4-sp/hard\libc_nano.a(_lib_a-nano-vfscanf.cdnopsuxX.o)
 .bss           0x00000000        0x0 c:/program files/microchip/xc32/v2.40/bin/bin/../../lib/gcc/pic32c/6.2.1/../../../../pic32c/lib/v7e-m/fpv4-sp/hard\libc_nano.a(_lib_a-nano-vfscanf.cdnopsuxX.o)
 .text.__scanf_float
                0x00000000        0x4 c:/program files/microchip/xc32/v2.40/bin/bin/../../lib/gcc/pic32c/6.2.1/../../../../pic32c/lib/v7e-m/fpv4-sp/hard\libc_nano.a(_lib_a-nano-vfscanf.cdnopsuxX.o)
 .text.__vfscanf_r_cdnopsuxX
                0x00000000       0x50 c:/program files/microchip/xc32/v2.40/bin/bin/../../lib/gcc/pic32c/6.2.1/../../../../pic32c/lib/v7e-m/fpv4-sp/hard\libc_nano.a(_lib_a-nano-vfscanf.cdnopsuxX.o)
 .text          0x00000000        0x0 c:/program files/microchip/xc32/v2.40/bin/bin/../../lib/gcc/pic32c/6.2.1/../../../../pic32c/lib/v7e-m/fpv4-sp/hard\libc_nano.a(lib_a-readr.o)
 .data          0x00000000        0x0 c:/program files/microchip/xc32/v2.40/bin/bin/../../lib/gcc/pic32c/6.2.1/../../../../pic32c/lib/v7e-m/fpv4-sp/hard\libc_nano.a(lib_a-readr.o)
 .bss           0x00000000        0x0 c:/program files/microchip/xc32/v2.40/bin/bin/../../lib/gcc/pic32c/6.2.1/../../../../pic32c/lib/v7e-m/fpv4-sp/hard\libc_nano.a(lib_a-readr.o)
 .text          0x00000000        0x0 c:/program files/microchip/xc32/v2.40/bin/bin/../../lib/gcc/pic32c/6.2.1/../../../../pic32c/lib/v7e-m/fpv4-sp/hard\libc_nano.a(lib_a-reent.o)
 .data          0x00000000        0x0 c:/program files/microchip/xc32/v2.40/bin/bin/../../lib/gcc/pic32c/6.2.1/../../../../pic32c/lib/v7e-m/fpv4-sp/hard\libc_nano.a(lib_a-reent.o)
 .bss           0x00000000        0x0 c:/program files/microchip/xc32/v2.40/bin/bin/../../lib/gcc/pic32c/6.2.1/../../../../pic32c/lib/v7e-m/fpv4-sp/hard\libc_nano.a(lib_a-reent.o)
 .text.cleanup_glue
                0x00000000       0x1a c:/program files/microchip/xc32/v2.40/bin/bin/../../lib/gcc/pic32c/6.2.1/../../../../pic32c/lib/v7e-m/fpv4-sp/hard\libc_nano.a(lib_a-reent.o)
 .text._reclaim_reent
                0x00000000       0xb8 c:/program files/microchip/xc32/v2.40/bin/bin/../../lib/gcc/pic32c/6.2.1/../../../../pic32c/lib/v7e-m/fpv4-sp/hard\libc_nano.a(lib_a-reent.o)
 .text          0x00000000        0x0 c:/program files/microchip/xc32/v2.40/bin/bin/../../lib/gcc/pic32c/6.2.1/../../../../pic32c/lib/v7e-m/fpv4-sp/hard\libc_nano.a(lib_a-refill.o)
 .data          0x00000000        0x0 c:/program files/microchip/xc32/v2.40/bin/bin/../../lib/gcc/pic32c/6.2.1/../../../../pic32c/lib/v7e-m/fpv4-sp/hard\libc_nano.a(lib_a-refill.o)
 .bss           0x00000000        0x0 c:/program files/microchip/xc32/v2.40/bin/bin/../../lib/gcc/pic32c/6.2.1/../../../../pic32c/lib/v7e-m/fpv4-sp/hard\libc_nano.a(lib_a-refill.o)
 .text          0x00000000        0x0 c:/program files/microchip/xc32/v2.40/bin/bin/../../lib/gcc/pic32c/6.2.1/../../../../pic32c/lib/v7e-m/fpv4-sp/hard\libc_nano.a(lib_a-sccl.o)
 .data          0x00000000        0x0 c:/program files/microchip/xc32/v2.40/bin/bin/../../lib/gcc/pic32c/6.2.1/../../../../pic32c/lib/v7e-m/fpv4-sp/hard\libc_nano.a(lib_a-sccl.o)
 .bss           0x00000000        0x0 c:/program files/microchip/xc32/v2.40/bin/bin/../../lib/gcc/pic32c/6.2.1/../../../../pic32c/lib/v7e-m/fpv4-sp/hard\libc_nano.a(lib_a-sccl.o)
 .text          0x00000000        0x0 c:/program files/microchip/xc32/v2.40/bin/bin/../../lib/gcc/pic32c/6.2.1/../../../../pic32c/lib/v7e-m/fpv4-sp/hard\libc_nano.a(lib_a-signal.o)
 .data          0x00000000        0x0 c:/program files/microchip/xc32/v2.40/bin/bin/../../lib/gcc/pic32c/6.2.1/../../../../pic32c/lib/v7e-m/fpv4-sp/hard\libc_nano.a(lib_a-signal.o)
 .bss           0x00000000        0x0 c:/program files/microchip/xc32/v2.40/bin/bin/../../lib/gcc/pic32c/6.2.1/../../../../pic32c/lib/v7e-m/fpv4-sp/hard\libc_nano.a(lib_a-signal.o)
 .text._init_signal_r
                0x00000000       0x2a c:/program files/microchip/xc32/v2.40/bin/bin/../../lib/gcc/pic32c/6.2.1/../../../../pic32c/lib/v7e-m/fpv4-sp/hard\libc_nano.a(lib_a-signal.o)
 .text._signal_r
                0x00000000       0x30 c:/program files/microchip/xc32/v2.40/bin/bin/../../lib/gcc/pic32c/6.2.1/../../../../pic32c/lib/v7e-m/fpv4-sp/hard\libc_nano.a(lib_a-signal.o)
 .text._raise_r
                0x00000000       0x50 c:/program files/microchip/xc32/v2.40/bin/bin/../../lib/gcc/pic32c/6.2.1/../../../../pic32c/lib/v7e-m/fpv4-sp/hard\libc_nano.a(lib_a-signal.o)
 .text.__sigtramp_r
                0x00000000       0x48 c:/program files/microchip/xc32/v2.40/bin/bin/../../lib/gcc/pic32c/6.2.1/../../../../pic32c/lib/v7e-m/fpv4-sp/hard\libc_nano.a(lib_a-signal.o)
 .text.raise    0x00000000       0x10 c:/program files/microchip/xc32/v2.40/bin/bin/../../lib/gcc/pic32c/6.2.1/../../../../pic32c/lib/v7e-m/fpv4-sp/hard\libc_nano.a(lib_a-signal.o)
 .text.signal   0x00000000       0x10 c:/program files/microchip/xc32/v2.40/bin/bin/../../lib/gcc/pic32c/6.2.1/../../../../pic32c/lib/v7e-m/fpv4-sp/hard\libc_nano.a(lib_a-signal.o)
 .text._init_signal
                0x00000000        0xc c:/program files/microchip/xc32/v2.40/bin/bin/../../lib/gcc/pic32c/6.2.1/../../../../pic32c/lib/v7e-m/fpv4-sp/hard\libc_nano.a(lib_a-signal.o)
 .text.__sigtramp
                0x00000000       0x10 c:/program files/microchip/xc32/v2.40/bin/bin/../../lib/gcc/pic32c/6.2.1/../../../../pic32c/lib/v7e-m/fpv4-sp/hard\libc_nano.a(lib_a-signal.o)
 .debug_info    0x00000000     0x11a4 c:/program files/microchip/xc32/v2.40/bin/bin/../../lib/gcc/pic32c/6.2.1/../../../../pic32c/lib/v7e-m/fpv4-sp/hard\libc_nano.a(lib_a-signal.o)
 .debug_abbrev  0x00000000      0x288 c:/program files/microchip/xc32/v2.40/bin/bin/../../lib/gcc/pic32c/6.2.1/../../../../pic32c/lib/v7e-m/fpv4-sp/hard\libc_nano.a(lib_a-signal.o)
 .debug_loc     0x00000000      0x4d2 c:/program files/microchip/xc32/v2.40/bin/bin/../../lib/gcc/pic32c/6.2.1/../../../../pic32c/lib/v7e-m/fpv4-sp/hard\libc_nano.a(lib_a-signal.o)
 .debug_aranges
                0x00000000       0x58 c:/program files/microchip/xc32/v2.40/bin/bin/../../lib/gcc/pic32c/6.2.1/../../../../pic32c/lib/v7e-m/fpv4-sp/hard\libc_nano.a(lib_a-signal.o)
 .debug_ranges  0x00000000       0x60 c:/program files/microchip/xc32/v2.40/bin/bin/../../lib/gcc/pic32c/6.2.1/../../../../pic32c/lib/v7e-m/fpv4-sp/hard\libc_nano.a(lib_a-signal.o)
 .debug_line    0x00000000      0x2f2 c:/program files/microchip/xc32/v2.40/bin/bin/../../lib/gcc/pic32c/6.2.1/../../../../pic32c/lib/v7e-m/fpv4-sp/hard\libc_nano.a(lib_a-signal.o)
 .debug_str     0x00000000       0x1d c:/program files/microchip/xc32/v2.40/bin/bin/../../lib/gcc/pic32c/6.2.1/../../../../pic32c/lib/v7e-m/fpv4-sp/hard\libc_nano.a(lib_a-signal.o)
 .comment       0x00000000       0x3d c:/program files/microchip/xc32/v2.40/bin/bin/../../lib/gcc/pic32c/6.2.1/../../../../pic32c/lib/v7e-m/fpv4-sp/hard\libc_nano.a(lib_a-signal.o)
 .debug_frame   0x00000000       0xcc c:/program files/microchip/xc32/v2.40/bin/bin/../../lib/gcc/pic32c/6.2.1/../../../../pic32c/lib/v7e-m/fpv4-sp/hard\libc_nano.a(lib_a-signal.o)
 .ARM.attributes
                0x00000000       0x34 c:/program files/microchip/xc32/v2.40/bin/bin/../../lib/gcc/pic32c/6.2.1/../../../../pic32c/lib/v7e-m/fpv4-sp/hard\libc_nano.a(lib_a-signal.o)
 .text          0x00000000        0x0 c:/program files/microchip/xc32/v2.40/bin/bin/../../lib/gcc/pic32c/6.2.1/../../../../pic32c/lib/v7e-m/fpv4-sp/hard\libc_nano.a(lib_a-signalr.o)
 .data          0x00000000        0x0 c:/program files/microchip/xc32/v2.40/bin/bin/../../lib/gcc/pic32c/6.2.1/../../../../pic32c/lib/v7e-m/fpv4-sp/hard\libc_nano.a(lib_a-signalr.o)
 .bss           0x00000000        0x0 c:/program files/microchip/xc32/v2.40/bin/bin/../../lib/gcc/pic32c/6.2.1/../../../../pic32c/lib/v7e-m/fpv4-sp/hard\libc_nano.a(lib_a-signalr.o)
 .text._kill_r  0x00000000       0x24 c:/program files/microchip/xc32/v2.40/bin/bin/../../lib/gcc/pic32c/6.2.1/../../../../pic32c/lib/v7e-m/fpv4-sp/hard\libc_nano.a(lib_a-signalr.o)
 .text._getpid_r
                0x00000000        0x4 c:/program files/microchip/xc32/v2.40/bin/bin/../../lib/gcc/pic32c/6.2.1/../../../../pic32c/lib/v7e-m/fpv4-sp/hard\libc_nano.a(lib_a-signalr.o)
 .debug_info    0x00000000      0xf43 c:/program files/microchip/xc32/v2.40/bin/bin/../../lib/gcc/pic32c/6.2.1/../../../../pic32c/lib/v7e-m/fpv4-sp/hard\libc_nano.a(lib_a-signalr.o)
 .debug_abbrev  0x00000000      0x1e9 c:/program files/microchip/xc32/v2.40/bin/bin/../../lib/gcc/pic32c/6.2.1/../../../../pic32c/lib/v7e-m/fpv4-sp/hard\libc_nano.a(lib_a-signalr.o)
 .debug_loc     0x00000000       0xba c:/program files/microchip/xc32/v2.40/bin/bin/../../lib/gcc/pic32c/6.2.1/../../../../pic32c/lib/v7e-m/fpv4-sp/hard\libc_nano.a(lib_a-signalr.o)
 .debug_aranges
                0x00000000       0x28 c:/program files/microchip/xc32/v2.40/bin/bin/../../lib/gcc/pic32c/6.2.1/../../../../pic32c/lib/v7e-m/fpv4-sp/hard\libc_nano.a(lib_a-signalr.o)
 .debug_ranges  0x00000000       0x30 c:/program files/microchip/xc32/v2.40/bin/bin/../../lib/gcc/pic32c/6.2.1/../../../../pic32c/lib/v7e-m/fpv4-sp/hard\libc_nano.a(lib_a-signalr.o)
 .debug_line    0x00000000      0x226 c:/program files/microchip/xc32/v2.40/bin/bin/../../lib/gcc/pic32c/6.2.1/../../../../pic32c/lib/v7e-m/fpv4-sp/hard\libc_nano.a(lib_a-signalr.o)
 .debug_str     0x00000000        0x9 c:/program files/microchip/xc32/v2.40/bin/bin/../../lib/gcc/pic32c/6.2.1/../../../../pic32c/lib/v7e-m/fpv4-sp/hard\libc_nano.a(lib_a-signalr.o)
 .comment       0x00000000       0x3d c:/program files/microchip/xc32/v2.40/bin/bin/../../lib/gcc/pic32c/6.2.1/../../../../pic32c/lib/v7e-m/fpv4-sp/hard\libc_nano.a(lib_a-signalr.o)
 .debug_frame   0x00000000       0x3c c:/program files/microchip/xc32/v2.40/bin/bin/../../lib/gcc/pic32c/6.2.1/../../../../pic32c/lib/v7e-m/fpv4-sp/hard\libc_nano.a(lib_a-signalr.o)
 .ARM.attributes
                0x00000000       0x34 c:/program files/microchip/xc32/v2.40/bin/bin/../../lib/gcc/pic32c/6.2.1/../../../../pic32c/lib/v7e-m/fpv4-sp/hard\libc_nano.a(lib_a-signalr.o)
 .text          0x00000000        0x0 c:/program files/microchip/xc32/v2.40/bin/bin/../../lib/gcc/pic32c/6.2.1/../../../../pic32c/lib/v7e-m/fpv4-sp/hard\libc_nano.a(lib_a-__ssputs.o)
 .data          0x00000000        0x0 c:/program files/microchip/xc32/v2.40/bin/bin/../../lib/gcc/pic32c/6.2.1/../../../../pic32c/lib/v7e-m/fpv4-sp/hard\libc_nano.a(lib_a-__ssputs.o)
 .bss           0x00000000        0x0 c:/program files/microchip/xc32/v2.40/bin/bin/../../lib/gcc/pic32c/6.2.1/../../../../pic32c/lib/v7e-m/fpv4-sp/hard\libc_nano.a(lib_a-__ssputs.o)
 .text          0x00000000        0x0 c:/program files/microchip/xc32/v2.40/bin/bin/../../lib/gcc/pic32c/6.2.1/../../../../pic32c/lib/v7e-m/fpv4-sp/hard\libc_nano.a(lib_a-ungetc.o)
 .data          0x00000000        0x0 c:/program files/microchip/xc32/v2.40/bin/bin/../../lib/gcc/pic32c/6.2.1/../../../../pic32c/lib/v7e-m/fpv4-sp/hard\libc_nano.a(lib_a-ungetc.o)
 .bss           0x00000000        0x0 c:/program files/microchip/xc32/v2.40/bin/bin/../../lib/gcc/pic32c/6.2.1/../../../../pic32c/lib/v7e-m/fpv4-sp/hard\libc_nano.a(lib_a-ungetc.o)
 .text.ungetc   0x00000000       0x10 c:/program files/microchip/xc32/v2.40/bin/bin/../../lib/gcc/pic32c/6.2.1/../../../../pic32c/lib/v7e-m/fpv4-sp/hard\libc_nano.a(lib_a-ungetc.o)
 .text          0x00000000        0x0 c:/program files/microchip/xc32/v2.40/bin/bin/../../lib/gcc/pic32c/6.2.1/../../../../pic32c/lib/v7e-m/fpv4-sp/hard\libc_nano.a(lib_a-wcrtomb.o)
 .data          0x00000000        0x0 c:/program files/microchip/xc32/v2.40/bin/bin/../../lib/gcc/pic32c/6.2.1/../../../../pic32c/lib/v7e-m/fpv4-sp/hard\libc_nano.a(lib_a-wcrtomb.o)
 .bss           0x00000000        0x0 c:/program files/microchip/xc32/v2.40/bin/bin/../../lib/gcc/pic32c/6.2.1/../../../../pic32c/lib/v7e-m/fpv4-sp/hard\libc_nano.a(lib_a-wcrtomb.o)
 .text.wcrtomb  0x00000000       0x14 c:/program files/microchip/xc32/v2.40/bin/bin/../../lib/gcc/pic32c/6.2.1/../../../../pic32c/lib/v7e-m/fpv4-sp/hard\libc_nano.a(lib_a-wcrtomb.o)
 .text          0x00000000        0x0 c:/program files/microchip/xc32/v2.40/bin/bin/../../lib/gcc/pic32c/6.2.1/../../../../pic32c/lib/v7e-m/fpv4-sp/hard\libc_nano.a(lib_a-fstatr.o)
 .data          0x00000000        0x0 c:/program files/microchip/xc32/v2.40/bin/bin/../../lib/gcc/pic32c/6.2.1/../../../../pic32c/lib/v7e-m/fpv4-sp/hard\libc_nano.a(lib_a-fstatr.o)
 .bss           0x00000000        0x0 c:/program files/microchip/xc32/v2.40/bin/bin/../../lib/gcc/pic32c/6.2.1/../../../../pic32c/lib/v7e-m/fpv4-sp/hard\libc_nano.a(lib_a-fstatr.o)
 .text          0x00000000        0x0 c:/program files/microchip/xc32/v2.40/bin/bin/../../lib/gcc/pic32c/6.2.1/../../../../pic32c/lib/v7e-m/fpv4-sp/hard\libc_nano.a(lib_a-isattyr.o)
 .data          0x00000000        0x0 c:/program files/microchip/xc32/v2.40/bin/bin/../../lib/gcc/pic32c/6.2.1/../../../../pic32c/lib/v7e-m/fpv4-sp/hard\libc_nano.a(lib_a-isattyr.o)
 .bss           0x00000000        0x0 c:/program files/microchip/xc32/v2.40/bin/bin/../../lib/gcc/pic32c/6.2.1/../../../../pic32c/lib/v7e-m/fpv4-sp/hard\libc_nano.a(lib_a-isattyr.o)
 .text          0x00000000        0x0 c:/program files/microchip/xc32/v2.40/bin/bin/../../lib/gcc/pic32c/6.2.1/../../../../pic32c/lib/v7e-m/fpv4-sp/hard\libc_nano.a(lib_a-nano-reallocr.o)
 .data          0x00000000        0x0 c:/program files/microchip/xc32/v2.40/bin/bin/../../lib/gcc/pic32c/6.2.1/../../../../pic32c/lib/v7e-m/fpv4-sp/hard\libc_nano.a(lib_a-nano-reallocr.o)
 .bss           0x00000000        0x0 c:/program files/microchip/xc32/v2.40/bin/bin/../../lib/gcc/pic32c/6.2.1/../../../../pic32c/lib/v7e-m/fpv4-sp/hard\libc_nano.a(lib_a-nano-reallocr.o)
 .text          0x00000000        0x0 c:/program files/microchip/xc32/v2.40/bin/bin/../../lib/gcc/pic32c/6.2.1/../../../../pic32c/lib/v7e-m/fpv4-sp/hard\libc_nano.a(lib_a-nano-msizer.o)
 .data          0x00000000        0x0 c:/program files/microchip/xc32/v2.40/bin/bin/../../lib/gcc/pic32c/6.2.1/../../../../pic32c/lib/v7e-m/fpv4-sp/hard\libc_nano.a(lib_a-nano-msizer.o)
 .bss           0x00000000        0x0 c:/program files/microchip/xc32/v2.40/bin/bin/../../lib/gcc/pic32c/6.2.1/../../../../pic32c/lib/v7e-m/fpv4-sp/hard\libc_nano.a(lib_a-nano-msizer.o)
 .text          0x00000000        0x0 c:/program files/microchip/xc32/v2.40/bin/bin/../../lib/gcc/pic32c/6.2.1/../../../../pic32c/lib/v7e-m/fpv4-sp/hard\libpic32c.a(_close.o)
 .data          0x00000000        0x0 c:/program files/microchip/xc32/v2.40/bin/bin/../../lib/gcc/pic32c/6.2.1/../../../../pic32c/lib/v7e-m/fpv4-sp/hard\libpic32c.a(_close.o)
 .bss           0x00000000        0x0 c:/program files/microchip/xc32/v2.40/bin/bin/../../lib/gcc/pic32c/6.2.1/../../../../pic32c/lib/v7e-m/fpv4-sp/hard\libpic32c.a(_close.o)
 .text          0x00000000        0x0 c:/program files/microchip/xc32/v2.40/bin/bin/../../lib/gcc/pic32c/6.2.1/../../../../pic32c/lib/v7e-m/fpv4-sp/hard\libpic32c.a(_fstat.o)
 .data          0x00000000        0x0 c:/program files/microchip/xc32/v2.40/bin/bin/../../lib/gcc/pic32c/6.2.1/../../../../pic32c/lib/v7e-m/fpv4-sp/hard\libpic32c.a(_fstat.o)
 .bss           0x00000000        0x0 c:/program files/microchip/xc32/v2.40/bin/bin/../../lib/gcc/pic32c/6.2.1/../../../../pic32c/lib/v7e-m/fpv4-sp/hard\libpic32c.a(_fstat.o)
 .text          0x00000000        0x0 c:/program files/microchip/xc32/v2.40/bin/bin/../../lib/gcc/pic32c/6.2.1/../../../../pic32c/lib/v7e-m/fpv4-sp/hard\libpic32c.a(_getpid.o)
 .data          0x00000000        0x0 c:/program files/microchip/xc32/v2.40/bin/bin/../../lib/gcc/pic32c/6.2.1/../../../../pic32c/lib/v7e-m/fpv4-sp/hard\libpic32c.a(_getpid.o)
 .bss           0x00000000        0x0 c:/program files/microchip/xc32/v2.40/bin/bin/../../lib/gcc/pic32c/6.2.1/../../../../pic32c/lib/v7e-m/fpv4-sp/hard\libpic32c.a(_getpid.o)
 .text._getpid  0x00000000        0x4 c:/program files/microchip/xc32/v2.40/bin/bin/../../lib/gcc/pic32c/6.2.1/../../../../pic32c/lib/v7e-m/fpv4-sp/hard\libpic32c.a(_getpid.o)
 .debug_info    0x00000000      0x28a c:/program files/microchip/xc32/v2.40/bin/bin/../../lib/gcc/pic32c/6.2.1/../../../../pic32c/lib/v7e-m/fpv4-sp/hard\libpic32c.a(_getpid.o)
 .debug_abbrev  0x00000000       0x27 c:/program files/microchip/xc32/v2.40/bin/bin/../../lib/gcc/pic32c/6.2.1/../../../../pic32c/lib/v7e-m/fpv4-sp/hard\libpic32c.a(_getpid.o)
 .debug_aranges
                0x00000000       0x20 c:/program files/microchip/xc32/v2.40/bin/bin/../../lib/gcc/pic32c/6.2.1/../../../../pic32c/lib/v7e-m/fpv4-sp/hard\libpic32c.a(_getpid.o)
 .debug_ranges  0x00000000       0x10 c:/program files/microchip/xc32/v2.40/bin/bin/../../lib/gcc/pic32c/6.2.1/../../../../pic32c/lib/v7e-m/fpv4-sp/hard\libpic32c.a(_getpid.o)
 .debug_line    0x00000000       0x9d c:/program files/microchip/xc32/v2.40/bin/bin/../../lib/gcc/pic32c/6.2.1/../../../../pic32c/lib/v7e-m/fpv4-sp/hard\libpic32c.a(_getpid.o)
 .debug_str     0x00000000        0x0 c:/program files/microchip/xc32/v2.40/bin/bin/../../lib/gcc/pic32c/6.2.1/../../../../pic32c/lib/v7e-m/fpv4-sp/hard\libpic32c.a(_getpid.o)
 .comment       0x00000000       0x3d c:/program files/microchip/xc32/v2.40/bin/bin/../../lib/gcc/pic32c/6.2.1/../../../../pic32c/lib/v7e-m/fpv4-sp/hard\libpic32c.a(_getpid.o)
 .debug_frame   0x00000000       0x20 c:/program files/microchip/xc32/v2.40/bin/bin/../../lib/gcc/pic32c/6.2.1/../../../../pic32c/lib/v7e-m/fpv4-sp/hard\libpic32c.a(_getpid.o)
 .ARM.attributes
                0x00000000       0x34 c:/program files/microchip/xc32/v2.40/bin/bin/../../lib/gcc/pic32c/6.2.1/../../../../pic32c/lib/v7e-m/fpv4-sp/hard\libpic32c.a(_getpid.o)
 .text          0x00000000        0x0 c:/program files/microchip/xc32/v2.40/bin/bin/../../lib/gcc/pic32c/6.2.1/../../../../pic32c/lib/v7e-m/fpv4-sp/hard\libpic32c.a(_isatty.o)
 .data          0x00000000        0x0 c:/program files/microchip/xc32/v2.40/bin/bin/../../lib/gcc/pic32c/6.2.1/../../../../pic32c/lib/v7e-m/fpv4-sp/hard\libpic32c.a(_isatty.o)
 .bss           0x00000000        0x0 c:/program files/microchip/xc32/v2.40/bin/bin/../../lib/gcc/pic32c/6.2.1/../../../../pic32c/lib/v7e-m/fpv4-sp/hard\libpic32c.a(_isatty.o)
 .text          0x00000000        0x0 c:/program files/microchip/xc32/v2.40/bin/bin/../../lib/gcc/pic32c/6.2.1/../../../../pic32c/lib/v7e-m/fpv4-sp/hard\libpic32c.a(_kill.o)
 .data          0x00000000        0x0 c:/program files/microchip/xc32/v2.40/bin/bin/../../lib/gcc/pic32c/6.2.1/../../../../pic32c/lib/v7e-m/fpv4-sp/hard\libpic32c.a(_kill.o)
 .bss           0x00000000        0x0 c:/program files/microchip/xc32/v2.40/bin/bin/../../lib/gcc/pic32c/6.2.1/../../../../pic32c/lib/v7e-m/fpv4-sp/hard\libpic32c.a(_kill.o)
 .text._kill    0x00000000        0x4 c:/program files/microchip/xc32/v2.40/bin/bin/../../lib/gcc/pic32c/6.2.1/../../../../pic32c/lib/v7e-m/fpv4-sp/hard\libpic32c.a(_kill.o)
 .debug_info    0x00000000      0x286 c:/program files/microchip/xc32/v2.40/bin/bin/../../lib/gcc/pic32c/6.2.1/../../../../pic32c/lib/v7e-m/fpv4-sp/hard\libpic32c.a(_kill.o)
 .debug_abbrev  0x00000000       0x27 c:/program files/microchip/xc32/v2.40/bin/bin/../../lib/gcc/pic32c/6.2.1/../../../../pic32c/lib/v7e-m/fpv4-sp/hard\libpic32c.a(_kill.o)
 .debug_aranges
                0x00000000       0x20 c:/program files/microchip/xc32/v2.40/bin/bin/../../lib/gcc/pic32c/6.2.1/../../../../pic32c/lib/v7e-m/fpv4-sp/hard\libpic32c.a(_kill.o)
 .debug_ranges  0x00000000       0x10 c:/program files/microchip/xc32/v2.40/bin/bin/../../lib/gcc/pic32c/6.2.1/../../../../pic32c/lib/v7e-m/fpv4-sp/hard\libpic32c.a(_kill.o)
 .debug_line    0x00000000       0x9b c:/program files/microchip/xc32/v2.40/bin/bin/../../lib/gcc/pic32c/6.2.1/../../../../pic32c/lib/v7e-m/fpv4-sp/hard\libpic32c.a(_kill.o)
 .debug_str     0x00000000        0x0 c:/program files/microchip/xc32/v2.40/bin/bin/../../lib/gcc/pic32c/6.2.1/../../../../pic32c/lib/v7e-m/fpv4-sp/hard\libpic32c.a(_kill.o)
 .comment       0x00000000       0x3d c:/program files/microchip/xc32/v2.40/bin/bin/../../lib/gcc/pic32c/6.2.1/../../../../pic32c/lib/v7e-m/fpv4-sp/hard\libpic32c.a(_kill.o)
 .debug_frame   0x00000000       0x20 c:/program files/microchip/xc32/v2.40/bin/bin/../../lib/gcc/pic32c/6.2.1/../../../../pic32c/lib/v7e-m/fpv4-sp/hard\libpic32c.a(_kill.o)
 .ARM.attributes
                0x00000000       0x34 c:/program files/microchip/xc32/v2.40/bin/bin/../../lib/gcc/pic32c/6.2.1/../../../../pic32c/lib/v7e-m/fpv4-sp/hard\libpic32c.a(_kill.o)
 .text          0x00000000        0x0 c:/program files/microchip/xc32/v2.40/bin/bin/../../lib/gcc/pic32c/6.2.1/../../../../pic32c/lib/v7e-m/fpv4-sp/hard\libpic32c.a(_lseek.o)
 .data          0x00000000        0x0 c:/program files/microchip/xc32/v2.40/bin/bin/../../lib/gcc/pic32c/6.2.1/../../../../pic32c/lib/v7e-m/fpv4-sp/hard\libpic32c.a(_lseek.o)
 .bss           0x00000000        0x0 c:/program files/microchip/xc32/v2.40/bin/bin/../../lib/gcc/pic32c/6.2.1/../../../../pic32c/lib/v7e-m/fpv4-sp/hard\libpic32c.a(_lseek.o)
 .text          0x00000000        0x0 c:/program files/microchip/xc32/v2.40/bin/bin/../../lib/gcc/pic32c/6.2.1/../../../../pic32c/lib/v7e-m/fpv4-sp/hard\libpic32c.a(_read.o)
 .data          0x00000000        0x0 c:/program files/microchip/xc32/v2.40/bin/bin/../../lib/gcc/pic32c/6.2.1/../../../../pic32c/lib/v7e-m/fpv4-sp/hard\libpic32c.a(_read.o)
 .bss           0x00000000        0x0 c:/program files/microchip/xc32/v2.40/bin/bin/../../lib/gcc/pic32c/6.2.1/../../../../pic32c/lib/v7e-m/fpv4-sp/hard\libpic32c.a(_read.o)
 .text          0x00000000        0x0 c:/program files/microchip/xc32/v2.40/bin/bin/../../lib/gcc/pic32c/6.2.1/../../../../pic32c/lib/v7e-m/fpv4-sp/hard\libpic32c.a(sbrk.o)
 .data          0x00000000        0x0 c:/program files/microchip/xc32/v2.40/bin/bin/../../lib/gcc/pic32c/6.2.1/../../../../pic32c/lib/v7e-m/fpv4-sp/hard\libpic32c.a(sbrk.o)
 .text          0x00000000        0x0 c:/program files/microchip/xc32/v2.40/bin/bin/../../lib/gcc/pic32c/6.2.1/../../../../pic32c/lib/v7e-m/fpv4-sp/hard\libpic32c.a(_write.o)
 .data          0x00000000        0x0 c:/program files/microchip/xc32/v2.40/bin/bin/../../lib/gcc/pic32c/6.2.1/../../../../pic32c/lib/v7e-m/fpv4-sp/hard\libpic32c.a(_write.o)
 .bss           0x00000000        0x0 c:/program files/microchip/xc32/v2.40/bin/bin/../../lib/gcc/pic32c/6.2.1/../../../../pic32c/lib/v7e-m/fpv4-sp/hard\libpic32c.a(_write.o)
 .text          0x00000000        0x0 c:/program files/microchip/xc32/v2.40/bin/bin/../../lib/gcc/pic32c/6.2.1/../../../../pic32c/lib/v7e-m/fpv4-sp/hard\libpic32c.a(close.o)
 .data          0x00000000        0x0 c:/program files/microchip/xc32/v2.40/bin/bin/../../lib/gcc/pic32c/6.2.1/../../../../pic32c/lib/v7e-m/fpv4-sp/hard\libpic32c.a(close.o)
 .bss           0x00000000        0x0 c:/program files/microchip/xc32/v2.40/bin/bin/../../lib/gcc/pic32c/6.2.1/../../../../pic32c/lib/v7e-m/fpv4-sp/hard\libpic32c.a(close.o)
 .gnu.warning.closestub
                0x00000000        0x0 c:/program files/microchip/xc32/v2.40/bin/bin/../../lib/gcc/pic32c/6.2.1/../../../../pic32c/lib/v7e-m/fpv4-sp/hard\libpic32c.a(close.o)
 .text          0x00000000        0x0 c:/program files/microchip/xc32/v2.40/bin/bin/../../lib/gcc/pic32c/6.2.1/../../../../pic32c/lib/v7e-m/fpv4-sp/hard\libpic32c.a(fstat.o)
 .data          0x00000000        0x0 c:/program files/microchip/xc32/v2.40/bin/bin/../../lib/gcc/pic32c/6.2.1/../../../../pic32c/lib/v7e-m/fpv4-sp/hard\libpic32c.a(fstat.o)
 .bss           0x00000000        0x0 c:/program files/microchip/xc32/v2.40/bin/bin/../../lib/gcc/pic32c/6.2.1/../../../../pic32c/lib/v7e-m/fpv4-sp/hard\libpic32c.a(fstat.o)
 .text          0x00000000        0x0 c:/program files/microchip/xc32/v2.40/bin/bin/../../lib/gcc/pic32c/6.2.1/../../../../pic32c/lib/v7e-m/fpv4-sp/hard\libpic32c.a(getpid.o)
 .data          0x00000000        0x0 c:/program files/microchip/xc32/v2.40/bin/bin/../../lib/gcc/pic32c/6.2.1/../../../../pic32c/lib/v7e-m/fpv4-sp/hard\libpic32c.a(getpid.o)
 .bss           0x00000000        0x0 c:/program files/microchip/xc32/v2.40/bin/bin/../../lib/gcc/pic32c/6.2.1/../../../../pic32c/lib/v7e-m/fpv4-sp/hard\libpic32c.a(getpid.o)
 .text.getpid   0x00000000        0x4 c:/program files/microchip/xc32/v2.40/bin/bin/../../lib/gcc/pic32c/6.2.1/../../../../pic32c/lib/v7e-m/fpv4-sp/hard\libpic32c.a(getpid.o)
 .debug_info    0x00000000      0x289 c:/program files/microchip/xc32/v2.40/bin/bin/../../lib/gcc/pic32c/6.2.1/../../../../pic32c/lib/v7e-m/fpv4-sp/hard\libpic32c.a(getpid.o)
 .debug_abbrev  0x00000000       0x2a c:/program files/microchip/xc32/v2.40/bin/bin/../../lib/gcc/pic32c/6.2.1/../../../../pic32c/lib/v7e-m/fpv4-sp/hard\libpic32c.a(getpid.o)
 .debug_aranges
                0x00000000       0x20 c:/program files/microchip/xc32/v2.40/bin/bin/../../lib/gcc/pic32c/6.2.1/../../../../pic32c/lib/v7e-m/fpv4-sp/hard\libpic32c.a(getpid.o)
 .debug_ranges  0x00000000       0x10 c:/program files/microchip/xc32/v2.40/bin/bin/../../lib/gcc/pic32c/6.2.1/../../../../pic32c/lib/v7e-m/fpv4-sp/hard\libpic32c.a(getpid.o)
 .debug_line    0x00000000       0x9c c:/program files/microchip/xc32/v2.40/bin/bin/../../lib/gcc/pic32c/6.2.1/../../../../pic32c/lib/v7e-m/fpv4-sp/hard\libpic32c.a(getpid.o)
 .debug_str     0x00000000        0x0 c:/program files/microchip/xc32/v2.40/bin/bin/../../lib/gcc/pic32c/6.2.1/../../../../pic32c/lib/v7e-m/fpv4-sp/hard\libpic32c.a(getpid.o)
 .comment       0x00000000       0x3d c:/program files/microchip/xc32/v2.40/bin/bin/../../lib/gcc/pic32c/6.2.1/../../../../pic32c/lib/v7e-m/fpv4-sp/hard\libpic32c.a(getpid.o)
 .debug_frame   0x00000000       0x20 c:/program files/microchip/xc32/v2.40/bin/bin/../../lib/gcc/pic32c/6.2.1/../../../../pic32c/lib/v7e-m/fpv4-sp/hard\libpic32c.a(getpid.o)
 .ARM.attributes
                0x00000000       0x34 c:/program files/microchip/xc32/v2.40/bin/bin/../../lib/gcc/pic32c/6.2.1/../../../../pic32c/lib/v7e-m/fpv4-sp/hard\libpic32c.a(getpid.o)
 .text          0x00000000        0x0 c:/program files/microchip/xc32/v2.40/bin/bin/../../lib/gcc/pic32c/6.2.1/../../../../pic32c/lib/v7e-m/fpv4-sp/hard\libpic32c.a(isatty.o)
 .data          0x00000000        0x0 c:/program files/microchip/xc32/v2.40/bin/bin/../../lib/gcc/pic32c/6.2.1/../../../../pic32c/lib/v7e-m/fpv4-sp/hard\libpic32c.a(isatty.o)
 .bss           0x00000000        0x0 c:/program files/microchip/xc32/v2.40/bin/bin/../../lib/gcc/pic32c/6.2.1/../../../../pic32c/lib/v7e-m/fpv4-sp/hard\libpic32c.a(isatty.o)
 .text          0x00000000        0x0 c:/program files/microchip/xc32/v2.40/bin/bin/../../lib/gcc/pic32c/6.2.1/../../../../pic32c/lib/v7e-m/fpv4-sp/hard\libpic32c.a(kill.o)
 .data          0x00000000        0x0 c:/program files/microchip/xc32/v2.40/bin/bin/../../lib/gcc/pic32c/6.2.1/../../../../pic32c/lib/v7e-m/fpv4-sp/hard\libpic32c.a(kill.o)
 .bss           0x00000000        0x0 c:/program files/microchip/xc32/v2.40/bin/bin/../../lib/gcc/pic32c/6.2.1/../../../../pic32c/lib/v7e-m/fpv4-sp/hard\libpic32c.a(kill.o)
 .text.kill     0x00000000        0x4 c:/program files/microchip/xc32/v2.40/bin/bin/../../lib/gcc/pic32c/6.2.1/../../../../pic32c/lib/v7e-m/fpv4-sp/hard\libpic32c.a(kill.o)
 .debug_info    0x00000000      0x285 c:/program files/microchip/xc32/v2.40/bin/bin/../../lib/gcc/pic32c/6.2.1/../../../../pic32c/lib/v7e-m/fpv4-sp/hard\libpic32c.a(kill.o)
 .debug_abbrev  0x00000000       0x2a c:/program files/microchip/xc32/v2.40/bin/bin/../../lib/gcc/pic32c/6.2.1/../../../../pic32c/lib/v7e-m/fpv4-sp/hard\libpic32c.a(kill.o)
 .debug_aranges
                0x00000000       0x20 c:/program files/microchip/xc32/v2.40/bin/bin/../../lib/gcc/pic32c/6.2.1/../../../../pic32c/lib/v7e-m/fpv4-sp/hard\libpic32c.a(kill.o)
 .debug_ranges  0x00000000       0x10 c:/program files/microchip/xc32/v2.40/bin/bin/../../lib/gcc/pic32c/6.2.1/../../../../pic32c/lib/v7e-m/fpv4-sp/hard\libpic32c.a(kill.o)
 .debug_line    0x00000000       0x99 c:/program files/microchip/xc32/v2.40/bin/bin/../../lib/gcc/pic32c/6.2.1/../../../../pic32c/lib/v7e-m/fpv4-sp/hard\libpic32c.a(kill.o)
 .debug_str     0x00000000        0x0 c:/program files/microchip/xc32/v2.40/bin/bin/../../lib/gcc/pic32c/6.2.1/../../../../pic32c/lib/v7e-m/fpv4-sp/hard\libpic32c.a(kill.o)
 .comment       0x00000000       0x3d c:/program files/microchip/xc32/v2.40/bin/bin/../../lib/gcc/pic32c/6.2.1/../../../../pic32c/lib/v7e-m/fpv4-sp/hard\libpic32c.a(kill.o)
 .debug_frame   0x00000000       0x20 c:/program files/microchip/xc32/v2.40/bin/bin/../../lib/gcc/pic32c/6.2.1/../../../../pic32c/lib/v7e-m/fpv4-sp/hard\libpic32c.a(kill.o)
 .ARM.attributes
                0x00000000       0x34 c:/program files/microchip/xc32/v2.40/bin/bin/../../lib/gcc/pic32c/6.2.1/../../../../pic32c/lib/v7e-m/fpv4-sp/hard\libpic32c.a(kill.o)
 .text          0x00000000        0x0 c:/program files/microchip/xc32/v2.40/bin/bin/../../lib/gcc/pic32c/6.2.1/../../../../pic32c/lib/v7e-m/fpv4-sp/hard\libpic32c.a(lseek.o)
 .data          0x00000000        0x0 c:/program files/microchip/xc32/v2.40/bin/bin/../../lib/gcc/pic32c/6.2.1/../../../../pic32c/lib/v7e-m/fpv4-sp/hard\libpic32c.a(lseek.o)
 .bss           0x00000000        0x0 c:/program files/microchip/xc32/v2.40/bin/bin/../../lib/gcc/pic32c/6.2.1/../../../../pic32c/lib/v7e-m/fpv4-sp/hard\libpic32c.a(lseek.o)
 .text          0x00000000        0x0 c:/program files/microchip/xc32/v2.40/bin/bin/../../lib/gcc/pic32c/6.2.1/../../../../pic32c/lib/v7e-m/fpv4-sp/hard\libpic32c.a(read.o)
 .data          0x00000000        0x0 c:/program files/microchip/xc32/v2.40/bin/bin/../../lib/gcc/pic32c/6.2.1/../../../../pic32c/lib/v7e-m/fpv4-sp/hard\libpic32c.a(read.o)
 .bss           0x00000000        0x0 c:/program files/microchip/xc32/v2.40/bin/bin/../../lib/gcc/pic32c/6.2.1/../../../../pic32c/lib/v7e-m/fpv4-sp/hard\libpic32c.a(read.o)
 .text          0x00000000        0x0 c:/program files/microchip/xc32/v2.40/bin/bin/../../lib/gcc/pic32c/6.2.1/../../../../pic32c/lib/v7e-m/fpv4-sp/hard\libpic32c.a(write.o)
 .data          0x00000000        0x0 c:/program files/microchip/xc32/v2.40/bin/bin/../../lib/gcc/pic32c/6.2.1/../../../../pic32c/lib/v7e-m/fpv4-sp/hard\libpic32c.a(write.o)
 .bss           0x00000000        0x0 c:/program files/microchip/xc32/v2.40/bin/bin/../../lib/gcc/pic32c/6.2.1/../../../../pic32c/lib/v7e-m/fpv4-sp/hard\libpic32c.a(write.o)
 .text          0x00000000        0x0 c:/program files/microchip/xc32/v2.40/bin/bin/../../lib/gcc/pic32c/6.2.1/v7e-m/fpv4-sp/hard/crtend.o
 .data          0x00000000        0x0 c:/program files/microchip/xc32/v2.40/bin/bin/../../lib/gcc/pic32c/6.2.1/v7e-m/fpv4-sp/hard/crtend.o
 .bss           0x00000000        0x0 c:/program files/microchip/xc32/v2.40/bin/bin/../../lib/gcc/pic32c/6.2.1/v7e-m/fpv4-sp/hard/crtend.o
 .eh_frame      0x00000000        0x4 c:/program files/microchip/xc32/v2.40/bin/bin/../../lib/gcc/pic32c/6.2.1/v7e-m/fpv4-sp/hard/crtend.o
 .comment       0x00000000       0x3d c:/program files/microchip/xc32/v2.40/bin/bin/../../lib/gcc/pic32c/6.2.1/v7e-m/fpv4-sp/hard/crtend.o
 .ARM.attributes
                0x00000000       0x34 c:/program files/microchip/xc32/v2.40/bin/bin/../../lib/gcc/pic32c/6.2.1/v7e-m/fpv4-sp/hard/crtend.o
 .text          0x00000000        0x0 c:/program files/microchip/xc32/v2.40/bin/bin/../../lib/gcc/pic32c/6.2.1/v7e-m/fpv4-sp/hard/crtn.o
 .data          0x00000000        0x0 c:/program files/microchip/xc32/v2.40/bin/bin/../../lib/gcc/pic32c/6.2.1/v7e-m/fpv4-sp/hard/crtn.o
 .bss           0x00000000        0x0 c:/program files/microchip/xc32/v2.40/bin/bin/../../lib/gcc/pic32c/6.2.1/v7e-m/fpv4-sp/hard/crtn.o

Memory Configuration

Name             Origin             Length             Attributes
rom              0x00000000         0x00100000         xrl
ram              0x20000100         0x0003fe00         xw !r
config_00804000  0x00804000         0x00000004
config_00804004  0x00804004         0x00000004
config_00804008  0x00804008         0x00000004
*default*        0x00000000         0xffffffff

Linker script and memory map

LOAD c:/program files/microchip/xc32/v2.40/bin/bin/../../lib/gcc/pic32c/6.2.1/v7e-m/fpv4-sp/hard/crti.o
LOAD c:/program files/microchip/xc32/v2.40/bin/bin/../../lib/gcc/pic32c/6.2.1/v7e-m/fpv4-sp/hard/crtbegin.o
LOAD build/aws_demos/production/_ext/1319661984/drv_gmac.o
LOAD build/aws_demos/production/_ext/1319661984/drv_gmac_lib_samE5x.o
LOAD build/aws_demos/production/_ext/665618993/plib_nvmctrl.o
LOAD build/aws_demos/production/_ext/731420310/plib_sercom2_usart.o
LOAD build/aws_demos/production/_ext/1321577635/plib_evsys.o
LOAD build/aws_demos/production/_ext/1991396724/sys_command.o
LOAD build/aws_demos/production/_ext/731420310/plib_sercom6_usart.o
LOAD build/aws_demos/production/_ext/1360937237/main.o
LOAD build/aws_demos/production/_ext/1534096987/initialization.o
LOAD build/aws_demos/production/_ext/1534096987/interrupts.o
LOAD build/aws_demos/production/_ext/1534096987/exceptions.o
LOAD build/aws_demos/production/_ext/1263901141/xc32_monitor.o
LOAD build/aws_demos/production/_ext/1843425920/plib_port.o
LOAD build/aws_demos/production/_ext/1323727121/plib_clock.o
LOAD build/aws_demos/production/_ext/1843479071/plib_nvic.o
LOAD build/aws_demos/production/_ext/1534096987/startup_xc32.o
LOAD build/aws_demos/production/_ext/1534096987/libc_syscalls.o
LOAD build/aws_demos/production/_ext/1385882503/port.o
LOAD build/aws_demos/production/_ext/1168480030/heap_4.o
LOAD build/aws_demos/production/_ext/112156576/iot_pkcs11_mbedtls.o
LOAD build/aws_demos/production/_ext/366737/iot_secure_sockets.o
LOAD build/aws_demos/production/_ext/1682906662/FreeRTOS_ARP.o
LOAD build/aws_demos/production/_ext/1682906662/FreeRTOS_DHCP.o
LOAD build/aws_demos/production/_ext/1682906662/FreeRTOS_DNS.o
LOAD build/aws_demos/production/_ext/1682906662/FreeRTOS_IP.o
LOAD build/aws_demos/production/_ext/1682906662/FreeRTOS_Sockets.o
LOAD build/aws_demos/production/_ext/1682906662/FreeRTOS_Stream_Buffer.o
LOAD build/aws_demos/production/_ext/1682906662/FreeRTOS_TCP_IP.o
LOAD build/aws_demos/production/_ext/1682906662/FreeRTOS_TCP_WIN.o
LOAD build/aws_demos/production/_ext/1682906662/FreeRTOS_UDP_IP.o
LOAD build/aws_demos/production/_ext/1778494626/BufferAllocation_2.o
LOAD build/aws_demos/production/_ext/1778494626/NetworkInterface_eth.o
LOAD build/aws_demos/production/_ext/766474417/aws_ota_pal.o
LOAD build/aws_demos/production/_ext/1972722184/iot_pkcs11_pal.o
LOAD build/aws_demos/production/_ext/1972722184/pkcs11_nvm.o
LOAD build/aws_demos/production/_ext/192046689/sys_time_h2_adapter.o
LOAD build/aws_demos/production/_ext/197858987/hash_fnv.o
LOAD build/aws_demos/production/_ext/197858987/helpers.o
LOAD build/aws_demos/production/_ext/197858987/oahash.o
LOAD build/aws_demos/production/_ext/197858987/tcpip_heap_alloc.o
LOAD build/aws_demos/production/_ext/197858987/tcpip_heap_external.o
LOAD build/aws_demos/production/_ext/197858987/tcpip_heap_internal.o
LOAD build/aws_demos/production/_ext/197858987/tcpip_helpers.o
LOAD build/aws_demos/production/_ext/197858987/tcpip_notify.o
LOAD build/aws_demos/production/_ext/197858987/tcpip_packet.o
LOAD build/aws_demos/production/_ext/59476128/plib_eic.o
LOAD build/aws_demos/production/_ext/211704168/drv_miim.o
LOAD build/aws_demos/production/_ext/1110296786/plib_tc3.o
LOAD build/aws_demos/production/_ext/484134862/sys_time.o
LOAD build/aws_demos/production/_ext/988341903/aws_iot_demo_defender.o
LOAD build/aws_demos/production/_ext/1223942466/aws_demo.o
LOAD build/aws_demos/production/_ext/1223942466/aws_demo_network_addr.o
LOAD build/aws_demos/production/_ext/1223942466/aws_demo_version.o
LOAD build/aws_demos/production/_ext/1223942466/iot_demo_freertos.o
LOAD build/aws_demos/production/_ext/1223942466/iot_demo_runner.o
LOAD build/aws_demos/production/_ext/198771642/aws_dev_mode_key_provisioning.o
LOAD build/aws_demos/production/_ext/905468053/aws_greengrass_discovery_demo.o
LOAD build/aws_demos/production/_ext/1741632483/iot_demo_https_common.o
LOAD build/aws_demos/production/_ext/1741632483/iot_demo_https_s3_download_async.o
LOAD build/aws_demos/production/_ext/1741632483/iot_demo_https_s3_download_sync.o
LOAD build/aws_demos/production/_ext/1741632483/iot_demo_https_s3_upload_async.o
LOAD build/aws_demos/production/_ext/1741632483/iot_demo_https_s3_upload_sync.o
LOAD build/aws_demos/production/_ext/1441508942/iot_demo_mqtt.o
LOAD build/aws_demos/production/_ext/2040524622/aws_iot_demo_network.o
LOAD build/aws_demos/production/_ext/2040524622/aws_iot_network_manager.o
LOAD build/aws_demos/production/_ext/1986160946/aws_iot_ota_update_demo.o
LOAD build/aws_demos/production/_ext/2147228718/aws_iot_demo_shadow.o
LOAD build/aws_demos/production/_ext/1986156653/aws_tcp_echo_client_single_task.o
LOAD build/aws_demos/production/_ext/811507611/croutine.o
LOAD build/aws_demos/production/_ext/811507611/event_groups.o
LOAD build/aws_demos/production/_ext/811507611/list.o
LOAD build/aws_demos/production/_ext/811507611/queue.o
LOAD build/aws_demos/production/_ext/811507611/stream_buffer.o
LOAD build/aws_demos/production/_ext/811507611/tasks.o
LOAD build/aws_demos/production/_ext/811507611/timers.o
LOAD build/aws_demos/production/_ext/490551821/http_parser.o
LOAD build/aws_demos/production/_ext/1206754867/jsmn.o
LOAD build/aws_demos/production/_ext/684768522/aes.o
LOAD build/aws_demos/production/_ext/684768522/aesni.o
LOAD build/aws_demos/production/_ext/684768522/arc4.o
LOAD build/aws_demos/production/_ext/684768522/asn1parse.o
LOAD build/aws_demos/production/_ext/684768522/asn1write.o
LOAD build/aws_demos/production/_ext/684768522/base64.o
LOAD build/aws_demos/production/_ext/684768522/bignum.o
LOAD build/aws_demos/production/_ext/684768522/blowfish.o
LOAD build/aws_demos/production/_ext/684768522/camellia.o
LOAD build/aws_demos/production/_ext/684768522/ccm.o
LOAD build/aws_demos/production/_ext/684768522/certs.o
LOAD build/aws_demos/production/_ext/684768522/cipher.o
LOAD build/aws_demos/production/_ext/684768522/cipher_wrap.o
LOAD build/aws_demos/production/_ext/684768522/cmac.o
LOAD build/aws_demos/production/_ext/684768522/ctr_drbg.o
LOAD build/aws_demos/production/_ext/684768522/debug.o
LOAD build/aws_demos/production/_ext/684768522/des.o
LOAD build/aws_demos/production/_ext/684768522/dhm.o
LOAD build/aws_demos/production/_ext/684768522/ecdh.o
LOAD build/aws_demos/production/_ext/684768522/ecdsa.o
LOAD build/aws_demos/production/_ext/684768522/ecjpake.o
LOAD build/aws_demos/production/_ext/684768522/ecp.o
LOAD build/aws_demos/production/_ext/684768522/ecp_curves.o
LOAD build/aws_demos/production/_ext/684768522/entropy.o
LOAD build/aws_demos/production/_ext/684768522/entropy_poll.o
LOAD build/aws_demos/production/_ext/684768522/error.o
LOAD build/aws_demos/production/_ext/684768522/gcm.o
LOAD build/aws_demos/production/_ext/684768522/havege.o
LOAD build/aws_demos/production/_ext/684768522/hmac_drbg.o
LOAD build/aws_demos/production/_ext/684768522/md.o
LOAD build/aws_demos/production/_ext/684768522/md2.o
LOAD build/aws_demos/production/_ext/684768522/md4.o
LOAD build/aws_demos/production/_ext/684768522/md5.o
LOAD build/aws_demos/production/_ext/684768522/md_wrap.o
LOAD build/aws_demos/production/_ext/684768522/memory_buffer_alloc.o
LOAD build/aws_demos/production/_ext/684768522/net_sockets.o
LOAD build/aws_demos/production/_ext/684768522/oid.o
LOAD build/aws_demos/production/_ext/684768522/padlock.o
LOAD build/aws_demos/production/_ext/684768522/pem.o
LOAD build/aws_demos/production/_ext/684768522/pk.o
LOAD build/aws_demos/production/_ext/684768522/pkcs12.o
LOAD build/aws_demos/production/_ext/684768522/pkcs5.o
LOAD build/aws_demos/production/_ext/684768522/pkparse.o
LOAD build/aws_demos/production/_ext/684768522/pkwrite.o
LOAD build/aws_demos/production/_ext/684768522/pk_wrap.o
LOAD build/aws_demos/production/_ext/684768522/platform.o
LOAD build/aws_demos/production/_ext/684768522/platform_util.o
LOAD build/aws_demos/production/_ext/684768522/ripemd160.o
LOAD build/aws_demos/production/_ext/684768522/rsa.o
LOAD build/aws_demos/production/_ext/684768522/rsa_internal.o
LOAD build/aws_demos/production/_ext/684768522/sha1.o
LOAD build/aws_demos/production/_ext/684768522/sha256.o
LOAD build/aws_demos/production/_ext/684768522/sha512.o
LOAD build/aws_demos/production/_ext/684768522/ssl_cache.o
LOAD build/aws_demos/production/_ext/684768522/ssl_ciphersuites.o
LOAD build/aws_demos/production/_ext/684768522/ssl_cli.o
LOAD build/aws_demos/production/_ext/684768522/ssl_cookie.o
LOAD build/aws_demos/production/_ext/684768522/ssl_srv.o
LOAD build/aws_demos/production/_ext/684768522/ssl_ticket.o
LOAD build/aws_demos/production/_ext/684768522/ssl_tls.o
LOAD build/aws_demos/production/_ext/684768522/threading.o
LOAD build/aws_demos/production/_ext/684768522/timing.o
LOAD build/aws_demos/production/_ext/684768522/version.o
LOAD build/aws_demos/production/_ext/684768522/version_features.o
LOAD build/aws_demos/production/_ext/684768522/x509.o
LOAD build/aws_demos/production/_ext/684768522/x509write_crt.o
LOAD build/aws_demos/production/_ext/684768522/x509write_csr.o
LOAD build/aws_demos/production/_ext/684768522/x509_create.o
LOAD build/aws_demos/production/_ext/684768522/x509_crl.o
LOAD build/aws_demos/production/_ext/684768522/x509_crt.o
LOAD build/aws_demos/production/_ext/684768522/x509_csr.o
LOAD build/aws_demos/production/_ext/684768522/xtea.o
LOAD build/aws_demos/production/_ext/2077790016/mbedtls_utils.o
LOAD build/aws_demos/production/_ext/1057560203/cborencoder.o
LOAD build/aws_demos/production/_ext/1057560203/cborencoder_close_container_checked.o
LOAD build/aws_demos/production/_ext/1057560203/cborerrorstrings.o
LOAD build/aws_demos/production/_ext/1057560203/cborparser.o
LOAD build/aws_demos/production/_ext/1057560203/cborparser_dup_string.o
LOAD build/aws_demos/production/_ext/1057560203/cborpretty.o
LOAD build/aws_demos/production/_ext/1057560203/cborpretty_stdio.o
LOAD build/aws_demos/production/_ext/1057560203/cborvalidation.o
LOAD build/aws_demos/production/_ext/1193839791/aes_decrypt.o
LOAD build/aws_demos/production/_ext/1193839791/aes_encrypt.o
LOAD build/aws_demos/production/_ext/1193839791/cbc_mode.o
LOAD build/aws_demos/production/_ext/1193839791/ccm_mode.o
LOAD build/aws_demos/production/_ext/1193839791/cmac_mode.o
LOAD build/aws_demos/production/_ext/1193839791/ctr_mode.o
LOAD build/aws_demos/production/_ext/1193839791/ctr_prng.o
LOAD build/aws_demos/production/_ext/1193839791/ecc.o
LOAD build/aws_demos/production/_ext/1193839791/ecc_dh.o
LOAD build/aws_demos/production/_ext/1193839791/ecc_dsa.o
LOAD build/aws_demos/production/_ext/1193839791/ecc_platform_specific.o
LOAD build/aws_demos/production/_ext/1193839791/hmac.o
LOAD build/aws_demos/production/_ext/1193839791/hmac_prng.o
LOAD build/aws_demos/production/_ext/1193839791/sha256.o
LOAD build/aws_demos/production/_ext/1193839791/utils.o
LOAD build/aws_demos/production/_ext/520142351/iot_clock_freertos.o
LOAD build/aws_demos/production/_ext/520142351/iot_metrics.o
LOAD build/aws_demos/production/_ext/520142351/iot_network_freertos.o
LOAD build/aws_demos/production/_ext/520142351/iot_threads_freertos.o
LOAD build/aws_demos/production/_ext/1901419232/aws_iot_defender_api.o
LOAD build/aws_demos/production/_ext/1901419232/aws_iot_defender_collector.o
LOAD build/aws_demos/production/_ext/1901419232/aws_iot_defender_mqtt.o
LOAD build/aws_demos/production/_ext/1901419232/aws_iot_defender_v1.o
LOAD build/aws_demos/production/_ext/1647995491/aws_iot_shadow_api.o
LOAD build/aws_demos/production/_ext/1647995491/aws_iot_shadow_operation.o
LOAD build/aws_demos/production/_ext/1647995491/aws_iot_shadow_parser.o
LOAD build/aws_demos/production/_ext/1647995491/aws_iot_shadow_static_memory.o
LOAD build/aws_demos/production/_ext/1647995491/aws_iot_shadow_subscription.o
LOAD build/aws_demos/production/_ext/1647995491/aws_shadow.o
LOAD build/aws_demos/production/_ext/13066905/iot_device_metrics.o
LOAD build/aws_demos/production/_ext/13066905/iot_init.o
LOAD build/aws_demos/production/_ext/13066905/iot_static_memory_common.o
LOAD build/aws_demos/production/_ext/227692215/iot_logging.o
LOAD build/aws_demos/production/_ext/227692215/iot_logging_task_dynamic_buffers.o
LOAD build/aws_demos/production/_ext/333408969/iot_taskpool.o
LOAD build/aws_demos/production/_ext/333408969/iot_taskpool_static_memory.o
LOAD build/aws_demos/production/_ext/1046953532/iot_https_client.o
LOAD build/aws_demos/production/_ext/1046953532/iot_https_utils.o
LOAD build/aws_demos/production/_ext/1739149067/iot_mqtt_agent.o
LOAD build/aws_demos/production/_ext/1739149067/iot_mqtt_api.o
LOAD build/aws_demos/production/_ext/1739149067/iot_mqtt_network.o
LOAD build/aws_demos/production/_ext/1739149067/iot_mqtt_operation.o
LOAD build/aws_demos/production/_ext/1739149067/iot_mqtt_serialize.o
LOAD build/aws_demos/production/_ext/1739149067/iot_mqtt_static_memory.o
LOAD build/aws_demos/production/_ext/1739149067/iot_mqtt_subscription.o
LOAD build/aws_demos/production/_ext/1739149067/iot_mqtt_validate.o
LOAD build/aws_demos/production/_ext/255083950/iot_serializer_tinycbor_decoder.o
LOAD build/aws_demos/production/_ext/255083950/iot_serializer_tinycbor_encoder.o
LOAD build/aws_demos/production/_ext/2051690653/iot_json_utils.o
LOAD build/aws_demos/production/_ext/2051690653/iot_serializer_static_memory.o
LOAD build/aws_demos/production/_ext/255308820/iot_serializer_json_decoder.o
LOAD build/aws_demos/production/_ext/255308820/iot_serializer_json_encoder.o
LOAD build/aws_demos/production/_ext/524897113/aws_greengrass_discovery.o
LOAD build/aws_demos/production/_ext/524897113/aws_helper_secure_connect.o
LOAD build/aws_demos/production/_ext/2101504238/aws_iot_ota_agent.o
LOAD build/aws_demos/production/_ext/2101504238/aws_iot_ota_interface.o
LOAD build/aws_demos/production/_ext/2024380417/aws_iot_ota_cbor.o
LOAD build/aws_demos/production/_ext/2024380417/aws_iot_ota_mqtt.o
LOAD build/aws_demos/production/_ext/350635301/iot_crypto.o
LOAD build/aws_demos/production/_ext/2138053595/iot_pkcs11.o
LOAD build/aws_demos/production/_ext/2039890517/iot_tls.o
LOAD build/aws_demos/production/_ext/1120274527/iot_pki_utils.o
LOAD build/aws_demos/production/_ext/1120274527/iot_system_init.o
LOAD build/aws_demos/production/_ext/1200684192/drv_ethphy.o
LOAD build/aws_demos/production/_ext/1200684192/drv_extphy_ksz8091.o
LOAD build/aws_demos/production/_ext/1843304010/plib_trng.o
LOAD build/aws_demos/production/_ext/1534684544/sys_console.o
LOAD build/aws_demos/production/_ext/1534684544/sys_console_uart.o
LOAD build/aws_demos/production/_ext/1762024984/sys_int.o
LOAD build/aws_demos/production/_ext/1149029443/osal_freertos.o
LOAD build/aws_demos/production/_ext/1534096987/tasks.o
                0x00000001                __MPLAB_BUILD = 0x1
                0x00000200                _min_heap_size = 0x200
                0x000003e8                _min_stack_size = 0x3e8
START GROUP
LOAD c:/program files/microchip/xc32/v2.40/bin/bin/../../lib/gcc/pic32c/6.2.1/../../../../pic32c/lib/v7e-m/fpv4-sp/hard\libpic32c.a
LOAD c:/program files/microchip/xc32/v2.40/bin/bin/../../lib/gcc/pic32c/6.2.1/v7e-m/fpv4-sp/hard\libgcc.a
LOAD c:/program files/microchip/xc32/v2.40/bin/bin/../../lib/gcc/pic32c/6.2.1/../../../../pic32c/lib/v7e-m/fpv4-sp/hard\libm_nano.a
LOAD c:/program files/microchip/xc32/v2.40/bin/bin/../../lib/gcc/pic32c/6.2.1/../../../../pic32c/lib/v7e-m/fpv4-sp/hard\libc_nano.a
END GROUP
LOAD c:/program files/microchip/xc32/v2.40/bin/bin/../../lib/gcc/pic32c/6.2.1/v7e-m/fpv4-sp/hard/crtend.o
LOAD c:/program files/microchip/xc32/v2.40/bin/bin/../../lib/gcc/pic32c/6.2.1/v7e-m/fpv4-sp/hard/crtn.o
                0x00100000                __rom_end = (ORIGIN (rom) + LENGTH (rom))
                0x2003ff00                __ram_end = (ORIGIN (ram) + LENGTH (ram))

.config_00804000
                0x00804000        0x4
 *(.config_00804000)
 .config_00804000
                0x00804000        0x4 build/aws_demos/production/_ext/1534096987/initialization.o

.config_00804004
                0x00804004        0x4
 *(.config_00804004)
 .config_00804004
                0x00804004        0x4 build/aws_demos/production/_ext/1534096987/initialization.o

.config_00804008
                0x00804008        0x4
 *(.config_00804008)
 .config_00804008
                0x00804008        0x4 build/aws_demos/production/_ext/1534096987/initialization.o

.vectors        0x00000000      0x264
                0x00000000                . = ALIGN (0x4)
                0x00000000                _sfixed = .
 *(.vectors .vectors.* .vectors_default .vectors_default.*)
 .vectors       0x00000000      0x264 build/aws_demos/production/_ext/1534096987/interrupts.o
                0x00000000                exception_table
 *(.isr_vector)
 *(.reset*)
 *(.after_vectors)

.text           0x00000264       0x20
                0x00000264                . = ALIGN (0x4)
 *(.glue_7t)
 .glue_7t       0x00000264        0x0 linker stubs
 *(.glue_7)
 .glue_7        0x00000264        0x0 linker stubs
 *(.gnu.linkonce.r.*)
 *(.ARM.extab* .gnu.linkonce.armextab.*)
                0x00000264                . = ALIGN (0x4)
 *(.init)
 .init          0x00000264        0x4 c:/program files/microchip/xc32/v2.40/bin/bin/../../lib/gcc/pic32c/6.2.1/v7e-m/fpv4-sp/hard/crti.o
                0x00000264                _init
 .init          0x00000268        0x8 c:/program files/microchip/xc32/v2.40/bin/bin/../../lib/gcc/pic32c/6.2.1/v7e-m/fpv4-sp/hard/crtn.o
                0x00000270                . = ALIGN (0x4)
                0x00000270                __preinit_array_start = .
 *(.preinit_array)
                0x00000270                __preinit_array_end = .
                0x00000270                . = ALIGN (0x4)
                0x00000270                __init_array_start = .
 *(SORT(.init_array.*))
 *(.init_array)
 .init_array    0x00000270        0x4 c:/program files/microchip/xc32/v2.40/bin/bin/../../lib/gcc/pic32c/6.2.1/v7e-m/fpv4-sp/hard/crtbegin.o
                0x00000274                __init_array_end = .
                0x00000274                . = ALIGN (0x4)
 *crtbegin.o(.ctors)
 *(EXCLUDE_FILE(*crtend.o) .ctors)
 *(SORT(.ctors.*))
 *crtend.o(.ctors)
                0x00000274                . = ALIGN (0x4)
 *(.fini)
 .fini          0x00000274        0x4 c:/program files/microchip/xc32/v2.40/bin/bin/../../lib/gcc/pic32c/6.2.1/v7e-m/fpv4-sp/hard/crti.o
                0x00000274                _fini
 .fini          0x00000278        0x8 c:/program files/microchip/xc32/v2.40/bin/bin/../../lib/gcc/pic32c/6.2.1/v7e-m/fpv4-sp/hard/crtn.o
                0x00000280                . = ALIGN (0x4)
                0x00000280                __fini_array_start = .
 *(.fini_array)
 .fini_array    0x00000280        0x4 c:/program files/microchip/xc32/v2.40/bin/bin/../../lib/gcc/pic32c/6.2.1/v7e-m/fpv4-sp/hard/crtbegin.o
 *(SORT(.fini_array.*))
                0x00000284                __fini_array_end = .
 *crtbegin.o(.dtors)
 *(EXCLUDE_FILE(*crtend.o) .dtors)
 *(SORT(.dtors.*))
 *crtend.o(.dtors)
                0x00000284                . = ALIGN (0x4)
                0x00000284                _efixed = .
                [!provide]                PROVIDE (__exidx_start, .)

.ARM.exidx      0x00000284        0x8
 *(.ARM.exidx* .gnu.linkonce.armexidx.*)
 .ARM.exidx     0x00000284        0x8 c:/program files/microchip/xc32/v2.40/bin/bin/../../lib/gcc/pic32c/6.2.1/v7e-m/fpv4-sp/hard\libgcc.a(_udivmoddi4.o)
                [!provide]                PROVIDE (__exidx_end, .)
                0x0000028c                . = ALIGN (0x4)
                0x0000028c                _etext = .

.bss            0x20000100      0x1a8
                0x20000100                . = ALIGN (0x4)
                0x20000100                __bss_start__ = .
                0x20000100                _sbss = .
                0x20000100                _szero = .
 *(COMMON)
 COMMON         0x20000100       0x30 build/aws_demos/production/_ext/731420310/plib_sercom2_usart.o
                0x20000100                sercom2USARTObj
 COMMON         0x20000130       0x38 build/aws_demos/production/_ext/731420310/plib_sercom6_usart.o
                0x20000130                sercom6USARTObj
 COMMON         0x20000168        0xc build/aws_demos/production/_ext/1534096987/initialization.o
                0x20000168                sysObj
 COMMON         0x20000174       0x28 build/aws_demos/production/_ext/1682906662/FreeRTOS_Sockets.o
                0x20000174                xBoundTCPSocketsList
                0x20000188                xBoundUDPSocketsList
 COMMON         0x2000019c       0xc0 build/aws_demos/production/_ext/59476128/plib_eic.o
                0x2000019c                eicCallbackObject
 COMMON         0x2000025c        0x8 build/aws_demos/production/_ext/1110296786/plib_tc3.o
                0x2000025c                TC3_CallbackObject
 COMMON         0x20000264       0x40 build/aws_demos/production/_ext/684768522/cipher_wrap.o
                0x20000264                mbedtls_cipher_supported
 COMMON         0x200002a4        0x4 c:/program files/microchip/xc32/v2.40/bin/bin/../../lib/gcc/pic32c/6.2.1/../../../../pic32c/lib/v7e-m/fpv4-sp/hard\libc_nano.a(lib_a-reent.o)
                0x200002a4                errno
                0x200002a8                . = ALIGN (0x4)
                0x200002a8                __bss_end__ = .
                0x200002a8                _ebss = .
                0x200002a8                _ezero = .
                0x200002a8                . = ALIGN (0x4)
                0x200002a8                _end = .
                0x2003feff                _ram_end_ = ((ORIGIN (ram) + LENGTH (ram)) - 0x1)
OUTPUT(dist/aws_demos/production/aws_demos.X.production.elf elf32-littlearm)
LOAD stack
LOAD data_init

.ARM.attributes
                0x00000000       0x30
 .ARM.attributes
                0x00000000       0x22 c:/program files/microchip/xc32/v2.40/bin/bin/../../lib/gcc/pic32c/6.2.1/v7e-m/fpv4-sp/hard/crti.o
 .ARM.attributes
                0x00000022       0x34 c:/program files/microchip/xc32/v2.40/bin/bin/../../lib/gcc/pic32c/6.2.1/v7e-m/fpv4-sp/hard/crtbegin.o
 .ARM.attributes
                0x00000056       0x39 build/aws_demos/production/_ext/1319661984/drv_gmac.o
 .ARM.attributes
                0x0000008f       0x39 build/aws_demos/production/_ext/1319661984/drv_gmac_lib_samE5x.o
 .ARM.attributes
                0x000000c8       0x39 build/aws_demos/production/_ext/665618993/plib_nvmctrl.o
 .ARM.attributes
                0x00000101       0x39 build/aws_demos/production/_ext/731420310/plib_sercom2_usart.o
 .ARM.attributes
                0x0000013a       0x39 build/aws_demos/production/_ext/1321577635/plib_evsys.o
 .ARM.attributes
                0x00000173       0x39 build/aws_demos/production/_ext/1991396724/sys_command.o
 .ARM.attributes
                0x000001ac       0x39 build/aws_demos/production/_ext/731420310/plib_sercom6_usart.o
 .ARM.attributes
                0x000001e5       0x39 build/aws_demos/production/_ext/1360937237/main.o
 .ARM.attributes
                0x0000021e       0x39 build/aws_demos/production/_ext/1534096987/initialization.o
 .ARM.attributes
                0x00000257       0x39 build/aws_demos/production/_ext/1534096987/interrupts.o
 .ARM.attributes
                0x00000290       0x39 build/aws_demos/production/_ext/1534096987/exceptions.o
 .ARM.attributes
                0x000002c9       0x39 build/aws_demos/production/_ext/1263901141/xc32_monitor.o
 .ARM.attributes
                0x00000302       0x39 build/aws_demos/production/_ext/1843425920/plib_port.o
 .ARM.attributes
                0x0000033b       0x39 build/aws_demos/production/_ext/1323727121/plib_clock.o
 .ARM.attributes
                0x00000374       0x39 build/aws_demos/production/_ext/1843479071/plib_nvic.o
 .ARM.attributes
                0x000003ad       0x39 build/aws_demos/production/_ext/1534096987/startup_xc32.o
 .ARM.attributes
                0x000003e6       0x39 build/aws_demos/production/_ext/1385882503/port.o
 .ARM.attributes
                0x0000041f       0x39 build/aws_demos/production/_ext/1168480030/heap_4.o
 .ARM.attributes
                0x00000458       0x39 build/aws_demos/production/_ext/112156576/iot_pkcs11_mbedtls.o
 .ARM.attributes
                0x00000491       0x39 build/aws_demos/production/_ext/366737/iot_secure_sockets.o
 .ARM.attributes
                0x000004ca       0x39 build/aws_demos/production/_ext/1682906662/FreeRTOS_ARP.o
 .ARM.attributes
                0x00000503       0x39 build/aws_demos/production/_ext/1682906662/FreeRTOS_DHCP.o
 .ARM.attributes
                0x0000053c       0x39 build/aws_demos/production/_ext/1682906662/FreeRTOS_DNS.o
 .ARM.attributes
                0x00000575       0x39 build/aws_demos/production/_ext/1682906662/FreeRTOS_IP.o
 .ARM.attributes
                0x000005ae       0x39 build/aws_demos/production/_ext/1682906662/FreeRTOS_Sockets.o
 .ARM.attributes
                0x000005e7       0x39 build/aws_demos/production/_ext/1682906662/FreeRTOS_Stream_Buffer.o
 .ARM.attributes
                0x00000620       0x39 build/aws_demos/production/_ext/1682906662/FreeRTOS_TCP_IP.o
 .ARM.attributes
                0x00000659       0x39 build/aws_demos/production/_ext/1682906662/FreeRTOS_TCP_WIN.o
 .ARM.attributes
                0x00000692       0x39 build/aws_demos/production/_ext/1682906662/FreeRTOS_UDP_IP.o
 .ARM.attributes
                0x000006cb       0x39 build/aws_demos/production/_ext/1778494626/BufferAllocation_2.o
 .ARM.attributes
                0x00000704       0x39 build/aws_demos/production/_ext/1778494626/NetworkInterface_eth.o
 .ARM.attributes
                0x0000073d       0x39 build/aws_demos/production/_ext/1972722184/iot_pkcs11_pal.o
 .ARM.attributes
                0x00000776       0x39 build/aws_demos/production/_ext/1972722184/pkcs11_nvm.o
 .ARM.attributes
                0x000007af       0x39 build/aws_demos/production/_ext/197858987/helpers.o
 .ARM.attributes
                0x000007e8       0x39 build/aws_demos/production/_ext/197858987/tcpip_heap_alloc.o
 .ARM.attributes
                0x00000821       0x39 build/aws_demos/production/_ext/197858987/tcpip_heap_external.o
 .ARM.attributes
                0x0000085a       0x39 build/aws_demos/production/_ext/197858987/tcpip_helpers.o
 .ARM.attributes
                0x00000893       0x39 build/aws_demos/production/_ext/197858987/tcpip_packet.o
 .ARM.attributes
                0x000008cc       0x39 build/aws_demos/production/_ext/59476128/plib_eic.o
 .ARM.attributes
                0x00000905       0x39 build/aws_demos/production/_ext/211704168/drv_miim.o
 .ARM.attributes
                0x0000093e       0x39 build/aws_demos/production/_ext/1110296786/plib_tc3.o
 .ARM.attributes
                0x00000977       0x39 build/aws_demos/production/_ext/484134862/sys_time.o
 .ARM.attributes
                0x000009b0       0x39 build/aws_demos/production/_ext/1223942466/aws_demo.o
 .ARM.attributes
                0x000009e9       0x39 build/aws_demos/production/_ext/1223942466/aws_demo_network_addr.o
 .ARM.attributes
                0x00000a22       0x39 build/aws_demos/production/_ext/1223942466/iot_demo_freertos.o
 .ARM.attributes
                0x00000a5b       0x39 build/aws_demos/production/_ext/1223942466/iot_demo_runner.o
 .ARM.attributes
                0x00000a94       0x39 build/aws_demos/production/_ext/198771642/aws_dev_mode_key_provisioning.o
 .ARM.attributes
                0x00000acd       0x39 build/aws_demos/production/_ext/1441508942/iot_demo_mqtt.o
 .ARM.attributes
                0x00000b06       0x39 build/aws_demos/production/_ext/2040524622/aws_iot_network_manager.o
 .ARM.attributes
                0x00000b3f       0x39 build/aws_demos/production/_ext/811507611/event_groups.o
 .ARM.attributes
                0x00000b78       0x39 build/aws_demos/production/_ext/811507611/list.o
 .ARM.attributes
                0x00000bb1       0x39 build/aws_demos/production/_ext/811507611/queue.o
 .ARM.attributes
                0x00000bea       0x39 build/aws_demos/production/_ext/811507611/tasks.o
 .ARM.attributes
                0x00000c23       0x39 build/aws_demos/production/_ext/811507611/timers.o
 .ARM.attributes
                0x00000c5c       0x39 build/aws_demos/production/_ext/684768522/aes.o
 .ARM.attributes
                0x00000c95       0x39 build/aws_demos/production/_ext/684768522/asn1parse.o
 .ARM.attributes
                0x00000cce       0x39 build/aws_demos/production/_ext/684768522/asn1write.o
 .ARM.attributes
                0x00000d07       0x39 build/aws_demos/production/_ext/684768522/base64.o
 .ARM.attributes
                0x00000d40       0x39 build/aws_demos/production/_ext/684768522/bignum.o
 .ARM.attributes
                0x00000d79       0x39 build/aws_demos/production/_ext/684768522/cipher.o
 .ARM.attributes
                0x00000db2       0x39 build/aws_demos/production/_ext/684768522/cipher_wrap.o
 .ARM.attributes
                0x00000deb       0x39 build/aws_demos/production/_ext/684768522/ctr_drbg.o
 .ARM.attributes
                0x00000e24       0x39 build/aws_demos/production/_ext/684768522/ecdh.o
 .ARM.attributes
                0x00000e5d       0x39 build/aws_demos/production/_ext/684768522/ecdsa.o
 .ARM.attributes
                0x00000e96       0x39 build/aws_demos/production/_ext/684768522/ecp.o
 .ARM.attributes
                0x00000ecf       0x39 build/aws_demos/production/_ext/684768522/ecp_curves.o
 .ARM.attributes
                0x00000f08       0x39 build/aws_demos/production/_ext/684768522/entropy.o
 .ARM.attributes
                0x00000f41       0x39 build/aws_demos/production/_ext/684768522/gcm.o
 .ARM.attributes
                0x00000f7a       0x39 build/aws_demos/production/_ext/684768522/md.o
 .ARM.attributes
                0x00000fb3       0x39 build/aws_demos/production/_ext/684768522/md_wrap.o
 .ARM.attributes
                0x00000fec       0x39 build/aws_demos/production/_ext/684768522/oid.o
 .ARM.attributes
                0x00001025       0x39 build/aws_demos/production/_ext/684768522/pem.o
 .ARM.attributes
                0x0000105e       0x39 build/aws_demos/production/_ext/684768522/pk.o
 .ARM.attributes
                0x00001097       0x39 build/aws_demos/production/_ext/684768522/pkparse.o
 .ARM.attributes
                0x000010d0       0x39 build/aws_demos/production/_ext/684768522/pkwrite.o
 .ARM.attributes
                0x00001109       0x39 build/aws_demos/production/_ext/684768522/pk_wrap.o
 .ARM.attributes
                0x00001142       0x39 build/aws_demos/production/_ext/684768522/platform.o
 .ARM.attributes
                0x0000117b       0x39 build/aws_demos/production/_ext/684768522/platform_util.o
 .ARM.attributes
                0x000011b4       0x39 build/aws_demos/production/_ext/684768522/rsa.o
 .ARM.attributes
                0x000011ed       0x39 build/aws_demos/production/_ext/684768522/rsa_internal.o
 .ARM.attributes
                0x00001226       0x39 build/aws_demos/production/_ext/684768522/sha1.o
 .ARM.attributes
                0x0000125f       0x39 build/aws_demos/production/_ext/684768522/sha256.o
 .ARM.attributes
                0x00001298       0x39 build/aws_demos/production/_ext/684768522/ssl_ciphersuites.o
 .ARM.attributes
                0x000012d1       0x39 build/aws_demos/production/_ext/684768522/ssl_cli.o
 .ARM.attributes
                0x0000130a       0x39 build/aws_demos/production/_ext/684768522/ssl_tls.o
 .ARM.attributes
                0x00001343       0x39 build/aws_demos/production/_ext/684768522/threading.o
 .ARM.attributes
                0x0000137c       0x39 build/aws_demos/production/_ext/684768522/x509.o
 .ARM.attributes
                0x000013b5       0x39 build/aws_demos/production/_ext/684768522/x509_crt.o
 .ARM.attributes
                0x000013ee       0x39 build/aws_demos/production/_ext/2077790016/mbedtls_utils.o
 .ARM.attributes
                0x00001427       0x39 build/aws_demos/production/_ext/520142351/iot_clock_freertos.o
 .ARM.attributes
                0x00001460       0x39 build/aws_demos/production/_ext/520142351/iot_network_freertos.o
 .ARM.attributes
                0x00001499       0x39 build/aws_demos/production/_ext/520142351/iot_threads_freertos.o
 .ARM.attributes
                0x000014d2       0x39 build/aws_demos/production/_ext/13066905/iot_device_metrics.o
 .ARM.attributes
                0x0000150b       0x39 build/aws_demos/production/_ext/13066905/iot_init.o
 .ARM.attributes
                0x00001544       0x39 build/aws_demos/production/_ext/227692215/iot_logging.o
 .ARM.attributes
                0x0000157d       0x39 build/aws_demos/production/_ext/227692215/iot_logging_task_dynamic_buffers.o
 .ARM.attributes
                0x000015b6       0x39 build/aws_demos/production/_ext/333408969/iot_taskpool.o
 .ARM.attributes
                0x000015ef       0x39 build/aws_demos/production/_ext/1739149067/iot_mqtt_api.o
 .ARM.attributes
                0x00001628       0x39 build/aws_demos/production/_ext/1739149067/iot_mqtt_network.o
 .ARM.attributes
                0x00001661       0x39 build/aws_demos/production/_ext/1739149067/iot_mqtt_operation.o
 .ARM.attributes
                0x0000169a       0x39 build/aws_demos/production/_ext/1739149067/iot_mqtt_serialize.o
 .ARM.attributes
                0x000016d3       0x39 build/aws_demos/production/_ext/1739149067/iot_mqtt_subscription.o
 .ARM.attributes
                0x0000170c       0x39 build/aws_demos/production/_ext/1739149067/iot_mqtt_validate.o
 .ARM.attributes
                0x00001745       0x39 build/aws_demos/production/_ext/350635301/iot_crypto.o
 .ARM.attributes
                0x0000177e       0x39 build/aws_demos/production/_ext/2138053595/iot_pkcs11.o
 .ARM.attributes
                0x000017b7       0x39 build/aws_demos/production/_ext/2039890517/iot_tls.o
 .ARM.attributes
                0x000017f0       0x39 build/aws_demos/production/_ext/1120274527/iot_pki_utils.o
 .ARM.attributes
                0x00001829       0x39 build/aws_demos/production/_ext/1120274527/iot_system_init.o
 .ARM.attributes
                0x00001862       0x39 build/aws_demos/production/_ext/1200684192/drv_ethphy.o
 .ARM.attributes
                0x0000189b       0x39 build/aws_demos/production/_ext/1200684192/drv_extphy_ksz8091.o
 .ARM.attributes
                0x000018d4       0x39 build/aws_demos/production/_ext/1843304010/plib_trng.o
 .ARM.attributes
                0x0000190d       0x39 build/aws_demos/production/_ext/1534684544/sys_console.o
 .ARM.attributes
                0x00001946       0x39 build/aws_demos/production/_ext/1534684544/sys_console_uart.o
 .ARM.attributes
                0x0000197f       0x39 build/aws_demos/production/_ext/1762024984/sys_int.o
 .ARM.attributes
                0x000019b8       0x39 build/aws_demos/production/_ext/1149029443/osal_freertos.o
 .ARM.attributes
                0x000019f1       0x39 build/aws_demos/production/_ext/1534096987/tasks.o
 .ARM.attributes
                0x00001a2a       0x34 c:/program files/microchip/xc32/v2.40/bin/bin/../../lib/gcc/pic32c/6.2.1/../../../../pic32c/lib/v7e-m/fpv4-sp/hard\libpic32c.a(data_init.o)
 .ARM.attributes
                0x00001a5e       0x22 c:/program files/microchip/xc32/v2.40/bin/bin/../../lib/gcc/pic32c/6.2.1/v7e-m/fpv4-sp/hard\libgcc.a(_aeabi_uldivmod.o)
 .ARM.attributes
                0x00001a80       0x34 c:/program files/microchip/xc32/v2.40/bin/bin/../../lib/gcc/pic32c/6.2.1/v7e-m/fpv4-sp/hard\libgcc.a(_udivmoddi4.o)
 .ARM.attributes
                0x00001ab4       0x22 c:/program files/microchip/xc32/v2.40/bin/bin/../../lib/gcc/pic32c/6.2.1/v7e-m/fpv4-sp/hard\libgcc.a(_dvmd_tls.o)
 .ARM.attributes
                0x00001ad6       0x34 c:/program files/microchip/xc32/v2.40/bin/bin/../../lib/gcc/pic32c/6.2.1/../../../../pic32c/lib/v7e-m/fpv4-sp/hard\libc_nano.a(lib_a-calloc.o)
 .ARM.attributes
                0x00001b0a       0x34 c:/program files/microchip/xc32/v2.40/bin/bin/../../lib/gcc/pic32c/6.2.1/../../../../pic32c/lib/v7e-m/fpv4-sp/hard\libc_nano.a(lib_a-impure.o)
 .ARM.attributes
                0x00001b3e       0x34 c:/program files/microchip/xc32/v2.40/bin/bin/../../lib/gcc/pic32c/6.2.1/../../../../pic32c/lib/v7e-m/fpv4-sp/hard\libc_nano.a(lib_a-init.o)
 .ARM.attributes
                0x00001b72       0x34 c:/program files/microchip/xc32/v2.40/bin/bin/../../lib/gcc/pic32c/6.2.1/../../../../pic32c/lib/v7e-m/fpv4-sp/hard\libc_nano.a(lib_a-locale.o)
 .ARM.attributes
                0x00001ba6       0x34 c:/program files/microchip/xc32/v2.40/bin/bin/../../lib/gcc/pic32c/6.2.1/../../../../pic32c/lib/v7e-m/fpv4-sp/hard\libc_nano.a(lib_a-malloc.o)
 .ARM.attributes
                0x00001bda       0x34 c:/program files/microchip/xc32/v2.40/bin/bin/../../lib/gcc/pic32c/6.2.1/../../../../pic32c/lib/v7e-m/fpv4-sp/hard\libc_nano.a(lib_a-mbtowc_r.o)
 .ARM.attributes
                0x00001c0e       0x34 c:/program files/microchip/xc32/v2.40/bin/bin/../../lib/gcc/pic32c/6.2.1/../../../../pic32c/lib/v7e-m/fpv4-sp/hard\libc_nano.a(lib_a-memcmp.o)
 .ARM.attributes
                0x00001c42       0x34 c:/program files/microchip/xc32/v2.40/bin/bin/../../lib/gcc/pic32c/6.2.1/../../../../pic32c/lib/v7e-m/fpv4-sp/hard\libc_nano.a(lib_a-memcpy-stub.o)
 .ARM.attributes
                0x00001c76       0x34 c:/program files/microchip/xc32/v2.40/bin/bin/../../lib/gcc/pic32c/6.2.1/../../../../pic32c/lib/v7e-m/fpv4-sp/hard\libc_nano.a(lib_a-memmove.o)
 .ARM.attributes
                0x00001caa       0x34 c:/program files/microchip/xc32/v2.40/bin/bin/../../lib/gcc/pic32c/6.2.1/../../../../pic32c/lib/v7e-m/fpv4-sp/hard\libc_nano.a(lib_a-memset.o)
 .ARM.attributes
                0x00001cde       0x34 c:/program files/microchip/xc32/v2.40/bin/bin/../../lib/gcc/pic32c/6.2.1/../../../../pic32c/lib/v7e-m/fpv4-sp/hard\libc_nano.a(lib_a-nano-callocr.o)
 .ARM.attributes
                0x00001d12       0x34 c:/program files/microchip/xc32/v2.40/bin/bin/../../lib/gcc/pic32c/6.2.1/../../../../pic32c/lib/v7e-m/fpv4-sp/hard\libc_nano.a(lib_a-nano-freer.o)
 .ARM.attributes
                0x00001d46       0x34 c:/program files/microchip/xc32/v2.40/bin/bin/../../lib/gcc/pic32c/6.2.1/../../../../pic32c/lib/v7e-m/fpv4-sp/hard\libc_nano.a(lib_a-nano-mallocr.o)
 .ARM.attributes
                0x00001d7a       0x34 c:/program files/microchip/xc32/v2.40/bin/bin/../../lib/gcc/pic32c/6.2.1/../../../../pic32c/lib/v7e-m/fpv4-sp/hard\libc_nano.a(lib_a-nano-vfprintf.o)
 .ARM.attributes
                0x00001dae       0x34 c:/program files/microchip/xc32/v2.40/bin/bin/../../lib/gcc/pic32c/6.2.1/../../../../pic32c/lib/v7e-m/fpv4-sp/hard\libc_nano.a(_lib_a-nano-vfprintf.s.o)
 .ARM.attributes
                0x00001de2       0x34 c:/program files/microchip/xc32/v2.40/bin/bin/../../lib/gcc/pic32c/6.2.1/../../../../pic32c/lib/v7e-m/fpv4-sp/hard\libc_nano.a(lib_a-printf.o)
 .ARM.attributes
                0x00001e16       0x34 c:/program files/microchip/xc32/v2.40/bin/bin/../../lib/gcc/pic32c/6.2.1/../../../../pic32c/lib/v7e-m/fpv4-sp/hard\libc_nano.a(lib_a-putchar.o)
 .ARM.attributes
                0x00001e4a       0x34 c:/program files/microchip/xc32/v2.40/bin/bin/../../lib/gcc/pic32c/6.2.1/../../../../pic32c/lib/v7e-m/fpv4-sp/hard\libc_nano.a(lib_a-putc.o)
 .ARM.attributes
                0x00001e7e       0x34 c:/program files/microchip/xc32/v2.40/bin/bin/../../lib/gcc/pic32c/6.2.1/../../../../pic32c/lib/v7e-m/fpv4-sp/hard\libc_nano.a(lib_a-puts.o)
 .ARM.attributes
                0x00001eb2       0x34 c:/program files/microchip/xc32/v2.40/bin/bin/../../lib/gcc/pic32c/6.2.1/../../../../pic32c/lib/v7e-m/fpv4-sp/hard\libc_nano.a(lib_a-rand.o)
 .ARM.attributes
                0x00001ee6       0x34 c:/program files/microchip/xc32/v2.40/bin/bin/../../lib/gcc/pic32c/6.2.1/../../../../pic32c/lib/v7e-m/fpv4-sp/hard\libc_nano.a(lib_a-sbrkr.o)
 .ARM.attributes
                0x00001f1a       0x34 c:/program files/microchip/xc32/v2.40/bin/bin/../../lib/gcc/pic32c/6.2.1/../../../../pic32c/lib/v7e-m/fpv4-sp/hard\libc_nano.a(lib_a-snprintf.o)
 .ARM.attributes
                0x00001f4e       0x34 c:/program files/microchip/xc32/v2.40/bin/bin/../../lib/gcc/pic32c/6.2.1/../../../../pic32c/lib/v7e-m/fpv4-sp/hard\libc_nano.a(lib_a-sprintf.o)
 .ARM.attributes
                0x00001f82       0x34 c:/program files/microchip/xc32/v2.40/bin/bin/../../lib/gcc/pic32c/6.2.1/../../../../pic32c/lib/v7e-m/fpv4-sp/hard\libc_nano.a(_lib_a-sscanf.cdnopsuxX.o)
 .ARM.attributes
                0x00001fb6       0x34 c:/program files/microchip/xc32/v2.40/bin/bin/../../lib/gcc/pic32c/6.2.1/../../../../pic32c/lib/v7e-m/fpv4-sp/hard\libc_nano.a(lib_a-__ssfputs.o)
 .ARM.attributes
                0x00001fea       0x34 c:/program files/microchip/xc32/v2.40/bin/bin/../../lib/gcc/pic32c/6.2.1/../../../../pic32c/lib/v7e-m/fpv4-sp/hard\libc_nano.a(lib_a-stdio.o)
 .ARM.attributes
                0x0000201e       0x20 c:/program files/microchip/xc32/v2.40/bin/bin/../../lib/gcc/pic32c/6.2.1/../../../../pic32c/lib/v7e-m/fpv4-sp/hard\libc_nano.a(lib_a-strcmp.o)
 .ARM.attributes
                0x0000203e       0x34 c:/program files/microchip/xc32/v2.40/bin/bin/../../lib/gcc/pic32c/6.2.1/../../../../pic32c/lib/v7e-m/fpv4-sp/hard\libc_nano.a(lib_a-strcpy.o)
 .ARM.attributes
                0x00002072       0x1b c:/program files/microchip/xc32/v2.40/bin/bin/../../lib/gcc/pic32c/6.2.1/../../../../pic32c/lib/v7e-m/fpv4-sp/hard\libc_nano.a(lib_a-strlen.o)
 .ARM.attributes
                0x0000208d       0x34 c:/program files/microchip/xc32/v2.40/bin/bin/../../lib/gcc/pic32c/6.2.1/../../../../pic32c/lib/v7e-m/fpv4-sp/hard\libc_nano.a(lib_a-strncmp.o)
 .ARM.attributes
                0x000020c1       0x34 c:/program files/microchip/xc32/v2.40/bin/bin/../../lib/gcc/pic32c/6.2.1/../../../../pic32c/lib/v7e-m/fpv4-sp/hard\libc_nano.a(lib_a-strncpy.o)
 .ARM.attributes
                0x000020f5       0x34 c:/program files/microchip/xc32/v2.40/bin/bin/../../lib/gcc/pic32c/6.2.1/../../../../pic32c/lib/v7e-m/fpv4-sp/hard\libc_nano.a(lib_a-strstr.o)
 .ARM.attributes
                0x00002129       0x34 c:/program files/microchip/xc32/v2.40/bin/bin/../../lib/gcc/pic32c/6.2.1/../../../../pic32c/lib/v7e-m/fpv4-sp/hard\libc_nano.a(lib_a-strtol.o)
 .ARM.attributes
                0x0000215d       0x34 c:/program files/microchip/xc32/v2.40/bin/bin/../../lib/gcc/pic32c/6.2.1/../../../../pic32c/lib/v7e-m/fpv4-sp/hard\libc_nano.a(lib_a-strtoul.o)
 .ARM.attributes
                0x00002191       0x34 c:/program files/microchip/xc32/v2.40/bin/bin/../../lib/gcc/pic32c/6.2.1/../../../../pic32c/lib/v7e-m/fpv4-sp/hard\libc_nano.a(lib_a-vsnprintf.o)
 .ARM.attributes
                0x000021c5       0x34 c:/program files/microchip/xc32/v2.40/bin/bin/../../lib/gcc/pic32c/6.2.1/../../../../pic32c/lib/v7e-m/fpv4-sp/hard\libc_nano.a(lib_a-wbuf.o)
 .ARM.attributes
                0x000021f9       0x34 c:/program files/microchip/xc32/v2.40/bin/bin/../../lib/gcc/pic32c/6.2.1/../../../../pic32c/lib/v7e-m/fpv4-sp/hard\libc_nano.a(lib_a-wctomb_r.o)
 .ARM.attributes
                0x0000222d       0x34 c:/program files/microchip/xc32/v2.40/bin/bin/../../lib/gcc/pic32c/6.2.1/../../../../pic32c/lib/v7e-m/fpv4-sp/hard\libc_nano.a(lib_a-writer.o)
 .ARM.attributes
                0x00002261       0x34 c:/program files/microchip/xc32/v2.40/bin/bin/../../lib/gcc/pic32c/6.2.1/../../../../pic32c/lib/v7e-m/fpv4-sp/hard\libc_nano.a(lib_a-wsetup.o)
 .ARM.attributes
                0x00002295       0x34 c:/program files/microchip/xc32/v2.40/bin/bin/../../lib/gcc/pic32c/6.2.1/../../../../pic32c/lib/v7e-m/fpv4-sp/hard\libc_nano.a(lib_a-closer.o)
 .ARM.attributes
                0x000022c9       0x34 c:/program files/microchip/xc32/v2.40/bin/bin/../../lib/gcc/pic32c/6.2.1/../../../../pic32c/lib/v7e-m/fpv4-sp/hard\libc_nano.a(lib_a-ctype_.o)
 .ARM.attributes
                0x000022fd       0x34 c:/program files/microchip/xc32/v2.40/bin/bin/../../lib/gcc/pic32c/6.2.1/../../../../pic32c/lib/v7e-m/fpv4-sp/hard\libc_nano.a(lib_a-fflush.o)
 .ARM.attributes
                0x00002331       0x34 c:/program files/microchip/xc32/v2.40/bin/bin/../../lib/gcc/pic32c/6.2.1/../../../../pic32c/lib/v7e-m/fpv4-sp/hard\libc_nano.a(lib_a-findfp.o)
 .ARM.attributes
                0x00002365       0x34 c:/program files/microchip/xc32/v2.40/bin/bin/../../lib/gcc/pic32c/6.2.1/../../../../pic32c/lib/v7e-m/fpv4-sp/hard\libc_nano.a(lib_a-fputwc.o)
 .ARM.attributes
                0x00002399       0x34 c:/program files/microchip/xc32/v2.40/bin/bin/../../lib/gcc/pic32c/6.2.1/../../../../pic32c/lib/v7e-m/fpv4-sp/hard\libc_nano.a(lib_a-fwalk.o)
 .ARM.attributes
                0x000023cd       0x34 c:/program files/microchip/xc32/v2.40/bin/bin/../../lib/gcc/pic32c/6.2.1/../../../../pic32c/lib/v7e-m/fpv4-sp/hard\libc_nano.a(lib_a-lseekr.o)
 .ARM.attributes
                0x00002401       0x34 c:/program files/microchip/xc32/v2.40/bin/bin/../../lib/gcc/pic32c/6.2.1/../../../../pic32c/lib/v7e-m/fpv4-sp/hard\libc_nano.a(lib_a-makebuf.o)
 .ARM.attributes
                0x00002435       0x20 c:/program files/microchip/xc32/v2.40/bin/bin/../../lib/gcc/pic32c/6.2.1/../../../../pic32c/lib/v7e-m/fpv4-sp/hard\libc_nano.a(lib_a-memchr.o)
 .ARM.attributes
                0x00002455       0x34 c:/program files/microchip/xc32/v2.40/bin/bin/../../lib/gcc/pic32c/6.2.1/../../../../pic32c/lib/v7e-m/fpv4-sp/hard\libc_nano.a(lib_a-mlock.o)
 .ARM.attributes
                0x00002489       0x34 c:/program files/microchip/xc32/v2.40/bin/bin/../../lib/gcc/pic32c/6.2.1/../../../../pic32c/lib/v7e-m/fpv4-sp/hard\libc_nano.a(lib_a-nano-svfprintf.o)
 .ARM.attributes
                0x000024bd       0x34 c:/program files/microchip/xc32/v2.40/bin/bin/../../lib/gcc/pic32c/6.2.1/../../../../pic32c/lib/v7e-m/fpv4-sp/hard\libc_nano.a(lib_a-nano-vfprintf_i.o)
 .ARM.attributes
                0x000024f1       0x34 c:/program files/microchip/xc32/v2.40/bin/bin/../../lib/gcc/pic32c/6.2.1/../../../../pic32c/lib/v7e-m/fpv4-sp/hard\libc_nano.a(_lib_a-nano-vfscanf.cdnopsuxX.o)
 .ARM.attributes
                0x00002525       0x34 c:/program files/microchip/xc32/v2.40/bin/bin/../../lib/gcc/pic32c/6.2.1/../../../../pic32c/lib/v7e-m/fpv4-sp/hard\libc_nano.a(lib_a-readr.o)
 .ARM.attributes
                0x00002559       0x34 c:/program files/microchip/xc32/v2.40/bin/bin/../../lib/gcc/pic32c/6.2.1/../../../../pic32c/lib/v7e-m/fpv4-sp/hard\libc_nano.a(lib_a-reent.o)
 .ARM.attributes
                0x0000258d       0x34 c:/program files/microchip/xc32/v2.40/bin/bin/../../lib/gcc/pic32c/6.2.1/../../../../pic32c/lib/v7e-m/fpv4-sp/hard\libc_nano.a(lib_a-refill.o)
 .ARM.attributes
                0x000025c1       0x34 c:/program files/microchip/xc32/v2.40/bin/bin/../../lib/gcc/pic32c/6.2.1/../../../../pic32c/lib/v7e-m/fpv4-sp/hard\libc_nano.a(lib_a-sccl.o)
 .ARM.attributes
                0x000025f5       0x34 c:/program files/microchip/xc32/v2.40/bin/bin/../../lib/gcc/pic32c/6.2.1/../../../../pic32c/lib/v7e-m/fpv4-sp/hard\libc_nano.a(lib_a-__ssputs.o)
 .ARM.attributes
                0x00002629       0x34 c:/program files/microchip/xc32/v2.40/bin/bin/../../lib/gcc/pic32c/6.2.1/../../../../pic32c/lib/v7e-m/fpv4-sp/hard\libc_nano.a(lib_a-ungetc.o)
 .ARM.attributes
                0x0000265d       0x34 c:/program files/microchip/xc32/v2.40/bin/bin/../../lib/gcc/pic32c/6.2.1/../../../../pic32c/lib/v7e-m/fpv4-sp/hard\libc_nano.a(lib_a-wcrtomb.o)
 .ARM.attributes
                0x00002691       0x34 c:/program files/microchip/xc32/v2.40/bin/bin/../../lib/gcc/pic32c/6.2.1/../../../../pic32c/lib/v7e-m/fpv4-sp/hard\libc_nano.a(lib_a-fstatr.o)
 .ARM.attributes
                0x000026c5       0x34 c:/program files/microchip/xc32/v2.40/bin/bin/../../lib/gcc/pic32c/6.2.1/../../../../pic32c/lib/v7e-m/fpv4-sp/hard\libc_nano.a(lib_a-isattyr.o)
 .ARM.attributes
                0x000026f9       0x34 c:/program files/microchip/xc32/v2.40/bin/bin/../../lib/gcc/pic32c/6.2.1/../../../../pic32c/lib/v7e-m/fpv4-sp/hard\libc_nano.a(lib_a-nano-reallocr.o)
 .ARM.attributes
                0x0000272d       0x34 c:/program files/microchip/xc32/v2.40/bin/bin/../../lib/gcc/pic32c/6.2.1/../../../../pic32c/lib/v7e-m/fpv4-sp/hard\libc_nano.a(lib_a-nano-msizer.o)
 .ARM.attributes
                0x00002761       0x34 c:/program files/microchip/xc32/v2.40/bin/bin/../../lib/gcc/pic32c/6.2.1/../../../../pic32c/lib/v7e-m/fpv4-sp/hard\libpic32c.a(_close.o)
 .ARM.attributes
                0x00002795       0x34 c:/program files/microchip/xc32/v2.40/bin/bin/../../lib/gcc/pic32c/6.2.1/../../../../pic32c/lib/v7e-m/fpv4-sp/hard\libpic32c.a(_fstat.o)
 .ARM.attributes
                0x000027c9       0x34 c:/program files/microchip/xc32/v2.40/bin/bin/../../lib/gcc/pic32c/6.2.1/../../../../pic32c/lib/v7e-m/fpv4-sp/hard\libpic32c.a(_isatty.o)
 .ARM.attributes
                0x000027fd       0x34 c:/program files/microchip/xc32/v2.40/bin/bin/../../lib/gcc/pic32c/6.2.1/../../../../pic32c/lib/v7e-m/fpv4-sp/hard\libpic32c.a(_lseek.o)
 .ARM.attributes
                0x00002831       0x34 c:/program files/microchip/xc32/v2.40/bin/bin/../../lib/gcc/pic32c/6.2.1/../../../../pic32c/lib/v7e-m/fpv4-sp/hard\libpic32c.a(_read.o)
 .ARM.attributes
                0x00002865       0x34 c:/program files/microchip/xc32/v2.40/bin/bin/../../lib/gcc/pic32c/6.2.1/../../../../pic32c/lib/v7e-m/fpv4-sp/hard\libpic32c.a(sbrk.o)
 .ARM.attributes
                0x00002899       0x34 c:/program files/microchip/xc32/v2.40/bin/bin/../../lib/gcc/pic32c/6.2.1/../../../../pic32c/lib/v7e-m/fpv4-sp/hard\libpic32c.a(_write.o)
 .ARM.attributes
                0x000028cd       0x34 c:/program files/microchip/xc32/v2.40/bin/bin/../../lib/gcc/pic32c/6.2.1/../../../../pic32c/lib/v7e-m/fpv4-sp/hard\libpic32c.a(close.o)
 .ARM.attributes
                0x00002901       0x34 c:/program files/microchip/xc32/v2.40/bin/bin/../../lib/gcc/pic32c/6.2.1/../../../../pic32c/lib/v7e-m/fpv4-sp/hard\libpic32c.a(fstat.o)
 .ARM.attributes
                0x00002935       0x34 c:/program files/microchip/xc32/v2.40/bin/bin/../../lib/gcc/pic32c/6.2.1/../../../../pic32c/lib/v7e-m/fpv4-sp/hard\libpic32c.a(isatty.o)
 .ARM.attributes
                0x00002969       0x34 c:/program files/microchip/xc32/v2.40/bin/bin/../../lib/gcc/pic32c/6.2.1/../../../../pic32c/lib/v7e-m/fpv4-sp/hard\libpic32c.a(lseek.o)
 .ARM.attributes
                0x0000299d       0x34 c:/program files/microchip/xc32/v2.40/bin/bin/../../lib/gcc/pic32c/6.2.1/../../../../pic32c/lib/v7e-m/fpv4-sp/hard\libpic32c.a(read.o)
 .ARM.attributes
                0x000029d1       0x34 c:/program files/microchip/xc32/v2.40/bin/bin/../../lib/gcc/pic32c/6.2.1/../../../../pic32c/lib/v7e-m/fpv4-sp/hard\libpic32c.a(write.o)
 .ARM.attributes
                0x00002a05       0x22 c:/program files/microchip/xc32/v2.40/bin/bin/../../lib/gcc/pic32c/6.2.1/v7e-m/fpv4-sp/hard/crtn.o

.comment        0x00000000       0x3c
 .comment       0x00000000       0x3c c:/program files/microchip/xc32/v2.40/bin/bin/../../lib/gcc/pic32c/6.2.1/v7e-m/fpv4-sp/hard/crtbegin.o
                                 0x3d (size before relaxing)
 .comment       0x0000003c       0x3d build/aws_demos/production/_ext/1319661984/drv_gmac.o
 .comment       0x0000003c       0x3d build/aws_demos/production/_ext/1319661984/drv_gmac_lib_samE5x.o
 .comment       0x0000003c       0x3d build/aws_demos/production/_ext/665618993/plib_nvmctrl.o
 .comment       0x0000003c       0x3d build/aws_demos/production/_ext/731420310/plib_sercom2_usart.o
 .comment       0x0000003c       0x3d build/aws_demos/production/_ext/1321577635/plib_evsys.o
 .comment       0x0000003c       0x3d build/aws_demos/production/_ext/1991396724/sys_command.o
 .comment       0x0000003c       0x3d build/aws_demos/production/_ext/731420310/plib_sercom6_usart.o
 .comment       0x0000003c       0x3d build/aws_demos/production/_ext/1360937237/main.o
 .comment       0x0000003c       0x3d build/aws_demos/production/_ext/1534096987/initialization.o
 .comment       0x0000003c       0x3d build/aws_demos/production/_ext/1534096987/interrupts.o
 .comment       0x0000003c       0x3d build/aws_demos/production/_ext/1534096987/exceptions.o
 .comment       0x0000003c       0x3d build/aws_demos/production/_ext/1263901141/xc32_monitor.o
 .comment       0x0000003c       0x3d build/aws_demos/production/_ext/1843425920/plib_port.o
 .comment       0x0000003c       0x3d build/aws_demos/production/_ext/1323727121/plib_clock.o
 .comment       0x0000003c       0x3d build/aws_demos/production/_ext/1843479071/plib_nvic.o
 .comment       0x0000003c       0x3d build/aws_demos/production/_ext/1534096987/startup_xc32.o
 .comment       0x0000003c       0x3d build/aws_demos/production/_ext/1385882503/port.o
 .comment       0x0000003c       0x3d build/aws_demos/production/_ext/1168480030/heap_4.o
 .comment       0x0000003c       0x3d build/aws_demos/production/_ext/112156576/iot_pkcs11_mbedtls.o
 .comment       0x0000003c       0x3d build/aws_demos/production/_ext/366737/iot_secure_sockets.o
 .comment       0x0000003c       0x3d build/aws_demos/production/_ext/1682906662/FreeRTOS_ARP.o
 .comment       0x0000003c       0x3d build/aws_demos/production/_ext/1682906662/FreeRTOS_DHCP.o
 .comment       0x0000003c       0x3d build/aws_demos/production/_ext/1682906662/FreeRTOS_DNS.o
 .comment       0x0000003c       0x3d build/aws_demos/production/_ext/1682906662/FreeRTOS_IP.o
 .comment       0x0000003c       0x3d build/aws_demos/production/_ext/1682906662/FreeRTOS_Sockets.o
 .comment       0x0000003c       0x3d build/aws_demos/production/_ext/1682906662/FreeRTOS_Stream_Buffer.o
 .comment       0x0000003c       0x3d build/aws_demos/production/_ext/1682906662/FreeRTOS_TCP_IP.o
 .comment       0x0000003c       0x3d build/aws_demos/production/_ext/1682906662/FreeRTOS_TCP_WIN.o
 .comment       0x0000003c       0x3d build/aws_demos/production/_ext/1682906662/FreeRTOS_UDP_IP.o
 .comment       0x0000003c       0x3d build/aws_demos/production/_ext/1778494626/BufferAllocation_2.o
 .comment       0x0000003c       0x3d build/aws_demos/production/_ext/1778494626/NetworkInterface_eth.o
 .comment       0x0000003c       0x3d build/aws_demos/production/_ext/1972722184/iot_pkcs11_pal.o
 .comment       0x0000003c       0x3d build/aws_demos/production/_ext/1972722184/pkcs11_nvm.o
 .comment       0x0000003c       0x3d build/aws_demos/production/_ext/197858987/helpers.o
 .comment       0x0000003c       0x3d build/aws_demos/production/_ext/197858987/tcpip_heap_alloc.o
 .comment       0x0000003c       0x3d build/aws_demos/production/_ext/197858987/tcpip_heap_external.o
 .comment       0x0000003c       0x3d build/aws_demos/production/_ext/197858987/tcpip_helpers.o
 .comment       0x0000003c       0x3d build/aws_demos/production/_ext/197858987/tcpip_packet.o
 .comment       0x0000003c       0x3d build/aws_demos/production/_ext/59476128/plib_eic.o
 .comment       0x0000003c       0x3d build/aws_demos/production/_ext/211704168/drv_miim.o
 .comment       0x0000003c       0x3d build/aws_demos/production/_ext/1110296786/plib_tc3.o
 .comment       0x0000003c       0x3d build/aws_demos/production/_ext/484134862/sys_time.o
 .comment       0x0000003c       0x3d build/aws_demos/production/_ext/1223942466/aws_demo.o
 .comment       0x0000003c       0x3d build/aws_demos/production/_ext/1223942466/aws_demo_network_addr.o
 .comment       0x0000003c       0x3d build/aws_demos/production/_ext/1223942466/iot_demo_freertos.o
 .comment       0x0000003c       0x3d build/aws_demos/production/_ext/1223942466/iot_demo_runner.o
 .comment       0x0000003c       0x3d build/aws_demos/production/_ext/198771642/aws_dev_mode_key_provisioning.o
 .comment       0x0000003c       0x3d build/aws_demos/production/_ext/1441508942/iot_demo_mqtt.o
 .comment       0x0000003c       0x3d build/aws_demos/production/_ext/2040524622/aws_iot_network_manager.o
 .comment       0x0000003c       0x3d build/aws_demos/production/_ext/811507611/event_groups.o
 .comment       0x0000003c       0x3d build/aws_demos/production/_ext/811507611/list.o
 .comment       0x0000003c       0x3d build/aws_demos/production/_ext/811507611/queue.o
 .comment       0x0000003c       0x3d build/aws_demos/production/_ext/811507611/tasks.o
 .comment       0x0000003c       0x3d build/aws_demos/production/_ext/811507611/timers.o
 .comment       0x0000003c       0x3d build/aws_demos/production/_ext/684768522/aes.o
 .comment       0x0000003c       0x3d build/aws_demos/production/_ext/684768522/asn1parse.o
 .comment       0x0000003c       0x3d build/aws_demos/production/_ext/684768522/asn1write.o
 .comment       0x0000003c       0x3d build/aws_demos/production/_ext/684768522/base64.o
 .comment       0x0000003c       0x3d build/aws_demos/production/_ext/684768522/bignum.o
 .comment       0x0000003c       0x3d build/aws_demos/production/_ext/684768522/cipher.o
 .comment       0x0000003c       0x3d build/aws_demos/production/_ext/684768522/cipher_wrap.o
 .comment       0x0000003c       0x3d build/aws_demos/production/_ext/684768522/ctr_drbg.o
 .comment       0x0000003c       0x3d build/aws_demos/production/_ext/684768522/ecdh.o
 .comment       0x0000003c       0x3d build/aws_demos/production/_ext/684768522/ecdsa.o
 .comment       0x0000003c       0x3d build/aws_demos/production/_ext/684768522/ecp.o
 .comment       0x0000003c       0x3d build/aws_demos/production/_ext/684768522/ecp_curves.o
 .comment       0x0000003c       0x3d build/aws_demos/production/_ext/684768522/entropy.o
 .comment       0x0000003c       0x3d build/aws_demos/production/_ext/684768522/gcm.o
 .comment       0x0000003c       0x3d build/aws_demos/production/_ext/684768522/md.o
 .comment       0x0000003c       0x3d build/aws_demos/production/_ext/684768522/md_wrap.o
 .comment       0x0000003c       0x3d build/aws_demos/production/_ext/684768522/oid.o
 .comment       0x0000003c       0x3d build/aws_demos/production/_ext/684768522/pem.o
 .comment       0x0000003c       0x3d build/aws_demos/production/_ext/684768522/pk.o
 .comment       0x0000003c       0x3d build/aws_demos/production/_ext/684768522/pkparse.o
 .comment       0x0000003c       0x3d build/aws_demos/production/_ext/684768522/pkwrite.o
 .comment       0x0000003c       0x3d build/aws_demos/production/_ext/684768522/pk_wrap.o
 .comment       0x0000003c       0x3d build/aws_demos/production/_ext/684768522/platform.o
 .comment       0x0000003c       0x3d build/aws_demos/production/_ext/684768522/platform_util.o
 .comment       0x0000003c       0x3d build/aws_demos/production/_ext/684768522/rsa.o
 .comment       0x0000003c       0x3d build/aws_demos/production/_ext/684768522/rsa_internal.o
 .comment       0x0000003c       0x3d build/aws_demos/production/_ext/684768522/sha1.o
 .comment       0x0000003c       0x3d build/aws_demos/production/_ext/684768522/sha256.o
 .comment       0x0000003c       0x3d build/aws_demos/production/_ext/684768522/ssl_ciphersuites.o
 .comment       0x0000003c       0x3d build/aws_demos/production/_ext/684768522/ssl_cli.o
 .comment       0x0000003c       0x3d build/aws_demos/production/_ext/684768522/ssl_tls.o
 .comment       0x0000003c       0x3d build/aws_demos/production/_ext/684768522/threading.o
 .comment       0x0000003c       0x3d build/aws_demos/production/_ext/684768522/x509.o
 .comment       0x0000003c       0x3d build/aws_demos/production/_ext/684768522/x509_crt.o
 .comment       0x0000003c       0x3d build/aws_demos/production/_ext/2077790016/mbedtls_utils.o
 .comment       0x0000003c       0x3d build/aws_demos/production/_ext/520142351/iot_clock_freertos.o
 .comment       0x0000003c       0x3d build/aws_demos/production/_ext/520142351/iot_network_freertos.o
 .comment       0x0000003c       0x3d build/aws_demos/production/_ext/520142351/iot_threads_freertos.o
 .comment       0x0000003c       0x3d build/aws_demos/production/_ext/13066905/iot_device_metrics.o
 .comment       0x0000003c       0x3d build/aws_demos/production/_ext/13066905/iot_init.o
 .comment       0x0000003c       0x3d build/aws_demos/production/_ext/227692215/iot_logging.o
 .comment       0x0000003c       0x3d build/aws_demos/production/_ext/227692215/iot_logging_task_dynamic_buffers.o
 .comment       0x0000003c       0x3d build/aws_demos/production/_ext/333408969/iot_taskpool.o
 .comment       0x0000003c       0x3d build/aws_demos/production/_ext/1739149067/iot_mqtt_api.o
 .comment       0x0000003c       0x3d build/aws_demos/production/_ext/1739149067/iot_mqtt_network.o
 .comment       0x0000003c       0x3d build/aws_demos/production/_ext/1739149067/iot_mqtt_operation.o
 .comment       0x0000003c       0x3d build/aws_demos/production/_ext/1739149067/iot_mqtt_serialize.o
 .comment       0x0000003c       0x3d build/aws_demos/production/_ext/1739149067/iot_mqtt_subscription.o
 .comment       0x0000003c       0x3d build/aws_demos/production/_ext/1739149067/iot_mqtt_validate.o
 .comment       0x0000003c       0x3d build/aws_demos/production/_ext/350635301/iot_crypto.o
 .comment       0x0000003c       0x3d build/aws_demos/production/_ext/2138053595/iot_pkcs11.o
 .comment       0x0000003c       0x3d build/aws_demos/production/_ext/2039890517/iot_tls.o
 .comment       0x0000003c       0x3d build/aws_demos/production/_ext/1120274527/iot_pki_utils.o
 .comment       0x0000003c       0x3d build/aws_demos/production/_ext/1120274527/iot_system_init.o
 .comment       0x0000003c       0x3d build/aws_demos/production/_ext/1200684192/drv_ethphy.o
 .comment       0x0000003c       0x3d build/aws_demos/production/_ext/1200684192/drv_extphy_ksz8091.o
 .comment       0x0000003c       0x3d build/aws_demos/production/_ext/1843304010/plib_trng.o
 .comment       0x0000003c       0x3d build/aws_demos/production/_ext/1534684544/sys_console.o
 .comment       0x0000003c       0x3d build/aws_demos/production/_ext/1534684544/sys_console_uart.o
 .comment       0x0000003c       0x3d build/aws_demos/production/_ext/1762024984/sys_int.o
 .comment       0x0000003c       0x3d build/aws_demos/production/_ext/1149029443/osal_freertos.o
 .comment       0x0000003c       0x3d build/aws_demos/production/_ext/1534096987/tasks.o
 .comment       0x0000003c       0x3d c:/program files/microchip/xc32/v2.40/bin/bin/../../lib/gcc/pic32c/6.2.1/../../../../pic32c/lib/v7e-m/fpv4-sp/hard\libpic32c.a(data_init.o)
 .comment       0x0000003c       0x3d c:/program files/microchip/xc32/v2.40/bin/bin/../../lib/gcc/pic32c/6.2.1/v7e-m/fpv4-sp/hard\libgcc.a(_udivmoddi4.o)
 .comment       0x0000003c       0x3d c:/program files/microchip/xc32/v2.40/bin/bin/../../lib/gcc/pic32c/6.2.1/../../../../pic32c/lib/v7e-m/fpv4-sp/hard\libc_nano.a(lib_a-calloc.o)
 .comment       0x0000003c       0x3d c:/program files/microchip/xc32/v2.40/bin/bin/../../lib/gcc/pic32c/6.2.1/../../../../pic32c/lib/v7e-m/fpv4-sp/hard\libc_nano.a(lib_a-impure.o)
 .comment       0x0000003c       0x3d c:/program files/microchip/xc32/v2.40/bin/bin/../../lib/gcc/pic32c/6.2.1/../../../../pic32c/lib/v7e-m/fpv4-sp/hard\libc_nano.a(lib_a-init.o)
 .comment       0x0000003c       0x3d c:/program files/microchip/xc32/v2.40/bin/bin/../../lib/gcc/pic32c/6.2.1/../../../../pic32c/lib/v7e-m/fpv4-sp/hard\libc_nano.a(lib_a-locale.o)
 .comment       0x0000003c       0x3d c:/program files/microchip/xc32/v2.40/bin/bin/../../lib/gcc/pic32c/6.2.1/../../../../pic32c/lib/v7e-m/fpv4-sp/hard\libc_nano.a(lib_a-malloc.o)
 .comment       0x0000003c       0x3d c:/program files/microchip/xc32/v2.40/bin/bin/../../lib/gcc/pic32c/6.2.1/../../../../pic32c/lib/v7e-m/fpv4-sp/hard\libc_nano.a(lib_a-mbtowc_r.o)
 .comment       0x0000003c       0x3d c:/program files/microchip/xc32/v2.40/bin/bin/../../lib/gcc/pic32c/6.2.1/../../../../pic32c/lib/v7e-m/fpv4-sp/hard\libc_nano.a(lib_a-memcmp.o)
 .comment       0x0000003c       0x3d c:/program files/microchip/xc32/v2.40/bin/bin/../../lib/gcc/pic32c/6.2.1/../../../../pic32c/lib/v7e-m/fpv4-sp/hard\libc_nano.a(lib_a-memcpy-stub.o)
 .comment       0x0000003c       0x3d c:/program files/microchip/xc32/v2.40/bin/bin/../../lib/gcc/pic32c/6.2.1/../../../../pic32c/lib/v7e-m/fpv4-sp/hard\libc_nano.a(lib_a-memmove.o)
 .comment       0x0000003c       0x3d c:/program files/microchip/xc32/v2.40/bin/bin/../../lib/gcc/pic32c/6.2.1/../../../../pic32c/lib/v7e-m/fpv4-sp/hard\libc_nano.a(lib_a-memset.o)
 .comment       0x0000003c       0x3d c:/program files/microchip/xc32/v2.40/bin/bin/../../lib/gcc/pic32c/6.2.1/../../../../pic32c/lib/v7e-m/fpv4-sp/hard\libc_nano.a(lib_a-nano-callocr.o)
 .comment       0x0000003c       0x3d c:/program files/microchip/xc32/v2.40/bin/bin/../../lib/gcc/pic32c/6.2.1/../../../../pic32c/lib/v7e-m/fpv4-sp/hard\libc_nano.a(lib_a-nano-freer.o)
 .comment       0x0000003c       0x3d c:/program files/microchip/xc32/v2.40/bin/bin/../../lib/gcc/pic32c/6.2.1/../../../../pic32c/lib/v7e-m/fpv4-sp/hard\libc_nano.a(lib_a-nano-mallocr.o)
 .comment       0x0000003c       0x3d c:/program files/microchip/xc32/v2.40/bin/bin/../../lib/gcc/pic32c/6.2.1/../../../../pic32c/lib/v7e-m/fpv4-sp/hard\libc_nano.a(lib_a-nano-vfprintf.o)
 .comment       0x0000003c       0x3d c:/program files/microchip/xc32/v2.40/bin/bin/../../lib/gcc/pic32c/6.2.1/../../../../pic32c/lib/v7e-m/fpv4-sp/hard\libc_nano.a(_lib_a-nano-vfprintf.s.o)
 .comment       0x0000003c       0x3d c:/program files/microchip/xc32/v2.40/bin/bin/../../lib/gcc/pic32c/6.2.1/../../../../pic32c/lib/v7e-m/fpv4-sp/hard\libc_nano.a(lib_a-printf.o)
 .comment       0x0000003c       0x3d c:/program files/microchip/xc32/v2.40/bin/bin/../../lib/gcc/pic32c/6.2.1/../../../../pic32c/lib/v7e-m/fpv4-sp/hard\libc_nano.a(lib_a-putchar.o)
 .comment       0x0000003c       0x3d c:/program files/microchip/xc32/v2.40/bin/bin/../../lib/gcc/pic32c/6.2.1/../../../../pic32c/lib/v7e-m/fpv4-sp/hard\libc_nano.a(lib_a-putc.o)
 .comment       0x0000003c       0x3d c:/program files/microchip/xc32/v2.40/bin/bin/../../lib/gcc/pic32c/6.2.1/../../../../pic32c/lib/v7e-m/fpv4-sp/hard\libc_nano.a(lib_a-puts.o)
 .comment       0x0000003c       0x3d c:/program files/microchip/xc32/v2.40/bin/bin/../../lib/gcc/pic32c/6.2.1/../../../../pic32c/lib/v7e-m/fpv4-sp/hard\libc_nano.a(lib_a-rand.o)
 .comment       0x0000003c       0x3d c:/program files/microchip/xc32/v2.40/bin/bin/../../lib/gcc/pic32c/6.2.1/../../../../pic32c/lib/v7e-m/fpv4-sp/hard\libc_nano.a(lib_a-sbrkr.o)
 .comment       0x0000003c       0x3d c:/program files/microchip/xc32/v2.40/bin/bin/../../lib/gcc/pic32c/6.2.1/../../../../pic32c/lib/v7e-m/fpv4-sp/hard\libc_nano.a(lib_a-snprintf.o)
 .comment       0x0000003c       0x3d c:/program files/microchip/xc32/v2.40/bin/bin/../../lib/gcc/pic32c/6.2.1/../../../../pic32c/lib/v7e-m/fpv4-sp/hard\libc_nano.a(lib_a-sprintf.o)
 .comment       0x0000003c       0x3d c:/program files/microchip/xc32/v2.40/bin/bin/../../lib/gcc/pic32c/6.2.1/../../../../pic32c/lib/v7e-m/fpv4-sp/hard\libc_nano.a(_lib_a-sscanf.cdnopsuxX.o)
 .comment       0x0000003c       0x3d c:/program files/microchip/xc32/v2.40/bin/bin/../../lib/gcc/pic32c/6.2.1/../../../../pic32c/lib/v7e-m/fpv4-sp/hard\libc_nano.a(lib_a-__ssfputs.o)
 .comment       0x0000003c       0x3d c:/program files/microchip/xc32/v2.40/bin/bin/../../lib/gcc/pic32c/6.2.1/../../../../pic32c/lib/v7e-m/fpv4-sp/hard\libc_nano.a(lib_a-stdio.o)
 .comment       0x0000003c       0x3d c:/program files/microchip/xc32/v2.40/bin/bin/../../lib/gcc/pic32c/6.2.1/../../../../pic32c/lib/v7e-m/fpv4-sp/hard\libc_nano.a(lib_a-strcpy.o)
 .comment       0x0000003c       0x3d c:/program files/microchip/xc32/v2.40/bin/bin/../../lib/gcc/pic32c/6.2.1/../../../../pic32c/lib/v7e-m/fpv4-sp/hard\libc_nano.a(lib_a-strncmp.o)
 .comment       0x0000003c       0x3d c:/program files/microchip/xc32/v2.40/bin/bin/../../lib/gcc/pic32c/6.2.1/../../../../pic32c/lib/v7e-m/fpv4-sp/hard\libc_nano.a(lib_a-strncpy.o)
 .comment       0x0000003c       0x3d c:/program files/microchip/xc32/v2.40/bin/bin/../../lib/gcc/pic32c/6.2.1/../../../../pic32c/lib/v7e-m/fpv4-sp/hard\libc_nano.a(lib_a-strstr.o)
 .comment       0x0000003c       0x3d c:/program files/microchip/xc32/v2.40/bin/bin/../../lib/gcc/pic32c/6.2.1/../../../../pic32c/lib/v7e-m/fpv4-sp/hard\libc_nano.a(lib_a-strtol.o)
 .comment       0x0000003c       0x3d c:/program files/microchip/xc32/v2.40/bin/bin/../../lib/gcc/pic32c/6.2.1/../../../../pic32c/lib/v7e-m/fpv4-sp/hard\libc_nano.a(lib_a-strtoul.o)
 .comment       0x0000003c       0x3d c:/program files/microchip/xc32/v2.40/bin/bin/../../lib/gcc/pic32c/6.2.1/../../../../pic32c/lib/v7e-m/fpv4-sp/hard\libc_nano.a(lib_a-vsnprintf.o)
 .comment       0x0000003c       0x3d c:/program files/microchip/xc32/v2.40/bin/bin/../../lib/gcc/pic32c/6.2.1/../../../../pic32c/lib/v7e-m/fpv4-sp/hard\libc_nano.a(lib_a-wbuf.o)
 .comment       0x0000003c       0x3d c:/program files/microchip/xc32/v2.40/bin/bin/../../lib/gcc/pic32c/6.2.1/../../../../pic32c/lib/v7e-m/fpv4-sp/hard\libc_nano.a(lib_a-wctomb_r.o)
 .comment       0x0000003c       0x3d c:/program files/microchip/xc32/v2.40/bin/bin/../../lib/gcc/pic32c/6.2.1/../../../../pic32c/lib/v7e-m/fpv4-sp/hard\libc_nano.a(lib_a-writer.o)
 .comment       0x0000003c       0x3d c:/program files/microchip/xc32/v2.40/bin/bin/../../lib/gcc/pic32c/6.2.1/../../../../pic32c/lib/v7e-m/fpv4-sp/hard\libc_nano.a(lib_a-wsetup.o)
 .comment       0x0000003c       0x3d c:/program files/microchip/xc32/v2.40/bin/bin/../../lib/gcc/pic32c/6.2.1/../../../../pic32c/lib/v7e-m/fpv4-sp/hard\libc_nano.a(lib_a-closer.o)
 .comment       0x0000003c       0x3d c:/program files/microchip/xc32/v2.40/bin/bin/../../lib/gcc/pic32c/6.2.1/../../../../pic32c/lib/v7e-m/fpv4-sp/hard\libc_nano.a(lib_a-ctype_.o)
 .comment       0x0000003c       0x3d c:/program files/microchip/xc32/v2.40/bin/bin/../../lib/gcc/pic32c/6.2.1/../../../../pic32c/lib/v7e-m/fpv4-sp/hard\libc_nano.a(lib_a-fflush.o)
 .comment       0x0000003c       0x3d c:/program files/microchip/xc32/v2.40/bin/bin/../../lib/gcc/pic32c/6.2.1/../../../../pic32c/lib/v7e-m/fpv4-sp/hard\libc_nano.a(lib_a-findfp.o)
 .comment       0x0000003c       0x3d c:/program files/microchip/xc32/v2.40/bin/bin/../../lib/gcc/pic32c/6.2.1/../../../../pic32c/lib/v7e-m/fpv4-sp/hard\libc_nano.a(lib_a-fputwc.o)
 .comment       0x0000003c       0x3d c:/program files/microchip/xc32/v2.40/bin/bin/../../lib/gcc/pic32c/6.2.1/../../../../pic32c/lib/v7e-m/fpv4-sp/hard\libc_nano.a(lib_a-fwalk.o)
 .comment       0x0000003c       0x3d c:/program files/microchip/xc32/v2.40/bin/bin/../../lib/gcc/pic32c/6.2.1/../../../../pic32c/lib/v7e-m/fpv4-sp/hard\libc_nano.a(lib_a-lseekr.o)
 .comment       0x0000003c       0x3d c:/program files/microchip/xc32/v2.40/bin/bin/../../lib/gcc/pic32c/6.2.1/../../../../pic32c/lib/v7e-m/fpv4-sp/hard\libc_nano.a(lib_a-makebuf.o)
 .comment       0x0000003c       0x3d c:/program files/microchip/xc32/v2.40/bin/bin/../../lib/gcc/pic32c/6.2.1/../../../../pic32c/lib/v7e-m/fpv4-sp/hard\libc_nano.a(lib_a-mlock.o)
 .comment       0x0000003c       0x3d c:/program files/microchip/xc32/v2.40/bin/bin/../../lib/gcc/pic32c/6.2.1/../../../../pic32c/lib/v7e-m/fpv4-sp/hard\libc_nano.a(lib_a-nano-svfprintf.o)
 .comment       0x0000003c       0x3d c:/program files/microchip/xc32/v2.40/bin/bin/../../lib/gcc/pic32c/6.2.1/../../../../pic32c/lib/v7e-m/fpv4-sp/hard\libc_nano.a(lib_a-nano-vfprintf_i.o)
 .comment       0x0000003c       0x3d c:/program files/microchip/xc32/v2.40/bin/bin/../../lib/gcc/pic32c/6.2.1/../../../../pic32c/lib/v7e-m/fpv4-sp/hard\libc_nano.a(_lib_a-nano-vfscanf.cdnopsuxX.o)
 .comment       0x0000003c       0x3d c:/program files/microchip/xc32/v2.40/bin/bin/../../lib/gcc/pic32c/6.2.1/../../../../pic32c/lib/v7e-m/fpv4-sp/hard\libc_nano.a(lib_a-readr.o)
 .comment       0x0000003c       0x3d c:/program files/microchip/xc32/v2.40/bin/bin/../../lib/gcc/pic32c/6.2.1/../../../../pic32c/lib/v7e-m/fpv4-sp/hard\libc_nano.a(lib_a-reent.o)
 .comment       0x0000003c       0x3d c:/program files/microchip/xc32/v2.40/bin/bin/../../lib/gcc/pic32c/6.2.1/../../../../pic32c/lib/v7e-m/fpv4-sp/hard\libc_nano.a(lib_a-refill.o)
 .comment       0x0000003c       0x3d c:/program files/microchip/xc32/v2.40/bin/bin/../../lib/gcc/pic32c/6.2.1/../../../../pic32c/lib/v7e-m/fpv4-sp/hard\libc_nano.a(lib_a-sccl.o)
 .comment       0x0000003c       0x3d c:/program files/microchip/xc32/v2.40/bin/bin/../../lib/gcc/pic32c/6.2.1/../../../../pic32c/lib/v7e-m/fpv4-sp/hard\libc_nano.a(lib_a-__ssputs.o)
 .comment       0x0000003c       0x3d c:/program files/microchip/xc32/v2.40/bin/bin/../../lib/gcc/pic32c/6.2.1/../../../../pic32c/lib/v7e-m/fpv4-sp/hard\libc_nano.a(lib_a-ungetc.o)
 .comment       0x0000003c       0x3d c:/program files/microchip/xc32/v2.40/bin/bin/../../lib/gcc/pic32c/6.2.1/../../../../pic32c/lib/v7e-m/fpv4-sp/hard\libc_nano.a(lib_a-wcrtomb.o)
 .comment       0x0000003c       0x3d c:/program files/microchip/xc32/v2.40/bin/bin/../../lib/gcc/pic32c/6.2.1/../../../../pic32c/lib/v7e-m/fpv4-sp/hard\libc_nano.a(lib_a-fstatr.o)
 .comment       0x0000003c       0x3d c:/program files/microchip/xc32/v2.40/bin/bin/../../lib/gcc/pic32c/6.2.1/../../../../pic32c/lib/v7e-m/fpv4-sp/hard\libc_nano.a(lib_a-isattyr.o)
 .comment       0x0000003c       0x3d c:/program files/microchip/xc32/v2.40/bin/bin/../../lib/gcc/pic32c/6.2.1/../../../../pic32c/lib/v7e-m/fpv4-sp/hard\libc_nano.a(lib_a-nano-reallocr.o)
 .comment       0x0000003c       0x3d c:/program files/microchip/xc32/v2.40/bin/bin/../../lib/gcc/pic32c/6.2.1/../../../../pic32c/lib/v7e-m/fpv4-sp/hard\libc_nano.a(lib_a-nano-msizer.o)
 .comment       0x0000003c       0x3d c:/program files/microchip/xc32/v2.40/bin/bin/../../lib/gcc/pic32c/6.2.1/../../../../pic32c/lib/v7e-m/fpv4-sp/hard\libpic32c.a(_close.o)
 .comment       0x0000003c       0x3d c:/program files/microchip/xc32/v2.40/bin/bin/../../lib/gcc/pic32c/6.2.1/../../../../pic32c/lib/v7e-m/fpv4-sp/hard\libpic32c.a(_fstat.o)
 .comment       0x0000003c       0x3d c:/program files/microchip/xc32/v2.40/bin/bin/../../lib/gcc/pic32c/6.2.1/../../../../pic32c/lib/v7e-m/fpv4-sp/hard\libpic32c.a(_isatty.o)
 .comment       0x0000003c       0x3d c:/program files/microchip/xc32/v2.40/bin/bin/../../lib/gcc/pic32c/6.2.1/../../../../pic32c/lib/v7e-m/fpv4-sp/hard\libpic32c.a(_lseek.o)
 .comment       0x0000003c       0x3d c:/program files/microchip/xc32/v2.40/bin/bin/../../lib/gcc/pic32c/6.2.1/../../../../pic32c/lib/v7e-m/fpv4-sp/hard\libpic32c.a(_read.o)
 .comment       0x0000003c       0x3d c:/program files/microchip/xc32/v2.40/bin/bin/../../lib/gcc/pic32c/6.2.1/../../../../pic32c/lib/v7e-m/fpv4-sp/hard\libpic32c.a(sbrk.o)
 .comment       0x0000003c       0x3d c:/program files/microchip/xc32/v2.40/bin/bin/../../lib/gcc/pic32c/6.2.1/../../../../pic32c/lib/v7e-m/fpv4-sp/hard\libpic32c.a(_write.o)
 .comment       0x0000003c       0x3d c:/program files/microchip/xc32/v2.40/bin/bin/../../lib/gcc/pic32c/6.2.1/../../../../pic32c/lib/v7e-m/fpv4-sp/hard\libpic32c.a(close.o)
 .comment       0x0000003c       0x3d c:/program files/microchip/xc32/v2.40/bin/bin/../../lib/gcc/pic32c/6.2.1/../../../../pic32c/lib/v7e-m/fpv4-sp/hard\libpic32c.a(fstat.o)
 .comment       0x0000003c       0x3d c:/program files/microchip/xc32/v2.40/bin/bin/../../lib/gcc/pic32c/6.2.1/../../../../pic32c/lib/v7e-m/fpv4-sp/hard\libpic32c.a(isatty.o)
 .comment       0x0000003c       0x3d c:/program files/microchip/xc32/v2.40/bin/bin/../../lib/gcc/pic32c/6.2.1/../../../../pic32c/lib/v7e-m/fpv4-sp/hard\libpic32c.a(lseek.o)
 .comment       0x0000003c       0x3d c:/program files/microchip/xc32/v2.40/bin/bin/../../lib/gcc/pic32c/6.2.1/../../../../pic32c/lib/v7e-m/fpv4-sp/hard\libpic32c.a(read.o)
 .comment       0x0000003c       0x3d c:/program files/microchip/xc32/v2.40/bin/bin/../../lib/gcc/pic32c/6.2.1/../../../../pic32c/lib/v7e-m/fpv4-sp/hard\libpic32c.a(write.o)

.debug_info     0x00000000   0x18f1bb
 .debug_info    0x00000000     0x9adc build/aws_demos/production/_ext/1319661984/drv_gmac.o
 .debug_info    0x00009adc     0x84ed build/aws_demos/production/_ext/1319661984/drv_gmac_lib_samE5x.o
 .debug_info    0x00011fc9     0x16f7 build/aws_demos/production/_ext/665618993/plib_nvmctrl.o
 .debug_info    0x000136c0     0x1667 build/aws_demos/production/_ext/731420310/plib_sercom2_usart.o
 .debug_info    0x00014d27      0x321 build/aws_demos/production/_ext/1321577635/plib_evsys.o
 .debug_info    0x00015048     0x2ecc build/aws_demos/production/_ext/1991396724/sys_command.o
 .debug_info    0x00017f14     0x1da5 build/aws_demos/production/_ext/731420310/plib_sercom6_usart.o
 .debug_info    0x00019cb9     0x26b9 build/aws_demos/production/_ext/1360937237/main.o
 .debug_info    0x0001c372     0x3143 build/aws_demos/production/_ext/1534096987/initialization.o
 .debug_info    0x0001f4b5     0x2e41 build/aws_demos/production/_ext/1534096987/interrupts.o
 .debug_info    0x000222f6     0x1add build/aws_demos/production/_ext/1534096987/exceptions.o
 .debug_info    0x00023dd3     0x1ad2 build/aws_demos/production/_ext/1263901141/xc32_monitor.o
 .debug_info    0x000258a5      0x7f0 build/aws_demos/production/_ext/1843425920/plib_port.o
 .debug_info    0x00026095      0xb57 build/aws_demos/production/_ext/1323727121/plib_clock.o
 .debug_info    0x00026bec     0x1468 build/aws_demos/production/_ext/1843479071/plib_nvic.o
 .debug_info    0x00028054     0x1f6d build/aws_demos/production/_ext/1534096987/startup_xc32.o
 .debug_info    0x00029fc1      0x99f build/aws_demos/production/_ext/1385882503/port.o
 .debug_info    0x0002a960     0x152f build/aws_demos/production/_ext/1168480030/heap_4.o
 .debug_info    0x0002be8f     0x77af build/aws_demos/production/_ext/112156576/iot_pkcs11_mbedtls.o
 .debug_info    0x0003363e     0x4026 build/aws_demos/production/_ext/366737/iot_secure_sockets.o
 .debug_info    0x00037664     0x1eff build/aws_demos/production/_ext/1682906662/FreeRTOS_ARP.o
 .debug_info    0x00039563     0x2dd9 build/aws_demos/production/_ext/1682906662/FreeRTOS_DHCP.o
 .debug_info    0x0003c33c     0x2f54 build/aws_demos/production/_ext/1682906662/FreeRTOS_DNS.o
 .debug_info    0x0003f290     0x49e1 build/aws_demos/production/_ext/1682906662/FreeRTOS_IP.o
 .debug_info    0x00043c71     0x56fb build/aws_demos/production/_ext/1682906662/FreeRTOS_Sockets.o
 .debug_info    0x0004936c     0x1932 build/aws_demos/production/_ext/1682906662/FreeRTOS_Stream_Buffer.o
 .debug_info    0x0004ac9e     0x5370 build/aws_demos/production/_ext/1682906662/FreeRTOS_TCP_IP.o
 .debug_info    0x0005000e     0x1e6e build/aws_demos/production/_ext/1682906662/FreeRTOS_TCP_WIN.o
 .debug_info    0x00051e7c     0x287e build/aws_demos/production/_ext/1682906662/FreeRTOS_UDP_IP.o
 .debug_info    0x000546fa     0x4c8f build/aws_demos/production/_ext/1778494626/BufferAllocation_2.o
 .debug_info    0x00059389     0x739b build/aws_demos/production/_ext/1778494626/NetworkInterface_eth.o
 .debug_info    0x00060724     0x1f82 build/aws_demos/production/_ext/1972722184/iot_pkcs11_pal.o
 .debug_info    0x000626a6     0x158d build/aws_demos/production/_ext/1972722184/pkcs11_nvm.o
 .debug_info    0x00063c33     0x11e1 build/aws_demos/production/_ext/197858987/helpers.o
 .debug_info    0x00064e14     0x441d build/aws_demos/production/_ext/197858987/tcpip_heap_alloc.o
 .debug_info    0x00069231     0x4b85 build/aws_demos/production/_ext/197858987/tcpip_heap_external.o
 .debug_info    0x0006ddb6     0x6a8c build/aws_demos/production/_ext/197858987/tcpip_helpers.o
 .debug_info    0x00074842     0x5289 build/aws_demos/production/_ext/197858987/tcpip_packet.o
 .debug_info    0x00079acb      0x72b build/aws_demos/production/_ext/59476128/plib_eic.o
 .debug_info    0x0007a1f6     0x4f30 build/aws_demos/production/_ext/211704168/drv_miim.o
 .debug_info    0x0007f126      0xc20 build/aws_demos/production/_ext/1110296786/plib_tc3.o
 .debug_info    0x0007fd46     0x39fb build/aws_demos/production/_ext/484134862/sys_time.o
 .debug_info    0x00083741      0x6a2 build/aws_demos/production/_ext/1223942466/aws_demo.o
 .debug_info    0x00083de3      0x448 build/aws_demos/production/_ext/1223942466/aws_demo_network_addr.o
 .debug_info    0x0008422b     0x1fa3 build/aws_demos/production/_ext/1223942466/iot_demo_freertos.o
 .debug_info    0x000861ce     0x129c build/aws_demos/production/_ext/1223942466/iot_demo_runner.o
 .debug_info    0x0008746a     0x52f2 build/aws_demos/production/_ext/198771642/aws_dev_mode_key_provisioning.o
 .debug_info    0x0008c75c     0x2c54 build/aws_demos/production/_ext/1441508942/iot_demo_mqtt.o
 .debug_info    0x0008f3b0     0x2239 build/aws_demos/production/_ext/2040524622/aws_iot_network_manager.o
 .debug_info    0x000915e9     0x1f94 build/aws_demos/production/_ext/811507611/event_groups.o
 .debug_info    0x0009357d     0x1106 build/aws_demos/production/_ext/811507611/list.o
 .debug_info    0x00094683     0x3628 build/aws_demos/production/_ext/811507611/queue.o
 .debug_info    0x00097cab     0x4864 build/aws_demos/production/_ext/811507611/tasks.o
 .debug_info    0x0009c50f     0x2ccb build/aws_demos/production/_ext/811507611/timers.o
 .debug_info    0x0009f1da     0x2186 build/aws_demos/production/_ext/684768522/aes.o
 .debug_info    0x000a1360     0x1885 build/aws_demos/production/_ext/684768522/asn1parse.o
 .debug_info    0x000a2be5     0x1d85 build/aws_demos/production/_ext/684768522/asn1write.o
 .debug_info    0x000a496a     0x13a5 build/aws_demos/production/_ext/684768522/base64.o
 .debug_info    0x000a5d0f     0x59e7 build/aws_demos/production/_ext/684768522/bignum.o
 .debug_info    0x000ab6f6     0x33ad build/aws_demos/production/_ext/684768522/cipher.o
 .debug_info    0x000aeaa3     0x286b build/aws_demos/production/_ext/684768522/cipher_wrap.o
 .debug_info    0x000b130e     0x2533 build/aws_demos/production/_ext/684768522/ctr_drbg.o
 .debug_info    0x000b3841     0x2600 build/aws_demos/production/_ext/684768522/ecdh.o
 .debug_info    0x000b5e41     0x291d build/aws_demos/production/_ext/684768522/ecdsa.o
 .debug_info    0x000b875e     0x65b8 build/aws_demos/production/_ext/684768522/ecp.o
 .debug_info    0x000bed16     0x250d build/aws_demos/production/_ext/684768522/ecp_curves.o
 .debug_info    0x000c1223     0x2069 build/aws_demos/production/_ext/684768522/entropy.o
 .debug_info    0x000c328c     0x31a7 build/aws_demos/production/_ext/684768522/gcm.o
 .debug_info    0x000c6433     0x1be3 build/aws_demos/production/_ext/684768522/md.o
 .debug_info    0x000c8016     0x1a38 build/aws_demos/production/_ext/684768522/md_wrap.o
 .debug_info    0x000c9a4e     0x2c3c build/aws_demos/production/_ext/684768522/oid.o
 .debug_info    0x000cc68a     0x11cc build/aws_demos/production/_ext/684768522/pem.o
 .debug_info    0x000cd856     0x2144 build/aws_demos/production/_ext/684768522/pk.o
 .debug_info    0x000cf99a     0x2c94 build/aws_demos/production/_ext/684768522/pkparse.o
 .debug_info    0x000d262e     0x222f build/aws_demos/production/_ext/684768522/pkwrite.o
 .debug_info    0x000d485d     0x2ebb build/aws_demos/production/_ext/684768522/pk_wrap.o
 .debug_info    0x000d7718     0x1072 build/aws_demos/production/_ext/684768522/platform.o
 .debug_info    0x000d878a      0xff8 build/aws_demos/production/_ext/684768522/platform_util.o
 .debug_info    0x000d9782     0x53b8 build/aws_demos/production/_ext/684768522/rsa.o
 .debug_info    0x000deb3a     0x1ee3 build/aws_demos/production/_ext/684768522/rsa_internal.o
 .debug_info    0x000e0a1d     0x17aa build/aws_demos/production/_ext/684768522/sha1.o
 .debug_info    0x000e21c7     0x18b5 build/aws_demos/production/_ext/684768522/sha256.o
 .debug_info    0x000e3a7c     0x21e9 build/aws_demos/production/_ext/684768522/ssl_ciphersuites.o
 .debug_info    0x000e5c65     0x5edb build/aws_demos/production/_ext/684768522/ssl_cli.o
 .debug_info    0x000ebb40     0x95bc build/aws_demos/production/_ext/684768522/ssl_tls.o
 .debug_info    0x000f50fc     0x1077 build/aws_demos/production/_ext/684768522/threading.o
 .debug_info    0x000f6173     0x2968 build/aws_demos/production/_ext/684768522/x509.o
 .debug_info    0x000f8adb     0x541f build/aws_demos/production/_ext/684768522/x509_crt.o
 .debug_info    0x000fdefa     0x13bc build/aws_demos/production/_ext/2077790016/mbedtls_utils.o
 .debug_info    0x000ff2b6     0x17cc build/aws_demos/production/_ext/520142351/iot_clock_freertos.o
 .debug_info    0x00100a82     0x2889 build/aws_demos/production/_ext/520142351/iot_network_freertos.o
 .debug_info    0x0010330b     0x1459 build/aws_demos/production/_ext/520142351/iot_threads_freertos.o
 .debug_info    0x00104764     0x18d0 build/aws_demos/production/_ext/13066905/iot_device_metrics.o
 .debug_info    0x00106034      0x608 build/aws_demos/production/_ext/13066905/iot_init.o
 .debug_info    0x0010663c     0x152e build/aws_demos/production/_ext/227692215/iot_logging.o
 .debug_info    0x00107b6a     0x1466 build/aws_demos/production/_ext/227692215/iot_logging_task_dynamic_buffers.o
 .debug_info    0x00108fd0     0x50d8 build/aws_demos/production/_ext/333408969/iot_taskpool.o
 .debug_info    0x0010e0a8     0x4f2e build/aws_demos/production/_ext/1739149067/iot_mqtt_api.o
 .debug_info    0x00112fd6     0x34fb build/aws_demos/production/_ext/1739149067/iot_mqtt_network.o
 .debug_info    0x001164d1     0x4621 build/aws_demos/production/_ext/1739149067/iot_mqtt_operation.o
 .debug_info    0x0011aaf2     0x422f build/aws_demos/production/_ext/1739149067/iot_mqtt_serialize.o
 .debug_info    0x0011ed21     0x31c0 build/aws_demos/production/_ext/1739149067/iot_mqtt_subscription.o
 .debug_info    0x00121ee1     0x2ba6 build/aws_demos/production/_ext/1739149067/iot_mqtt_validate.o
 .debug_info    0x00124a87     0x213d build/aws_demos/production/_ext/350635301/iot_crypto.o
 .debug_info    0x00126bc4     0x3095 build/aws_demos/production/_ext/2138053595/iot_pkcs11.o
 .debug_info    0x00129c59     0x590f build/aws_demos/production/_ext/2039890517/iot_tls.o
 .debug_info    0x0012f568     0x1029 build/aws_demos/production/_ext/1120274527/iot_pki_utils.o
 .debug_info    0x00130591      0x34f build/aws_demos/production/_ext/1120274527/iot_system_init.o
 .debug_info    0x001308e0     0x7bb7 build/aws_demos/production/_ext/1200684192/drv_ethphy.o
 .debug_info    0x00138497     0x30f1 build/aws_demos/production/_ext/1200684192/drv_extphy_ksz8091.o
 .debug_info    0x0013b588      0x4b3 build/aws_demos/production/_ext/1843304010/plib_trng.o
 .debug_info    0x0013ba3b     0x1e80 build/aws_demos/production/_ext/1534684544/sys_console.o
 .debug_info    0x0013d8bb     0x2931 build/aws_demos/production/_ext/1534684544/sys_console_uart.o
 .debug_info    0x001401ec     0x11c2 build/aws_demos/production/_ext/1762024984/sys_int.o
 .debug_info    0x001413ae      0xa79 build/aws_demos/production/_ext/1149029443/osal_freertos.o
 .debug_info    0x00141e27     0x1b8f build/aws_demos/production/_ext/1534096987/tasks.o
 .debug_info    0x001439b6      0x2a2 c:/program files/microchip/xc32/v2.40/bin/bin/../../lib/gcc/pic32c/6.2.1/../../../../pic32c/lib/v7e-m/fpv4-sp/hard\libpic32c.a(data_init.o)
 .debug_info    0x00143c58       0xfd c:/program files/microchip/xc32/v2.40/bin/bin/../../lib/gcc/pic32c/6.2.1/v7e-m/fpv4-sp/hard\libgcc.a(_aeabi_uldivmod.o)
 .debug_info    0x00143d55     0x1696 c:/program files/microchip/xc32/v2.40/bin/bin/../../lib/gcc/pic32c/6.2.1/v7e-m/fpv4-sp/hard\libgcc.a(_udivmoddi4.o)
 .debug_info    0x001453eb      0x101 c:/program files/microchip/xc32/v2.40/bin/bin/../../lib/gcc/pic32c/6.2.1/v7e-m/fpv4-sp/hard\libgcc.a(_dvmd_tls.o)
 .debug_info    0x001454ec      0xe53 c:/program files/microchip/xc32/v2.40/bin/bin/../../lib/gcc/pic32c/6.2.1/../../../../pic32c/lib/v7e-m/fpv4-sp/hard\libc_nano.a(lib_a-calloc.o)
 .debug_info    0x0014633f      0xdef c:/program files/microchip/xc32/v2.40/bin/bin/../../lib/gcc/pic32c/6.2.1/../../../../pic32c/lib/v7e-m/fpv4-sp/hard\libc_nano.a(lib_a-impure.o)
 .debug_info    0x0014712e      0x41f c:/program files/microchip/xc32/v2.40/bin/bin/../../lib/gcc/pic32c/6.2.1/../../../../pic32c/lib/v7e-m/fpv4-sp/hard\libc_nano.a(lib_a-init.o)
 .debug_info    0x0014754d     0x189e c:/program files/microchip/xc32/v2.40/bin/bin/../../lib/gcc/pic32c/6.2.1/../../../../pic32c/lib/v7e-m/fpv4-sp/hard\libc_nano.a(lib_a-locale.o)
 .debug_info    0x00148deb      0xe92 c:/program files/microchip/xc32/v2.40/bin/bin/../../lib/gcc/pic32c/6.2.1/../../../../pic32c/lib/v7e-m/fpv4-sp/hard\libc_nano.a(lib_a-malloc.o)
 .debug_info    0x00149c7d     0x1782 c:/program files/microchip/xc32/v2.40/bin/bin/../../lib/gcc/pic32c/6.2.1/../../../../pic32c/lib/v7e-m/fpv4-sp/hard\libc_nano.a(lib_a-mbtowc_r.o)
 .debug_info    0x0014b3ff      0xe49 c:/program files/microchip/xc32/v2.40/bin/bin/../../lib/gcc/pic32c/6.2.1/../../../../pic32c/lib/v7e-m/fpv4-sp/hard\libc_nano.a(lib_a-memcmp.o)
 .debug_info    0x0014c248      0xe68 c:/program files/microchip/xc32/v2.40/bin/bin/../../lib/gcc/pic32c/6.2.1/../../../../pic32c/lib/v7e-m/fpv4-sp/hard\libc_nano.a(lib_a-memcpy-stub.o)
 .debug_info    0x0014d0b0     0x15de c:/program files/microchip/xc32/v2.40/bin/bin/../../lib/gcc/pic32c/6.2.1/../../../../pic32c/lib/v7e-m/fpv4-sp/hard\libc_nano.a(lib_a-memmove.o)
 .debug_info    0x0014e68e     0x15ae c:/program files/microchip/xc32/v2.40/bin/bin/../../lib/gcc/pic32c/6.2.1/../../../../pic32c/lib/v7e-m/fpv4-sp/hard\libc_nano.a(lib_a-memset.o)
 .debug_info    0x0014fc3c     0x10e1 c:/program files/microchip/xc32/v2.40/bin/bin/../../lib/gcc/pic32c/6.2.1/../../../../pic32c/lib/v7e-m/fpv4-sp/hard\libc_nano.a(lib_a-nano-callocr.o)
 .debug_info    0x00150d1d     0x11c1 c:/program files/microchip/xc32/v2.40/bin/bin/../../lib/gcc/pic32c/6.2.1/../../../../pic32c/lib/v7e-m/fpv4-sp/hard\libc_nano.a(lib_a-nano-freer.o)
 .debug_info    0x00151ede     0x1259 c:/program files/microchip/xc32/v2.40/bin/bin/../../lib/gcc/pic32c/6.2.1/../../../../pic32c/lib/v7e-m/fpv4-sp/hard\libc_nano.a(lib_a-nano-mallocr.o)
 .debug_info    0x00153137     0x1d56 c:/program files/microchip/xc32/v2.40/bin/bin/../../lib/gcc/pic32c/6.2.1/../../../../pic32c/lib/v7e-m/fpv4-sp/hard\libc_nano.a(lib_a-nano-vfprintf.o)
 .debug_info    0x00154e8d     0x1f41 c:/program files/microchip/xc32/v2.40/bin/bin/../../lib/gcc/pic32c/6.2.1/../../../../pic32c/lib/v7e-m/fpv4-sp/hard\libc_nano.a(_lib_a-nano-vfprintf.s.o)
 .debug_info    0x00156dce     0x124c c:/program files/microchip/xc32/v2.40/bin/bin/../../lib/gcc/pic32c/6.2.1/../../../../pic32c/lib/v7e-m/fpv4-sp/hard\libc_nano.a(lib_a-printf.o)
 .debug_info    0x0015801a     0x11cc c:/program files/microchip/xc32/v2.40/bin/bin/../../lib/gcc/pic32c/6.2.1/../../../../pic32c/lib/v7e-m/fpv4-sp/hard\libc_nano.a(lib_a-putchar.o)
 .debug_info    0x001591e6     0x1260 c:/program files/microchip/xc32/v2.40/bin/bin/../../lib/gcc/pic32c/6.2.1/../../../../pic32c/lib/v7e-m/fpv4-sp/hard\libc_nano.a(lib_a-putc.o)
 .debug_info    0x0015a446     0x12e5 c:/program files/microchip/xc32/v2.40/bin/bin/../../lib/gcc/pic32c/6.2.1/../../../../pic32c/lib/v7e-m/fpv4-sp/hard\libc_nano.a(lib_a-puts.o)
 .debug_info    0x0015b72b      0xeda c:/program files/microchip/xc32/v2.40/bin/bin/../../lib/gcc/pic32c/6.2.1/../../../../pic32c/lib/v7e-m/fpv4-sp/hard\libc_nano.a(lib_a-rand.o)
 .debug_info    0x0015c605      0xedf c:/program files/microchip/xc32/v2.40/bin/bin/../../lib/gcc/pic32c/6.2.1/../../../../pic32c/lib/v7e-m/fpv4-sp/hard\libc_nano.a(lib_a-sbrkr.o)
 .debug_info    0x0015d4e4     0x12cf c:/program files/microchip/xc32/v2.40/bin/bin/../../lib/gcc/pic32c/6.2.1/../../../../pic32c/lib/v7e-m/fpv4-sp/hard\libc_nano.a(lib_a-snprintf.o)
 .debug_info    0x0015e7b3     0x125c c:/program files/microchip/xc32/v2.40/bin/bin/../../lib/gcc/pic32c/6.2.1/../../../../pic32c/lib/v7e-m/fpv4-sp/hard\libc_nano.a(lib_a-sprintf.o)
 .debug_info    0x0015fa0f     0x11eb c:/program files/microchip/xc32/v2.40/bin/bin/../../lib/gcc/pic32c/6.2.1/../../../../pic32c/lib/v7e-m/fpv4-sp/hard\libc_nano.a(_lib_a-sscanf.cdnopsuxX.o)
 .debug_info    0x00160bfa     0x1954 c:/program files/microchip/xc32/v2.40/bin/bin/../../lib/gcc/pic32c/6.2.1/../../../../pic32c/lib/v7e-m/fpv4-sp/hard\libc_nano.a(lib_a-__ssfputs.o)
 .debug_info    0x0016254e     0x1422 c:/program files/microchip/xc32/v2.40/bin/bin/../../lib/gcc/pic32c/6.2.1/../../../../pic32c/lib/v7e-m/fpv4-sp/hard\libc_nano.a(lib_a-stdio.o)
 .debug_info    0x00163970      0x129 c:/program files/microchip/xc32/v2.40/bin/bin/../../lib/gcc/pic32c/6.2.1/../../../../pic32c/lib/v7e-m/fpv4-sp/hard\libc_nano.a(lib_a-strcmp.o)
 .debug_info    0x00163a99      0xe0b c:/program files/microchip/xc32/v2.40/bin/bin/../../lib/gcc/pic32c/6.2.1/../../../../pic32c/lib/v7e-m/fpv4-sp/hard\libc_nano.a(lib_a-strcpy.o)
 .debug_info    0x001648a4      0x12a c:/program files/microchip/xc32/v2.40/bin/bin/../../lib/gcc/pic32c/6.2.1/../../../../pic32c/lib/v7e-m/fpv4-sp/hard\libc_nano.a(lib_a-strlen.o)
 .debug_info    0x001649ce      0xe24 c:/program files/microchip/xc32/v2.40/bin/bin/../../lib/gcc/pic32c/6.2.1/../../../../pic32c/lib/v7e-m/fpv4-sp/hard\libc_nano.a(lib_a-strncmp.o)
 .debug_info    0x001657f2      0xe4c c:/program files/microchip/xc32/v2.40/bin/bin/../../lib/gcc/pic32c/6.2.1/../../../../pic32c/lib/v7e-m/fpv4-sp/hard\libc_nano.a(lib_a-strncpy.o)
 .debug_info    0x0016663e      0xe31 c:/program files/microchip/xc32/v2.40/bin/bin/../../lib/gcc/pic32c/6.2.1/../../../../pic32c/lib/v7e-m/fpv4-sp/hard\libc_nano.a(lib_a-strstr.o)
 .debug_info    0x0016746f     0x1936 c:/program files/microchip/xc32/v2.40/bin/bin/../../lib/gcc/pic32c/6.2.1/../../../../pic32c/lib/v7e-m/fpv4-sp/hard\libc_nano.a(lib_a-strtol.o)
 .debug_info    0x00168da5     0x193b c:/program files/microchip/xc32/v2.40/bin/bin/../../lib/gcc/pic32c/6.2.1/../../../../pic32c/lib/v7e-m/fpv4-sp/hard\libc_nano.a(lib_a-strtoul.o)
 .debug_info    0x0016a6e0     0x12aa c:/program files/microchip/xc32/v2.40/bin/bin/../../lib/gcc/pic32c/6.2.1/../../../../pic32c/lib/v7e-m/fpv4-sp/hard\libc_nano.a(lib_a-vsnprintf.o)
 .debug_info    0x0016b98a     0x1279 c:/program files/microchip/xc32/v2.40/bin/bin/../../lib/gcc/pic32c/6.2.1/../../../../pic32c/lib/v7e-m/fpv4-sp/hard\libc_nano.a(lib_a-wbuf.o)
 .debug_info    0x0016cc03     0x174d c:/program files/microchip/xc32/v2.40/bin/bin/../../lib/gcc/pic32c/6.2.1/../../../../pic32c/lib/v7e-m/fpv4-sp/hard\libc_nano.a(lib_a-wctomb_r.o)
 .debug_info    0x0016e350      0xefe c:/program files/microchip/xc32/v2.40/bin/bin/../../lib/gcc/pic32c/6.2.1/../../../../pic32c/lib/v7e-m/fpv4-sp/hard\libc_nano.a(lib_a-writer.o)
 .debug_info    0x0016f24e     0x11f4 c:/program files/microchip/xc32/v2.40/bin/bin/../../lib/gcc/pic32c/6.2.1/../../../../pic32c/lib/v7e-m/fpv4-sp/hard\libc_nano.a(lib_a-wsetup.o)
 .debug_info    0x00170442      0xead c:/program files/microchip/xc32/v2.40/bin/bin/../../lib/gcc/pic32c/6.2.1/../../../../pic32c/lib/v7e-m/fpv4-sp/hard\libc_nano.a(lib_a-closer.o)
 .debug_info    0x001712ef     0x157f c:/program files/microchip/xc32/v2.40/bin/bin/../../lib/gcc/pic32c/6.2.1/../../../../pic32c/lib/v7e-m/fpv4-sp/hard\libc_nano.a(lib_a-ctype_.o)
 .debug_info    0x0017286e     0x135a c:/program files/microchip/xc32/v2.40/bin/bin/../../lib/gcc/pic32c/6.2.1/../../../../pic32c/lib/v7e-m/fpv4-sp/hard\libc_nano.a(lib_a-fflush.o)
 .debug_info    0x00173bc8     0x1534 c:/program files/microchip/xc32/v2.40/bin/bin/../../lib/gcc/pic32c/6.2.1/../../../../pic32c/lib/v7e-m/fpv4-sp/hard\libc_nano.a(lib_a-findfp.o)
 .debug_info    0x001750fc     0x139e c:/program files/microchip/xc32/v2.40/bin/bin/../../lib/gcc/pic32c/6.2.1/../../../../pic32c/lib/v7e-m/fpv4-sp/hard\libc_nano.a(lib_a-fputwc.o)
 .debug_info    0x0017649a     0x1263 c:/program files/microchip/xc32/v2.40/bin/bin/../../lib/gcc/pic32c/6.2.1/../../../../pic32c/lib/v7e-m/fpv4-sp/hard\libc_nano.a(lib_a-fwalk.o)
 .debug_info    0x001776fd      0xee5 c:/program files/microchip/xc32/v2.40/bin/bin/../../lib/gcc/pic32c/6.2.1/../../../../pic32c/lib/v7e-m/fpv4-sp/hard\libc_nano.a(lib_a-lseekr.o)
 .debug_info    0x001785e2     0x15ab c:/program files/microchip/xc32/v2.40/bin/bin/../../lib/gcc/pic32c/6.2.1/../../../../pic32c/lib/v7e-m/fpv4-sp/hard\libc_nano.a(lib_a-makebuf.o)
 .debug_info    0x00179b8d      0x120 c:/program files/microchip/xc32/v2.40/bin/bin/../../lib/gcc/pic32c/6.2.1/../../../../pic32c/lib/v7e-m/fpv4-sp/hard\libc_nano.a(lib_a-memchr.o)
 .debug_info    0x00179cad      0xe2c c:/program files/microchip/xc32/v2.40/bin/bin/../../lib/gcc/pic32c/6.2.1/../../../../pic32c/lib/v7e-m/fpv4-sp/hard\libc_nano.a(lib_a-mlock.o)
 .debug_info    0x0017aad9     0x1c97 c:/program files/microchip/xc32/v2.40/bin/bin/../../lib/gcc/pic32c/6.2.1/../../../../pic32c/lib/v7e-m/fpv4-sp/hard\libc_nano.a(lib_a-nano-svfprintf.o)
 .debug_info    0x0017c770     0x1db8 c:/program files/microchip/xc32/v2.40/bin/bin/../../lib/gcc/pic32c/6.2.1/../../../../pic32c/lib/v7e-m/fpv4-sp/hard\libc_nano.a(lib_a-nano-vfprintf_i.o)
 .debug_info    0x0017e528     0x211d c:/program files/microchip/xc32/v2.40/bin/bin/../../lib/gcc/pic32c/6.2.1/../../../../pic32c/lib/v7e-m/fpv4-sp/hard\libc_nano.a(_lib_a-nano-vfscanf.cdnopsuxX.o)
 .debug_info    0x00180645      0xefc c:/program files/microchip/xc32/v2.40/bin/bin/../../lib/gcc/pic32c/6.2.1/../../../../pic32c/lib/v7e-m/fpv4-sp/hard\libc_nano.a(lib_a-readr.o)
 .debug_info    0x00181541      0xfe7 c:/program files/microchip/xc32/v2.40/bin/bin/../../lib/gcc/pic32c/6.2.1/../../../../pic32c/lib/v7e-m/fpv4-sp/hard\libc_nano.a(lib_a-reent.o)
 .debug_info    0x00182528     0x12f3 c:/program files/microchip/xc32/v2.40/bin/bin/../../lib/gcc/pic32c/6.2.1/../../../../pic32c/lib/v7e-m/fpv4-sp/hard\libc_nano.a(lib_a-refill.o)
 .debug_info    0x0018381b     0x1152 c:/program files/microchip/xc32/v2.40/bin/bin/../../lib/gcc/pic32c/6.2.1/../../../../pic32c/lib/v7e-m/fpv4-sp/hard\libc_nano.a(lib_a-sccl.o)
 .debug_info    0x0018496d     0x1a76 c:/program files/microchip/xc32/v2.40/bin/bin/../../lib/gcc/pic32c/6.2.1/../../../../pic32c/lib/v7e-m/fpv4-sp/hard\libc_nano.a(lib_a-__ssputs.o)
 .debug_info    0x001863e3     0x1338 c:/program files/microchip/xc32/v2.40/bin/bin/../../lib/gcc/pic32c/6.2.1/../../../../pic32c/lib/v7e-m/fpv4-sp/hard\libc_nano.a(lib_a-ungetc.o)
 .debug_info    0x0018771b     0x175e c:/program files/microchip/xc32/v2.40/bin/bin/../../lib/gcc/pic32c/6.2.1/../../../../pic32c/lib/v7e-m/fpv4-sp/hard\libc_nano.a(lib_a-wcrtomb.o)
 .debug_info    0x00188e79     0x11a8 c:/program files/microchip/xc32/v2.40/bin/bin/../../lib/gcc/pic32c/6.2.1/../../../../pic32c/lib/v7e-m/fpv4-sp/hard\libc_nano.a(lib_a-fstatr.o)
 .debug_info    0x0018a021      0xeba c:/program files/microchip/xc32/v2.40/bin/bin/../../lib/gcc/pic32c/6.2.1/../../../../pic32c/lib/v7e-m/fpv4-sp/hard\libc_nano.a(lib_a-isattyr.o)
 .debug_info    0x0018aedb     0x1164 c:/program files/microchip/xc32/v2.40/bin/bin/../../lib/gcc/pic32c/6.2.1/../../../../pic32c/lib/v7e-m/fpv4-sp/hard\libc_nano.a(lib_a-nano-reallocr.o)
 .debug_info    0x0018c03f     0x109a c:/program files/microchip/xc32/v2.40/bin/bin/../../lib/gcc/pic32c/6.2.1/../../../../pic32c/lib/v7e-m/fpv4-sp/hard\libc_nano.a(lib_a-nano-msizer.o)
 .debug_info    0x0018d0d9      0x288 c:/program files/microchip/xc32/v2.40/bin/bin/../../lib/gcc/pic32c/6.2.1/../../../../pic32c/lib/v7e-m/fpv4-sp/hard\libpic32c.a(_close.o)
 .debug_info    0x0018d361      0x288 c:/program files/microchip/xc32/v2.40/bin/bin/../../lib/gcc/pic32c/6.2.1/../../../../pic32c/lib/v7e-m/fpv4-sp/hard\libpic32c.a(_fstat.o)
 .debug_info    0x0018d5e9      0x28a c:/program files/microchip/xc32/v2.40/bin/bin/../../lib/gcc/pic32c/6.2.1/../../../../pic32c/lib/v7e-m/fpv4-sp/hard\libpic32c.a(_isatty.o)
 .debug_info    0x0018d873      0x288 c:/program files/microchip/xc32/v2.40/bin/bin/../../lib/gcc/pic32c/6.2.1/../../../../pic32c/lib/v7e-m/fpv4-sp/hard\libpic32c.a(_lseek.o)
 .debug_info    0x0018dafb      0x286 c:/program files/microchip/xc32/v2.40/bin/bin/../../lib/gcc/pic32c/6.2.1/../../../../pic32c/lib/v7e-m/fpv4-sp/hard\libpic32c.a(_read.o)
 .debug_info    0x0018dd81      0x286 c:/program files/microchip/xc32/v2.40/bin/bin/../../lib/gcc/pic32c/6.2.1/../../../../pic32c/lib/v7e-m/fpv4-sp/hard\libpic32c.a(sbrk.o)
 .debug_info    0x0018e007      0x288 c:/program files/microchip/xc32/v2.40/bin/bin/../../lib/gcc/pic32c/6.2.1/../../../../pic32c/lib/v7e-m/fpv4-sp/hard\libpic32c.a(_write.o)
 .debug_info    0x0018e28f      0x287 c:/program files/microchip/xc32/v2.40/bin/bin/../../lib/gcc/pic32c/6.2.1/../../../../pic32c/lib/v7e-m/fpv4-sp/hard\libpic32c.a(close.o)
 .debug_info    0x0018e516      0x287 c:/program files/microchip/xc32/v2.40/bin/bin/../../lib/gcc/pic32c/6.2.1/../../../../pic32c/lib/v7e-m/fpv4-sp/hard\libpic32c.a(fstat.o)
 .debug_info    0x0018e79d      0x289 c:/program files/microchip/xc32/v2.40/bin/bin/../../lib/gcc/pic32c/6.2.1/../../../../pic32c/lib/v7e-m/fpv4-sp/hard\libpic32c.a(isatty.o)
 .debug_info    0x0018ea26      0x287 c:/program files/microchip/xc32/v2.40/bin/bin/../../lib/gcc/pic32c/6.2.1/../../../../pic32c/lib/v7e-m/fpv4-sp/hard\libpic32c.a(lseek.o)
 .debug_info    0x0018ecad      0x286 c:/program files/microchip/xc32/v2.40/bin/bin/../../lib/gcc/pic32c/6.2.1/../../../../pic32c/lib/v7e-m/fpv4-sp/hard\libpic32c.a(read.o)
 .debug_info    0x0018ef33      0x288 c:/program files/microchip/xc32/v2.40/bin/bin/../../lib/gcc/pic32c/6.2.1/../../../../pic32c/lib/v7e-m/fpv4-sp/hard\libpic32c.a(write.o)

.debug_abbrev   0x00000000    0x1f676
 .debug_abbrev  0x00000000      0x609 build/aws_demos/production/_ext/1319661984/drv_gmac.o
 .debug_abbrev  0x00000609      0x57c build/aws_demos/production/_ext/1319661984/drv_gmac_lib_samE5x.o
 .debug_abbrev  0x00000b85      0x2b8 build/aws_demos/production/_ext/665618993/plib_nvmctrl.o
 .debug_abbrev  0x00000e3d      0x335 build/aws_demos/production/_ext/731420310/plib_sercom2_usart.o
 .debug_abbrev  0x00001172       0x5c build/aws_demos/production/_ext/1321577635/plib_evsys.o
 .debug_abbrev  0x000011ce      0x47c build/aws_demos/production/_ext/1991396724/sys_command.o
 .debug_abbrev  0x0000164a      0x447 build/aws_demos/production/_ext/731420310/plib_sercom6_usart.o
 .debug_abbrev  0x00001a91      0x3c1 build/aws_demos/production/_ext/1360937237/main.o
 .debug_abbrev  0x00001e52      0x2a9 build/aws_demos/production/_ext/1534096987/initialization.o
 .debug_abbrev  0x000020fb      0x20d build/aws_demos/production/_ext/1534096987/interrupts.o
 .debug_abbrev  0x00002308      0x1fa build/aws_demos/production/_ext/1534096987/exceptions.o
 .debug_abbrev  0x00002502      0x26e build/aws_demos/production/_ext/1263901141/xc32_monitor.o
 .debug_abbrev  0x00002770      0x15e build/aws_demos/production/_ext/1843425920/plib_port.o
 .debug_abbrev  0x000028ce      0x112 build/aws_demos/production/_ext/1323727121/plib_clock.o
 .debug_abbrev  0x000029e0      0x184 build/aws_demos/production/_ext/1843479071/plib_nvic.o
 .debug_abbrev  0x00002b64      0x2cf build/aws_demos/production/_ext/1534096987/startup_xc32.o
 .debug_abbrev  0x00002e33      0x226 build/aws_demos/production/_ext/1385882503/port.o
 .debug_abbrev  0x00003059      0x30c build/aws_demos/production/_ext/1168480030/heap_4.o
 .debug_abbrev  0x00003365      0x464 build/aws_demos/production/_ext/112156576/iot_pkcs11_mbedtls.o
 .debug_abbrev  0x000037c9      0x37b build/aws_demos/production/_ext/366737/iot_secure_sockets.o
 .debug_abbrev  0x00003b44      0x3a2 build/aws_demos/production/_ext/1682906662/FreeRTOS_ARP.o
 .debug_abbrev  0x00003ee6      0x363 build/aws_demos/production/_ext/1682906662/FreeRTOS_DHCP.o
 .debug_abbrev  0x00004249      0x3f5 build/aws_demos/production/_ext/1682906662/FreeRTOS_DNS.o
 .debug_abbrev  0x0000463e      0x530 build/aws_demos/production/_ext/1682906662/FreeRTOS_IP.o
 .debug_abbrev  0x00004b6e      0x56b build/aws_demos/production/_ext/1682906662/FreeRTOS_Sockets.o
 .debug_abbrev  0x000050d9      0x2b8 build/aws_demos/production/_ext/1682906662/FreeRTOS_Stream_Buffer.o
 .debug_abbrev  0x00005391      0x4e2 build/aws_demos/production/_ext/1682906662/FreeRTOS_TCP_IP.o
 .debug_abbrev  0x00005873      0x3ab build/aws_demos/production/_ext/1682906662/FreeRTOS_TCP_WIN.o
 .debug_abbrev  0x00005c1e      0x312 build/aws_demos/production/_ext/1682906662/FreeRTOS_UDP_IP.o
 .debug_abbrev  0x00005f30      0x40d build/aws_demos/production/_ext/1778494626/BufferAllocation_2.o
 .debug_abbrev  0x0000633d      0x526 build/aws_demos/production/_ext/1778494626/NetworkInterface_eth.o
 .debug_abbrev  0x00006863      0x3e3 build/aws_demos/production/_ext/1972722184/iot_pkcs11_pal.o
 .debug_abbrev  0x00006c46      0x2d2 build/aws_demos/production/_ext/1972722184/pkcs11_nvm.o
 .debug_abbrev  0x00006f18      0x2ac build/aws_demos/production/_ext/197858987/helpers.o
 .debug_abbrev  0x000071c4      0x297 build/aws_demos/production/_ext/197858987/tcpip_heap_alloc.o
 .debug_abbrev  0x0000745b      0x3f5 build/aws_demos/production/_ext/197858987/tcpip_heap_external.o
 .debug_abbrev  0x00007850      0x4b5 build/aws_demos/production/_ext/197858987/tcpip_helpers.o
 .debug_abbrev  0x00007d05      0x46c build/aws_demos/production/_ext/197858987/tcpip_packet.o
 .debug_abbrev  0x00008171      0x184 build/aws_demos/production/_ext/59476128/plib_eic.o
 .debug_abbrev  0x000082f5      0x688 build/aws_demos/production/_ext/211704168/drv_miim.o
 .debug_abbrev  0x0000897d      0x1c1 build/aws_demos/production/_ext/1110296786/plib_tc3.o
 .debug_abbrev  0x00008b3e      0x59e build/aws_demos/production/_ext/484134862/sys_time.o
 .debug_abbrev  0x000090dc       0xd2 build/aws_demos/production/_ext/1223942466/aws_demo.o
 .debug_abbrev  0x000091ae       0xcb build/aws_demos/production/_ext/1223942466/aws_demo_network_addr.o
 .debug_abbrev  0x00009279      0x3c8 build/aws_demos/production/_ext/1223942466/iot_demo_freertos.o
 .debug_abbrev  0x00009641      0x1e1 build/aws_demos/production/_ext/1223942466/iot_demo_runner.o
 .debug_abbrev  0x00009822      0x436 build/aws_demos/production/_ext/198771642/aws_dev_mode_key_provisioning.o
 .debug_abbrev  0x00009c58      0x3a0 build/aws_demos/production/_ext/1441508942/iot_demo_mqtt.o
 .debug_abbrev  0x00009ff8      0x33e build/aws_demos/production/_ext/2040524622/aws_iot_network_manager.o
 .debug_abbrev  0x0000a336      0x3ed build/aws_demos/production/_ext/811507611/event_groups.o
 .debug_abbrev  0x0000a723      0x22f build/aws_demos/production/_ext/811507611/list.o
 .debug_abbrev  0x0000a952      0x434 build/aws_demos/production/_ext/811507611/queue.o
 .debug_abbrev  0x0000ad86      0x4c4 build/aws_demos/production/_ext/811507611/tasks.o
 .debug_abbrev  0x0000b24a      0x41a build/aws_demos/production/_ext/811507611/timers.o
 .debug_abbrev  0x0000b664      0x2b0 build/aws_demos/production/_ext/684768522/aes.o
 .debug_abbrev  0x0000b914      0x2b1 build/aws_demos/production/_ext/684768522/asn1parse.o
 .debug_abbrev  0x0000bbc5      0x32f build/aws_demos/production/_ext/684768522/asn1write.o
 .debug_abbrev  0x0000bef4      0x21f build/aws_demos/production/_ext/684768522/base64.o
 .debug_abbrev  0x0000c113      0x500 build/aws_demos/production/_ext/684768522/bignum.o
 .debug_abbrev  0x0000c613      0x57f build/aws_demos/production/_ext/684768522/cipher.o
 .debug_abbrev  0x0000cb92      0x313 build/aws_demos/production/_ext/684768522/cipher_wrap.o
 .debug_abbrev  0x0000cea5      0x3cc build/aws_demos/production/_ext/684768522/ctr_drbg.o
 .debug_abbrev  0x0000d271      0x41c build/aws_demos/production/_ext/684768522/ecdh.o
 .debug_abbrev  0x0000d68d      0x384 build/aws_demos/production/_ext/684768522/ecdsa.o
 .debug_abbrev  0x0000da11      0x48b build/aws_demos/production/_ext/684768522/ecp.o
 .debug_abbrev  0x0000de9c      0x31b build/aws_demos/production/_ext/684768522/ecp_curves.o
 .debug_abbrev  0x0000e1b7      0x3a6 build/aws_demos/production/_ext/684768522/entropy.o
 .debug_abbrev  0x0000e55d      0x438 build/aws_demos/production/_ext/684768522/gcm.o
 .debug_abbrev  0x0000e995      0x3d4 build/aws_demos/production/_ext/684768522/md.o
 .debug_abbrev  0x0000ed69      0x259 build/aws_demos/production/_ext/684768522/md_wrap.o
 .debug_abbrev  0x0000efc2      0x3b6 build/aws_demos/production/_ext/684768522/oid.o
 .debug_abbrev  0x0000f378      0x27f build/aws_demos/production/_ext/684768522/pem.o
 .debug_abbrev  0x0000f5f7      0x3e6 build/aws_demos/production/_ext/684768522/pk.o
 .debug_abbrev  0x0000f9dd      0x354 build/aws_demos/production/_ext/684768522/pkparse.o
 .debug_abbrev  0x0000fd31      0x358 build/aws_demos/production/_ext/684768522/pkwrite.o
 .debug_abbrev  0x00010089      0x45a build/aws_demos/production/_ext/684768522/pk_wrap.o
 .debug_abbrev  0x000104e3      0x277 build/aws_demos/production/_ext/684768522/platform.o
 .debug_abbrev  0x0001075a      0x1c7 build/aws_demos/production/_ext/684768522/platform_util.o
 .debug_abbrev  0x00010921      0x51c build/aws_demos/production/_ext/684768522/rsa.o
 .debug_abbrev  0x00010e3d      0x29f build/aws_demos/production/_ext/684768522/rsa_internal.o
 .debug_abbrev  0x000110dc      0x2d9 build/aws_demos/production/_ext/684768522/sha1.o
 .debug_abbrev  0x000113b5      0x2ee build/aws_demos/production/_ext/684768522/sha256.o
 .debug_abbrev  0x000116a3      0x289 build/aws_demos/production/_ext/684768522/ssl_ciphersuites.o
 .debug_abbrev  0x0001192c      0x413 build/aws_demos/production/_ext/684768522/ssl_cli.o
 .debug_abbrev  0x00011d3f      0x5dc build/aws_demos/production/_ext/684768522/ssl_tls.o
 .debug_abbrev  0x0001231b      0x202 build/aws_demos/production/_ext/684768522/threading.o
 .debug_abbrev  0x0001251d      0x34e build/aws_demos/production/_ext/684768522/x509.o
 .debug_abbrev  0x0001286b      0x4a8 build/aws_demos/production/_ext/684768522/x509_crt.o
 .debug_abbrev  0x00012d13      0x263 build/aws_demos/production/_ext/2077790016/mbedtls_utils.o
 .debug_abbrev  0x00012f76      0x25e build/aws_demos/production/_ext/520142351/iot_clock_freertos.o
 .debug_abbrev  0x000131d4      0x370 build/aws_demos/production/_ext/520142351/iot_network_freertos.o
 .debug_abbrev  0x00013544      0x239 build/aws_demos/production/_ext/520142351/iot_threads_freertos.o
 .debug_abbrev  0x0001377d      0x396 build/aws_demos/production/_ext/13066905/iot_device_metrics.o
 .debug_abbrev  0x00013b13      0x111 build/aws_demos/production/_ext/13066905/iot_init.o
 .debug_abbrev  0x00013c24      0x2ef build/aws_demos/production/_ext/227692215/iot_logging.o
 .debug_abbrev  0x00013f13      0x28d build/aws_demos/production/_ext/227692215/iot_logging_task_dynamic_buffers.o
 .debug_abbrev  0x000141a0      0x44d build/aws_demos/production/_ext/333408969/iot_taskpool.o
 .debug_abbrev  0x000145ed      0x4b7 build/aws_demos/production/_ext/1739149067/iot_mqtt_api.o
 .debug_abbrev  0x00014aa4      0x406 build/aws_demos/production/_ext/1739149067/iot_mqtt_network.o
 .debug_abbrev  0x00014eaa      0x3ec build/aws_demos/production/_ext/1739149067/iot_mqtt_operation.o
 .debug_abbrev  0x00015296      0x429 build/aws_demos/production/_ext/1739149067/iot_mqtt_serialize.o
 .debug_abbrev  0x000156bf      0x3c3 build/aws_demos/production/_ext/1739149067/iot_mqtt_subscription.o
 .debug_abbrev  0x00015a82      0x2b2 build/aws_demos/production/_ext/1739149067/iot_mqtt_validate.o
 .debug_abbrev  0x00015d34      0x38b build/aws_demos/production/_ext/350635301/iot_crypto.o
 .debug_abbrev  0x000160bf      0x30d build/aws_demos/production/_ext/2138053595/iot_pkcs11.o
 .debug_abbrev  0x000163cc      0x478 build/aws_demos/production/_ext/2039890517/iot_tls.o
 .debug_abbrev  0x00016844      0x1f9 build/aws_demos/production/_ext/1120274527/iot_pki_utils.o
 .debug_abbrev  0x00016a3d       0x74 build/aws_demos/production/_ext/1120274527/iot_system_init.o
 .debug_abbrev  0x00016ab1      0x5cf build/aws_demos/production/_ext/1200684192/drv_ethphy.o
 .debug_abbrev  0x00017080      0x2e1 build/aws_demos/production/_ext/1200684192/drv_extphy_ksz8091.o
 .debug_abbrev  0x00017361       0xab build/aws_demos/production/_ext/1843304010/plib_trng.o
 .debug_abbrev  0x0001740c      0x3ca build/aws_demos/production/_ext/1534684544/sys_console.o
 .debug_abbrev  0x000177d6      0x3c9 build/aws_demos/production/_ext/1534684544/sys_console_uart.o
 .debug_abbrev  0x00017b9f      0x1fe build/aws_demos/production/_ext/1762024984/sys_int.o
 .debug_abbrev  0x00017d9d      0x19d build/aws_demos/production/_ext/1149029443/osal_freertos.o
 .debug_abbrev  0x00017f3a      0x25b build/aws_demos/production/_ext/1534096987/tasks.o
 .debug_abbrev  0x00018195       0x2a c:/program files/microchip/xc32/v2.40/bin/bin/../../lib/gcc/pic32c/6.2.1/../../../../pic32c/lib/v7e-m/fpv4-sp/hard\libpic32c.a(data_init.o)
 .debug_abbrev  0x000181bf       0x14 c:/program files/microchip/xc32/v2.40/bin/bin/../../lib/gcc/pic32c/6.2.1/v7e-m/fpv4-sp/hard\libgcc.a(_aeabi_uldivmod.o)
 .debug_abbrev  0x000181d3      0x163 c:/program files/microchip/xc32/v2.40/bin/bin/../../lib/gcc/pic32c/6.2.1/v7e-m/fpv4-sp/hard\libgcc.a(_udivmoddi4.o)
 .debug_abbrev  0x00018336       0x14 c:/program files/microchip/xc32/v2.40/bin/bin/../../lib/gcc/pic32c/6.2.1/v7e-m/fpv4-sp/hard\libgcc.a(_dvmd_tls.o)
 .debug_abbrev  0x0001834a      0x187 c:/program files/microchip/xc32/v2.40/bin/bin/../../lib/gcc/pic32c/6.2.1/../../../../pic32c/lib/v7e-m/fpv4-sp/hard\libc_nano.a(lib_a-calloc.o)
 .debug_abbrev  0x000184d1      0x131 c:/program files/microchip/xc32/v2.40/bin/bin/../../lib/gcc/pic32c/6.2.1/../../../../pic32c/lib/v7e-m/fpv4-sp/hard\libc_nano.a(lib_a-impure.o)
 .debug_abbrev  0x00018602       0xa3 c:/program files/microchip/xc32/v2.40/bin/bin/../../lib/gcc/pic32c/6.2.1/../../../../pic32c/lib/v7e-m/fpv4-sp/hard\libc_nano.a(lib_a-init.o)
 .debug_abbrev  0x000186a5      0x256 c:/program files/microchip/xc32/v2.40/bin/bin/../../lib/gcc/pic32c/6.2.1/../../../../pic32c/lib/v7e-m/fpv4-sp/hard\libc_nano.a(lib_a-locale.o)
 .debug_abbrev  0x000188fb      0x1b3 c:/program files/microchip/xc32/v2.40/bin/bin/../../lib/gcc/pic32c/6.2.1/../../../../pic32c/lib/v7e-m/fpv4-sp/hard\libc_nano.a(lib_a-malloc.o)
 .debug_abbrev  0x00018aae      0x1be c:/program files/microchip/xc32/v2.40/bin/bin/../../lib/gcc/pic32c/6.2.1/../../../../pic32c/lib/v7e-m/fpv4-sp/hard\libc_nano.a(lib_a-mbtowc_r.o)
 .debug_abbrev  0x00018c6c      0x15e c:/program files/microchip/xc32/v2.40/bin/bin/../../lib/gcc/pic32c/6.2.1/../../../../pic32c/lib/v7e-m/fpv4-sp/hard\libc_nano.a(lib_a-memcmp.o)
 .debug_abbrev  0x00018dca      0x17c c:/program files/microchip/xc32/v2.40/bin/bin/../../lib/gcc/pic32c/6.2.1/../../../../pic32c/lib/v7e-m/fpv4-sp/hard\libc_nano.a(lib_a-memcpy-stub.o)
 .debug_abbrev  0x00018f46      0x175 c:/program files/microchip/xc32/v2.40/bin/bin/../../lib/gcc/pic32c/6.2.1/../../../../pic32c/lib/v7e-m/fpv4-sp/hard\libc_nano.a(lib_a-memmove.o)
 .debug_abbrev  0x000190bb      0x170 c:/program files/microchip/xc32/v2.40/bin/bin/../../lib/gcc/pic32c/6.2.1/../../../../pic32c/lib/v7e-m/fpv4-sp/hard\libc_nano.a(lib_a-memset.o)
 .debug_abbrev  0x0001922b      0x1b9 c:/program files/microchip/xc32/v2.40/bin/bin/../../lib/gcc/pic32c/6.2.1/../../../../pic32c/lib/v7e-m/fpv4-sp/hard\libc_nano.a(lib_a-nano-callocr.o)
 .debug_abbrev  0x000193e4      0x242 c:/program files/microchip/xc32/v2.40/bin/bin/../../lib/gcc/pic32c/6.2.1/../../../../pic32c/lib/v7e-m/fpv4-sp/hard\libc_nano.a(lib_a-nano-freer.o)
 .debug_abbrev  0x00019626      0x281 c:/program files/microchip/xc32/v2.40/bin/bin/../../lib/gcc/pic32c/6.2.1/../../../../pic32c/lib/v7e-m/fpv4-sp/hard\libc_nano.a(lib_a-nano-mallocr.o)
 .debug_abbrev  0x000198a7      0x25a c:/program files/microchip/xc32/v2.40/bin/bin/../../lib/gcc/pic32c/6.2.1/../../../../pic32c/lib/v7e-m/fpv4-sp/hard\libc_nano.a(lib_a-nano-vfprintf.o)
 .debug_abbrev  0x00019b01      0x31d c:/program files/microchip/xc32/v2.40/bin/bin/../../lib/gcc/pic32c/6.2.1/../../../../pic32c/lib/v7e-m/fpv4-sp/hard\libc_nano.a(_lib_a-nano-vfprintf.s.o)
 .debug_abbrev  0x00019e1e      0x218 c:/program files/microchip/xc32/v2.40/bin/bin/../../lib/gcc/pic32c/6.2.1/../../../../pic32c/lib/v7e-m/fpv4-sp/hard\libc_nano.a(lib_a-printf.o)
 .debug_abbrev  0x0001a036      0x1eb c:/program files/microchip/xc32/v2.40/bin/bin/../../lib/gcc/pic32c/6.2.1/../../../../pic32c/lib/v7e-m/fpv4-sp/hard\libc_nano.a(lib_a-putchar.o)
 .debug_abbrev  0x0001a221      0x237 c:/program files/microchip/xc32/v2.40/bin/bin/../../lib/gcc/pic32c/6.2.1/../../../../pic32c/lib/v7e-m/fpv4-sp/hard\libc_nano.a(lib_a-putc.o)
 .debug_abbrev  0x0001a458      0x25f c:/program files/microchip/xc32/v2.40/bin/bin/../../lib/gcc/pic32c/6.2.1/../../../../pic32c/lib/v7e-m/fpv4-sp/hard\libc_nano.a(lib_a-puts.o)
 .debug_abbrev  0x0001a6b7      0x1c6 c:/program files/microchip/xc32/v2.40/bin/bin/../../lib/gcc/pic32c/6.2.1/../../../../pic32c/lib/v7e-m/fpv4-sp/hard\libc_nano.a(lib_a-rand.o)
 .debug_abbrev  0x0001a87d      0x1a8 c:/program files/microchip/xc32/v2.40/bin/bin/../../lib/gcc/pic32c/6.2.1/../../../../pic32c/lib/v7e-m/fpv4-sp/hard\libc_nano.a(lib_a-sbrkr.o)
 .debug_abbrev  0x0001aa25      0x1e2 c:/program files/microchip/xc32/v2.40/bin/bin/../../lib/gcc/pic32c/6.2.1/../../../../pic32c/lib/v7e-m/fpv4-sp/hard\libc_nano.a(lib_a-snprintf.o)
 .debug_abbrev  0x0001ac07      0x1ea c:/program files/microchip/xc32/v2.40/bin/bin/../../lib/gcc/pic32c/6.2.1/../../../../pic32c/lib/v7e-m/fpv4-sp/hard\libc_nano.a(lib_a-sprintf.o)
 .debug_abbrev  0x0001adf1      0x1ed c:/program files/microchip/xc32/v2.40/bin/bin/../../lib/gcc/pic32c/6.2.1/../../../../pic32c/lib/v7e-m/fpv4-sp/hard\libc_nano.a(_lib_a-sscanf.cdnopsuxX.o)
 .debug_abbrev  0x0001afde      0x1f9 c:/program files/microchip/xc32/v2.40/bin/bin/../../lib/gcc/pic32c/6.2.1/../../../../pic32c/lib/v7e-m/fpv4-sp/hard\libc_nano.a(lib_a-__ssfputs.o)
 .debug_abbrev  0x0001b1d7      0x23f c:/program files/microchip/xc32/v2.40/bin/bin/../../lib/gcc/pic32c/6.2.1/../../../../pic32c/lib/v7e-m/fpv4-sp/hard\libc_nano.a(lib_a-stdio.o)
 .debug_abbrev  0x0001b416       0x14 c:/program files/microchip/xc32/v2.40/bin/bin/../../lib/gcc/pic32c/6.2.1/../../../../pic32c/lib/v7e-m/fpv4-sp/hard\libc_nano.a(lib_a-strcmp.o)
 .debug_abbrev  0x0001b42a      0x157 c:/program files/microchip/xc32/v2.40/bin/bin/../../lib/gcc/pic32c/6.2.1/../../../../pic32c/lib/v7e-m/fpv4-sp/hard\libc_nano.a(lib_a-strcpy.o)
 .debug_abbrev  0x0001b581       0x14 c:/program files/microchip/xc32/v2.40/bin/bin/../../lib/gcc/pic32c/6.2.1/../../../../pic32c/lib/v7e-m/fpv4-sp/hard\libc_nano.a(lib_a-strlen.o)
 .debug_abbrev  0x0001b595      0x148 c:/program files/microchip/xc32/v2.40/bin/bin/../../lib/gcc/pic32c/6.2.1/../../../../pic32c/lib/v7e-m/fpv4-sp/hard\libc_nano.a(lib_a-strncmp.o)
 .debug_abbrev  0x0001b6dd      0x166 c:/program files/microchip/xc32/v2.40/bin/bin/../../lib/gcc/pic32c/6.2.1/../../../../pic32c/lib/v7e-m/fpv4-sp/hard\libc_nano.a(lib_a-strncpy.o)
 .debug_abbrev  0x0001b843      0x16d c:/program files/microchip/xc32/v2.40/bin/bin/../../lib/gcc/pic32c/6.2.1/../../../../pic32c/lib/v7e-m/fpv4-sp/hard\libc_nano.a(lib_a-strstr.o)
 .debug_abbrev  0x0001b9b0      0x217 c:/program files/microchip/xc32/v2.40/bin/bin/../../lib/gcc/pic32c/6.2.1/../../../../pic32c/lib/v7e-m/fpv4-sp/hard\libc_nano.a(lib_a-strtol.o)
 .debug_abbrev  0x0001bbc7      0x217 c:/program files/microchip/xc32/v2.40/bin/bin/../../lib/gcc/pic32c/6.2.1/../../../../pic32c/lib/v7e-m/fpv4-sp/hard\libc_nano.a(lib_a-strtoul.o)
 .debug_abbrev  0x0001bdde      0x1ce c:/program files/microchip/xc32/v2.40/bin/bin/../../lib/gcc/pic32c/6.2.1/../../../../pic32c/lib/v7e-m/fpv4-sp/hard\libc_nano.a(lib_a-vsnprintf.o)
 .debug_abbrev  0x0001bfac      0x216 c:/program files/microchip/xc32/v2.40/bin/bin/../../lib/gcc/pic32c/6.2.1/../../../../pic32c/lib/v7e-m/fpv4-sp/hard\libc_nano.a(lib_a-wbuf.o)
 .debug_abbrev  0x0001c1c2      0x1da c:/program files/microchip/xc32/v2.40/bin/bin/../../lib/gcc/pic32c/6.2.1/../../../../pic32c/lib/v7e-m/fpv4-sp/hard\libc_nano.a(lib_a-wctomb_r.o)
 .debug_abbrev  0x0001c39c      0x198 c:/program files/microchip/xc32/v2.40/bin/bin/../../lib/gcc/pic32c/6.2.1/../../../../pic32c/lib/v7e-m/fpv4-sp/hard\libc_nano.a(lib_a-writer.o)
 .debug_abbrev  0x0001c534      0x1ec c:/program files/microchip/xc32/v2.40/bin/bin/../../lib/gcc/pic32c/6.2.1/../../../../pic32c/lib/v7e-m/fpv4-sp/hard\libc_nano.a(lib_a-wsetup.o)
 .debug_abbrev  0x0001c720      0x193 c:/program files/microchip/xc32/v2.40/bin/bin/../../lib/gcc/pic32c/6.2.1/../../../../pic32c/lib/v7e-m/fpv4-sp/hard\libc_nano.a(lib_a-closer.o)
 .debug_abbrev  0x0001c8b3      0x131 c:/program files/microchip/xc32/v2.40/bin/bin/../../lib/gcc/pic32c/6.2.1/../../../../pic32c/lib/v7e-m/fpv4-sp/hard\libc_nano.a(lib_a-ctype_.o)
 .debug_abbrev  0x0001c9e4      0x29e c:/program files/microchip/xc32/v2.40/bin/bin/../../lib/gcc/pic32c/6.2.1/../../../../pic32c/lib/v7e-m/fpv4-sp/hard\libc_nano.a(lib_a-fflush.o)
 .debug_abbrev  0x0001cc82      0x2b5 c:/program files/microchip/xc32/v2.40/bin/bin/../../lib/gcc/pic32c/6.2.1/../../../../pic32c/lib/v7e-m/fpv4-sp/hard\libc_nano.a(lib_a-findfp.o)
 .debug_abbrev  0x0001cf37      0x27f c:/program files/microchip/xc32/v2.40/bin/bin/../../lib/gcc/pic32c/6.2.1/../../../../pic32c/lib/v7e-m/fpv4-sp/hard\libc_nano.a(lib_a-fputwc.o)
 .debug_abbrev  0x0001d1b6      0x1ad c:/program files/microchip/xc32/v2.40/bin/bin/../../lib/gcc/pic32c/6.2.1/../../../../pic32c/lib/v7e-m/fpv4-sp/hard\libc_nano.a(lib_a-fwalk.o)
 .debug_abbrev  0x0001d363      0x193 c:/program files/microchip/xc32/v2.40/bin/bin/../../lib/gcc/pic32c/6.2.1/../../../../pic32c/lib/v7e-m/fpv4-sp/hard\libc_nano.a(lib_a-lseekr.o)
 .debug_abbrev  0x0001d4f6      0x268 c:/program files/microchip/xc32/v2.40/bin/bin/../../lib/gcc/pic32c/6.2.1/../../../../pic32c/lib/v7e-m/fpv4-sp/hard\libc_nano.a(lib_a-makebuf.o)
 .debug_abbrev  0x0001d75e       0x14 c:/program files/microchip/xc32/v2.40/bin/bin/../../lib/gcc/pic32c/6.2.1/../../../../pic32c/lib/v7e-m/fpv4-sp/hard\libc_nano.a(lib_a-memchr.o)
 .debug_abbrev  0x0001d772      0x165 c:/program files/microchip/xc32/v2.40/bin/bin/../../lib/gcc/pic32c/6.2.1/../../../../pic32c/lib/v7e-m/fpv4-sp/hard\libc_nano.a(lib_a-mlock.o)
 .debug_abbrev  0x0001d8d7      0x239 c:/program files/microchip/xc32/v2.40/bin/bin/../../lib/gcc/pic32c/6.2.1/../../../../pic32c/lib/v7e-m/fpv4-sp/hard\libc_nano.a(lib_a-nano-svfprintf.o)
 .debug_abbrev  0x0001db10      0x225 c:/program files/microchip/xc32/v2.40/bin/bin/../../lib/gcc/pic32c/6.2.1/../../../../pic32c/lib/v7e-m/fpv4-sp/hard\libc_nano.a(lib_a-nano-vfprintf_i.o)
 .debug_abbrev  0x0001dd35      0x2ee c:/program files/microchip/xc32/v2.40/bin/bin/../../lib/gcc/pic32c/6.2.1/../../../../pic32c/lib/v7e-m/fpv4-sp/hard\libc_nano.a(_lib_a-nano-vfscanf.cdnopsuxX.o)
 .debug_abbrev  0x0001e023      0x193 c:/program files/microchip/xc32/v2.40/bin/bin/../../lib/gcc/pic32c/6.2.1/../../../../pic32c/lib/v7e-m/fpv4-sp/hard\libc_nano.a(lib_a-readr.o)
 .debug_abbrev  0x0001e1b6      0x1f8 c:/program files/microchip/xc32/v2.40/bin/bin/../../lib/gcc/pic32c/6.2.1/../../../../pic32c/lib/v7e-m/fpv4-sp/hard\libc_nano.a(lib_a-reent.o)
 .debug_abbrev  0x0001e3ae      0x23f c:/program files/microchip/xc32/v2.40/bin/bin/../../lib/gcc/pic32c/6.2.1/../../../../pic32c/lib/v7e-m/fpv4-sp/hard\libc_nano.a(lib_a-refill.o)
 .debug_abbrev  0x0001e5ed      0x191 c:/program files/microchip/xc32/v2.40/bin/bin/../../lib/gcc/pic32c/6.2.1/../../../../pic32c/lib/v7e-m/fpv4-sp/hard\libc_nano.a(lib_a-sccl.o)
 .debug_abbrev  0x0001e77e      0x20a c:/program files/microchip/xc32/v2.40/bin/bin/../../lib/gcc/pic32c/6.2.1/../../../../pic32c/lib/v7e-m/fpv4-sp/hard\libc_nano.a(lib_a-__ssputs.o)
 .debug_abbrev  0x0001e988      0x27d c:/program files/microchip/xc32/v2.40/bin/bin/../../lib/gcc/pic32c/6.2.1/../../../../pic32c/lib/v7e-m/fpv4-sp/hard\libc_nano.a(lib_a-ungetc.o)
 .debug_abbrev  0x0001ec05      0x1dc c:/program files/microchip/xc32/v2.40/bin/bin/../../lib/gcc/pic32c/6.2.1/../../../../pic32c/lib/v7e-m/fpv4-sp/hard\libc_nano.a(lib_a-wcrtomb.o)
 .debug_abbrev  0x0001ede1      0x193 c:/program files/microchip/xc32/v2.40/bin/bin/../../lib/gcc/pic32c/6.2.1/../../../../pic32c/lib/v7e-m/fpv4-sp/hard\libc_nano.a(lib_a-fstatr.o)
 .debug_abbrev  0x0001ef74      0x193 c:/program files/microchip/xc32/v2.40/bin/bin/../../lib/gcc/pic32c/6.2.1/../../../../pic32c/lib/v7e-m/fpv4-sp/hard\libc_nano.a(lib_a-isattyr.o)
 .debug_abbrev  0x0001f107      0x1e1 c:/program files/microchip/xc32/v2.40/bin/bin/../../lib/gcc/pic32c/6.2.1/../../../../pic32c/lib/v7e-m/fpv4-sp/hard\libc_nano.a(lib_a-nano-reallocr.o)
 .debug_abbrev  0x0001f2e8      0x17e c:/program files/microchip/xc32/v2.40/bin/bin/../../lib/gcc/pic32c/6.2.1/../../../../pic32c/lib/v7e-m/fpv4-sp/hard\libc_nano.a(lib_a-nano-msizer.o)
 .debug_abbrev  0x0001f466       0x27 c:/program files/microchip/xc32/v2.40/bin/bin/../../lib/gcc/pic32c/6.2.1/../../../../pic32c/lib/v7e-m/fpv4-sp/hard\libpic32c.a(_close.o)
 .debug_abbrev  0x0001f48d       0x27 c:/program files/microchip/xc32/v2.40/bin/bin/../../lib/gcc/pic32c/6.2.1/../../../../pic32c/lib/v7e-m/fpv4-sp/hard\libpic32c.a(_fstat.o)
 .debug_abbrev  0x0001f4b4       0x27 c:/program files/microchip/xc32/v2.40/bin/bin/../../lib/gcc/pic32c/6.2.1/../../../../pic32c/lib/v7e-m/fpv4-sp/hard\libpic32c.a(_isatty.o)
 .debug_abbrev  0x0001f4db       0x27 c:/program files/microchip/xc32/v2.40/bin/bin/../../lib/gcc/pic32c/6.2.1/../../../../pic32c/lib/v7e-m/fpv4-sp/hard\libpic32c.a(_lseek.o)
 .debug_abbrev  0x0001f502       0x27 c:/program files/microchip/xc32/v2.40/bin/bin/../../lib/gcc/pic32c/6.2.1/../../../../pic32c/lib/v7e-m/fpv4-sp/hard\libpic32c.a(_read.o)
 .debug_abbrev  0x0001f529       0x2a c:/program files/microchip/xc32/v2.40/bin/bin/../../lib/gcc/pic32c/6.2.1/../../../../pic32c/lib/v7e-m/fpv4-sp/hard\libpic32c.a(sbrk.o)
 .debug_abbrev  0x0001f553       0x27 c:/program files/microchip/xc32/v2.40/bin/bin/../../lib/gcc/pic32c/6.2.1/../../../../pic32c/lib/v7e-m/fpv4-sp/hard\libpic32c.a(_write.o)
 .debug_abbrev  0x0001f57a       0x2a c:/program files/microchip/xc32/v2.40/bin/bin/../../lib/gcc/pic32c/6.2.1/../../../../pic32c/lib/v7e-m/fpv4-sp/hard\libpic32c.a(close.o)
 .debug_abbrev  0x0001f5a4       0x2a c:/program files/microchip/xc32/v2.40/bin/bin/../../lib/gcc/pic32c/6.2.1/../../../../pic32c/lib/v7e-m/fpv4-sp/hard\libpic32c.a(fstat.o)
 .debug_abbrev  0x0001f5ce       0x2a c:/program files/microchip/xc32/v2.40/bin/bin/../../lib/gcc/pic32c/6.2.1/../../../../pic32c/lib/v7e-m/fpv4-sp/hard\libpic32c.a(isatty.o)
 .debug_abbrev  0x0001f5f8       0x2a c:/program files/microchip/xc32/v2.40/bin/bin/../../lib/gcc/pic32c/6.2.1/../../../../pic32c/lib/v7e-m/fpv4-sp/hard\libpic32c.a(lseek.o)
 .debug_abbrev  0x0001f622       0x2a c:/program files/microchip/xc32/v2.40/bin/bin/../../lib/gcc/pic32c/6.2.1/../../../../pic32c/lib/v7e-m/fpv4-sp/hard\libpic32c.a(read.o)
 .debug_abbrev  0x0001f64c       0x2a c:/program files/microchip/xc32/v2.40/bin/bin/../../lib/gcc/pic32c/6.2.1/../../../../pic32c/lib/v7e-m/fpv4-sp/hard\libpic32c.a(write.o)

.debug_loc      0x00000000    0x7f50d
 .debug_loc     0x00000000     0x1ced build/aws_demos/production/_ext/1319661984/drv_gmac.o
 .debug_loc     0x00001ced     0x1d92 build/aws_demos/production/_ext/1319661984/drv_gmac_lib_samE5x.o
 .debug_loc     0x00003a7f      0x42c build/aws_demos/production/_ext/665618993/plib_nvmctrl.o
 .debug_loc     0x00003eab      0x5b0 build/aws_demos/production/_ext/731420310/plib_sercom2_usart.o
 .debug_loc     0x0000445b     0x18cc build/aws_demos/production/_ext/1991396724/sys_command.o
 .debug_loc     0x00005d27      0x824 build/aws_demos/production/_ext/731420310/plib_sercom6_usart.o
 .debug_loc     0x0000654b      0x18b build/aws_demos/production/_ext/1360937237/main.o
 .debug_loc     0x000066d6       0x41 build/aws_demos/production/_ext/1534096987/initialization.o
 .debug_loc     0x00006717       0xc3 build/aws_demos/production/_ext/1263901141/xc32_monitor.o
 .debug_loc     0x000067da       0x63 build/aws_demos/production/_ext/1843425920/plib_port.o
 .debug_loc     0x0000683d      0x2e5 build/aws_demos/production/_ext/1843479071/plib_nvic.o
 .debug_loc     0x00006b22       0x34 build/aws_demos/production/_ext/1534096987/startup_xc32.o
 .debug_loc     0x00006b56      0x21f build/aws_demos/production/_ext/1385882503/port.o
 .debug_loc     0x00006d75      0x489 build/aws_demos/production/_ext/1168480030/heap_4.o
 .debug_loc     0x000071fe     0x544e build/aws_demos/production/_ext/112156576/iot_pkcs11_mbedtls.o
 .debug_loc     0x0000c64c     0x14d9 build/aws_demos/production/_ext/366737/iot_secure_sockets.o
 .debug_loc     0x0000db25      0x72d build/aws_demos/production/_ext/1682906662/FreeRTOS_ARP.o
 .debug_loc     0x0000e252      0x645 build/aws_demos/production/_ext/1682906662/FreeRTOS_DHCP.o
 .debug_loc     0x0000e897      0xf38 build/aws_demos/production/_ext/1682906662/FreeRTOS_DNS.o
 .debug_loc     0x0000f7cf     0x1859 build/aws_demos/production/_ext/1682906662/FreeRTOS_IP.o
 .debug_loc     0x00011028     0x33a3 build/aws_demos/production/_ext/1682906662/FreeRTOS_Sockets.o
 .debug_loc     0x000143cb      0x4a4 build/aws_demos/production/_ext/1682906662/FreeRTOS_Stream_Buffer.o
 .debug_loc     0x0001486f     0x2e6a build/aws_demos/production/_ext/1682906662/FreeRTOS_TCP_IP.o
 .debug_loc     0x000176d9      0x913 build/aws_demos/production/_ext/1682906662/FreeRTOS_TCP_WIN.o
 .debug_loc     0x00017fec      0x234 build/aws_demos/production/_ext/1682906662/FreeRTOS_UDP_IP.o
 .debug_loc     0x00018220      0x88b build/aws_demos/production/_ext/1778494626/BufferAllocation_2.o
 .debug_loc     0x00018aab      0x744 build/aws_demos/production/_ext/1778494626/NetworkInterface_eth.o
 .debug_loc     0x000191ef      0x6ae build/aws_demos/production/_ext/1972722184/iot_pkcs11_pal.o
 .debug_loc     0x0001989d      0x784 build/aws_demos/production/_ext/1972722184/pkcs11_nvm.o
 .debug_loc     0x0001a021      0x4dc build/aws_demos/production/_ext/197858987/helpers.o
 .debug_loc     0x0001a4fd      0x1fe build/aws_demos/production/_ext/197858987/tcpip_heap_alloc.o
 .debug_loc     0x0001a6fb      0x650 build/aws_demos/production/_ext/197858987/tcpip_heap_external.o
 .debug_loc     0x0001ad4b     0x2b83 build/aws_demos/production/_ext/197858987/tcpip_helpers.o
 .debug_loc     0x0001d8ce      0xa1e build/aws_demos/production/_ext/197858987/tcpip_packet.o
 .debug_loc     0x0001e2ec       0x9a build/aws_demos/production/_ext/59476128/plib_eic.o
 .debug_loc     0x0001e386     0x2128 build/aws_demos/production/_ext/211704168/drv_miim.o
 .debug_loc     0x000204ae       0x38 build/aws_demos/production/_ext/1110296786/plib_tc3.o
 .debug_loc     0x000204e6     0x2021 build/aws_demos/production/_ext/484134862/sys_time.o
 .debug_loc     0x00022507       0x2c build/aws_demos/production/_ext/1223942466/aws_demo.o
 .debug_loc     0x00022533       0x38 build/aws_demos/production/_ext/1223942466/aws_demo_network_addr.o
 .debug_loc     0x0002256b      0x676 build/aws_demos/production/_ext/1223942466/iot_demo_freertos.o
 .debug_loc     0x00022be1       0x20 build/aws_demos/production/_ext/1223942466/iot_demo_runner.o
 .debug_loc     0x00022c01     0x15b8 build/aws_demos/production/_ext/198771642/aws_dev_mode_key_provisioning.o
 .debug_loc     0x000241b9      0x9f5 build/aws_demos/production/_ext/1441508942/iot_demo_mqtt.o
 .debug_loc     0x00024bae      0x759 build/aws_demos/production/_ext/2040524622/aws_iot_network_manager.o
 .debug_loc     0x00025307      0xdd4 build/aws_demos/production/_ext/811507611/event_groups.o
 .debug_loc     0x000260db       0x91 build/aws_demos/production/_ext/811507611/list.o
 .debug_loc     0x0002616c     0x1bfb build/aws_demos/production/_ext/811507611/queue.o
 .debug_loc     0x00027d67     0x2921 build/aws_demos/production/_ext/811507611/tasks.o
 .debug_loc     0x0002a688     0x1243 build/aws_demos/production/_ext/811507611/timers.o
 .debug_loc     0x0002b8cb     0x1f29 build/aws_demos/production/_ext/684768522/aes.o
 .debug_loc     0x0002d7f4      0x9dc build/aws_demos/production/_ext/684768522/asn1parse.o
 .debug_loc     0x0002e1d0     0x1234 build/aws_demos/production/_ext/684768522/asn1write.o
 .debug_loc     0x0002f404      0x7f0 build/aws_demos/production/_ext/684768522/base64.o
 .debug_loc     0x0002fbf4     0x58a8 build/aws_demos/production/_ext/684768522/bignum.o
 .debug_loc     0x0003549c     0x1e63 build/aws_demos/production/_ext/684768522/cipher.o
 .debug_loc     0x000372ff      0x56f build/aws_demos/production/_ext/684768522/cipher_wrap.o
 .debug_loc     0x0003786e      0xf88 build/aws_demos/production/_ext/684768522/ctr_drbg.o
 .debug_loc     0x000387f6     0x138f build/aws_demos/production/_ext/684768522/ecdh.o
 .debug_loc     0x00039b85     0x1428 build/aws_demos/production/_ext/684768522/ecdsa.o
 .debug_loc     0x0003afad     0x4bd4 build/aws_demos/production/_ext/684768522/ecp.o
 .debug_loc     0x0003fb81     0x2857 build/aws_demos/production/_ext/684768522/ecp_curves.o
 .debug_loc     0x000423d8      0xf63 build/aws_demos/production/_ext/684768522/entropy.o
 .debug_loc     0x0004333b     0x1712 build/aws_demos/production/_ext/684768522/gcm.o
 .debug_loc     0x00044a4d      0xe40 build/aws_demos/production/_ext/684768522/md.o
 .debug_loc     0x0004588d      0x613 build/aws_demos/production/_ext/684768522/md_wrap.o
 .debug_loc     0x00045ea0     0x13c5 build/aws_demos/production/_ext/684768522/oid.o
 .debug_loc     0x00047265      0x3e7 build/aws_demos/production/_ext/684768522/pem.o
 .debug_loc     0x0004764c     0x11e3 build/aws_demos/production/_ext/684768522/pk.o
 .debug_loc     0x0004882f     0x1369 build/aws_demos/production/_ext/684768522/pkparse.o
 .debug_loc     0x00049b98      0xe8e build/aws_demos/production/_ext/684768522/pkwrite.o
 .debug_loc     0x0004aa26     0x1245 build/aws_demos/production/_ext/684768522/pk_wrap.o
 .debug_loc     0x0004bc6b       0xe6 build/aws_demos/production/_ext/684768522/platform.o
 .debug_loc     0x0004bd51       0x6d build/aws_demos/production/_ext/684768522/platform_util.o
 .debug_loc     0x0004bdbe     0x3c12 build/aws_demos/production/_ext/684768522/rsa.o
 .debug_loc     0x0004f9d0      0xc4f build/aws_demos/production/_ext/684768522/rsa_internal.o
 .debug_loc     0x0005061f     0x3fa6 build/aws_demos/production/_ext/684768522/sha1.o
 .debug_loc     0x000545c5     0x120d build/aws_demos/production/_ext/684768522/sha256.o
 .debug_loc     0x000557d2      0x366 build/aws_demos/production/_ext/684768522/ssl_ciphersuites.o
 .debug_loc     0x00055b38     0x2a3a build/aws_demos/production/_ext/684768522/ssl_cli.o
 .debug_loc     0x00058572     0x4d24 build/aws_demos/production/_ext/684768522/ssl_tls.o
 .debug_loc     0x0005d296       0x4d build/aws_demos/production/_ext/684768522/threading.o
 .debug_loc     0x0005d2e3     0x1442 build/aws_demos/production/_ext/684768522/x509.o
 .debug_loc     0x0005e725     0x43b4 build/aws_demos/production/_ext/684768522/x509_crt.o
 .debug_loc     0x00062ad9      0x445 build/aws_demos/production/_ext/2077790016/mbedtls_utils.o
 .debug_loc     0x00062f1e      0x4f4 build/aws_demos/production/_ext/520142351/iot_clock_freertos.o
 .debug_loc     0x00063412     0x1097 build/aws_demos/production/_ext/520142351/iot_network_freertos.o
 .debug_loc     0x000644a9      0xb35 build/aws_demos/production/_ext/520142351/iot_threads_freertos.o
 .debug_loc     0x00064fde      0x7b0 build/aws_demos/production/_ext/13066905/iot_device_metrics.o
 .debug_loc     0x0006578e       0xd2 build/aws_demos/production/_ext/13066905/iot_init.o
 .debug_loc     0x00065860      0x639 build/aws_demos/production/_ext/227692215/iot_logging.o
 .debug_loc     0x00065e99      0x30e build/aws_demos/production/_ext/227692215/iot_logging_task_dynamic_buffers.o
 .debug_loc     0x000661a7     0x3456 build/aws_demos/production/_ext/333408969/iot_taskpool.o
 .debug_loc     0x000695fd     0x2045 build/aws_demos/production/_ext/1739149067/iot_mqtt_api.o
 .debug_loc     0x0006b642      0x9b6 build/aws_demos/production/_ext/1739149067/iot_mqtt_network.o
 .debug_loc     0x0006bff8     0x16c8 build/aws_demos/production/_ext/1739149067/iot_mqtt_operation.o
 .debug_loc     0x0006d6c0     0x20bf build/aws_demos/production/_ext/1739149067/iot_mqtt_serialize.o
 .debug_loc     0x0006f77f     0x1064 build/aws_demos/production/_ext/1739149067/iot_mqtt_subscription.o
 .debug_loc     0x000707e3      0x7e8 build/aws_demos/production/_ext/1739149067/iot_mqtt_validate.o
 .debug_loc     0x00070fcb      0x9ec build/aws_demos/production/_ext/350635301/iot_crypto.o
 .debug_loc     0x000719b7      0x70f build/aws_demos/production/_ext/2138053595/iot_pkcs11.o
 .debug_loc     0x000720c6     0x1073 build/aws_demos/production/_ext/2039890517/iot_tls.o
 .debug_loc     0x00073139      0x217 build/aws_demos/production/_ext/1120274527/iot_pki_utils.o
 .debug_loc     0x00073350       0x3f build/aws_demos/production/_ext/1120274527/iot_system_init.o
 .debug_loc     0x0007338f     0x3542 build/aws_demos/production/_ext/1200684192/drv_ethphy.o
 .debug_loc     0x000768d1      0x1c9 build/aws_demos/production/_ext/1200684192/drv_extphy_ksz8091.o
 .debug_loc     0x00076a9a      0xb5f build/aws_demos/production/_ext/1534684544/sys_console.o
 .debug_loc     0x000775f9      0x77c build/aws_demos/production/_ext/1534684544/sys_console_uart.o
 .debug_loc     0x00077d75       0xe9 build/aws_demos/production/_ext/1762024984/sys_int.o
 .debug_loc     0x00077e5e      0x5b4 build/aws_demos/production/_ext/1149029443/osal_freertos.o
 .debug_loc     0x00078412       0xba build/aws_demos/production/_ext/1534096987/tasks.o
 .debug_loc     0x000784cc      0xc35 c:/program files/microchip/xc32/v2.40/bin/bin/../../lib/gcc/pic32c/6.2.1/v7e-m/fpv4-sp/hard\libgcc.a(_udivmoddi4.o)
 .debug_loc     0x00079101       0x58 c:/program files/microchip/xc32/v2.40/bin/bin/../../lib/gcc/pic32c/6.2.1/../../../../pic32c/lib/v7e-m/fpv4-sp/hard\libc_nano.a(lib_a-calloc.o)
 .debug_loc     0x00079159       0x74 c:/program files/microchip/xc32/v2.40/bin/bin/../../lib/gcc/pic32c/6.2.1/../../../../pic32c/lib/v7e-m/fpv4-sp/hard\libc_nano.a(lib_a-init.o)
 .debug_loc     0x000791cd      0x17b c:/program files/microchip/xc32/v2.40/bin/bin/../../lib/gcc/pic32c/6.2.1/../../../../pic32c/lib/v7e-m/fpv4-sp/hard\libc_nano.a(lib_a-locale.o)
 .debug_loc     0x00079348       0x58 c:/program files/microchip/xc32/v2.40/bin/bin/../../lib/gcc/pic32c/6.2.1/../../../../pic32c/lib/v7e-m/fpv4-sp/hard\libc_nano.a(lib_a-malloc.o)
 .debug_loc     0x000793a0      0x229 c:/program files/microchip/xc32/v2.40/bin/bin/../../lib/gcc/pic32c/6.2.1/../../../../pic32c/lib/v7e-m/fpv4-sp/hard\libc_nano.a(lib_a-mbtowc_r.o)
 .debug_loc     0x000795c9      0x14e c:/program files/microchip/xc32/v2.40/bin/bin/../../lib/gcc/pic32c/6.2.1/../../../../pic32c/lib/v7e-m/fpv4-sp/hard\libc_nano.a(lib_a-memcmp.o)
 .debug_loc     0x00079717       0xb2 c:/program files/microchip/xc32/v2.40/bin/bin/../../lib/gcc/pic32c/6.2.1/../../../../pic32c/lib/v7e-m/fpv4-sp/hard\libc_nano.a(lib_a-memcpy-stub.o)
 .debug_loc     0x000797c9      0x12a c:/program files/microchip/xc32/v2.40/bin/bin/../../lib/gcc/pic32c/6.2.1/../../../../pic32c/lib/v7e-m/fpv4-sp/hard\libc_nano.a(lib_a-memmove.o)
 .debug_loc     0x000798f3       0x4c c:/program files/microchip/xc32/v2.40/bin/bin/../../lib/gcc/pic32c/6.2.1/../../../../pic32c/lib/v7e-m/fpv4-sp/hard\libc_nano.a(lib_a-memset.o)
 .debug_loc     0x0007993f       0xa1 c:/program files/microchip/xc32/v2.40/bin/bin/../../lib/gcc/pic32c/6.2.1/../../../../pic32c/lib/v7e-m/fpv4-sp/hard\libc_nano.a(lib_a-nano-callocr.o)
 .debug_loc     0x000799e0      0x141 c:/program files/microchip/xc32/v2.40/bin/bin/../../lib/gcc/pic32c/6.2.1/../../../../pic32c/lib/v7e-m/fpv4-sp/hard\libc_nano.a(lib_a-nano-freer.o)
 .debug_loc     0x00079b21      0x326 c:/program files/microchip/xc32/v2.40/bin/bin/../../lib/gcc/pic32c/6.2.1/../../../../pic32c/lib/v7e-m/fpv4-sp/hard\libc_nano.a(lib_a-nano-mallocr.o)
 .debug_loc     0x00079e47      0x33d c:/program files/microchip/xc32/v2.40/bin/bin/../../lib/gcc/pic32c/6.2.1/../../../../pic32c/lib/v7e-m/fpv4-sp/hard\libc_nano.a(lib_a-nano-vfprintf.o)
 .debug_loc     0x0007a184      0x51d c:/program files/microchip/xc32/v2.40/bin/bin/../../lib/gcc/pic32c/6.2.1/../../../../pic32c/lib/v7e-m/fpv4-sp/hard\libc_nano.a(_lib_a-nano-vfprintf.s.o)
 .debug_loc     0x0007a6a1       0xdf c:/program files/microchip/xc32/v2.40/bin/bin/../../lib/gcc/pic32c/6.2.1/../../../../pic32c/lib/v7e-m/fpv4-sp/hard\libc_nano.a(lib_a-printf.o)
 .debug_loc     0x0007a780      0x11b c:/program files/microchip/xc32/v2.40/bin/bin/../../lib/gcc/pic32c/6.2.1/../../../../pic32c/lib/v7e-m/fpv4-sp/hard\libc_nano.a(lib_a-putchar.o)
 .debug_loc     0x0007a89b      0x267 c:/program files/microchip/xc32/v2.40/bin/bin/../../lib/gcc/pic32c/6.2.1/../../../../pic32c/lib/v7e-m/fpv4-sp/hard\libc_nano.a(lib_a-putc.o)
 .debug_loc     0x0007ab02      0x202 c:/program files/microchip/xc32/v2.40/bin/bin/../../lib/gcc/pic32c/6.2.1/../../../../pic32c/lib/v7e-m/fpv4-sp/hard\libc_nano.a(lib_a-puts.o)
 .debug_loc     0x0007ad04       0xb8 c:/program files/microchip/xc32/v2.40/bin/bin/../../lib/gcc/pic32c/6.2.1/../../../../pic32c/lib/v7e-m/fpv4-sp/hard\libc_nano.a(lib_a-rand.o)
 .debug_loc     0x0007adbc       0x6d c:/program files/microchip/xc32/v2.40/bin/bin/../../lib/gcc/pic32c/6.2.1/../../../../pic32c/lib/v7e-m/fpv4-sp/hard\libc_nano.a(lib_a-sbrkr.o)
 .debug_loc     0x0007ae29      0x244 c:/program files/microchip/xc32/v2.40/bin/bin/../../lib/gcc/pic32c/6.2.1/../../../../pic32c/lib/v7e-m/fpv4-sp/hard\libc_nano.a(lib_a-snprintf.o)
 .debug_loc     0x0007b06d      0x14f c:/program files/microchip/xc32/v2.40/bin/bin/../../lib/gcc/pic32c/6.2.1/../../../../pic32c/lib/v7e-m/fpv4-sp/hard\libc_nano.a(lib_a-sprintf.o)
 .debug_loc     0x0007b1bc       0x7e c:/program files/microchip/xc32/v2.40/bin/bin/../../lib/gcc/pic32c/6.2.1/../../../../pic32c/lib/v7e-m/fpv4-sp/hard\libc_nano.a(_lib_a-sscanf.cdnopsuxX.o)
 .debug_loc     0x0007b23a      0x1f2 c:/program files/microchip/xc32/v2.40/bin/bin/../../lib/gcc/pic32c/6.2.1/../../../../pic32c/lib/v7e-m/fpv4-sp/hard\libc_nano.a(lib_a-__ssfputs.o)
 .debug_loc     0x0007b42c      0x2ef c:/program files/microchip/xc32/v2.40/bin/bin/../../lib/gcc/pic32c/6.2.1/../../../../pic32c/lib/v7e-m/fpv4-sp/hard\libc_nano.a(lib_a-stdio.o)
 .debug_loc     0x0007b71b       0x21 c:/program files/microchip/xc32/v2.40/bin/bin/../../lib/gcc/pic32c/6.2.1/../../../../pic32c/lib/v7e-m/fpv4-sp/hard\libc_nano.a(lib_a-strcpy.o)
 .debug_loc     0x0007b73c      0x103 c:/program files/microchip/xc32/v2.40/bin/bin/../../lib/gcc/pic32c/6.2.1/../../../../pic32c/lib/v7e-m/fpv4-sp/hard\libc_nano.a(lib_a-strncmp.o)
 .debug_loc     0x0007b83f      0x116 c:/program files/microchip/xc32/v2.40/bin/bin/../../lib/gcc/pic32c/6.2.1/../../../../pic32c/lib/v7e-m/fpv4-sp/hard\libc_nano.a(lib_a-strncpy.o)
 .debug_loc     0x0007b955       0x6f c:/program files/microchip/xc32/v2.40/bin/bin/../../lib/gcc/pic32c/6.2.1/../../../../pic32c/lib/v7e-m/fpv4-sp/hard\libc_nano.a(lib_a-strstr.o)
 .debug_loc     0x0007b9c4      0x545 c:/program files/microchip/xc32/v2.40/bin/bin/../../lib/gcc/pic32c/6.2.1/../../../../pic32c/lib/v7e-m/fpv4-sp/hard\libc_nano.a(lib_a-strtol.o)
 .debug_loc     0x0007bf09      0x568 c:/program files/microchip/xc32/v2.40/bin/bin/../../lib/gcc/pic32c/6.2.1/../../../../pic32c/lib/v7e-m/fpv4-sp/hard\libc_nano.a(lib_a-strtoul.o)
 .debug_loc     0x0007c471      0x1f1 c:/program files/microchip/xc32/v2.40/bin/bin/../../lib/gcc/pic32c/6.2.1/../../../../pic32c/lib/v7e-m/fpv4-sp/hard\libc_nano.a(lib_a-vsnprintf.o)
 .debug_loc     0x0007c662      0x133 c:/program files/microchip/xc32/v2.40/bin/bin/../../lib/gcc/pic32c/6.2.1/../../../../pic32c/lib/v7e-m/fpv4-sp/hard\libc_nano.a(lib_a-wbuf.o)
 .debug_loc     0x0007c795      0x116 c:/program files/microchip/xc32/v2.40/bin/bin/../../lib/gcc/pic32c/6.2.1/../../../../pic32c/lib/v7e-m/fpv4-sp/hard\libc_nano.a(lib_a-wctomb_r.o)
 .debug_loc     0x0007c8ab       0xc5 c:/program files/microchip/xc32/v2.40/bin/bin/../../lib/gcc/pic32c/6.2.1/../../../../pic32c/lib/v7e-m/fpv4-sp/hard\libc_nano.a(lib_a-writer.o)
 .debug_loc     0x0007c970       0x7a c:/program files/microchip/xc32/v2.40/bin/bin/../../lib/gcc/pic32c/6.2.1/../../../../pic32c/lib/v7e-m/fpv4-sp/hard\libc_nano.a(lib_a-wsetup.o)
 .debug_loc     0x0007c9ea       0x6d c:/program files/microchip/xc32/v2.40/bin/bin/../../lib/gcc/pic32c/6.2.1/../../../../pic32c/lib/v7e-m/fpv4-sp/hard\libc_nano.a(lib_a-closer.o)
 .debug_loc     0x0007ca57      0x2f4 c:/program files/microchip/xc32/v2.40/bin/bin/../../lib/gcc/pic32c/6.2.1/../../../../pic32c/lib/v7e-m/fpv4-sp/hard\libc_nano.a(lib_a-fflush.o)
 .debug_loc     0x0007cd4b      0x228 c:/program files/microchip/xc32/v2.40/bin/bin/../../lib/gcc/pic32c/6.2.1/../../../../pic32c/lib/v7e-m/fpv4-sp/hard\libc_nano.a(lib_a-findfp.o)
 .debug_loc     0x0007cf73      0x298 c:/program files/microchip/xc32/v2.40/bin/bin/../../lib/gcc/pic32c/6.2.1/../../../../pic32c/lib/v7e-m/fpv4-sp/hard\libc_nano.a(lib_a-fputwc.o)
 .debug_loc     0x0007d20b      0x139 c:/program files/microchip/xc32/v2.40/bin/bin/../../lib/gcc/pic32c/6.2.1/../../../../pic32c/lib/v7e-m/fpv4-sp/hard\libc_nano.a(lib_a-fwalk.o)
 .debug_loc     0x0007d344       0xc5 c:/program files/microchip/xc32/v2.40/bin/bin/../../lib/gcc/pic32c/6.2.1/../../../../pic32c/lib/v7e-m/fpv4-sp/hard\libc_nano.a(lib_a-lseekr.o)
 .debug_loc     0x0007d409      0x254 c:/program files/microchip/xc32/v2.40/bin/bin/../../lib/gcc/pic32c/6.2.1/../../../../pic32c/lib/v7e-m/fpv4-sp/hard\libc_nano.a(lib_a-makebuf.o)
 .debug_loc     0x0007d65d      0x2d6 c:/program files/microchip/xc32/v2.40/bin/bin/../../lib/gcc/pic32c/6.2.1/../../../../pic32c/lib/v7e-m/fpv4-sp/hard\libc_nano.a(lib_a-nano-svfprintf.o)
 .debug_loc     0x0007d933      0x5d7 c:/program files/microchip/xc32/v2.40/bin/bin/../../lib/gcc/pic32c/6.2.1/../../../../pic32c/lib/v7e-m/fpv4-sp/hard\libc_nano.a(lib_a-nano-vfprintf_i.o)
 .debug_loc     0x0007df0a      0x97f c:/program files/microchip/xc32/v2.40/bin/bin/../../lib/gcc/pic32c/6.2.1/../../../../pic32c/lib/v7e-m/fpv4-sp/hard\libc_nano.a(_lib_a-nano-vfscanf.cdnopsuxX.o)
 .debug_loc     0x0007e889       0xc5 c:/program files/microchip/xc32/v2.40/bin/bin/../../lib/gcc/pic32c/6.2.1/../../../../pic32c/lib/v7e-m/fpv4-sp/hard\libc_nano.a(lib_a-readr.o)
 .debug_loc     0x0007e94e      0x15e c:/program files/microchip/xc32/v2.40/bin/bin/../../lib/gcc/pic32c/6.2.1/../../../../pic32c/lib/v7e-m/fpv4-sp/hard\libc_nano.a(lib_a-reent.o)
 .debug_loc     0x0007eaac       0xe3 c:/program files/microchip/xc32/v2.40/bin/bin/../../lib/gcc/pic32c/6.2.1/../../../../pic32c/lib/v7e-m/fpv4-sp/hard\libc_nano.a(lib_a-refill.o)
 .debug_loc     0x0007eb8f      0x174 c:/program files/microchip/xc32/v2.40/bin/bin/../../lib/gcc/pic32c/6.2.1/../../../../pic32c/lib/v7e-m/fpv4-sp/hard\libc_nano.a(lib_a-sccl.o)
 .debug_loc     0x0007ed03      0x183 c:/program files/microchip/xc32/v2.40/bin/bin/../../lib/gcc/pic32c/6.2.1/../../../../pic32c/lib/v7e-m/fpv4-sp/hard\libc_nano.a(lib_a-__ssputs.o)
 .debug_loc     0x0007ee86      0x1f1 c:/program files/microchip/xc32/v2.40/bin/bin/../../lib/gcc/pic32c/6.2.1/../../../../pic32c/lib/v7e-m/fpv4-sp/hard\libc_nano.a(lib_a-ungetc.o)
 .debug_loc     0x0007f077      0x1a8 c:/program files/microchip/xc32/v2.40/bin/bin/../../lib/gcc/pic32c/6.2.1/../../../../pic32c/lib/v7e-m/fpv4-sp/hard\libc_nano.a(lib_a-wcrtomb.o)
 .debug_loc     0x0007f21f       0x99 c:/program files/microchip/xc32/v2.40/bin/bin/../../lib/gcc/pic32c/6.2.1/../../../../pic32c/lib/v7e-m/fpv4-sp/hard\libc_nano.a(lib_a-fstatr.o)
 .debug_loc     0x0007f2b8       0x6d c:/program files/microchip/xc32/v2.40/bin/bin/../../lib/gcc/pic32c/6.2.1/../../../../pic32c/lib/v7e-m/fpv4-sp/hard\libc_nano.a(lib_a-isattyr.o)
 .debug_loc     0x0007f325      0x148 c:/program files/microchip/xc32/v2.40/bin/bin/../../lib/gcc/pic32c/6.2.1/../../../../pic32c/lib/v7e-m/fpv4-sp/hard\libc_nano.a(lib_a-nano-reallocr.o)
 .debug_loc     0x0007f46d       0x78 c:/program files/microchip/xc32/v2.40/bin/bin/../../lib/gcc/pic32c/6.2.1/../../../../pic32c/lib/v7e-m/fpv4-sp/hard\libc_nano.a(lib_a-nano-msizer.o)
 .debug_loc     0x0007f4e5       0x14 c:/program files/microchip/xc32/v2.40/bin/bin/../../lib/gcc/pic32c/6.2.1/../../../../pic32c/lib/v7e-m/fpv4-sp/hard\libpic32c.a(read.o)
 .debug_loc     0x0007f4f9       0x14 c:/program files/microchip/xc32/v2.40/bin/bin/../../lib/gcc/pic32c/6.2.1/../../../../pic32c/lib/v7e-m/fpv4-sp/hard\libpic32c.a(write.o)

.debug_aranges  0x00000000     0x1a00
 .debug_aranges
                0x00000000       0x20 build/aws_demos/production/_ext/1319661984/drv_gmac.o
 .debug_aranges
                0x00000020       0x20 build/aws_demos/production/_ext/1319661984/drv_gmac_lib_samE5x.o
 .debug_aranges
                0x00000040       0x20 build/aws_demos/production/_ext/665618993/plib_nvmctrl.o
 .debug_aranges
                0x00000060       0x20 build/aws_demos/production/_ext/731420310/plib_sercom2_usart.o
 .debug_aranges
                0x00000080       0x20 build/aws_demos/production/_ext/1321577635/plib_evsys.o
 .debug_aranges
                0x000000a0       0x20 build/aws_demos/production/_ext/1991396724/sys_command.o
 .debug_aranges
                0x000000c0       0x20 build/aws_demos/production/_ext/731420310/plib_sercom6_usart.o
 .debug_aranges
                0x000000e0       0x20 build/aws_demos/production/_ext/1360937237/main.o
 .debug_aranges
                0x00000100       0x20 build/aws_demos/production/_ext/1534096987/initialization.o
 .debug_aranges
                0x00000120       0x20 build/aws_demos/production/_ext/1534096987/interrupts.o
 .debug_aranges
                0x00000140       0x20 build/aws_demos/production/_ext/1534096987/exceptions.o
 .debug_aranges
                0x00000160       0x20 build/aws_demos/production/_ext/1263901141/xc32_monitor.o
 .debug_aranges
                0x00000180       0x20 build/aws_demos/production/_ext/1843425920/plib_port.o
 .debug_aranges
                0x000001a0       0x20 build/aws_demos/production/_ext/1323727121/plib_clock.o
 .debug_aranges
                0x000001c0       0x20 build/aws_demos/production/_ext/1843479071/plib_nvic.o
 .debug_aranges
                0x000001e0       0x20 build/aws_demos/production/_ext/1534096987/startup_xc32.o
 .debug_aranges
                0x00000200       0x20 build/aws_demos/production/_ext/1385882503/port.o
 .debug_aranges
                0x00000220       0x20 build/aws_demos/production/_ext/1168480030/heap_4.o
 .debug_aranges
                0x00000240       0x20 build/aws_demos/production/_ext/112156576/iot_pkcs11_mbedtls.o
 .debug_aranges
                0x00000260       0x20 build/aws_demos/production/_ext/366737/iot_secure_sockets.o
 .debug_aranges
                0x00000280       0x20 build/aws_demos/production/_ext/1682906662/FreeRTOS_ARP.o
 .debug_aranges
                0x000002a0       0x20 build/aws_demos/production/_ext/1682906662/FreeRTOS_DHCP.o
 .debug_aranges
                0x000002c0       0x20 build/aws_demos/production/_ext/1682906662/FreeRTOS_DNS.o
 .debug_aranges
                0x000002e0       0x20 build/aws_demos/production/_ext/1682906662/FreeRTOS_IP.o
 .debug_aranges
                0x00000300       0x20 build/aws_demos/production/_ext/1682906662/FreeRTOS_Sockets.o
 .debug_aranges
                0x00000320       0x20 build/aws_demos/production/_ext/1682906662/FreeRTOS_Stream_Buffer.o
 .debug_aranges
                0x00000340       0x20 build/aws_demos/production/_ext/1682906662/FreeRTOS_TCP_IP.o
 .debug_aranges
                0x00000360       0x20 build/aws_demos/production/_ext/1682906662/FreeRTOS_TCP_WIN.o
 .debug_aranges
                0x00000380       0x20 build/aws_demos/production/_ext/1682906662/FreeRTOS_UDP_IP.o
 .debug_aranges
                0x000003a0       0x20 build/aws_demos/production/_ext/1778494626/BufferAllocation_2.o
 .debug_aranges
                0x000003c0       0x20 build/aws_demos/production/_ext/1778494626/NetworkInterface_eth.o
 .debug_aranges
                0x000003e0       0x20 build/aws_demos/production/_ext/1972722184/iot_pkcs11_pal.o
 .debug_aranges
                0x00000400       0x20 build/aws_demos/production/_ext/1972722184/pkcs11_nvm.o
 .debug_aranges
                0x00000420       0x20 build/aws_demos/production/_ext/197858987/helpers.o
 .debug_aranges
                0x00000440       0x20 build/aws_demos/production/_ext/197858987/tcpip_heap_alloc.o
 .debug_aranges
                0x00000460       0x20 build/aws_demos/production/_ext/197858987/tcpip_heap_external.o
 .debug_aranges
                0x00000480       0x20 build/aws_demos/production/_ext/197858987/tcpip_helpers.o
 .debug_aranges
                0x000004a0       0x20 build/aws_demos/production/_ext/197858987/tcpip_packet.o
 .debug_aranges
                0x000004c0       0x20 build/aws_demos/production/_ext/59476128/plib_eic.o
 .debug_aranges
                0x000004e0       0x20 build/aws_demos/production/_ext/211704168/drv_miim.o
 .debug_aranges
                0x00000500       0x20 build/aws_demos/production/_ext/1110296786/plib_tc3.o
 .debug_aranges
                0x00000520       0x20 build/aws_demos/production/_ext/484134862/sys_time.o
 .debug_aranges
                0x00000540       0x20 build/aws_demos/production/_ext/1223942466/aws_demo.o
 .debug_aranges
                0x00000560       0x20 build/aws_demos/production/_ext/1223942466/aws_demo_network_addr.o
 .debug_aranges
                0x00000580       0x20 build/aws_demos/production/_ext/1223942466/iot_demo_freertos.o
 .debug_aranges
                0x000005a0       0x20 build/aws_demos/production/_ext/1223942466/iot_demo_runner.o
 .debug_aranges
                0x000005c0       0x20 build/aws_demos/production/_ext/198771642/aws_dev_mode_key_provisioning.o
 .debug_aranges
                0x000005e0       0x20 build/aws_demos/production/_ext/1441508942/iot_demo_mqtt.o
 .debug_aranges
                0x00000600       0x20 build/aws_demos/production/_ext/2040524622/aws_iot_network_manager.o
 .debug_aranges
                0x00000620       0x20 build/aws_demos/production/_ext/811507611/event_groups.o
 .debug_aranges
                0x00000640       0x20 build/aws_demos/production/_ext/811507611/list.o
 .debug_aranges
                0x00000660       0x20 build/aws_demos/production/_ext/811507611/queue.o
 .debug_aranges
                0x00000680       0x20 build/aws_demos/production/_ext/811507611/tasks.o
 .debug_aranges
                0x000006a0       0x20 build/aws_demos/production/_ext/811507611/timers.o
 .debug_aranges
                0x000006c0       0x20 build/aws_demos/production/_ext/684768522/aes.o
 .debug_aranges
                0x000006e0       0x20 build/aws_demos/production/_ext/684768522/asn1parse.o
 .debug_aranges
                0x00000700       0x20 build/aws_demos/production/_ext/684768522/asn1write.o
 .debug_aranges
                0x00000720       0x20 build/aws_demos/production/_ext/684768522/base64.o
 .debug_aranges
                0x00000740       0x20 build/aws_demos/production/_ext/684768522/bignum.o
 .debug_aranges
                0x00000760       0x20 build/aws_demos/production/_ext/684768522/cipher.o
 .debug_aranges
                0x00000780       0x20 build/aws_demos/production/_ext/684768522/cipher_wrap.o
 .debug_aranges
                0x000007a0       0x20 build/aws_demos/production/_ext/684768522/ctr_drbg.o
 .debug_aranges
                0x000007c0       0x20 build/aws_demos/production/_ext/684768522/ecdh.o
 .debug_aranges
                0x000007e0       0x20 build/aws_demos/production/_ext/684768522/ecdsa.o
 .debug_aranges
                0x00000800       0x20 build/aws_demos/production/_ext/684768522/ecp.o
 .debug_aranges
                0x00000820       0x20 build/aws_demos/production/_ext/684768522/ecp_curves.o
 .debug_aranges
                0x00000840       0x20 build/aws_demos/production/_ext/684768522/entropy.o
 .debug_aranges
                0x00000860       0x20 build/aws_demos/production/_ext/684768522/gcm.o
 .debug_aranges
                0x00000880       0x20 build/aws_demos/production/_ext/684768522/md.o
 .debug_aranges
                0x000008a0       0x20 build/aws_demos/production/_ext/684768522/md_wrap.o
 .debug_aranges
                0x000008c0       0x20 build/aws_demos/production/_ext/684768522/oid.o
 .debug_aranges
                0x000008e0       0x20 build/aws_demos/production/_ext/684768522/pem.o
 .debug_aranges
                0x00000900       0x20 build/aws_demos/production/_ext/684768522/pk.o
 .debug_aranges
                0x00000920       0x20 build/aws_demos/production/_ext/684768522/pkparse.o
 .debug_aranges
                0x00000940       0x20 build/aws_demos/production/_ext/684768522/pkwrite.o
 .debug_aranges
                0x00000960       0x20 build/aws_demos/production/_ext/684768522/pk_wrap.o
 .debug_aranges
                0x00000980       0x20 build/aws_demos/production/_ext/684768522/platform.o
 .debug_aranges
                0x000009a0       0x20 build/aws_demos/production/_ext/684768522/platform_util.o
 .debug_aranges
                0x000009c0       0x20 build/aws_demos/production/_ext/684768522/rsa.o
 .debug_aranges
                0x000009e0       0x20 build/aws_demos/production/_ext/684768522/rsa_internal.o
 .debug_aranges
                0x00000a00       0x20 build/aws_demos/production/_ext/684768522/sha1.o
 .debug_aranges
                0x00000a20       0x20 build/aws_demos/production/_ext/684768522/sha256.o
 .debug_aranges
                0x00000a40       0x20 build/aws_demos/production/_ext/684768522/ssl_ciphersuites.o
 .debug_aranges
                0x00000a60       0x20 build/aws_demos/production/_ext/684768522/ssl_cli.o
 .debug_aranges
                0x00000a80       0x20 build/aws_demos/production/_ext/684768522/ssl_tls.o
 .debug_aranges
                0x00000aa0       0x20 build/aws_demos/production/_ext/684768522/threading.o
 .debug_aranges
                0x00000ac0       0x20 build/aws_demos/production/_ext/684768522/x509.o
 .debug_aranges
                0x00000ae0       0x20 build/aws_demos/production/_ext/684768522/x509_crt.o
 .debug_aranges
                0x00000b00       0x20 build/aws_demos/production/_ext/2077790016/mbedtls_utils.o
 .debug_aranges
                0x00000b20       0x20 build/aws_demos/production/_ext/520142351/iot_clock_freertos.o
 .debug_aranges
                0x00000b40       0x20 build/aws_demos/production/_ext/520142351/iot_network_freertos.o
 .debug_aranges
                0x00000b60       0x20 build/aws_demos/production/_ext/520142351/iot_threads_freertos.o
 .debug_aranges
                0x00000b80       0x20 build/aws_demos/production/_ext/13066905/iot_device_metrics.o
 .debug_aranges
                0x00000ba0       0x20 build/aws_demos/production/_ext/13066905/iot_init.o
 .debug_aranges
                0x00000bc0       0x20 build/aws_demos/production/_ext/227692215/iot_logging.o
 .debug_aranges
                0x00000be0       0x20 build/aws_demos/production/_ext/227692215/iot_logging_task_dynamic_buffers.o
 .debug_aranges
                0x00000c00       0x20 build/aws_demos/production/_ext/333408969/iot_taskpool.o
 .debug_aranges
                0x00000c20       0x20 build/aws_demos/production/_ext/1739149067/iot_mqtt_api.o
 .debug_aranges
                0x00000c40       0x20 build/aws_demos/production/_ext/1739149067/iot_mqtt_network.o
 .debug_aranges
                0x00000c60       0x20 build/aws_demos/production/_ext/1739149067/iot_mqtt_operation.o
 .debug_aranges
                0x00000c80       0x20 build/aws_demos/production/_ext/1739149067/iot_mqtt_serialize.o
 .debug_aranges
                0x00000ca0       0x20 build/aws_demos/production/_ext/1739149067/iot_mqtt_subscription.o
 .debug_aranges
                0x00000cc0       0x20 build/aws_demos/production/_ext/1739149067/iot_mqtt_validate.o
 .debug_aranges
                0x00000ce0       0x20 build/aws_demos/production/_ext/350635301/iot_crypto.o
 .debug_aranges
                0x00000d00       0x20 build/aws_demos/production/_ext/2138053595/iot_pkcs11.o
 .debug_aranges
                0x00000d20       0x20 build/aws_demos/production/_ext/2039890517/iot_tls.o
 .debug_aranges
                0x00000d40       0x20 build/aws_demos/production/_ext/1120274527/iot_pki_utils.o
 .debug_aranges
                0x00000d60       0x20 build/aws_demos/production/_ext/1120274527/iot_system_init.o
 .debug_aranges
                0x00000d80       0x20 build/aws_demos/production/_ext/1200684192/drv_ethphy.o
 .debug_aranges
                0x00000da0       0x20 build/aws_demos/production/_ext/1200684192/drv_extphy_ksz8091.o
 .debug_aranges
                0x00000dc0       0x20 build/aws_demos/production/_ext/1843304010/plib_trng.o
 .debug_aranges
                0x00000de0       0x20 build/aws_demos/production/_ext/1534684544/sys_console.o
 .debug_aranges
                0x00000e00       0x20 build/aws_demos/production/_ext/1534684544/sys_console_uart.o
 .debug_aranges
                0x00000e20       0x20 build/aws_demos/production/_ext/1762024984/sys_int.o
 .debug_aranges
                0x00000e40       0x20 build/aws_demos/production/_ext/1149029443/osal_freertos.o
 .debug_aranges
                0x00000e60       0x20 build/aws_demos/production/_ext/1534096987/tasks.o
 .debug_aranges
                0x00000e80       0x20 c:/program files/microchip/xc32/v2.40/bin/bin/../../lib/gcc/pic32c/6.2.1/../../../../pic32c/lib/v7e-m/fpv4-sp/hard\libpic32c.a(data_init.o)
 .debug_aranges
                0x00000ea0       0x20 c:/program files/microchip/xc32/v2.40/bin/bin/../../lib/gcc/pic32c/6.2.1/v7e-m/fpv4-sp/hard\libgcc.a(_aeabi_uldivmod.o)
 .debug_aranges
                0x00000ec0       0x20 c:/program files/microchip/xc32/v2.40/bin/bin/../../lib/gcc/pic32c/6.2.1/v7e-m/fpv4-sp/hard\libgcc.a(_udivmoddi4.o)
 .debug_aranges
                0x00000ee0       0x20 c:/program files/microchip/xc32/v2.40/bin/bin/../../lib/gcc/pic32c/6.2.1/v7e-m/fpv4-sp/hard\libgcc.a(_dvmd_tls.o)
 .debug_aranges
                0x00000f00       0x20 c:/program files/microchip/xc32/v2.40/bin/bin/../../lib/gcc/pic32c/6.2.1/../../../../pic32c/lib/v7e-m/fpv4-sp/hard\libc_nano.a(lib_a-calloc.o)
 .debug_aranges
                0x00000f20       0x18 c:/program files/microchip/xc32/v2.40/bin/bin/../../lib/gcc/pic32c/6.2.1/../../../../pic32c/lib/v7e-m/fpv4-sp/hard\libc_nano.a(lib_a-impure.o)
 .debug_aranges
                0x00000f38       0x20 c:/program files/microchip/xc32/v2.40/bin/bin/../../lib/gcc/pic32c/6.2.1/../../../../pic32c/lib/v7e-m/fpv4-sp/hard\libc_nano.a(lib_a-init.o)
 .debug_aranges
                0x00000f58       0x40 c:/program files/microchip/xc32/v2.40/bin/bin/../../lib/gcc/pic32c/6.2.1/../../../../pic32c/lib/v7e-m/fpv4-sp/hard\libc_nano.a(lib_a-locale.o)
 .debug_aranges
                0x00000f98       0x28 c:/program files/microchip/xc32/v2.40/bin/bin/../../lib/gcc/pic32c/6.2.1/../../../../pic32c/lib/v7e-m/fpv4-sp/hard\libc_nano.a(lib_a-malloc.o)
 .debug_aranges
                0x00000fc0       0x28 c:/program files/microchip/xc32/v2.40/bin/bin/../../lib/gcc/pic32c/6.2.1/../../../../pic32c/lib/v7e-m/fpv4-sp/hard\libc_nano.a(lib_a-mbtowc_r.o)
 .debug_aranges
                0x00000fe8       0x20 c:/program files/microchip/xc32/v2.40/bin/bin/../../lib/gcc/pic32c/6.2.1/../../../../pic32c/lib/v7e-m/fpv4-sp/hard\libc_nano.a(lib_a-memcmp.o)
 .debug_aranges
                0x00001008       0x20 c:/program files/microchip/xc32/v2.40/bin/bin/../../lib/gcc/pic32c/6.2.1/../../../../pic32c/lib/v7e-m/fpv4-sp/hard\libc_nano.a(lib_a-memcpy-stub.o)
 .debug_aranges
                0x00001028       0x20 c:/program files/microchip/xc32/v2.40/bin/bin/../../lib/gcc/pic32c/6.2.1/../../../../pic32c/lib/v7e-m/fpv4-sp/hard\libc_nano.a(lib_a-memmove.o)
 .debug_aranges
                0x00001048       0x20 c:/program files/microchip/xc32/v2.40/bin/bin/../../lib/gcc/pic32c/6.2.1/../../../../pic32c/lib/v7e-m/fpv4-sp/hard\libc_nano.a(lib_a-memset.o)
 .debug_aranges
                0x00001068       0x20 c:/program files/microchip/xc32/v2.40/bin/bin/../../lib/gcc/pic32c/6.2.1/../../../../pic32c/lib/v7e-m/fpv4-sp/hard\libc_nano.a(lib_a-nano-callocr.o)
 .debug_aranges
                0x00001088       0x20 c:/program files/microchip/xc32/v2.40/bin/bin/../../lib/gcc/pic32c/6.2.1/../../../../pic32c/lib/v7e-m/fpv4-sp/hard\libc_nano.a(lib_a-nano-freer.o)
 .debug_aranges
                0x000010a8       0x20 c:/program files/microchip/xc32/v2.40/bin/bin/../../lib/gcc/pic32c/6.2.1/../../../../pic32c/lib/v7e-m/fpv4-sp/hard\libc_nano.a(lib_a-nano-mallocr.o)
 .debug_aranges
                0x000010c8       0x28 c:/program files/microchip/xc32/v2.40/bin/bin/../../lib/gcc/pic32c/6.2.1/../../../../pic32c/lib/v7e-m/fpv4-sp/hard\libc_nano.a(lib_a-nano-vfprintf.o)
 .debug_aranges
                0x000010f0       0x30 c:/program files/microchip/xc32/v2.40/bin/bin/../../lib/gcc/pic32c/6.2.1/../../../../pic32c/lib/v7e-m/fpv4-sp/hard\libc_nano.a(_lib_a-nano-vfprintf.s.o)
 .debug_aranges
                0x00001120       0x28 c:/program files/microchip/xc32/v2.40/bin/bin/../../lib/gcc/pic32c/6.2.1/../../../../pic32c/lib/v7e-m/fpv4-sp/hard\libc_nano.a(lib_a-printf.o)
 .debug_aranges
                0x00001148       0x28 c:/program files/microchip/xc32/v2.40/bin/bin/../../lib/gcc/pic32c/6.2.1/../../../../pic32c/lib/v7e-m/fpv4-sp/hard\libc_nano.a(lib_a-putchar.o)
 .debug_aranges
                0x00001170       0x28 c:/program files/microchip/xc32/v2.40/bin/bin/../../lib/gcc/pic32c/6.2.1/../../../../pic32c/lib/v7e-m/fpv4-sp/hard\libc_nano.a(lib_a-putc.o)
 .debug_aranges
                0x00001198       0x28 c:/program files/microchip/xc32/v2.40/bin/bin/../../lib/gcc/pic32c/6.2.1/../../../../pic32c/lib/v7e-m/fpv4-sp/hard\libc_nano.a(lib_a-puts.o)
 .debug_aranges
                0x000011c0       0x28 c:/program files/microchip/xc32/v2.40/bin/bin/../../lib/gcc/pic32c/6.2.1/../../../../pic32c/lib/v7e-m/fpv4-sp/hard\libc_nano.a(lib_a-rand.o)
 .debug_aranges
                0x000011e8       0x20 c:/program files/microchip/xc32/v2.40/bin/bin/../../lib/gcc/pic32c/6.2.1/../../../../pic32c/lib/v7e-m/fpv4-sp/hard\libc_nano.a(lib_a-sbrkr.o)
 .debug_aranges
                0x00001208       0x28 c:/program files/microchip/xc32/v2.40/bin/bin/../../lib/gcc/pic32c/6.2.1/../../../../pic32c/lib/v7e-m/fpv4-sp/hard\libc_nano.a(lib_a-snprintf.o)
 .debug_aranges
                0x00001230       0x28 c:/program files/microchip/xc32/v2.40/bin/bin/../../lib/gcc/pic32c/6.2.1/../../../../pic32c/lib/v7e-m/fpv4-sp/hard\libc_nano.a(lib_a-sprintf.o)
 .debug_aranges
                0x00001258       0x20 c:/program files/microchip/xc32/v2.40/bin/bin/../../lib/gcc/pic32c/6.2.1/../../../../pic32c/lib/v7e-m/fpv4-sp/hard\libc_nano.a(_lib_a-sscanf.cdnopsuxX.o)
 .debug_aranges
                0x00001278       0x28 c:/program files/microchip/xc32/v2.40/bin/bin/../../lib/gcc/pic32c/6.2.1/../../../../pic32c/lib/v7e-m/fpv4-sp/hard\libc_nano.a(lib_a-__ssfputs.o)
 .debug_aranges
                0x000012a0       0x40 c:/program files/microchip/xc32/v2.40/bin/bin/../../lib/gcc/pic32c/6.2.1/../../../../pic32c/lib/v7e-m/fpv4-sp/hard\libc_nano.a(lib_a-stdio.o)
 .debug_aranges
                0x000012e0       0x20 c:/program files/microchip/xc32/v2.40/bin/bin/../../lib/gcc/pic32c/6.2.1/../../../../pic32c/lib/v7e-m/fpv4-sp/hard\libc_nano.a(lib_a-strcmp.o)
 .debug_aranges
                0x00001300       0x20 c:/program files/microchip/xc32/v2.40/bin/bin/../../lib/gcc/pic32c/6.2.1/../../../../pic32c/lib/v7e-m/fpv4-sp/hard\libc_nano.a(lib_a-strcpy.o)
 .debug_aranges
                0x00001320       0x20 c:/program files/microchip/xc32/v2.40/bin/bin/../../lib/gcc/pic32c/6.2.1/../../../../pic32c/lib/v7e-m/fpv4-sp/hard\libc_nano.a(lib_a-strlen.o)
 .debug_aranges
                0x00001340       0x20 c:/program files/microchip/xc32/v2.40/bin/bin/../../lib/gcc/pic32c/6.2.1/../../../../pic32c/lib/v7e-m/fpv4-sp/hard\libc_nano.a(lib_a-strncmp.o)
 .debug_aranges
                0x00001360       0x20 c:/program files/microchip/xc32/v2.40/bin/bin/../../lib/gcc/pic32c/6.2.1/../../../../pic32c/lib/v7e-m/fpv4-sp/hard\libc_nano.a(lib_a-strncpy.o)
 .debug_aranges
                0x00001380       0x20 c:/program files/microchip/xc32/v2.40/bin/bin/../../lib/gcc/pic32c/6.2.1/../../../../pic32c/lib/v7e-m/fpv4-sp/hard\libc_nano.a(lib_a-strstr.o)
 .debug_aranges
                0x000013a0       0x38 c:/program files/microchip/xc32/v2.40/bin/bin/../../lib/gcc/pic32c/6.2.1/../../../../pic32c/lib/v7e-m/fpv4-sp/hard\libc_nano.a(lib_a-strtol.o)
 .debug_aranges
                0x000013d8       0x38 c:/program files/microchip/xc32/v2.40/bin/bin/../../lib/gcc/pic32c/6.2.1/../../../../pic32c/lib/v7e-m/fpv4-sp/hard\libc_nano.a(lib_a-strtoul.o)
 .debug_aranges
                0x00001410       0x28 c:/program files/microchip/xc32/v2.40/bin/bin/../../lib/gcc/pic32c/6.2.1/../../../../pic32c/lib/v7e-m/fpv4-sp/hard\libc_nano.a(lib_a-vsnprintf.o)
 .debug_aranges
                0x00001438       0x28 c:/program files/microchip/xc32/v2.40/bin/bin/../../lib/gcc/pic32c/6.2.1/../../../../pic32c/lib/v7e-m/fpv4-sp/hard\libc_nano.a(lib_a-wbuf.o)
 .debug_aranges
                0x00001460       0x28 c:/program files/microchip/xc32/v2.40/bin/bin/../../lib/gcc/pic32c/6.2.1/../../../../pic32c/lib/v7e-m/fpv4-sp/hard\libc_nano.a(lib_a-wctomb_r.o)
 .debug_aranges
                0x00001488       0x20 c:/program files/microchip/xc32/v2.40/bin/bin/../../lib/gcc/pic32c/6.2.1/../../../../pic32c/lib/v7e-m/fpv4-sp/hard\libc_nano.a(lib_a-writer.o)
 .debug_aranges
                0x000014a8       0x20 c:/program files/microchip/xc32/v2.40/bin/bin/../../lib/gcc/pic32c/6.2.1/../../../../pic32c/lib/v7e-m/fpv4-sp/hard\libc_nano.a(lib_a-wsetup.o)
 .debug_aranges
                0x000014c8       0x20 c:/program files/microchip/xc32/v2.40/bin/bin/../../lib/gcc/pic32c/6.2.1/../../../../pic32c/lib/v7e-m/fpv4-sp/hard\libc_nano.a(lib_a-closer.o)
 .debug_aranges
                0x000014e8       0x18 c:/program files/microchip/xc32/v2.40/bin/bin/../../lib/gcc/pic32c/6.2.1/../../../../pic32c/lib/v7e-m/fpv4-sp/hard\libc_nano.a(lib_a-ctype_.o)
 .debug_aranges
                0x00001500       0x30 c:/program files/microchip/xc32/v2.40/bin/bin/../../lib/gcc/pic32c/6.2.1/../../../../pic32c/lib/v7e-m/fpv4-sp/hard\libc_nano.a(lib_a-fflush.o)
 .debug_aranges
                0x00001530       0x48 c:/program files/microchip/xc32/v2.40/bin/bin/../../lib/gcc/pic32c/6.2.1/../../../../pic32c/lib/v7e-m/fpv4-sp/hard\libc_nano.a(lib_a-findfp.o)
 .debug_aranges
                0x00001578       0x30 c:/program files/microchip/xc32/v2.40/bin/bin/../../lib/gcc/pic32c/6.2.1/../../../../pic32c/lib/v7e-m/fpv4-sp/hard\libc_nano.a(lib_a-fputwc.o)
 .debug_aranges
                0x000015a8       0x28 c:/program files/microchip/xc32/v2.40/bin/bin/../../lib/gcc/pic32c/6.2.1/../../../../pic32c/lib/v7e-m/fpv4-sp/hard\libc_nano.a(lib_a-fwalk.o)
 .debug_aranges
                0x000015d0       0x20 c:/program files/microchip/xc32/v2.40/bin/bin/../../lib/gcc/pic32c/6.2.1/../../../../pic32c/lib/v7e-m/fpv4-sp/hard\libc_nano.a(lib_a-lseekr.o)
 .debug_aranges
                0x000015f0       0x28 c:/program files/microchip/xc32/v2.40/bin/bin/../../lib/gcc/pic32c/6.2.1/../../../../pic32c/lib/v7e-m/fpv4-sp/hard\libc_nano.a(lib_a-makebuf.o)
 .debug_aranges
                0x00001618       0x20 c:/program files/microchip/xc32/v2.40/bin/bin/../../lib/gcc/pic32c/6.2.1/../../../../pic32c/lib/v7e-m/fpv4-sp/hard\libc_nano.a(lib_a-memchr.o)
 .debug_aranges
                0x00001638       0x20 c:/program files/microchip/xc32/v2.40/bin/bin/../../lib/gcc/pic32c/6.2.1/../../../../pic32c/lib/v7e-m/fpv4-sp/hard\libc_nano.a(lib_a-mlock.o)
 .debug_aranges
                0x00001658       0x20 c:/program files/microchip/xc32/v2.40/bin/bin/../../lib/gcc/pic32c/6.2.1/../../../../pic32c/lib/v7e-m/fpv4-sp/hard\libc_nano.a(lib_a-nano-svfprintf.o)
 .debug_aranges
                0x00001678       0x28 c:/program files/microchip/xc32/v2.40/bin/bin/../../lib/gcc/pic32c/6.2.1/../../../../pic32c/lib/v7e-m/fpv4-sp/hard\libc_nano.a(lib_a-nano-vfprintf_i.o)
 .debug_aranges
                0x000016a0       0x38 c:/program files/microchip/xc32/v2.40/bin/bin/../../lib/gcc/pic32c/6.2.1/../../../../pic32c/lib/v7e-m/fpv4-sp/hard\libc_nano.a(_lib_a-nano-vfscanf.cdnopsuxX.o)
 .debug_aranges
                0x000016d8       0x20 c:/program files/microchip/xc32/v2.40/bin/bin/../../lib/gcc/pic32c/6.2.1/../../../../pic32c/lib/v7e-m/fpv4-sp/hard\libc_nano.a(lib_a-readr.o)
 .debug_aranges
                0x000016f8       0x28 c:/program files/microchip/xc32/v2.40/bin/bin/../../lib/gcc/pic32c/6.2.1/../../../../pic32c/lib/v7e-m/fpv4-sp/hard\libc_nano.a(lib_a-reent.o)
 .debug_aranges
                0x00001720       0x28 c:/program files/microchip/xc32/v2.40/bin/bin/../../lib/gcc/pic32c/6.2.1/../../../../pic32c/lib/v7e-m/fpv4-sp/hard\libc_nano.a(lib_a-refill.o)
 .debug_aranges
                0x00001748       0x20 c:/program files/microchip/xc32/v2.40/bin/bin/../../lib/gcc/pic32c/6.2.1/../../../../pic32c/lib/v7e-m/fpv4-sp/hard\libc_nano.a(lib_a-sccl.o)
 .debug_aranges
                0x00001768       0x20 c:/program files/microchip/xc32/v2.40/bin/bin/../../lib/gcc/pic32c/6.2.1/../../../../pic32c/lib/v7e-m/fpv4-sp/hard\libc_nano.a(lib_a-__ssputs.o)
 .debug_aranges
                0x00001788       0x30 c:/program files/microchip/xc32/v2.40/bin/bin/../../lib/gcc/pic32c/6.2.1/../../../../pic32c/lib/v7e-m/fpv4-sp/hard\libc_nano.a(lib_a-ungetc.o)
 .debug_aranges
                0x000017b8       0x28 c:/program files/microchip/xc32/v2.40/bin/bin/../../lib/gcc/pic32c/6.2.1/../../../../pic32c/lib/v7e-m/fpv4-sp/hard\libc_nano.a(lib_a-wcrtomb.o)
 .debug_aranges
                0x000017e0       0x20 c:/program files/microchip/xc32/v2.40/bin/bin/../../lib/gcc/pic32c/6.2.1/../../../../pic32c/lib/v7e-m/fpv4-sp/hard\libc_nano.a(lib_a-fstatr.o)
 .debug_aranges
                0x00001800       0x20 c:/program files/microchip/xc32/v2.40/bin/bin/../../lib/gcc/pic32c/6.2.1/../../../../pic32c/lib/v7e-m/fpv4-sp/hard\libc_nano.a(lib_a-isattyr.o)
 .debug_aranges
                0x00001820       0x20 c:/program files/microchip/xc32/v2.40/bin/bin/../../lib/gcc/pic32c/6.2.1/../../../../pic32c/lib/v7e-m/fpv4-sp/hard\libc_nano.a(lib_a-nano-reallocr.o)
 .debug_aranges
                0x00001840       0x20 c:/program files/microchip/xc32/v2.40/bin/bin/../../lib/gcc/pic32c/6.2.1/../../../../pic32c/lib/v7e-m/fpv4-sp/hard\libc_nano.a(lib_a-nano-msizer.o)
 .debug_aranges
                0x00001860       0x20 c:/program files/microchip/xc32/v2.40/bin/bin/../../lib/gcc/pic32c/6.2.1/../../../../pic32c/lib/v7e-m/fpv4-sp/hard\libpic32c.a(_close.o)
 .debug_aranges
                0x00001880       0x20 c:/program files/microchip/xc32/v2.40/bin/bin/../../lib/gcc/pic32c/6.2.1/../../../../pic32c/lib/v7e-m/fpv4-sp/hard\libpic32c.a(_fstat.o)
 .debug_aranges
                0x000018a0       0x20 c:/program files/microchip/xc32/v2.40/bin/bin/../../lib/gcc/pic32c/6.2.1/../../../../pic32c/lib/v7e-m/fpv4-sp/hard\libpic32c.a(_isatty.o)
 .debug_aranges
                0x000018c0       0x20 c:/program files/microchip/xc32/v2.40/bin/bin/../../lib/gcc/pic32c/6.2.1/../../../../pic32c/lib/v7e-m/fpv4-sp/hard\libpic32c.a(_lseek.o)
 .debug_aranges
                0x000018e0       0x20 c:/program files/microchip/xc32/v2.40/bin/bin/../../lib/gcc/pic32c/6.2.1/../../../../pic32c/lib/v7e-m/fpv4-sp/hard\libpic32c.a(_read.o)
 .debug_aranges
                0x00001900       0x20 c:/program files/microchip/xc32/v2.40/bin/bin/../../lib/gcc/pic32c/6.2.1/../../../../pic32c/lib/v7e-m/fpv4-sp/hard\libpic32c.a(sbrk.o)
 .debug_aranges
                0x00001920       0x20 c:/program files/microchip/xc32/v2.40/bin/bin/../../lib/gcc/pic32c/6.2.1/../../../../pic32c/lib/v7e-m/fpv4-sp/hard\libpic32c.a(_write.o)
 .debug_aranges
                0x00001940       0x20 c:/program files/microchip/xc32/v2.40/bin/bin/../../lib/gcc/pic32c/6.2.1/../../../../pic32c/lib/v7e-m/fpv4-sp/hard\libpic32c.a(close.o)
 .debug_aranges
                0x00001960       0x20 c:/program files/microchip/xc32/v2.40/bin/bin/../../lib/gcc/pic32c/6.2.1/../../../../pic32c/lib/v7e-m/fpv4-sp/hard\libpic32c.a(fstat.o)
 .debug_aranges
                0x00001980       0x20 c:/program files/microchip/xc32/v2.40/bin/bin/../../lib/gcc/pic32c/6.2.1/../../../../pic32c/lib/v7e-m/fpv4-sp/hard\libpic32c.a(isatty.o)
 .debug_aranges
                0x000019a0       0x20 c:/program files/microchip/xc32/v2.40/bin/bin/../../lib/gcc/pic32c/6.2.1/../../../../pic32c/lib/v7e-m/fpv4-sp/hard\libpic32c.a(lseek.o)
 .debug_aranges
                0x000019c0       0x20 c:/program files/microchip/xc32/v2.40/bin/bin/../../lib/gcc/pic32c/6.2.1/../../../../pic32c/lib/v7e-m/fpv4-sp/hard\libpic32c.a(read.o)
 .debug_aranges
                0x000019e0       0x20 c:/program files/microchip/xc32/v2.40/bin/bin/../../lib/gcc/pic32c/6.2.1/../../../../pic32c/lib/v7e-m/fpv4-sp/hard\libpic32c.a(write.o)

.debug_ranges   0x00000000     0x3b00
 .debug_ranges  0x00000000       0xb0 build/aws_demos/production/_ext/1319661984/drv_gmac.o
 .debug_ranges  0x000000b0       0xb8 build/aws_demos/production/_ext/1319661984/drv_gmac_lib_samE5x.o
 .debug_ranges  0x00000168       0xd8 build/aws_demos/production/_ext/1991396724/sys_command.o
 .debug_ranges  0x00000240       0x60 build/aws_demos/production/_ext/731420310/plib_sercom6_usart.o
 .debug_ranges  0x000002a0       0x10 build/aws_demos/production/_ext/1534096987/interrupts.o
 .debug_ranges  0x000002b0       0x10 build/aws_demos/production/_ext/1534096987/startup_xc32.o
 .debug_ranges  0x000002c0       0x18 build/aws_demos/production/_ext/1385882503/port.o
 .debug_ranges  0x000002d8       0x30 build/aws_demos/production/_ext/112156576/iot_pkcs11_mbedtls.o
 .debug_ranges  0x00000308       0x38 build/aws_demos/production/_ext/1682906662/FreeRTOS_ARP.o
 .debug_ranges  0x00000340       0x18 build/aws_demos/production/_ext/1682906662/FreeRTOS_DHCP.o
 .debug_ranges  0x00000358       0x88 build/aws_demos/production/_ext/1682906662/FreeRTOS_DNS.o
 .debug_ranges  0x000003e0      0x138 build/aws_demos/production/_ext/1682906662/FreeRTOS_IP.o
 .debug_ranges  0x00000518      0x1b8 build/aws_demos/production/_ext/1682906662/FreeRTOS_Sockets.o
 .debug_ranges  0x000006d0       0x60 build/aws_demos/production/_ext/1682906662/FreeRTOS_Stream_Buffer.o
 .debug_ranges  0x00000730      0x190 build/aws_demos/production/_ext/1682906662/FreeRTOS_TCP_IP.o
 .debug_ranges  0x000008c0       0x30 build/aws_demos/production/_ext/1682906662/FreeRTOS_UDP_IP.o
 .debug_ranges  0x000008f0       0x18 build/aws_demos/production/_ext/1778494626/BufferAllocation_2.o
 .debug_ranges  0x00000908      0x100 build/aws_demos/production/_ext/1778494626/NetworkInterface_eth.o
 .debug_ranges  0x00000a08       0x18 build/aws_demos/production/_ext/1972722184/pkcs11_nvm.o
 .debug_ranges  0x00000a20       0x18 build/aws_demos/production/_ext/197858987/tcpip_heap_external.o
 .debug_ranges  0x00000a38       0x48 build/aws_demos/production/_ext/197858987/tcpip_helpers.o
 .debug_ranges  0x00000a80       0x18 build/aws_demos/production/_ext/197858987/tcpip_packet.o
 .debug_ranges  0x00000a98      0x1b0 build/aws_demos/production/_ext/211704168/drv_miim.o
 .debug_ranges  0x00000c48       0x48 build/aws_demos/production/_ext/484134862/sys_time.o
 .debug_ranges  0x00000c90       0x20 build/aws_demos/production/_ext/1223942466/iot_demo_freertos.o
 .debug_ranges  0x00000cb0       0x18 build/aws_demos/production/_ext/198771642/aws_dev_mode_key_provisioning.o
 .debug_ranges  0x00000cc8       0x70 build/aws_demos/production/_ext/1441508942/iot_demo_mqtt.o
 .debug_ranges  0x00000d38       0x30 build/aws_demos/production/_ext/2040524622/aws_iot_network_manager.o
 .debug_ranges  0x00000d68       0x60 build/aws_demos/production/_ext/811507611/event_groups.o
 .debug_ranges  0x00000dc8      0x130 build/aws_demos/production/_ext/811507611/queue.o
 .debug_ranges  0x00000ef8      0x120 build/aws_demos/production/_ext/811507611/tasks.o
 .debug_ranges  0x00001018       0xa0 build/aws_demos/production/_ext/811507611/timers.o
 .debug_ranges  0x000010b8       0x18 build/aws_demos/production/_ext/684768522/aes.o
 .debug_ranges  0x000010d0       0x18 build/aws_demos/production/_ext/684768522/asn1write.o
 .debug_ranges  0x000010e8       0x58 build/aws_demos/production/_ext/684768522/bignum.o
 .debug_ranges  0x00001140       0xd0 build/aws_demos/production/_ext/684768522/cipher.o
 .debug_ranges  0x00001210       0x18 build/aws_demos/production/_ext/684768522/ctr_drbg.o
 .debug_ranges  0x00001228       0xc8 build/aws_demos/production/_ext/684768522/ecdh.o
 .debug_ranges  0x000012f0       0xf8 build/aws_demos/production/_ext/684768522/ecp.o
 .debug_ranges  0x000013e8      0x468 build/aws_demos/production/_ext/684768522/ecp_curves.o
 .debug_ranges  0x00001850       0x50 build/aws_demos/production/_ext/684768522/gcm.o
 .debug_ranges  0x000018a0       0xc0 build/aws_demos/production/_ext/684768522/oid.o
 .debug_ranges  0x00001960       0x30 build/aws_demos/production/_ext/684768522/pk.o
 .debug_ranges  0x00001990       0x48 build/aws_demos/production/_ext/684768522/pkparse.o
 .debug_ranges  0x000019d8       0x58 build/aws_demos/production/_ext/684768522/pkwrite.o
 .debug_ranges  0x00001a30       0x50 build/aws_demos/production/_ext/684768522/rsa.o
 .debug_ranges  0x00001a80      0x2b0 build/aws_demos/production/_ext/684768522/ssl_cli.o
 .debug_ranges  0x00001d30      0x348 build/aws_demos/production/_ext/684768522/ssl_tls.o
 .debug_ranges  0x00002078       0x68 build/aws_demos/production/_ext/684768522/x509.o
 .debug_ranges  0x000020e0      0x320 build/aws_demos/production/_ext/684768522/x509_crt.o
 .debug_ranges  0x00002400       0x20 build/aws_demos/production/_ext/520142351/iot_network_freertos.o
 .debug_ranges  0x00002420       0x30 build/aws_demos/production/_ext/13066905/iot_device_metrics.o
 .debug_ranges  0x00002450       0x18 build/aws_demos/production/_ext/227692215/iot_logging.o
 .debug_ranges  0x00002468      0x5c0 build/aws_demos/production/_ext/333408969/iot_taskpool.o
 .debug_ranges  0x00002a28      0x218 build/aws_demos/production/_ext/1739149067/iot_mqtt_api.o
 .debug_ranges  0x00002c40       0x88 build/aws_demos/production/_ext/1739149067/iot_mqtt_network.o
 .debug_ranges  0x00002cc8      0x140 build/aws_demos/production/_ext/1739149067/iot_mqtt_operation.o
 .debug_ranges  0x00002e08       0x60 build/aws_demos/production/_ext/1739149067/iot_mqtt_serialize.o
 .debug_ranges  0x00002e68       0xc0 build/aws_demos/production/_ext/1739149067/iot_mqtt_subscription.o
 .debug_ranges  0x00002f28       0x30 build/aws_demos/production/_ext/350635301/iot_crypto.o
 .debug_ranges  0x00002f58       0x28 build/aws_demos/production/_ext/2039890517/iot_tls.o
 .debug_ranges  0x00002f80       0x78 build/aws_demos/production/_ext/1200684192/drv_ethphy.o
 .debug_ranges  0x00002ff8       0x10 c:/program files/microchip/xc32/v2.40/bin/bin/../../lib/gcc/pic32c/6.2.1/../../../../pic32c/lib/v7e-m/fpv4-sp/hard\libpic32c.a(data_init.o)
 .debug_ranges  0x00003008       0xa8 c:/program files/microchip/xc32/v2.40/bin/bin/../../lib/gcc/pic32c/6.2.1/v7e-m/fpv4-sp/hard\libgcc.a(_udivmoddi4.o)
 .debug_ranges  0x000030b0       0x10 c:/program files/microchip/xc32/v2.40/bin/bin/../../lib/gcc/pic32c/6.2.1/../../../../pic32c/lib/v7e-m/fpv4-sp/hard\libc_nano.a(lib_a-calloc.o)
 .debug_ranges  0x000030c0       0x10 c:/program files/microchip/xc32/v2.40/bin/bin/../../lib/gcc/pic32c/6.2.1/../../../../pic32c/lib/v7e-m/fpv4-sp/hard\libc_nano.a(lib_a-init.o)
 .debug_ranges  0x000030d0       0x30 c:/program files/microchip/xc32/v2.40/bin/bin/../../lib/gcc/pic32c/6.2.1/../../../../pic32c/lib/v7e-m/fpv4-sp/hard\libc_nano.a(lib_a-locale.o)
 .debug_ranges  0x00003100       0x18 c:/program files/microchip/xc32/v2.40/bin/bin/../../lib/gcc/pic32c/6.2.1/../../../../pic32c/lib/v7e-m/fpv4-sp/hard\libc_nano.a(lib_a-malloc.o)
 .debug_ranges  0x00003118       0x18 c:/program files/microchip/xc32/v2.40/bin/bin/../../lib/gcc/pic32c/6.2.1/../../../../pic32c/lib/v7e-m/fpv4-sp/hard\libc_nano.a(lib_a-mbtowc_r.o)
 .debug_ranges  0x00003130       0x10 c:/program files/microchip/xc32/v2.40/bin/bin/../../lib/gcc/pic32c/6.2.1/../../../../pic32c/lib/v7e-m/fpv4-sp/hard\libc_nano.a(lib_a-memcmp.o)
 .debug_ranges  0x00003140       0x10 c:/program files/microchip/xc32/v2.40/bin/bin/../../lib/gcc/pic32c/6.2.1/../../../../pic32c/lib/v7e-m/fpv4-sp/hard\libc_nano.a(lib_a-memcpy-stub.o)
 .debug_ranges  0x00003150       0x10 c:/program files/microchip/xc32/v2.40/bin/bin/../../lib/gcc/pic32c/6.2.1/../../../../pic32c/lib/v7e-m/fpv4-sp/hard\libc_nano.a(lib_a-memmove.o)
 .debug_ranges  0x00003160       0x10 c:/program files/microchip/xc32/v2.40/bin/bin/../../lib/gcc/pic32c/6.2.1/../../../../pic32c/lib/v7e-m/fpv4-sp/hard\libc_nano.a(lib_a-memset.o)
 .debug_ranges  0x00003170       0x10 c:/program files/microchip/xc32/v2.40/bin/bin/../../lib/gcc/pic32c/6.2.1/../../../../pic32c/lib/v7e-m/fpv4-sp/hard\libc_nano.a(lib_a-nano-callocr.o)
 .debug_ranges  0x00003180       0x10 c:/program files/microchip/xc32/v2.40/bin/bin/../../lib/gcc/pic32c/6.2.1/../../../../pic32c/lib/v7e-m/fpv4-sp/hard\libc_nano.a(lib_a-nano-freer.o)
 .debug_ranges  0x00003190       0x58 c:/program files/microchip/xc32/v2.40/bin/bin/../../lib/gcc/pic32c/6.2.1/../../../../pic32c/lib/v7e-m/fpv4-sp/hard\libc_nano.a(lib_a-nano-mallocr.o)
 .debug_ranges  0x000031e8       0x30 c:/program files/microchip/xc32/v2.40/bin/bin/../../lib/gcc/pic32c/6.2.1/../../../../pic32c/lib/v7e-m/fpv4-sp/hard\libc_nano.a(lib_a-nano-vfprintf.o)
 .debug_ranges  0x00003218       0x98 c:/program files/microchip/xc32/v2.40/bin/bin/../../lib/gcc/pic32c/6.2.1/../../../../pic32c/lib/v7e-m/fpv4-sp/hard\libc_nano.a(_lib_a-nano-vfprintf.s.o)
 .debug_ranges  0x000032b0       0x18 c:/program files/microchip/xc32/v2.40/bin/bin/../../lib/gcc/pic32c/6.2.1/../../../../pic32c/lib/v7e-m/fpv4-sp/hard\libc_nano.a(lib_a-printf.o)
 .debug_ranges  0x000032c8       0x18 c:/program files/microchip/xc32/v2.40/bin/bin/../../lib/gcc/pic32c/6.2.1/../../../../pic32c/lib/v7e-m/fpv4-sp/hard\libc_nano.a(lib_a-putchar.o)
 .debug_ranges  0x000032e0       0x50 c:/program files/microchip/xc32/v2.40/bin/bin/../../lib/gcc/pic32c/6.2.1/../../../../pic32c/lib/v7e-m/fpv4-sp/hard\libc_nano.a(lib_a-putc.o)
 .debug_ranges  0x00003330       0x68 c:/program files/microchip/xc32/v2.40/bin/bin/../../lib/gcc/pic32c/6.2.1/../../../../pic32c/lib/v7e-m/fpv4-sp/hard\libc_nano.a(lib_a-puts.o)
 .debug_ranges  0x00003398       0x60 c:/program files/microchip/xc32/v2.40/bin/bin/../../lib/gcc/pic32c/6.2.1/../../../../pic32c/lib/v7e-m/fpv4-sp/hard\libc_nano.a(lib_a-rand.o)
 .debug_ranges  0x000033f8       0x10 c:/program files/microchip/xc32/v2.40/bin/bin/../../lib/gcc/pic32c/6.2.1/../../../../pic32c/lib/v7e-m/fpv4-sp/hard\libc_nano.a(lib_a-sbrkr.o)
 .debug_ranges  0x00003408       0x18 c:/program files/microchip/xc32/v2.40/bin/bin/../../lib/gcc/pic32c/6.2.1/../../../../pic32c/lib/v7e-m/fpv4-sp/hard\libc_nano.a(lib_a-snprintf.o)
 .debug_ranges  0x00003420       0x18 c:/program files/microchip/xc32/v2.40/bin/bin/../../lib/gcc/pic32c/6.2.1/../../../../pic32c/lib/v7e-m/fpv4-sp/hard\libc_nano.a(lib_a-sprintf.o)
 .debug_ranges  0x00003438       0x10 c:/program files/microchip/xc32/v2.40/bin/bin/../../lib/gcc/pic32c/6.2.1/../../../../pic32c/lib/v7e-m/fpv4-sp/hard\libc_nano.a(_lib_a-sscanf.cdnopsuxX.o)
 .debug_ranges  0x00003448       0x30 c:/program files/microchip/xc32/v2.40/bin/bin/../../lib/gcc/pic32c/6.2.1/../../../../pic32c/lib/v7e-m/fpv4-sp/hard\libc_nano.a(lib_a-__ssfputs.o)
 .debug_ranges  0x00003478       0x30 c:/program files/microchip/xc32/v2.40/bin/bin/../../lib/gcc/pic32c/6.2.1/../../../../pic32c/lib/v7e-m/fpv4-sp/hard\libc_nano.a(lib_a-stdio.o)
 .debug_ranges  0x000034a8       0x10 c:/program files/microchip/xc32/v2.40/bin/bin/../../lib/gcc/pic32c/6.2.1/../../../../pic32c/lib/v7e-m/fpv4-sp/hard\libc_nano.a(lib_a-strcpy.o)
 .debug_ranges  0x000034b8       0x10 c:/program files/microchip/xc32/v2.40/bin/bin/../../lib/gcc/pic32c/6.2.1/../../../../pic32c/lib/v7e-m/fpv4-sp/hard\libc_nano.a(lib_a-strncmp.o)
 .debug_ranges  0x000034c8       0x10 c:/program files/microchip/xc32/v2.40/bin/bin/../../lib/gcc/pic32c/6.2.1/../../../../pic32c/lib/v7e-m/fpv4-sp/hard\libc_nano.a(lib_a-strncpy.o)
 .debug_ranges  0x000034d8       0x10 c:/program files/microchip/xc32/v2.40/bin/bin/../../lib/gcc/pic32c/6.2.1/../../../../pic32c/lib/v7e-m/fpv4-sp/hard\libc_nano.a(lib_a-strstr.o)
 .debug_ranges  0x000034e8       0x28 c:/program files/microchip/xc32/v2.40/bin/bin/../../lib/gcc/pic32c/6.2.1/../../../../pic32c/lib/v7e-m/fpv4-sp/hard\libc_nano.a(lib_a-strtol.o)
 .debug_ranges  0x00003510       0x28 c:/program files/microchip/xc32/v2.40/bin/bin/../../lib/gcc/pic32c/6.2.1/../../../../pic32c/lib/v7e-m/fpv4-sp/hard\libc_nano.a(lib_a-strtoul.o)
 .debug_ranges  0x00003538       0x18 c:/program files/microchip/xc32/v2.40/bin/bin/../../lib/gcc/pic32c/6.2.1/../../../../pic32c/lib/v7e-m/fpv4-sp/hard\libc_nano.a(lib_a-vsnprintf.o)
 .debug_ranges  0x00003550       0x30 c:/program files/microchip/xc32/v2.40/bin/bin/../../lib/gcc/pic32c/6.2.1/../../../../pic32c/lib/v7e-m/fpv4-sp/hard\libc_nano.a(lib_a-wbuf.o)
 .debug_ranges  0x00003580       0x18 c:/program files/microchip/xc32/v2.40/bin/bin/../../lib/gcc/pic32c/6.2.1/../../../../pic32c/lib/v7e-m/fpv4-sp/hard\libc_nano.a(lib_a-wctomb_r.o)
 .debug_ranges  0x00003598       0x10 c:/program files/microchip/xc32/v2.40/bin/bin/../../lib/gcc/pic32c/6.2.1/../../../../pic32c/lib/v7e-m/fpv4-sp/hard\libc_nano.a(lib_a-writer.o)
 .debug_ranges  0x000035a8       0x38 c:/program files/microchip/xc32/v2.40/bin/bin/../../lib/gcc/pic32c/6.2.1/../../../../pic32c/lib/v7e-m/fpv4-sp/hard\libc_nano.a(lib_a-wsetup.o)
 .debug_ranges  0x000035e0       0x10 c:/program files/microchip/xc32/v2.40/bin/bin/../../lib/gcc/pic32c/6.2.1/../../../../pic32c/lib/v7e-m/fpv4-sp/hard\libc_nano.a(lib_a-closer.o)
 .debug_ranges  0x000035f0       0x68 c:/program files/microchip/xc32/v2.40/bin/bin/../../lib/gcc/pic32c/6.2.1/../../../../pic32c/lib/v7e-m/fpv4-sp/hard\libc_nano.a(lib_a-fflush.o)
 .debug_ranges  0x00003658       0x38 c:/program files/microchip/xc32/v2.40/bin/bin/../../lib/gcc/pic32c/6.2.1/../../../../pic32c/lib/v7e-m/fpv4-sp/hard\libc_nano.a(lib_a-findfp.o)
 .debug_ranges  0x00003690       0x58 c:/program files/microchip/xc32/v2.40/bin/bin/../../lib/gcc/pic32c/6.2.1/../../../../pic32c/lib/v7e-m/fpv4-sp/hard\libc_nano.a(lib_a-fputwc.o)
 .debug_ranges  0x000036e8       0x18 c:/program files/microchip/xc32/v2.40/bin/bin/../../lib/gcc/pic32c/6.2.1/../../../../pic32c/lib/v7e-m/fpv4-sp/hard\libc_nano.a(lib_a-fwalk.o)
 .debug_ranges  0x00003700       0x10 c:/program files/microchip/xc32/v2.40/bin/bin/../../lib/gcc/pic32c/6.2.1/../../../../pic32c/lib/v7e-m/fpv4-sp/hard\libc_nano.a(lib_a-lseekr.o)
 .debug_ranges  0x00003710       0x30 c:/program files/microchip/xc32/v2.40/bin/bin/../../lib/gcc/pic32c/6.2.1/../../../../pic32c/lib/v7e-m/fpv4-sp/hard\libc_nano.a(lib_a-makebuf.o)
 .debug_ranges  0x00003740       0x10 c:/program files/microchip/xc32/v2.40/bin/bin/../../lib/gcc/pic32c/6.2.1/../../../../pic32c/lib/v7e-m/fpv4-sp/hard\libc_nano.a(lib_a-mlock.o)
 .debug_ranges  0x00003750       0x10 c:/program files/microchip/xc32/v2.40/bin/bin/../../lib/gcc/pic32c/6.2.1/../../../../pic32c/lib/v7e-m/fpv4-sp/hard\libc_nano.a(lib_a-nano-svfprintf.o)
 .debug_ranges  0x00003760       0xc8 c:/program files/microchip/xc32/v2.40/bin/bin/../../lib/gcc/pic32c/6.2.1/../../../../pic32c/lib/v7e-m/fpv4-sp/hard\libc_nano.a(lib_a-nano-vfprintf_i.o)
 .debug_ranges  0x00003828       0xb0 c:/program files/microchip/xc32/v2.40/bin/bin/../../lib/gcc/pic32c/6.2.1/../../../../pic32c/lib/v7e-m/fpv4-sp/hard\libc_nano.a(_lib_a-nano-vfscanf.cdnopsuxX.o)
 .debug_ranges  0x000038d8       0x10 c:/program files/microchip/xc32/v2.40/bin/bin/../../lib/gcc/pic32c/6.2.1/../../../../pic32c/lib/v7e-m/fpv4-sp/hard\libc_nano.a(lib_a-readr.o)
 .debug_ranges  0x000038e8       0x48 c:/program files/microchip/xc32/v2.40/bin/bin/../../lib/gcc/pic32c/6.2.1/../../../../pic32c/lib/v7e-m/fpv4-sp/hard\libc_nano.a(lib_a-reent.o)
 .debug_ranges  0x00003930       0x30 c:/program files/microchip/xc32/v2.40/bin/bin/../../lib/gcc/pic32c/6.2.1/../../../../pic32c/lib/v7e-m/fpv4-sp/hard\libc_nano.a(lib_a-refill.o)
 .debug_ranges  0x00003960       0x10 c:/program files/microchip/xc32/v2.40/bin/bin/../../lib/gcc/pic32c/6.2.1/../../../../pic32c/lib/v7e-m/fpv4-sp/hard\libc_nano.a(lib_a-sccl.o)
 .debug_ranges  0x00003970       0x30 c:/program files/microchip/xc32/v2.40/bin/bin/../../lib/gcc/pic32c/6.2.1/../../../../pic32c/lib/v7e-m/fpv4-sp/hard\libc_nano.a(lib_a-__ssputs.o)
 .debug_ranges  0x000039a0       0x38 c:/program files/microchip/xc32/v2.40/bin/bin/../../lib/gcc/pic32c/6.2.1/../../../../pic32c/lib/v7e-m/fpv4-sp/hard\libc_nano.a(lib_a-ungetc.o)
 .debug_ranges  0x000039d8       0x18 c:/program files/microchip/xc32/v2.40/bin/bin/../../lib/gcc/pic32c/6.2.1/../../../../pic32c/lib/v7e-m/fpv4-sp/hard\libc_nano.a(lib_a-wcrtomb.o)
 .debug_ranges  0x000039f0       0x10 c:/program files/microchip/xc32/v2.40/bin/bin/../../lib/gcc/pic32c/6.2.1/../../../../pic32c/lib/v7e-m/fpv4-sp/hard\libc_nano.a(lib_a-fstatr.o)
 .debug_ranges  0x00003a00       0x10 c:/program files/microchip/xc32/v2.40/bin/bin/../../lib/gcc/pic32c/6.2.1/../../../../pic32c/lib/v7e-m/fpv4-sp/hard\libc_nano.a(lib_a-isattyr.o)
 .debug_ranges  0x00003a10       0x10 c:/program files/microchip/xc32/v2.40/bin/bin/../../lib/gcc/pic32c/6.2.1/../../../../pic32c/lib/v7e-m/fpv4-sp/hard\libc_nano.a(lib_a-nano-reallocr.o)
 .debug_ranges  0x00003a20       0x10 c:/program files/microchip/xc32/v2.40/bin/bin/../../lib/gcc/pic32c/6.2.1/../../../../pic32c/lib/v7e-m/fpv4-sp/hard\libc_nano.a(lib_a-nano-msizer.o)
 .debug_ranges  0x00003a30       0x10 c:/program files/microchip/xc32/v2.40/bin/bin/../../lib/gcc/pic32c/6.2.1/../../../../pic32c/lib/v7e-m/fpv4-sp/hard\libpic32c.a(_close.o)
 .debug_ranges  0x00003a40       0x10 c:/program files/microchip/xc32/v2.40/bin/bin/../../lib/gcc/pic32c/6.2.1/../../../../pic32c/lib/v7e-m/fpv4-sp/hard\libpic32c.a(_fstat.o)
 .debug_ranges  0x00003a50       0x10 c:/program files/microchip/xc32/v2.40/bin/bin/../../lib/gcc/pic32c/6.2.1/../../../../pic32c/lib/v7e-m/fpv4-sp/hard\libpic32c.a(_isatty.o)
 .debug_ranges  0x00003a60       0x10 c:/program files/microchip/xc32/v2.40/bin/bin/../../lib/gcc/pic32c/6.2.1/../../../../pic32c/lib/v7e-m/fpv4-sp/hard\libpic32c.a(_lseek.o)
 .debug_ranges  0x00003a70       0x10 c:/program files/microchip/xc32/v2.40/bin/bin/../../lib/gcc/pic32c/6.2.1/../../../../pic32c/lib/v7e-m/fpv4-sp/hard\libpic32c.a(_read.o)
 .debug_ranges  0x00003a80       0x10 c:/program files/microchip/xc32/v2.40/bin/bin/../../lib/gcc/pic32c/6.2.1/../../../../pic32c/lib/v7e-m/fpv4-sp/hard\libpic32c.a(sbrk.o)
 .debug_ranges  0x00003a90       0x10 c:/program files/microchip/xc32/v2.40/bin/bin/../../lib/gcc/pic32c/6.2.1/../../../../pic32c/lib/v7e-m/fpv4-sp/hard\libpic32c.a(_write.o)
 .debug_ranges  0x00003aa0       0x10 c:/program files/microchip/xc32/v2.40/bin/bin/../../lib/gcc/pic32c/6.2.1/../../../../pic32c/lib/v7e-m/fpv4-sp/hard\libpic32c.a(close.o)
 .debug_ranges  0x00003ab0       0x10 c:/program files/microchip/xc32/v2.40/bin/bin/../../lib/gcc/pic32c/6.2.1/../../../../pic32c/lib/v7e-m/fpv4-sp/hard\libpic32c.a(fstat.o)
 .debug_ranges  0x00003ac0       0x10 c:/program files/microchip/xc32/v2.40/bin/bin/../../lib/gcc/pic32c/6.2.1/../../../../pic32c/lib/v7e-m/fpv4-sp/hard\libpic32c.a(isatty.o)
 .debug_ranges  0x00003ad0       0x10 c:/program files/microchip/xc32/v2.40/bin/bin/../../lib/gcc/pic32c/6.2.1/../../../../pic32c/lib/v7e-m/fpv4-sp/hard\libpic32c.a(lseek.o)
 .debug_ranges  0x00003ae0       0x10 c:/program files/microchip/xc32/v2.40/bin/bin/../../lib/gcc/pic32c/6.2.1/../../../../pic32c/lib/v7e-m/fpv4-sp/hard\libpic32c.a(read.o)
 .debug_ranges  0x00003af0       0x10 c:/program files/microchip/xc32/v2.40/bin/bin/../../lib/gcc/pic32c/6.2.1/../../../../pic32c/lib/v7e-m/fpv4-sp/hard\libpic32c.a(write.o)

.debug_line     0x00000000    0x2d15b
 .debug_line    0x00000000      0x93c build/aws_demos/production/_ext/1319661984/drv_gmac.o
 .debug_line    0x0000093c      0x818 build/aws_demos/production/_ext/1319661984/drv_gmac_lib_samE5x.o
 .debug_line    0x00001154      0x242 build/aws_demos/production/_ext/665618993/plib_nvmctrl.o
 .debug_line    0x00001396      0x298 build/aws_demos/production/_ext/731420310/plib_sercom2_usart.o
 .debug_line    0x0000162e      0x130 build/aws_demos/production/_ext/1321577635/plib_evsys.o
 .debug_line    0x0000175e      0x4f2 build/aws_demos/production/_ext/1991396724/sys_command.o
 .debug_line    0x00001c50      0x306 build/aws_demos/production/_ext/731420310/plib_sercom6_usart.o
 .debug_line    0x00001f56      0x5a9 build/aws_demos/production/_ext/1360937237/main.o
 .debug_line    0x000024ff      0x64f build/aws_demos/production/_ext/1534096987/initialization.o
 .debug_line    0x00002b4e      0x2dc build/aws_demos/production/_ext/1534096987/interrupts.o
 .debug_line    0x00002e2a      0x2ba build/aws_demos/production/_ext/1534096987/exceptions.o
 .debug_line    0x000030e4      0x321 build/aws_demos/production/_ext/1263901141/xc32_monitor.o
 .debug_line    0x00003405      0x1b4 build/aws_demos/production/_ext/1843425920/plib_port.o
 .debug_line    0x000035b9      0x1c3 build/aws_demos/production/_ext/1323727121/plib_clock.o
 .debug_line    0x0000377c      0x1f0 build/aws_demos/production/_ext/1843479071/plib_nvic.o
 .debug_line    0x0000396c      0x337 build/aws_demos/production/_ext/1534096987/startup_xc32.o
 .debug_line    0x00003ca3      0x285 build/aws_demos/production/_ext/1385882503/port.o
 .debug_line    0x00003f28      0x35d build/aws_demos/production/_ext/1168480030/heap_4.o
 .debug_line    0x00004285      0xdf5 build/aws_demos/production/_ext/112156576/iot_pkcs11_mbedtls.o
 .debug_line    0x0000507a      0x647 build/aws_demos/production/_ext/366737/iot_secure_sockets.o
 .debug_line    0x000056c1      0x4bc build/aws_demos/production/_ext/1682906662/FreeRTOS_ARP.o
 .debug_line    0x00005b7d      0x504 build/aws_demos/production/_ext/1682906662/FreeRTOS_DHCP.o
 .debug_line    0x00006081      0x553 build/aws_demos/production/_ext/1682906662/FreeRTOS_DNS.o
 .debug_line    0x000065d4      0x747 build/aws_demos/production/_ext/1682906662/FreeRTOS_IP.o
 .debug_line    0x00006d1b      0xa80 build/aws_demos/production/_ext/1682906662/FreeRTOS_Sockets.o
 .debug_line    0x0000779b      0x373 build/aws_demos/production/_ext/1682906662/FreeRTOS_Stream_Buffer.o
 .debug_line    0x00007b0e      0x9a0 build/aws_demos/production/_ext/1682906662/FreeRTOS_TCP_IP.o
 .debug_line    0x000084ae      0x3ec build/aws_demos/production/_ext/1682906662/FreeRTOS_TCP_WIN.o
 .debug_line    0x0000889a      0x402 build/aws_demos/production/_ext/1682906662/FreeRTOS_UDP_IP.o
 .debug_line    0x00008c9c      0x60a build/aws_demos/production/_ext/1778494626/BufferAllocation_2.o
 .debug_line    0x000092a6      0x7ba build/aws_demos/production/_ext/1778494626/NetworkInterface_eth.o
 .debug_line    0x00009a60      0x488 build/aws_demos/production/_ext/1972722184/iot_pkcs11_pal.o
 .debug_line    0x00009ee8      0x310 build/aws_demos/production/_ext/1972722184/pkcs11_nvm.o
 .debug_line    0x0000a1f8      0x24b build/aws_demos/production/_ext/197858987/helpers.o
 .debug_line    0x0000a443      0x35e build/aws_demos/production/_ext/197858987/tcpip_heap_alloc.o
 .debug_line    0x0000a7a1      0x47b build/aws_demos/production/_ext/197858987/tcpip_heap_external.o
 .debug_line    0x0000ac1c      0x894 build/aws_demos/production/_ext/197858987/tcpip_helpers.o
 .debug_line    0x0000b4b0      0x462 build/aws_demos/production/_ext/197858987/tcpip_packet.o
 .debug_line    0x0000b912      0x19b build/aws_demos/production/_ext/59476128/plib_eic.o
 .debug_line    0x0000baad      0x749 build/aws_demos/production/_ext/211704168/drv_miim.o
 .debug_line    0x0000c1f6      0x1b4 build/aws_demos/production/_ext/1110296786/plib_tc3.o
 .debug_line    0x0000c3aa      0x600 build/aws_demos/production/_ext/484134862/sys_time.o
 .debug_line    0x0000c9aa      0x18b build/aws_demos/production/_ext/1223942466/aws_demo.o
 .debug_line    0x0000cb35      0x16b build/aws_demos/production/_ext/1223942466/aws_demo_network_addr.o
 .debug_line    0x0000cca0      0x654 build/aws_demos/production/_ext/1223942466/iot_demo_freertos.o
 .debug_line    0x0000d2f4      0x297 build/aws_demos/production/_ext/1223942466/iot_demo_runner.o
 .debug_line    0x0000d58b      0x77e build/aws_demos/production/_ext/198771642/aws_dev_mode_key_provisioning.o
 .debug_line    0x0000dd09      0x589 build/aws_demos/production/_ext/1441508942/iot_demo_mqtt.o
 .debug_line    0x0000e292      0x630 build/aws_demos/production/_ext/2040524622/aws_iot_network_manager.o
 .debug_line    0x0000e8c2      0x41f build/aws_demos/production/_ext/811507611/event_groups.o
 .debug_line    0x0000ece1      0x25b build/aws_demos/production/_ext/811507611/list.o
 .debug_line    0x0000ef3c      0x6db build/aws_demos/production/_ext/811507611/queue.o
 .debug_line    0x0000f617      0x90d build/aws_demos/production/_ext/811507611/tasks.o
 .debug_line    0x0000ff24      0x46c build/aws_demos/production/_ext/811507611/timers.o
 .debug_line    0x00010390      0x4bc build/aws_demos/production/_ext/684768522/aes.o
 .debug_line    0x0001084c      0x31c build/aws_demos/production/_ext/684768522/asn1parse.o
 .debug_line    0x00010b68      0x344 build/aws_demos/production/_ext/684768522/asn1write.o
 .debug_line    0x00010eac      0x29d build/aws_demos/production/_ext/684768522/base64.o
 .debug_line    0x00011149      0xa2a build/aws_demos/production/_ext/684768522/bignum.o
 .debug_line    0x00011b73      0x52b build/aws_demos/production/_ext/684768522/cipher.o
 .debug_line    0x0001209e      0x281 build/aws_demos/production/_ext/684768522/cipher_wrap.o
 .debug_line    0x0001231f      0x45c build/aws_demos/production/_ext/684768522/ctr_drbg.o
 .debug_line    0x0001277b      0x2b0 build/aws_demos/production/_ext/684768522/ecdh.o
 .debug_line    0x00012a2b      0x332 build/aws_demos/production/_ext/684768522/ecdsa.o
 .debug_line    0x00012d5d      0x88e build/aws_demos/production/_ext/684768522/ecp.o
 .debug_line    0x000135eb      0x3da build/aws_demos/production/_ext/684768522/ecp_curves.o
 .debug_line    0x000139c5      0x435 build/aws_demos/production/_ext/684768522/entropy.o
 .debug_line    0x00013dfa      0x3e1 build/aws_demos/production/_ext/684768522/gcm.o
 .debug_line    0x000141db      0x2dc build/aws_demos/production/_ext/684768522/md.o
 .debug_line    0x000144b7      0x295 build/aws_demos/production/_ext/684768522/md_wrap.o
 .debug_line    0x0001474c      0x354 build/aws_demos/production/_ext/684768522/oid.o
 .debug_line    0x00014aa0      0x229 build/aws_demos/production/_ext/684768522/pem.o
 .debug_line    0x00014cc9      0x343 build/aws_demos/production/_ext/684768522/pk.o
 .debug_line    0x0001500c      0x50c build/aws_demos/production/_ext/684768522/pkparse.o
 .debug_line    0x00015518      0x3b7 build/aws_demos/production/_ext/684768522/pkwrite.o
 .debug_line    0x000158cf      0x3e9 build/aws_demos/production/_ext/684768522/pk_wrap.o
 .debug_line    0x00015cb8      0x1c3 build/aws_demos/production/_ext/684768522/platform.o
 .debug_line    0x00015e7b      0x242 build/aws_demos/production/_ext/684768522/platform_util.o
 .debug_line    0x000160bd      0x85e build/aws_demos/production/_ext/684768522/rsa.o
 .debug_line    0x0001691b      0x3b7 build/aws_demos/production/_ext/684768522/rsa_internal.o
 .debug_line    0x00016cd2      0x37d build/aws_demos/production/_ext/684768522/sha1.o
 .debug_line    0x0001704f      0x34e build/aws_demos/production/_ext/684768522/sha256.o
 .debug_line    0x0001739d      0x346 build/aws_demos/production/_ext/684768522/ssl_ciphersuites.o
 .debug_line    0x000176e3      0x7e9 build/aws_demos/production/_ext/684768522/ssl_cli.o
 .debug_line    0x00017ecc      0xe3a build/aws_demos/production/_ext/684768522/ssl_tls.o
 .debug_line    0x00018d06      0x20a build/aws_demos/production/_ext/684768522/threading.o
 .debug_line    0x00018f10      0x4ca build/aws_demos/production/_ext/684768522/x509.o
 .debug_line    0x000193da      0x88d build/aws_demos/production/_ext/684768522/x509_crt.o
 .debug_line    0x00019c67      0x2e1 build/aws_demos/production/_ext/2077790016/mbedtls_utils.o
 .debug_line    0x00019f48      0x40b build/aws_demos/production/_ext/520142351/iot_clock_freertos.o
 .debug_line    0x0001a353      0x5ac build/aws_demos/production/_ext/520142351/iot_network_freertos.o
 .debug_line    0x0001a8ff      0x43f build/aws_demos/production/_ext/520142351/iot_threads_freertos.o
 .debug_line    0x0001ad3e      0x405 build/aws_demos/production/_ext/13066905/iot_device_metrics.o
 .debug_line    0x0001b143      0x221 build/aws_demos/production/_ext/13066905/iot_init.o
 .debug_line    0x0001b364      0x3de build/aws_demos/production/_ext/227692215/iot_logging.o
 .debug_line    0x0001b742      0x34f build/aws_demos/production/_ext/227692215/iot_logging_task_dynamic_buffers.o
 .debug_line    0x0001ba91      0xbe7 build/aws_demos/production/_ext/333408969/iot_taskpool.o
 .debug_line    0x0001c678      0x997 build/aws_demos/production/_ext/1739149067/iot_mqtt_api.o
 .debug_line    0x0001d00f      0x766 build/aws_demos/production/_ext/1739149067/iot_mqtt_network.o
 .debug_line    0x0001d775      0x95c build/aws_demos/production/_ext/1739149067/iot_mqtt_operation.o
 .debug_line    0x0001e0d1      0x8cc build/aws_demos/production/_ext/1739149067/iot_mqtt_serialize.o
 .debug_line    0x0001e99d      0x751 build/aws_demos/production/_ext/1739149067/iot_mqtt_subscription.o
 .debug_line    0x0001f0ee      0x68c build/aws_demos/production/_ext/1739149067/iot_mqtt_validate.o
 .debug_line    0x0001f77a      0x44f build/aws_demos/production/_ext/350635301/iot_crypto.o
 .debug_line    0x0001fbc9      0x2ee build/aws_demos/production/_ext/2138053595/iot_pkcs11.o
 .debug_line    0x0001feb7      0x76e build/aws_demos/production/_ext/2039890517/iot_tls.o
 .debug_line    0x00020625      0x1e0 build/aws_demos/production/_ext/1120274527/iot_pki_utils.o
 .debug_line    0x00020805      0x17e build/aws_demos/production/_ext/1120274527/iot_system_init.o
 .debug_line    0x00020983      0xa5b build/aws_demos/production/_ext/1200684192/drv_ethphy.o
 .debug_line    0x000213de      0x2ea build/aws_demos/production/_ext/1200684192/drv_extphy_ksz8091.o
 .debug_line    0x000216c8      0x166 build/aws_demos/production/_ext/1843304010/plib_trng.o
 .debug_line    0x0002182e      0x3f2 build/aws_demos/production/_ext/1534684544/sys_console.o
 .debug_line    0x00021c20      0x44d build/aws_demos/production/_ext/1534684544/sys_console_uart.o
 .debug_line    0x0002206d      0x208 build/aws_demos/production/_ext/1762024984/sys_int.o
 .debug_line    0x00022275      0x24f build/aws_demos/production/_ext/1149029443/osal_freertos.o
 .debug_line    0x000224c4      0x371 build/aws_demos/production/_ext/1534096987/tasks.o
 .debug_line    0x00022835       0xd8 c:/program files/microchip/xc32/v2.40/bin/bin/../../lib/gcc/pic32c/6.2.1/../../../../pic32c/lib/v7e-m/fpv4-sp/hard\libpic32c.a(data_init.o)
 .debug_line    0x0002290d       0x9c c:/program files/microchip/xc32/v2.40/bin/bin/../../lib/gcc/pic32c/6.2.1/v7e-m/fpv4-sp/hard\libgcc.a(_aeabi_uldivmod.o)
 .debug_line    0x000229a9      0x32c c:/program files/microchip/xc32/v2.40/bin/bin/../../lib/gcc/pic32c/6.2.1/v7e-m/fpv4-sp/hard\libgcc.a(_udivmoddi4.o)
 .debug_line    0x00022cd5       0x9c c:/program files/microchip/xc32/v2.40/bin/bin/../../lib/gcc/pic32c/6.2.1/v7e-m/fpv4-sp/hard\libgcc.a(_dvmd_tls.o)
 .debug_line    0x00022d71      0x200 c:/program files/microchip/xc32/v2.40/bin/bin/../../lib/gcc/pic32c/6.2.1/../../../../pic32c/lib/v7e-m/fpv4-sp/hard\libc_nano.a(lib_a-calloc.o)
 .debug_line    0x00022f71      0x17e c:/program files/microchip/xc32/v2.40/bin/bin/../../lib/gcc/pic32c/6.2.1/../../../../pic32c/lib/v7e-m/fpv4-sp/hard\libc_nano.a(lib_a-impure.o)
 .debug_line    0x000230ef      0x11d c:/program files/microchip/xc32/v2.40/bin/bin/../../lib/gcc/pic32c/6.2.1/../../../../pic32c/lib/v7e-m/fpv4-sp/hard\libc_nano.a(lib_a-init.o)
 .debug_line    0x0002320c      0x327 c:/program files/microchip/xc32/v2.40/bin/bin/../../lib/gcc/pic32c/6.2.1/../../../../pic32c/lib/v7e-m/fpv4-sp/hard\libc_nano.a(lib_a-locale.o)
 .debug_line    0x00023533      0x21e c:/program files/microchip/xc32/v2.40/bin/bin/../../lib/gcc/pic32c/6.2.1/../../../../pic32c/lib/v7e-m/fpv4-sp/hard\libc_nano.a(lib_a-malloc.o)
 .debug_line    0x00023751      0x2d5 c:/program files/microchip/xc32/v2.40/bin/bin/../../lib/gcc/pic32c/6.2.1/../../../../pic32c/lib/v7e-m/fpv4-sp/hard\libc_nano.a(lib_a-mbtowc_r.o)
 .debug_line    0x00023a26      0x20a c:/program files/microchip/xc32/v2.40/bin/bin/../../lib/gcc/pic32c/6.2.1/../../../../pic32c/lib/v7e-m/fpv4-sp/hard\libc_nano.a(lib_a-memcmp.o)
 .debug_line    0x00023c30      0x218 c:/program files/microchip/xc32/v2.40/bin/bin/../../lib/gcc/pic32c/6.2.1/../../../../pic32c/lib/v7e-m/fpv4-sp/hard\libc_nano.a(lib_a-memcpy-stub.o)
 .debug_line    0x00023e48      0x2ba c:/program files/microchip/xc32/v2.40/bin/bin/../../lib/gcc/pic32c/6.2.1/../../../../pic32c/lib/v7e-m/fpv4-sp/hard\libc_nano.a(lib_a-memmove.o)
 .debug_line    0x00024102      0x2ae c:/program files/microchip/xc32/v2.40/bin/bin/../../lib/gcc/pic32c/6.2.1/../../../../pic32c/lib/v7e-m/fpv4-sp/hard\libc_nano.a(lib_a-memset.o)
 .debug_line    0x000243b0      0x217 c:/program files/microchip/xc32/v2.40/bin/bin/../../lib/gcc/pic32c/6.2.1/../../../../pic32c/lib/v7e-m/fpv4-sp/hard\libc_nano.a(lib_a-nano-callocr.o)
 .debug_line    0x000245c7      0x1dc c:/program files/microchip/xc32/v2.40/bin/bin/../../lib/gcc/pic32c/6.2.1/../../../../pic32c/lib/v7e-m/fpv4-sp/hard\libc_nano.a(lib_a-nano-freer.o)
 .debug_line    0x000247a3      0x257 c:/program files/microchip/xc32/v2.40/bin/bin/../../lib/gcc/pic32c/6.2.1/../../../../pic32c/lib/v7e-m/fpv4-sp/hard\libc_nano.a(lib_a-nano-mallocr.o)
 .debug_line    0x000249fa      0x43d c:/program files/microchip/xc32/v2.40/bin/bin/../../lib/gcc/pic32c/6.2.1/../../../../pic32c/lib/v7e-m/fpv4-sp/hard\libc_nano.a(lib_a-nano-vfprintf.o)
 .debug_line    0x00024e37      0x357 c:/program files/microchip/xc32/v2.40/bin/bin/../../lib/gcc/pic32c/6.2.1/../../../../pic32c/lib/v7e-m/fpv4-sp/hard\libc_nano.a(_lib_a-nano-vfprintf.s.o)
 .debug_line    0x0002518e      0x260 c:/program files/microchip/xc32/v2.40/bin/bin/../../lib/gcc/pic32c/6.2.1/../../../../pic32c/lib/v7e-m/fpv4-sp/hard\libc_nano.a(lib_a-printf.o)
 .debug_line    0x000253ee      0x245 c:/program files/microchip/xc32/v2.40/bin/bin/../../lib/gcc/pic32c/6.2.1/../../../../pic32c/lib/v7e-m/fpv4-sp/hard\libc_nano.a(lib_a-putchar.o)
 .debug_line    0x00025633      0x263 c:/program files/microchip/xc32/v2.40/bin/bin/../../lib/gcc/pic32c/6.2.1/../../../../pic32c/lib/v7e-m/fpv4-sp/hard\libc_nano.a(lib_a-putc.o)
 .debug_line    0x00025896      0x295 c:/program files/microchip/xc32/v2.40/bin/bin/../../lib/gcc/pic32c/6.2.1/../../../../pic32c/lib/v7e-m/fpv4-sp/hard\libc_nano.a(lib_a-puts.o)
 .debug_line    0x00025b2b      0x223 c:/program files/microchip/xc32/v2.40/bin/bin/../../lib/gcc/pic32c/6.2.1/../../../../pic32c/lib/v7e-m/fpv4-sp/hard\libc_nano.a(lib_a-rand.o)
 .debug_line    0x00025d4e      0x212 c:/program files/microchip/xc32/v2.40/bin/bin/../../lib/gcc/pic32c/6.2.1/../../../../pic32c/lib/v7e-m/fpv4-sp/hard\libc_nano.a(lib_a-sbrkr.o)
 .debug_line    0x00025f60      0x28e c:/program files/microchip/xc32/v2.40/bin/bin/../../lib/gcc/pic32c/6.2.1/../../../../pic32c/lib/v7e-m/fpv4-sp/hard\libc_nano.a(lib_a-snprintf.o)
 .debug_line    0x000261ee      0x272 c:/program files/microchip/xc32/v2.40/bin/bin/../../lib/gcc/pic32c/6.2.1/../../../../pic32c/lib/v7e-m/fpv4-sp/hard\libc_nano.a(lib_a-sprintf.o)
 .debug_line    0x00026460      0x264 c:/program files/microchip/xc32/v2.40/bin/bin/../../lib/gcc/pic32c/6.2.1/../../../../pic32c/lib/v7e-m/fpv4-sp/hard\libc_nano.a(_lib_a-sscanf.cdnopsuxX.o)
 .debug_line    0x000266c4      0x364 c:/program files/microchip/xc32/v2.40/bin/bin/../../lib/gcc/pic32c/6.2.1/../../../../pic32c/lib/v7e-m/fpv4-sp/hard\libc_nano.a(lib_a-__ssfputs.o)
 .debug_line    0x00026a28      0x2a9 c:/program files/microchip/xc32/v2.40/bin/bin/../../lib/gcc/pic32c/6.2.1/../../../../pic32c/lib/v7e-m/fpv4-sp/hard\libc_nano.a(lib_a-stdio.o)
 .debug_line    0x00026cd1       0xb1 c:/program files/microchip/xc32/v2.40/bin/bin/../../lib/gcc/pic32c/6.2.1/../../../../pic32c/lib/v7e-m/fpv4-sp/hard\libc_nano.a(lib_a-strcmp.o)
 .debug_line    0x00026d82      0x205 c:/program files/microchip/xc32/v2.40/bin/bin/../../lib/gcc/pic32c/6.2.1/../../../../pic32c/lib/v7e-m/fpv4-sp/hard\libc_nano.a(lib_a-strcpy.o)
 .debug_line    0x00026f87       0xb1 c:/program files/microchip/xc32/v2.40/bin/bin/../../lib/gcc/pic32c/6.2.1/../../../../pic32c/lib/v7e-m/fpv4-sp/hard\libc_nano.a(lib_a-strlen.o)
 .debug_line    0x00027038      0x20e c:/program files/microchip/xc32/v2.40/bin/bin/../../lib/gcc/pic32c/6.2.1/../../../../pic32c/lib/v7e-m/fpv4-sp/hard\libc_nano.a(lib_a-strncmp.o)
 .debug_line    0x00027246      0x20e c:/program files/microchip/xc32/v2.40/bin/bin/../../lib/gcc/pic32c/6.2.1/../../../../pic32c/lib/v7e-m/fpv4-sp/hard\libc_nano.a(lib_a-strncpy.o)
 .debug_line    0x00027454      0x20c c:/program files/microchip/xc32/v2.40/bin/bin/../../lib/gcc/pic32c/6.2.1/../../../../pic32c/lib/v7e-m/fpv4-sp/hard\libc_nano.a(lib_a-strstr.o)
 .debug_line    0x00027660      0x33e c:/program files/microchip/xc32/v2.40/bin/bin/../../lib/gcc/pic32c/6.2.1/../../../../pic32c/lib/v7e-m/fpv4-sp/hard\libc_nano.a(lib_a-strtol.o)
 .debug_line    0x0002799e      0x339 c:/program files/microchip/xc32/v2.40/bin/bin/../../lib/gcc/pic32c/6.2.1/../../../../pic32c/lib/v7e-m/fpv4-sp/hard\libc_nano.a(lib_a-strtoul.o)
 .debug_line    0x00027cd7      0x26f c:/program files/microchip/xc32/v2.40/bin/bin/../../lib/gcc/pic32c/6.2.1/../../../../pic32c/lib/v7e-m/fpv4-sp/hard\libc_nano.a(lib_a-vsnprintf.o)
 .debug_line    0x00027f46      0x277 c:/program files/microchip/xc32/v2.40/bin/bin/../../lib/gcc/pic32c/6.2.1/../../../../pic32c/lib/v7e-m/fpv4-sp/hard\libc_nano.a(lib_a-wbuf.o)
 .debug_line    0x000281bd      0x2d4 c:/program files/microchip/xc32/v2.40/bin/bin/../../lib/gcc/pic32c/6.2.1/../../../../pic32c/lib/v7e-m/fpv4-sp/hard\libc_nano.a(lib_a-wctomb_r.o)
 .debug_line    0x00028491      0x212 c:/program files/microchip/xc32/v2.40/bin/bin/../../lib/gcc/pic32c/6.2.1/../../../../pic32c/lib/v7e-m/fpv4-sp/hard\libc_nano.a(lib_a-writer.o)
 .debug_line    0x000286a3      0x260 c:/program files/microchip/xc32/v2.40/bin/bin/../../lib/gcc/pic32c/6.2.1/../../../../pic32c/lib/v7e-m/fpv4-sp/hard\libc_nano.a(lib_a-wsetup.o)
 .debug_line    0x00028903      0x213 c:/program files/microchip/xc32/v2.40/bin/bin/../../lib/gcc/pic32c/6.2.1/../../../../pic32c/lib/v7e-m/fpv4-sp/hard\libc_nano.a(lib_a-closer.o)
 .debug_line    0x00028b16      0x21e c:/program files/microchip/xc32/v2.40/bin/bin/../../lib/gcc/pic32c/6.2.1/../../../../pic32c/lib/v7e-m/fpv4-sp/hard\libc_nano.a(lib_a-ctype_.o)
 .debug_line    0x00028d34      0x2cc c:/program files/microchip/xc32/v2.40/bin/bin/../../lib/gcc/pic32c/6.2.1/../../../../pic32c/lib/v7e-m/fpv4-sp/hard\libc_nano.a(lib_a-fflush.o)
 .debug_line    0x00029000      0x301 c:/program files/microchip/xc32/v2.40/bin/bin/../../lib/gcc/pic32c/6.2.1/../../../../pic32c/lib/v7e-m/fpv4-sp/hard\libc_nano.a(lib_a-findfp.o)
 .debug_line    0x00029301      0x2a8 c:/program files/microchip/xc32/v2.40/bin/bin/../../lib/gcc/pic32c/6.2.1/../../../../pic32c/lib/v7e-m/fpv4-sp/hard\libc_nano.a(lib_a-fputwc.o)
 .debug_line    0x000295a9      0x265 c:/program files/microchip/xc32/v2.40/bin/bin/../../lib/gcc/pic32c/6.2.1/../../../../pic32c/lib/v7e-m/fpv4-sp/hard\libc_nano.a(lib_a-fwalk.o)
 .debug_line    0x0002980e      0x212 c:/program files/microchip/xc32/v2.40/bin/bin/../../lib/gcc/pic32c/6.2.1/../../../../pic32c/lib/v7e-m/fpv4-sp/hard\libc_nano.a(lib_a-lseekr.o)
 .debug_line    0x00029a20      0x32c c:/program files/microchip/xc32/v2.40/bin/bin/../../lib/gcc/pic32c/6.2.1/../../../../pic32c/lib/v7e-m/fpv4-sp/hard\libc_nano.a(lib_a-makebuf.o)
 .debug_line    0x00029d4c       0xda c:/program files/microchip/xc32/v2.40/bin/bin/../../lib/gcc/pic32c/6.2.1/../../../../pic32c/lib/v7e-m/fpv4-sp/hard\libc_nano.a(lib_a-memchr.o)
 .debug_line    0x00029e26      0x18d c:/program files/microchip/xc32/v2.40/bin/bin/../../lib/gcc/pic32c/6.2.1/../../../../pic32c/lib/v7e-m/fpv4-sp/hard\libc_nano.a(lib_a-mlock.o)
 .debug_line    0x00029fb3      0x41a c:/program files/microchip/xc32/v2.40/bin/bin/../../lib/gcc/pic32c/6.2.1/../../../../pic32c/lib/v7e-m/fpv4-sp/hard\libc_nano.a(lib_a-nano-svfprintf.o)
 .debug_line    0x0002a3cd      0x48d c:/program files/microchip/xc32/v2.40/bin/bin/../../lib/gcc/pic32c/6.2.1/../../../../pic32c/lib/v7e-m/fpv4-sp/hard\libc_nano.a(lib_a-nano-vfprintf_i.o)
 .debug_line    0x0002a85a      0x5a9 c:/program files/microchip/xc32/v2.40/bin/bin/../../lib/gcc/pic32c/6.2.1/../../../../pic32c/lib/v7e-m/fpv4-sp/hard\libc_nano.a(_lib_a-nano-vfscanf.cdnopsuxX.o)
 .debug_line    0x0002ae03      0x211 c:/program files/microchip/xc32/v2.40/bin/bin/../../lib/gcc/pic32c/6.2.1/../../../../pic32c/lib/v7e-m/fpv4-sp/hard\libc_nano.a(lib_a-readr.o)
 .debug_line    0x0002b014      0x241 c:/program files/microchip/xc32/v2.40/bin/bin/../../lib/gcc/pic32c/6.2.1/../../../../pic32c/lib/v7e-m/fpv4-sp/hard\libc_nano.a(lib_a-reent.o)
 .debug_line    0x0002b255      0x290 c:/program files/microchip/xc32/v2.40/bin/bin/../../lib/gcc/pic32c/6.2.1/../../../../pic32c/lib/v7e-m/fpv4-sp/hard\libc_nano.a(lib_a-refill.o)
 .debug_line    0x0002b4e5      0x240 c:/program files/microchip/xc32/v2.40/bin/bin/../../lib/gcc/pic32c/6.2.1/../../../../pic32c/lib/v7e-m/fpv4-sp/hard\libc_nano.a(lib_a-sccl.o)
 .debug_line    0x0002b725      0x385 c:/program files/microchip/xc32/v2.40/bin/bin/../../lib/gcc/pic32c/6.2.1/../../../../pic32c/lib/v7e-m/fpv4-sp/hard\libc_nano.a(lib_a-__ssputs.o)
 .debug_line    0x0002baaa      0x2b5 c:/program files/microchip/xc32/v2.40/bin/bin/../../lib/gcc/pic32c/6.2.1/../../../../pic32c/lib/v7e-m/fpv4-sp/hard\libc_nano.a(lib_a-ungetc.o)
 .debug_line    0x0002bd5f      0x2db c:/program files/microchip/xc32/v2.40/bin/bin/../../lib/gcc/pic32c/6.2.1/../../../../pic32c/lib/v7e-m/fpv4-sp/hard\libc_nano.a(lib_a-wcrtomb.o)
 .debug_line    0x0002c03a      0x2c1 c:/program files/microchip/xc32/v2.40/bin/bin/../../lib/gcc/pic32c/6.2.1/../../../../pic32c/lib/v7e-m/fpv4-sp/hard\libc_nano.a(lib_a-fstatr.o)
 .debug_line    0x0002c2fb      0x214 c:/program files/microchip/xc32/v2.40/bin/bin/../../lib/gcc/pic32c/6.2.1/../../../../pic32c/lib/v7e-m/fpv4-sp/hard\libc_nano.a(lib_a-isattyr.o)
 .debug_line    0x0002c50f      0x229 c:/program files/microchip/xc32/v2.40/bin/bin/../../lib/gcc/pic32c/6.2.1/../../../../pic32c/lib/v7e-m/fpv4-sp/hard\libc_nano.a(lib_a-nano-reallocr.o)
 .debug_line    0x0002c738      0x1a4 c:/program files/microchip/xc32/v2.40/bin/bin/../../lib/gcc/pic32c/6.2.1/../../../../pic32c/lib/v7e-m/fpv4-sp/hard\libc_nano.a(lib_a-nano-msizer.o)
 .debug_line    0x0002c8dc       0x9c c:/program files/microchip/xc32/v2.40/bin/bin/../../lib/gcc/pic32c/6.2.1/../../../../pic32c/lib/v7e-m/fpv4-sp/hard\libpic32c.a(_close.o)
 .debug_line    0x0002c978       0x9c c:/program files/microchip/xc32/v2.40/bin/bin/../../lib/gcc/pic32c/6.2.1/../../../../pic32c/lib/v7e-m/fpv4-sp/hard\libpic32c.a(_fstat.o)
 .debug_line    0x0002ca14       0x9d c:/program files/microchip/xc32/v2.40/bin/bin/../../lib/gcc/pic32c/6.2.1/../../../../pic32c/lib/v7e-m/fpv4-sp/hard\libpic32c.a(_isatty.o)
 .debug_line    0x0002cab1       0x9c c:/program files/microchip/xc32/v2.40/bin/bin/../../lib/gcc/pic32c/6.2.1/../../../../pic32c/lib/v7e-m/fpv4-sp/hard\libpic32c.a(_lseek.o)
 .debug_line    0x0002cb4d       0x9b c:/program files/microchip/xc32/v2.40/bin/bin/../../lib/gcc/pic32c/6.2.1/../../../../pic32c/lib/v7e-m/fpv4-sp/hard\libpic32c.a(_read.o)
 .debug_line    0x0002cbe8       0xa2 c:/program files/microchip/xc32/v2.40/bin/bin/../../lib/gcc/pic32c/6.2.1/../../../../pic32c/lib/v7e-m/fpv4-sp/hard\libpic32c.a(sbrk.o)
 .debug_line    0x0002cc8a       0x9c c:/program files/microchip/xc32/v2.40/bin/bin/../../lib/gcc/pic32c/6.2.1/../../../../pic32c/lib/v7e-m/fpv4-sp/hard\libpic32c.a(_write.o)
 .debug_line    0x0002cd26       0x9b c:/program files/microchip/xc32/v2.40/bin/bin/../../lib/gcc/pic32c/6.2.1/../../../../pic32c/lib/v7e-m/fpv4-sp/hard\libpic32c.a(close.o)
 .debug_line    0x0002cdc1      0x102 c:/program files/microchip/xc32/v2.40/bin/bin/../../lib/gcc/pic32c/6.2.1/../../../../pic32c/lib/v7e-m/fpv4-sp/hard\libpic32c.a(fstat.o)
 .debug_line    0x0002cec3       0x9c c:/program files/microchip/xc32/v2.40/bin/bin/../../lib/gcc/pic32c/6.2.1/../../../../pic32c/lib/v7e-m/fpv4-sp/hard\libpic32c.a(isatty.o)
 .debug_line    0x0002cf5f       0x9b c:/program files/microchip/xc32/v2.40/bin/bin/../../lib/gcc/pic32c/6.2.1/../../../../pic32c/lib/v7e-m/fpv4-sp/hard\libpic32c.a(lseek.o)
 .debug_line    0x0002cffa       0xad c:/program files/microchip/xc32/v2.40/bin/bin/../../lib/gcc/pic32c/6.2.1/../../../../pic32c/lib/v7e-m/fpv4-sp/hard\libpic32c.a(read.o)
 .debug_line    0x0002d0a7       0xb4 c:/program files/microchip/xc32/v2.40/bin/bin/../../lib/gcc/pic32c/6.2.1/../../../../pic32c/lib/v7e-m/fpv4-sp/hard\libpic32c.a(write.o)

.debug_str      0x00000000     0xcce3
 .debug_str     0x00000000      0x36e build/aws_demos/production/_ext/1319661984/drv_gmac.o
 .debug_str     0x0000036e      0x19c build/aws_demos/production/_ext/1319661984/drv_gmac_lib_samE5x.o
 .debug_str     0x0000050a       0x29 build/aws_demos/production/_ext/665618993/plib_nvmctrl.o
 .debug_str     0x00000533      0x12c build/aws_demos/production/_ext/731420310/plib_sercom2_usart.o
 .debug_str     0x0000065f        0x0 build/aws_demos/production/_ext/1321577635/plib_evsys.o
 .debug_str     0x0000065f       0xc7 build/aws_demos/production/_ext/1991396724/sys_command.o
 .debug_str     0x00000726      0x1c8 build/aws_demos/production/_ext/731420310/plib_sercom6_usart.o
 .debug_str     0x000008ee      0x12a build/aws_demos/production/_ext/1360937237/main.o
 .debug_str     0x00000a18      0x192 build/aws_demos/production/_ext/1534096987/initialization.o
 .debug_str     0x00000baa       0x23 build/aws_demos/production/_ext/1534096987/interrupts.o
 .debug_str     0x00000bcd       0x23 build/aws_demos/production/_ext/1534096987/exceptions.o
 .debug_str     0x00000bf0       0x4a build/aws_demos/production/_ext/1263901141/xc32_monitor.o
 .debug_str     0x00000c3a        0xb build/aws_demos/production/_ext/1843425920/plib_port.o
 .debug_str     0x00000c45       0x1e build/aws_demos/production/_ext/1323727121/plib_clock.o
 .debug_str     0x00000c63        0xa build/aws_demos/production/_ext/1843479071/plib_nvic.o
 .debug_str     0x00000c6d       0x8e build/aws_demos/production/_ext/1534096987/startup_xc32.o
 .debug_str     0x00000cfb       0x34 build/aws_demos/production/_ext/1385882503/port.o
 .debug_str     0x00000d2f       0xd4 build/aws_demos/production/_ext/1168480030/heap_4.o
 .debug_str     0x00000e03      0x928 build/aws_demos/production/_ext/112156576/iot_pkcs11_mbedtls.o
 .debug_str     0x0000172b      0x32c build/aws_demos/production/_ext/366737/iot_secure_sockets.o
 .debug_str     0x00001a57      0x14b build/aws_demos/production/_ext/1682906662/FreeRTOS_ARP.o
 .debug_str     0x00001ba2      0x1d2 build/aws_demos/production/_ext/1682906662/FreeRTOS_DHCP.o
 .debug_str     0x00001d74      0x1f0 build/aws_demos/production/_ext/1682906662/FreeRTOS_DNS.o
 .debug_str     0x00001f64      0x48e build/aws_demos/production/_ext/1682906662/FreeRTOS_IP.o
 .debug_str     0x000023f2      0x42e build/aws_demos/production/_ext/1682906662/FreeRTOS_Sockets.o
 .debug_str     0x00002820       0x4c build/aws_demos/production/_ext/1682906662/FreeRTOS_Stream_Buffer.o
 .debug_str     0x0000286c      0x3c5 build/aws_demos/production/_ext/1682906662/FreeRTOS_TCP_IP.o
 .debug_str     0x00002c31       0xb5 build/aws_demos/production/_ext/1682906662/FreeRTOS_TCP_WIN.o
 .debug_str     0x00002ce6      0x1c2 build/aws_demos/production/_ext/1682906662/FreeRTOS_UDP_IP.o
 .debug_str     0x00002ea8      0x14a build/aws_demos/production/_ext/1778494626/BufferAllocation_2.o
 .debug_str     0x00002ff2      0x358 build/aws_demos/production/_ext/1778494626/NetworkInterface_eth.o
 .debug_str     0x0000334a       0xf4 build/aws_demos/production/_ext/1972722184/iot_pkcs11_pal.o
 .debug_str     0x0000343e       0xc4 build/aws_demos/production/_ext/1972722184/pkcs11_nvm.o
 .debug_str     0x00003502       0x21 build/aws_demos/production/_ext/197858987/helpers.o
 .debug_str     0x00003523       0x6d build/aws_demos/production/_ext/197858987/tcpip_heap_alloc.o
 .debug_str     0x00003590       0x9b build/aws_demos/production/_ext/197858987/tcpip_heap_external.o
 .debug_str     0x0000362b      0x10c build/aws_demos/production/_ext/197858987/tcpip_helpers.o
 .debug_str     0x00003737       0x21 build/aws_demos/production/_ext/197858987/tcpip_packet.o
 .debug_str     0x00003758        0x9 build/aws_demos/production/_ext/59476128/plib_eic.o
 .debug_str     0x00003761      0x2b0 build/aws_demos/production/_ext/211704168/drv_miim.o
 .debug_str     0x00003a11       0xbb build/aws_demos/production/_ext/1110296786/plib_tc3.o
 .debug_str     0x00003acc      0x16e build/aws_demos/production/_ext/484134862/sys_time.o
 .debug_str     0x00003c3a        0x0 build/aws_demos/production/_ext/1223942466/aws_demo.o
 .debug_str     0x00003c3a       0x10 build/aws_demos/production/_ext/1223942466/aws_demo_network_addr.o
 .debug_str     0x00003c4a      0x243 build/aws_demos/production/_ext/1223942466/iot_demo_freertos.o
 .debug_str     0x00003e8d       0x27 build/aws_demos/production/_ext/1223942466/iot_demo_runner.o
 .debug_str     0x00003eb4      0x427 build/aws_demos/production/_ext/198771642/aws_dev_mode_key_provisioning.o
 .debug_str     0x000042db      0x224 build/aws_demos/production/_ext/1441508942/iot_demo_mqtt.o
 .debug_str     0x000044ff       0xf2 build/aws_demos/production/_ext/2040524622/aws_iot_network_manager.o
 .debug_str     0x000045f1      0x221 build/aws_demos/production/_ext/811507611/event_groups.o
 .debug_str     0x00004812       0x39 build/aws_demos/production/_ext/811507611/list.o
 .debug_str     0x0000484b      0x36d build/aws_demos/production/_ext/811507611/queue.o
 .debug_str     0x00004bb8      0x364 build/aws_demos/production/_ext/811507611/tasks.o
 .debug_str     0x00004f1c      0x2dc build/aws_demos/production/_ext/811507611/timers.o
 .debug_str     0x000051f8       0x8a build/aws_demos/production/_ext/684768522/aes.o
 .debug_str     0x00005282       0xbd build/aws_demos/production/_ext/684768522/asn1parse.o
 .debug_str     0x0000533f       0xa0 build/aws_demos/production/_ext/684768522/asn1write.o
 .debug_str     0x000053df        0xe build/aws_demos/production/_ext/684768522/base64.o
 .debug_str     0x000053ed       0x9e build/aws_demos/production/_ext/684768522/bignum.o
 .debug_str     0x0000548b      0x17a build/aws_demos/production/_ext/684768522/cipher.o
 .debug_str     0x00005605      0x1ab build/aws_demos/production/_ext/684768522/cipher_wrap.o
 .debug_str     0x000057b0       0xea build/aws_demos/production/_ext/684768522/ctr_drbg.o
 .debug_str     0x0000589a      0x23b build/aws_demos/production/_ext/684768522/ecdh.o
 .debug_str     0x00005ad5      0x2e5 build/aws_demos/production/_ext/684768522/ecdsa.o
 .debug_str     0x00005dba      0x312 build/aws_demos/production/_ext/684768522/ecp.o
 .debug_str     0x000060cc       0x8d build/aws_demos/production/_ext/684768522/ecp_curves.o
 .debug_str     0x00006159      0x13d build/aws_demos/production/_ext/684768522/entropy.o
 .debug_str     0x00006296      0x15b build/aws_demos/production/_ext/684768522/gcm.o
 .debug_str     0x000063f1       0x7f build/aws_demos/production/_ext/684768522/md.o
 .debug_str     0x00006470      0x1d0 build/aws_demos/production/_ext/684768522/md_wrap.o
 .debug_str     0x00006640       0x96 build/aws_demos/production/_ext/684768522/oid.o
 .debug_str     0x000066d6       0x6d build/aws_demos/production/_ext/684768522/pem.o
 .debug_str     0x00006743       0xea build/aws_demos/production/_ext/684768522/pk.o
 .debug_str     0x0000682d      0x31d build/aws_demos/production/_ext/684768522/pkparse.o
 .debug_str     0x00006b4a      0x1f5 build/aws_demos/production/_ext/684768522/pkwrite.o
 .debug_str     0x00006d3f      0x295 build/aws_demos/production/_ext/684768522/pk_wrap.o
 .debug_str     0x00006fd4       0x27 build/aws_demos/production/_ext/684768522/platform.o
 .debug_str     0x00006ffb        0xe build/aws_demos/production/_ext/684768522/platform_util.o
 .debug_str     0x00007009      0x3ab build/aws_demos/production/_ext/684768522/rsa.o
 .debug_str     0x000073b4      0x16a build/aws_demos/production/_ext/684768522/rsa_internal.o
 .debug_str     0x0000751e       0x4f build/aws_demos/production/_ext/684768522/sha1.o
 .debug_str     0x0000756d       0x6d build/aws_demos/production/_ext/684768522/sha256.o
 .debug_str     0x000075da       0x52 build/aws_demos/production/_ext/684768522/ssl_ciphersuites.o
 .debug_str     0x0000762c      0x6ce build/aws_demos/production/_ext/684768522/ssl_cli.o
 .debug_str     0x00007cfa      0x888 build/aws_demos/production/_ext/684768522/ssl_tls.o
 .debug_str     0x00008582        0xe build/aws_demos/production/_ext/684768522/threading.o
 .debug_str     0x00008590      0x16e build/aws_demos/production/_ext/684768522/x509.o
 .debug_str     0x000086fe      0x5c4 build/aws_demos/production/_ext/684768522/x509_crt.o
 .debug_str     0x00008cc2       0x97 build/aws_demos/production/_ext/2077790016/mbedtls_utils.o
 .debug_str     0x00008d59       0xc8 build/aws_demos/production/_ext/520142351/iot_clock_freertos.o
 .debug_str     0x00008e21      0x238 build/aws_demos/production/_ext/520142351/iot_network_freertos.o
 .debug_str     0x00009059      0x176 build/aws_demos/production/_ext/520142351/iot_threads_freertos.o
 .debug_str     0x000091cf       0x6a build/aws_demos/production/_ext/13066905/iot_device_metrics.o
 .debug_str     0x00009239       0x62 build/aws_demos/production/_ext/13066905/iot_init.o
 .debug_str     0x0000929b       0x89 build/aws_demos/production/_ext/227692215/iot_logging.o
 .debug_str     0x00009324       0xdd build/aws_demos/production/_ext/227692215/iot_logging_task_dynamic_buffers.o
 .debug_str     0x00009401      0x273 build/aws_demos/production/_ext/333408969/iot_taskpool.o
 .debug_str     0x00009674      0x4f2 build/aws_demos/production/_ext/1739149067/iot_mqtt_api.o
 .debug_str     0x00009b66      0x2a0 build/aws_demos/production/_ext/1739149067/iot_mqtt_network.o
 .debug_str     0x00009e06      0x2d6 build/aws_demos/production/_ext/1739149067/iot_mqtt_operation.o
 .debug_str     0x0000a0dc      0x26f build/aws_demos/production/_ext/1739149067/iot_mqtt_serialize.o
 .debug_str     0x0000a34b      0x186 build/aws_demos/production/_ext/1739149067/iot_mqtt_subscription.o
 .debug_str     0x0000a4d1       0x90 build/aws_demos/production/_ext/1739149067/iot_mqtt_validate.o
 .debug_str     0x0000a561      0x324 build/aws_demos/production/_ext/350635301/iot_crypto.o
 .debug_str     0x0000a885      0x129 build/aws_demos/production/_ext/2138053595/iot_pkcs11.o
 .debug_str     0x0000a9ae      0x5b0 build/aws_demos/production/_ext/2039890517/iot_tls.o
 .debug_str     0x0000af5e        0xe build/aws_demos/production/_ext/1120274527/iot_pki_utils.o
 .debug_str     0x0000af6c       0x19 build/aws_demos/production/_ext/1120274527/iot_system_init.o
 .debug_str     0x0000af85      0x471 build/aws_demos/production/_ext/1200684192/drv_ethphy.o
 .debug_str     0x0000b3f6       0x42 build/aws_demos/production/_ext/1200684192/drv_extphy_ksz8091.o
 .debug_str     0x0000b438        0x0 build/aws_demos/production/_ext/1843304010/plib_trng.o
 .debug_str     0x0000b438       0x66 build/aws_demos/production/_ext/1534684544/sys_console.o
 .debug_str     0x0000b49e       0xd6 build/aws_demos/production/_ext/1534684544/sys_console_uart.o
 .debug_str     0x0000b574       0x10 build/aws_demos/production/_ext/1762024984/sys_int.o
 .debug_str     0x0000b584      0x124 build/aws_demos/production/_ext/1149029443/osal_freertos.o
 .debug_str     0x0000b6a8       0x64 build/aws_demos/production/_ext/1534096987/tasks.o
 .debug_str     0x0000b70c        0x0 c:/program files/microchip/xc32/v2.40/bin/bin/../../lib/gcc/pic32c/6.2.1/../../../../pic32c/lib/v7e-m/fpv4-sp/hard\libpic32c.a(data_init.o)
 .debug_str     0x0000b70c        0x0 c:/program files/microchip/xc32/v2.40/bin/bin/../../lib/gcc/pic32c/6.2.1/v7e-m/fpv4-sp/hard\libgcc.a(_udivmoddi4.o)
 .debug_str     0x0000b70c       0x13 c:/program files/microchip/xc32/v2.40/bin/bin/../../lib/gcc/pic32c/6.2.1/../../../../pic32c/lib/v7e-m/fpv4-sp/hard\libc_nano.a(lib_a-calloc.o)
 .debug_str     0x0000b71f        0x9 c:/program files/microchip/xc32/v2.40/bin/bin/../../lib/gcc/pic32c/6.2.1/../../../../pic32c/lib/v7e-m/fpv4-sp/hard\libc_nano.a(lib_a-impure.o)
 .debug_str     0x0000b728        0x0 c:/program files/microchip/xc32/v2.40/bin/bin/../../lib/gcc/pic32c/6.2.1/../../../../pic32c/lib/v7e-m/fpv4-sp/hard\libc_nano.a(lib_a-init.o)
 .debug_str     0x0000b728      0x134 c:/program files/microchip/xc32/v2.40/bin/bin/../../lib/gcc/pic32c/6.2.1/../../../../pic32c/lib/v7e-m/fpv4-sp/hard\libc_nano.a(lib_a-locale.o)
 .debug_str     0x0000b85c       0x13 c:/program files/microchip/xc32/v2.40/bin/bin/../../lib/gcc/pic32c/6.2.1/../../../../pic32c/lib/v7e-m/fpv4-sp/hard\libc_nano.a(lib_a-malloc.o)
 .debug_str     0x0000b86f      0x114 c:/program files/microchip/xc32/v2.40/bin/bin/../../lib/gcc/pic32c/6.2.1/../../../../pic32c/lib/v7e-m/fpv4-sp/hard\libc_nano.a(lib_a-mbtowc_r.o)
 .debug_str     0x0000b983        0x9 c:/program files/microchip/xc32/v2.40/bin/bin/../../lib/gcc/pic32c/6.2.1/../../../../pic32c/lib/v7e-m/fpv4-sp/hard\libc_nano.a(lib_a-memcmp.o)
 .debug_str     0x0000b98c        0x9 c:/program files/microchip/xc32/v2.40/bin/bin/../../lib/gcc/pic32c/6.2.1/../../../../pic32c/lib/v7e-m/fpv4-sp/hard\libc_nano.a(lib_a-memcpy-stub.o)
 .debug_str     0x0000b995      0x114 c:/program files/microchip/xc32/v2.40/bin/bin/../../lib/gcc/pic32c/6.2.1/../../../../pic32c/lib/v7e-m/fpv4-sp/hard\libc_nano.a(lib_a-memmove.o)
 .debug_str     0x0000baa9      0x114 c:/program files/microchip/xc32/v2.40/bin/bin/../../lib/gcc/pic32c/6.2.1/../../../../pic32c/lib/v7e-m/fpv4-sp/hard\libc_nano.a(lib_a-memset.o)
 .debug_str     0x0000bbbd       0x13 c:/program files/microchip/xc32/v2.40/bin/bin/../../lib/gcc/pic32c/6.2.1/../../../../pic32c/lib/v7e-m/fpv4-sp/hard\libc_nano.a(lib_a-nano-callocr.o)
 .debug_str     0x0000bbd0       0x27 c:/program files/microchip/xc32/v2.40/bin/bin/../../lib/gcc/pic32c/6.2.1/../../../../pic32c/lib/v7e-m/fpv4-sp/hard\libc_nano.a(lib_a-nano-freer.o)
 .debug_str     0x0000bbf7       0x31 c:/program files/microchip/xc32/v2.40/bin/bin/../../lib/gcc/pic32c/6.2.1/../../../../pic32c/lib/v7e-m/fpv4-sp/hard\libc_nano.a(lib_a-nano-mallocr.o)
 .debug_str     0x0000bc28      0x144 c:/program files/microchip/xc32/v2.40/bin/bin/../../lib/gcc/pic32c/6.2.1/../../../../pic32c/lib/v7e-m/fpv4-sp/hard\libc_nano.a(lib_a-nano-vfprintf.o)
 .debug_str     0x0000bd6c      0x13b c:/program files/microchip/xc32/v2.40/bin/bin/../../lib/gcc/pic32c/6.2.1/../../../../pic32c/lib/v7e-m/fpv4-sp/hard\libc_nano.a(_lib_a-nano-vfprintf.s.o)
 .debug_str     0x0000bea7       0x15 c:/program files/microchip/xc32/v2.40/bin/bin/../../lib/gcc/pic32c/6.2.1/../../../../pic32c/lib/v7e-m/fpv4-sp/hard\libc_nano.a(lib_a-printf.o)
 .debug_str     0x0000bebc        0x9 c:/program files/microchip/xc32/v2.40/bin/bin/../../lib/gcc/pic32c/6.2.1/../../../../pic32c/lib/v7e-m/fpv4-sp/hard\libc_nano.a(lib_a-putchar.o)
 .debug_str     0x0000bec5       0x13 c:/program files/microchip/xc32/v2.40/bin/bin/../../lib/gcc/pic32c/6.2.1/../../../../pic32c/lib/v7e-m/fpv4-sp/hard\libc_nano.a(lib_a-putc.o)
 .debug_str     0x0000bed8       0x1f c:/program files/microchip/xc32/v2.40/bin/bin/../../lib/gcc/pic32c/6.2.1/../../../../pic32c/lib/v7e-m/fpv4-sp/hard\libc_nano.a(lib_a-puts.o)
 .debug_str     0x0000bef7        0x9 c:/program files/microchip/xc32/v2.40/bin/bin/../../lib/gcc/pic32c/6.2.1/../../../../pic32c/lib/v7e-m/fpv4-sp/hard\libc_nano.a(lib_a-rand.o)
 .debug_str     0x0000bf00        0x9 c:/program files/microchip/xc32/v2.40/bin/bin/../../lib/gcc/pic32c/6.2.1/../../../../pic32c/lib/v7e-m/fpv4-sp/hard\libc_nano.a(lib_a-sbrkr.o)
 .debug_str     0x0000bf09       0x16 c:/program files/microchip/xc32/v2.40/bin/bin/../../lib/gcc/pic32c/6.2.1/../../../../pic32c/lib/v7e-m/fpv4-sp/hard\libc_nano.a(lib_a-snprintf.o)
 .debug_str     0x0000bf1f       0x16 c:/program files/microchip/xc32/v2.40/bin/bin/../../lib/gcc/pic32c/6.2.1/../../../../pic32c/lib/v7e-m/fpv4-sp/hard\libc_nano.a(lib_a-sprintf.o)
 .debug_str     0x0000bf35       0x1c c:/program files/microchip/xc32/v2.40/bin/bin/../../lib/gcc/pic32c/6.2.1/../../../../pic32c/lib/v7e-m/fpv4-sp/hard\libc_nano.a(_lib_a-sscanf.cdnopsuxX.o)
 .debug_str     0x0000bf51      0x128 c:/program files/microchip/xc32/v2.40/bin/bin/../../lib/gcc/pic32c/6.2.1/../../../../pic32c/lib/v7e-m/fpv4-sp/hard\libc_nano.a(lib_a-__ssfputs.o)
 .debug_str     0x0000c079       0x2b c:/program files/microchip/xc32/v2.40/bin/bin/../../lib/gcc/pic32c/6.2.1/../../../../pic32c/lib/v7e-m/fpv4-sp/hard\libc_nano.a(lib_a-stdio.o)
 .debug_str     0x0000c0a4        0x9 c:/program files/microchip/xc32/v2.40/bin/bin/../../lib/gcc/pic32c/6.2.1/../../../../pic32c/lib/v7e-m/fpv4-sp/hard\libc_nano.a(lib_a-strcpy.o)
 .debug_str     0x0000c0ad        0x9 c:/program files/microchip/xc32/v2.40/bin/bin/../../lib/gcc/pic32c/6.2.1/../../../../pic32c/lib/v7e-m/fpv4-sp/hard\libc_nano.a(lib_a-strncmp.o)
 .debug_str     0x0000c0b6        0x9 c:/program files/microchip/xc32/v2.40/bin/bin/../../lib/gcc/pic32c/6.2.1/../../../../pic32c/lib/v7e-m/fpv4-sp/hard\libc_nano.a(lib_a-strncpy.o)
 .debug_str     0x0000c0bf        0x9 c:/program files/microchip/xc32/v2.40/bin/bin/../../lib/gcc/pic32c/6.2.1/../../../../pic32c/lib/v7e-m/fpv4-sp/hard\libc_nano.a(lib_a-strstr.o)
 .debug_str     0x0000c0c8      0x129 c:/program files/microchip/xc32/v2.40/bin/bin/../../lib/gcc/pic32c/6.2.1/../../../../pic32c/lib/v7e-m/fpv4-sp/hard\libc_nano.a(lib_a-strtol.o)
 .debug_str     0x0000c1f1      0x129 c:/program files/microchip/xc32/v2.40/bin/bin/../../lib/gcc/pic32c/6.2.1/../../../../pic32c/lib/v7e-m/fpv4-sp/hard\libc_nano.a(lib_a-strtoul.o)
 .debug_str     0x0000c31a       0x16 c:/program files/microchip/xc32/v2.40/bin/bin/../../lib/gcc/pic32c/6.2.1/../../../../pic32c/lib/v7e-m/fpv4-sp/hard\libc_nano.a(lib_a-vsnprintf.o)
 .debug_str     0x0000c330       0x1f c:/program files/microchip/xc32/v2.40/bin/bin/../../lib/gcc/pic32c/6.2.1/../../../../pic32c/lib/v7e-m/fpv4-sp/hard\libc_nano.a(lib_a-wbuf.o)
 .debug_str     0x0000c34f      0x114 c:/program files/microchip/xc32/v2.40/bin/bin/../../lib/gcc/pic32c/6.2.1/../../../../pic32c/lib/v7e-m/fpv4-sp/hard\libc_nano.a(lib_a-wctomb_r.o)
 .debug_str     0x0000c463       0x10 c:/program files/microchip/xc32/v2.40/bin/bin/../../lib/gcc/pic32c/6.2.1/../../../../pic32c/lib/v7e-m/fpv4-sp/hard\libc_nano.a(lib_a-writer.o)
 .debug_str     0x0000c473       0x16 c:/program files/microchip/xc32/v2.40/bin/bin/../../lib/gcc/pic32c/6.2.1/../../../../pic32c/lib/v7e-m/fpv4-sp/hard\libc_nano.a(lib_a-wsetup.o)
 .debug_str     0x0000c489       0x10 c:/program files/microchip/xc32/v2.40/bin/bin/../../lib/gcc/pic32c/6.2.1/../../../../pic32c/lib/v7e-m/fpv4-sp/hard\libc_nano.a(lib_a-closer.o)
 .debug_str     0x0000c499      0x114 c:/program files/microchip/xc32/v2.40/bin/bin/../../lib/gcc/pic32c/6.2.1/../../../../pic32c/lib/v7e-m/fpv4-sp/hard\libc_nano.a(lib_a-ctype_.o)
 .debug_str     0x0000c5ad       0x16 c:/program files/microchip/xc32/v2.40/bin/bin/../../lib/gcc/pic32c/6.2.1/../../../../pic32c/lib/v7e-m/fpv4-sp/hard\libc_nano.a(lib_a-fflush.o)
 .debug_str     0x0000c5c3       0x20 c:/program files/microchip/xc32/v2.40/bin/bin/../../lib/gcc/pic32c/6.2.1/../../../../pic32c/lib/v7e-m/fpv4-sp/hard\libc_nano.a(lib_a-findfp.o)
 .debug_str     0x0000c5e3       0x32 c:/program files/microchip/xc32/v2.40/bin/bin/../../lib/gcc/pic32c/6.2.1/../../../../pic32c/lib/v7e-m/fpv4-sp/hard\libc_nano.a(lib_a-fputwc.o)
 .debug_str     0x0000c615        0x9 c:/program files/microchip/xc32/v2.40/bin/bin/../../lib/gcc/pic32c/6.2.1/../../../../pic32c/lib/v7e-m/fpv4-sp/hard\libc_nano.a(lib_a-fwalk.o)
 .debug_str     0x0000c61e        0x9 c:/program files/microchip/xc32/v2.40/bin/bin/../../lib/gcc/pic32c/6.2.1/../../../../pic32c/lib/v7e-m/fpv4-sp/hard\libc_nano.a(lib_a-lseekr.o)
 .debug_str     0x0000c627       0x31 c:/program files/microchip/xc32/v2.40/bin/bin/../../lib/gcc/pic32c/6.2.1/../../../../pic32c/lib/v7e-m/fpv4-sp/hard\libc_nano.a(lib_a-makebuf.o)
 .debug_str     0x0000c658        0x9 c:/program files/microchip/xc32/v2.40/bin/bin/../../lib/gcc/pic32c/6.2.1/../../../../pic32c/lib/v7e-m/fpv4-sp/hard\libc_nano.a(lib_a-mlock.o)
 .debug_str     0x0000c661      0x141 c:/program files/microchip/xc32/v2.40/bin/bin/../../lib/gcc/pic32c/6.2.1/../../../../pic32c/lib/v7e-m/fpv4-sp/hard\libc_nano.a(lib_a-nano-svfprintf.o)
 .debug_str     0x0000c7a2      0x11b c:/program files/microchip/xc32/v2.40/bin/bin/../../lib/gcc/pic32c/6.2.1/../../../../pic32c/lib/v7e-m/fpv4-sp/hard\libc_nano.a(lib_a-nano-vfprintf_i.o)
 .debug_str     0x0000c8bd      0x137 c:/program files/microchip/xc32/v2.40/bin/bin/../../lib/gcc/pic32c/6.2.1/../../../../pic32c/lib/v7e-m/fpv4-sp/hard\libc_nano.a(_lib_a-nano-vfscanf.cdnopsuxX.o)
 .debug_str     0x0000c9f4        0x9 c:/program files/microchip/xc32/v2.40/bin/bin/../../lib/gcc/pic32c/6.2.1/../../../../pic32c/lib/v7e-m/fpv4-sp/hard\libc_nano.a(lib_a-readr.o)
 .debug_str     0x0000c9fd        0x9 c:/program files/microchip/xc32/v2.40/bin/bin/../../lib/gcc/pic32c/6.2.1/../../../../pic32c/lib/v7e-m/fpv4-sp/hard\libc_nano.a(lib_a-reent.o)
 .debug_str     0x0000ca06       0x2b c:/program files/microchip/xc32/v2.40/bin/bin/../../lib/gcc/pic32c/6.2.1/../../../../pic32c/lib/v7e-m/fpv4-sp/hard\libc_nano.a(lib_a-refill.o)
 .debug_str     0x0000ca31        0x9 c:/program files/microchip/xc32/v2.40/bin/bin/../../lib/gcc/pic32c/6.2.1/../../../../pic32c/lib/v7e-m/fpv4-sp/hard\libc_nano.a(lib_a-sccl.o)
 .debug_str     0x0000ca3a      0x129 c:/program files/microchip/xc32/v2.40/bin/bin/../../lib/gcc/pic32c/6.2.1/../../../../pic32c/lib/v7e-m/fpv4-sp/hard\libc_nano.a(lib_a-__ssputs.o)
 .debug_str     0x0000cb63       0x28 c:/program files/microchip/xc32/v2.40/bin/bin/../../lib/gcc/pic32c/6.2.1/../../../../pic32c/lib/v7e-m/fpv4-sp/hard\libc_nano.a(lib_a-ungetc.o)
 .debug_str     0x0000cb8b      0x114 c:/program files/microchip/xc32/v2.40/bin/bin/../../lib/gcc/pic32c/6.2.1/../../../../pic32c/lib/v7e-m/fpv4-sp/hard\libc_nano.a(lib_a-wcrtomb.o)
 .debug_str     0x0000cc9f        0x9 c:/program files/microchip/xc32/v2.40/bin/bin/../../lib/gcc/pic32c/6.2.1/../../../../pic32c/lib/v7e-m/fpv4-sp/hard\libc_nano.a(lib_a-fstatr.o)
 .debug_str     0x0000cca8        0x9 c:/program files/microchip/xc32/v2.40/bin/bin/../../lib/gcc/pic32c/6.2.1/../../../../pic32c/lib/v7e-m/fpv4-sp/hard\libc_nano.a(lib_a-isattyr.o)
 .debug_str     0x0000ccb1       0x29 c:/program files/microchip/xc32/v2.40/bin/bin/../../lib/gcc/pic32c/6.2.1/../../../../pic32c/lib/v7e-m/fpv4-sp/hard\libc_nano.a(lib_a-nano-reallocr.o)
 .debug_str     0x0000ccda        0x9 c:/program files/microchip/xc32/v2.40/bin/bin/../../lib/gcc/pic32c/6.2.1/../../../../pic32c/lib/v7e-m/fpv4-sp/hard\libc_nano.a(lib_a-nano-msizer.o)
 .debug_str     0x0000cce3        0x0 c:/program files/microchip/xc32/v2.40/bin/bin/../../lib/gcc/pic32c/6.2.1/../../../../pic32c/lib/v7e-m/fpv4-sp/hard\libpic32c.a(_close.o)
 .debug_str     0x0000cce3        0x0 c:/program files/microchip/xc32/v2.40/bin/bin/../../lib/gcc/pic32c/6.2.1/../../../../pic32c/lib/v7e-m/fpv4-sp/hard\libpic32c.a(_fstat.o)
 .debug_str     0x0000cce3        0x0 c:/program files/microchip/xc32/v2.40/bin/bin/../../lib/gcc/pic32c/6.2.1/../../../../pic32c/lib/v7e-m/fpv4-sp/hard\libpic32c.a(_isatty.o)
 .debug_str     0x0000cce3        0x0 c:/program files/microchip/xc32/v2.40/bin/bin/../../lib/gcc/pic32c/6.2.1/../../../../pic32c/lib/v7e-m/fpv4-sp/hard\libpic32c.a(_lseek.o)
 .debug_str     0x0000cce3        0x0 c:/program files/microchip/xc32/v2.40/bin/bin/../../lib/gcc/pic32c/6.2.1/../../../../pic32c/lib/v7e-m/fpv4-sp/hard\libpic32c.a(_read.o)
 .debug_str     0x0000cce3        0x0 c:/program files/microchip/xc32/v2.40/bin/bin/../../lib/gcc/pic32c/6.2.1/../../../../pic32c/lib/v7e-m/fpv4-sp/hard\libpic32c.a(sbrk.o)
 .debug_str     0x0000cce3        0x0 c:/program files/microchip/xc32/v2.40/bin/bin/../../lib/gcc/pic32c/6.2.1/../../../../pic32c/lib/v7e-m/fpv4-sp/hard\libpic32c.a(_write.o)
 .debug_str     0x0000cce3        0x0 c:/program files/microchip/xc32/v2.40/bin/bin/../../lib/gcc/pic32c/6.2.1/../../../../pic32c/lib/v7e-m/fpv4-sp/hard\libpic32c.a(close.o)
 .debug_str     0x0000cce3        0x0 c:/program files/microchip/xc32/v2.40/bin/bin/../../lib/gcc/pic32c/6.2.1/../../../../pic32c/lib/v7e-m/fpv4-sp/hard\libpic32c.a(fstat.o)
 .debug_str     0x0000cce3        0x0 c:/program files/microchip/xc32/v2.40/bin/bin/../../lib/gcc/pic32c/6.2.1/../../../../pic32c/lib/v7e-m/fpv4-sp/hard\libpic32c.a(isatty.o)
 .debug_str     0x0000cce3        0x0 c:/program files/microchip/xc32/v2.40/bin/bin/../../lib/gcc/pic32c/6.2.1/../../../../pic32c/lib/v7e-m/fpv4-sp/hard\libpic32c.a(lseek.o)
 .debug_str     0x0000cce3        0x0 c:/program files/microchip/xc32/v2.40/bin/bin/../../lib/gcc/pic32c/6.2.1/../../../../pic32c/lib/v7e-m/fpv4-sp/hard\libpic32c.a(read.o)
 .debug_str     0x0000cce3        0x0 c:/program files/microchip/xc32/v2.40/bin/bin/../../lib/gcc/pic32c/6.2.1/../../../../pic32c/lib/v7e-m/fpv4-sp/hard\libpic32c.a(write.o)

.debug_frame    0x00000000     0xd560
 .debug_frame   0x00000000      0x5f8 build/aws_demos/production/_ext/1319661984/drv_gmac.o
 .debug_frame   0x000005f8      0x284 build/aws_demos/production/_ext/1319661984/drv_gmac_lib_samE5x.o
 .debug_frame   0x0000087c      0x160 build/aws_demos/production/_ext/665618993/plib_nvmctrl.o
 .debug_frame   0x000009dc      0x13c build/aws_demos/production/_ext/731420310/plib_sercom2_usart.o
 .debug_frame   0x00000b18       0x20 build/aws_demos/production/_ext/1321577635/plib_evsys.o
 .debug_frame   0x00000b38      0x300 build/aws_demos/production/_ext/1991396724/sys_command.o
 .debug_frame   0x00000e38      0x1d8 build/aws_demos/production/_ext/731420310/plib_sercom6_usart.o
 .debug_frame   0x00001010       0x94 build/aws_demos/production/_ext/1360937237/main.o
 .debug_frame   0x000010a4       0x2c build/aws_demos/production/_ext/1534096987/initialization.o
 .debug_frame   0x000010d0       0x20 build/aws_demos/production/_ext/1534096987/interrupts.o
 .debug_frame   0x000010f0       0x70 build/aws_demos/production/_ext/1534096987/exceptions.o
 .debug_frame   0x00001160       0x50 build/aws_demos/production/_ext/1263901141/xc32_monitor.o
 .debug_frame   0x000011b0       0xa0 build/aws_demos/production/_ext/1843425920/plib_port.o
 .debug_frame   0x00001250       0x20 build/aws_demos/production/_ext/1323727121/plib_clock.o
 .debug_frame   0x00001270       0x20 build/aws_demos/production/_ext/1843479071/plib_nvic.o
 .debug_frame   0x00001290       0x28 build/aws_demos/production/_ext/1534096987/startup_xc32.o
 .debug_frame   0x000012b8      0x124 build/aws_demos/production/_ext/1385882503/port.o
 .debug_frame   0x000013dc       0xc0 build/aws_demos/production/_ext/1168480030/heap_4.o
 .debug_frame   0x0000149c      0x618 build/aws_demos/production/_ext/112156576/iot_pkcs11_mbedtls.o
 .debug_frame   0x00001ab4      0x1b4 build/aws_demos/production/_ext/366737/iot_secure_sockets.o
 .debug_frame   0x00001c68      0x138 build/aws_demos/production/_ext/1682906662/FreeRTOS_ARP.o
 .debug_frame   0x00001da0      0x108 build/aws_demos/production/_ext/1682906662/FreeRTOS_DHCP.o
 .debug_frame   0x00001ea8       0xf0 build/aws_demos/production/_ext/1682906662/FreeRTOS_DNS.o
 .debug_frame   0x00001f98      0x318 build/aws_demos/production/_ext/1682906662/FreeRTOS_IP.o
 .debug_frame   0x000022b0      0x484 build/aws_demos/production/_ext/1682906662/FreeRTOS_Sockets.o
 .debug_frame   0x00002734       0x58 build/aws_demos/production/_ext/1682906662/FreeRTOS_Stream_Buffer.o
 .debug_frame   0x0000278c      0x1d0 build/aws_demos/production/_ext/1682906662/FreeRTOS_TCP_IP.o
 .debug_frame   0x0000295c      0x120 build/aws_demos/production/_ext/1682906662/FreeRTOS_TCP_WIN.o
 .debug_frame   0x00002a7c       0x54 build/aws_demos/production/_ext/1682906662/FreeRTOS_UDP_IP.o
 .debug_frame   0x00002ad0      0x198 build/aws_demos/production/_ext/1778494626/BufferAllocation_2.o
 .debug_frame   0x00002c68      0x130 build/aws_demos/production/_ext/1778494626/NetworkInterface_eth.o
 .debug_frame   0x00002d98       0xa8 build/aws_demos/production/_ext/1972722184/iot_pkcs11_pal.o
 .debug_frame   0x00002e40      0x110 build/aws_demos/production/_ext/1972722184/pkcs11_nvm.o
 .debug_frame   0x00002f50       0xd8 build/aws_demos/production/_ext/197858987/helpers.o
 .debug_frame   0x00003028       0x9c build/aws_demos/production/_ext/197858987/tcpip_heap_alloc.o
 .debug_frame   0x000030c4       0xd0 build/aws_demos/production/_ext/197858987/tcpip_heap_external.o
 .debug_frame   0x00003194      0x6c0 build/aws_demos/production/_ext/197858987/tcpip_helpers.o
 .debug_frame   0x00003854      0x154 build/aws_demos/production/_ext/197858987/tcpip_packet.o
 .debug_frame   0x000039a8       0x78 build/aws_demos/production/_ext/59476128/plib_eic.o
 .debug_frame   0x00003a20      0x31c build/aws_demos/production/_ext/211704168/drv_miim.o
 .debug_frame   0x00003d3c       0xc8 build/aws_demos/production/_ext/1110296786/plib_tc3.o
 .debug_frame   0x00003e04      0x404 build/aws_demos/production/_ext/484134862/sys_time.o
 .debug_frame   0x00004208       0x3c build/aws_demos/production/_ext/1223942466/aws_demo.o
 .debug_frame   0x00004244       0x3c build/aws_demos/production/_ext/1223942466/aws_demo_network_addr.o
 .debug_frame   0x00004280       0xb8 build/aws_demos/production/_ext/1223942466/iot_demo_freertos.o
 .debug_frame   0x00004338       0x28 build/aws_demos/production/_ext/1223942466/iot_demo_runner.o
 .debug_frame   0x00004360      0x1e0 build/aws_demos/production/_ext/198771642/aws_dev_mode_key_provisioning.o
 .debug_frame   0x00004540       0x90 build/aws_demos/production/_ext/1441508942/iot_demo_mqtt.o
 .debug_frame   0x000045d0      0x120 build/aws_demos/production/_ext/2040524622/aws_iot_network_manager.o
 .debug_frame   0x000046f0      0x178 build/aws_demos/production/_ext/811507611/event_groups.o
 .debug_frame   0x00004868       0x6c build/aws_demos/production/_ext/811507611/list.o
 .debug_frame   0x000048d4      0x3bc build/aws_demos/production/_ext/811507611/queue.o
 .debug_frame   0x00004c90      0x66c build/aws_demos/production/_ext/811507611/tasks.o
 .debug_frame   0x000052fc      0x278 build/aws_demos/production/_ext/811507611/timers.o
 .debug_frame   0x00005574      0x204 build/aws_demos/production/_ext/684768522/aes.o
 .debug_frame   0x00005778      0x1bc build/aws_demos/production/_ext/684768522/asn1parse.o
 .debug_frame   0x00005934      0x1d4 build/aws_demos/production/_ext/684768522/asn1write.o
 .debug_frame   0x00005b08       0x84 build/aws_demos/production/_ext/684768522/base64.o
 .debug_frame   0x00005b8c      0x714 build/aws_demos/production/_ext/684768522/bignum.o
 .debug_frame   0x000062a0      0x384 build/aws_demos/production/_ext/684768522/cipher.o
 .debug_frame   0x00006624      0x130 build/aws_demos/production/_ext/684768522/cipher_wrap.o
 .debug_frame   0x00006754      0x1fc build/aws_demos/production/_ext/684768522/ctr_drbg.o
 .debug_frame   0x00006950      0x190 build/aws_demos/production/_ext/684768522/ecdh.o
 .debug_frame   0x00006ae0      0x1d0 build/aws_demos/production/_ext/684768522/ecdsa.o
 .debug_frame   0x00006cb0      0x5f4 build/aws_demos/production/_ext/684768522/ecp.o
 .debug_frame   0x000072a4       0x5c build/aws_demos/production/_ext/684768522/ecp_curves.o
 .debug_frame   0x00007300      0x1c4 build/aws_demos/production/_ext/684768522/entropy.o
 .debug_frame   0x000074c4      0x1a8 build/aws_demos/production/_ext/684768522/gcm.o
 .debug_frame   0x0000766c      0x298 build/aws_demos/production/_ext/684768522/md.o
 .debug_frame   0x00007904      0x1a8 build/aws_demos/production/_ext/684768522/md_wrap.o
 .debug_frame   0x00007aac      0x2d0 build/aws_demos/production/_ext/684768522/oid.o
 .debug_frame   0x00007d7c       0x64 build/aws_demos/production/_ext/684768522/pem.o
 .debug_frame   0x00007de0      0x24c build/aws_demos/production/_ext/684768522/pk.o
 .debug_frame   0x0000802c      0x178 build/aws_demos/production/_ext/684768522/pkparse.o
 .debug_frame   0x000081a4       0xd8 build/aws_demos/production/_ext/684768522/pkwrite.o
 .debug_frame   0x0000827c      0x35c build/aws_demos/production/_ext/684768522/pk_wrap.o
 .debug_frame   0x000085d8       0x70 build/aws_demos/production/_ext/684768522/platform.o
 .debug_frame   0x00008648       0x28 build/aws_demos/production/_ext/684768522/platform_util.o
 .debug_frame   0x00008670      0x410 build/aws_demos/production/_ext/684768522/rsa.o
 .debug_frame   0x00008a80       0xe8 build/aws_demos/production/_ext/684768522/rsa_internal.o
 .debug_frame   0x00008b68      0x134 build/aws_demos/production/_ext/684768522/sha1.o
 .debug_frame   0x00008c9c      0x134 build/aws_demos/production/_ext/684768522/sha256.o
 .debug_frame   0x00008dd0       0xbc build/aws_demos/production/_ext/684768522/ssl_ciphersuites.o
 .debug_frame   0x00008e8c       0x40 build/aws_demos/production/_ext/684768522/ssl_cli.o
 .debug_frame   0x00008ecc      0xa24 build/aws_demos/production/_ext/684768522/ssl_tls.o
 .debug_frame   0x000098f0       0x5c build/aws_demos/production/_ext/684768522/threading.o
 .debug_frame   0x0000994c      0x204 build/aws_demos/production/_ext/684768522/x509.o
 .debug_frame   0x00009b50      0x250 build/aws_demos/production/_ext/684768522/x509_crt.o
 .debug_frame   0x00009da0       0x6c build/aws_demos/production/_ext/2077790016/mbedtls_utils.o
 .debug_frame   0x00009e0c      0x108 build/aws_demos/production/_ext/520142351/iot_clock_freertos.o
 .debug_frame   0x00009f14      0x16c build/aws_demos/production/_ext/520142351/iot_network_freertos.o
 .debug_frame   0x0000a080      0x1ec build/aws_demos/production/_ext/520142351/iot_threads_freertos.o
 .debug_frame   0x0000a26c       0xe0 build/aws_demos/production/_ext/13066905/iot_device_metrics.o
 .debug_frame   0x0000a34c       0x4c build/aws_demos/production/_ext/13066905/iot_init.o
 .debug_frame   0x0000a398       0x68 build/aws_demos/production/_ext/227692215/iot_logging.o
 .debug_frame   0x0000a400       0xac build/aws_demos/production/_ext/227692215/iot_logging_task_dynamic_buffers.o
 .debug_frame   0x0000a4ac      0x3d4 build/aws_demos/production/_ext/333408969/iot_taskpool.o
 .debug_frame   0x0000a880      0x2a4 build/aws_demos/production/_ext/1739149067/iot_mqtt_api.o
 .debug_frame   0x0000ab24       0x90 build/aws_demos/production/_ext/1739149067/iot_mqtt_network.o
 .debug_frame   0x0000abb4      0x1c0 build/aws_demos/production/_ext/1739149067/iot_mqtt_operation.o
 .debug_frame   0x0000ad74      0x2b0 build/aws_demos/production/_ext/1739149067/iot_mqtt_serialize.o
 .debug_frame   0x0000b024      0x138 build/aws_demos/production/_ext/1739149067/iot_mqtt_subscription.o
 .debug_frame   0x0000b15c       0xa0 build/aws_demos/production/_ext/1739149067/iot_mqtt_validate.o
 .debug_frame   0x0000b1fc      0x138 build/aws_demos/production/_ext/350635301/iot_crypto.o
 .debug_frame   0x0000b334      0x118 build/aws_demos/production/_ext/2138053595/iot_pkcs11.o
 .debug_frame   0x0000b44c      0x1a0 build/aws_demos/production/_ext/2039890517/iot_tls.o
 .debug_frame   0x0000b5ec       0x68 build/aws_demos/production/_ext/1120274527/iot_pki_utils.o
 .debug_frame   0x0000b654       0x28 build/aws_demos/production/_ext/1120274527/iot_system_init.o
 .debug_frame   0x0000b67c      0x6d4 build/aws_demos/production/_ext/1200684192/drv_ethphy.o
 .debug_frame   0x0000bd50       0x58 build/aws_demos/production/_ext/1200684192/drv_extphy_ksz8091.o
 .debug_frame   0x0000bda8       0x30 build/aws_demos/production/_ext/1843304010/plib_trng.o
 .debug_frame   0x0000bdd8      0x1d0 build/aws_demos/production/_ext/1534684544/sys_console.o
 .debug_frame   0x0000bfa8      0x11c build/aws_demos/production/_ext/1534684544/sys_console_uart.o
 .debug_frame   0x0000c0c4       0x6c build/aws_demos/production/_ext/1762024984/sys_int.o
 .debug_frame   0x0000c130      0x150 build/aws_demos/production/_ext/1149029443/osal_freertos.o
 .debug_frame   0x0000c280       0x64 build/aws_demos/production/_ext/1534096987/tasks.o
 .debug_frame   0x0000c2e4       0x2c c:/program files/microchip/xc32/v2.40/bin/bin/../../lib/gcc/pic32c/6.2.1/../../../../pic32c/lib/v7e-m/fpv4-sp/hard\libpic32c.a(data_init.o)
 .debug_frame   0x0000c310       0x2c c:/program files/microchip/xc32/v2.40/bin/bin/../../lib/gcc/pic32c/6.2.1/v7e-m/fpv4-sp/hard\libgcc.a(_aeabi_uldivmod.o)
 .debug_frame   0x0000c33c       0x38 c:/program files/microchip/xc32/v2.40/bin/bin/../../lib/gcc/pic32c/6.2.1/v7e-m/fpv4-sp/hard\libgcc.a(_udivmoddi4.o)
 .debug_frame   0x0000c374       0x20 c:/program files/microchip/xc32/v2.40/bin/bin/../../lib/gcc/pic32c/6.2.1/../../../../pic32c/lib/v7e-m/fpv4-sp/hard\libc_nano.a(lib_a-calloc.o)
 .debug_frame   0x0000c394       0x2c c:/program files/microchip/xc32/v2.40/bin/bin/../../lib/gcc/pic32c/6.2.1/../../../../pic32c/lib/v7e-m/fpv4-sp/hard\libc_nano.a(lib_a-init.o)
 .debug_frame   0x0000c3c0       0x68 c:/program files/microchip/xc32/v2.40/bin/bin/../../lib/gcc/pic32c/6.2.1/../../../../pic32c/lib/v7e-m/fpv4-sp/hard\libc_nano.a(lib_a-locale.o)
 .debug_frame   0x0000c428       0x30 c:/program files/microchip/xc32/v2.40/bin/bin/../../lib/gcc/pic32c/6.2.1/../../../../pic32c/lib/v7e-m/fpv4-sp/hard\libc_nano.a(lib_a-malloc.o)
 .debug_frame   0x0000c458       0x48 c:/program files/microchip/xc32/v2.40/bin/bin/../../lib/gcc/pic32c/6.2.1/../../../../pic32c/lib/v7e-m/fpv4-sp/hard\libc_nano.a(lib_a-mbtowc_r.o)
 .debug_frame   0x0000c4a0       0x28 c:/program files/microchip/xc32/v2.40/bin/bin/../../lib/gcc/pic32c/6.2.1/../../../../pic32c/lib/v7e-m/fpv4-sp/hard\libc_nano.a(lib_a-memcmp.o)
 .debug_frame   0x0000c4c8       0x28 c:/program files/microchip/xc32/v2.40/bin/bin/../../lib/gcc/pic32c/6.2.1/../../../../pic32c/lib/v7e-m/fpv4-sp/hard\libc_nano.a(lib_a-memcpy-stub.o)
 .debug_frame   0x0000c4f0       0x28 c:/program files/microchip/xc32/v2.40/bin/bin/../../lib/gcc/pic32c/6.2.1/../../../../pic32c/lib/v7e-m/fpv4-sp/hard\libc_nano.a(lib_a-memmove.o)
 .debug_frame   0x0000c518       0x20 c:/program files/microchip/xc32/v2.40/bin/bin/../../lib/gcc/pic32c/6.2.1/../../../../pic32c/lib/v7e-m/fpv4-sp/hard\libc_nano.a(lib_a-memset.o)
 .debug_frame   0x0000c538       0x2c c:/program files/microchip/xc32/v2.40/bin/bin/../../lib/gcc/pic32c/6.2.1/../../../../pic32c/lib/v7e-m/fpv4-sp/hard\libc_nano.a(lib_a-nano-callocr.o)
 .debug_frame   0x0000c564       0x38 c:/program files/microchip/xc32/v2.40/bin/bin/../../lib/gcc/pic32c/6.2.1/../../../../pic32c/lib/v7e-m/fpv4-sp/hard\libc_nano.a(lib_a-nano-freer.o)
 .debug_frame   0x0000c59c       0x2c c:/program files/microchip/xc32/v2.40/bin/bin/../../lib/gcc/pic32c/6.2.1/../../../../pic32c/lib/v7e-m/fpv4-sp/hard\libc_nano.a(lib_a-nano-mallocr.o)
 .debug_frame   0x0000c5c8       0x50 c:/program files/microchip/xc32/v2.40/bin/bin/../../lib/gcc/pic32c/6.2.1/../../../../pic32c/lib/v7e-m/fpv4-sp/hard\libc_nano.a(lib_a-nano-vfprintf.o)
 .debug_frame   0x0000c618       0x60 c:/program files/microchip/xc32/v2.40/bin/bin/../../lib/gcc/pic32c/6.2.1/../../../../pic32c/lib/v7e-m/fpv4-sp/hard\libc_nano.a(_lib_a-nano-vfprintf.s.o)
 .debug_frame   0x0000c678       0x74 c:/program files/microchip/xc32/v2.40/bin/bin/../../lib/gcc/pic32c/6.2.1/../../../../pic32c/lib/v7e-m/fpv4-sp/hard\libc_nano.a(lib_a-printf.o)
 .debug_frame   0x0000c6ec       0x58 c:/program files/microchip/xc32/v2.40/bin/bin/../../lib/gcc/pic32c/6.2.1/../../../../pic32c/lib/v7e-m/fpv4-sp/hard\libc_nano.a(lib_a-putchar.o)
 .debug_frame   0x0000c744       0x48 c:/program files/microchip/xc32/v2.40/bin/bin/../../lib/gcc/pic32c/6.2.1/../../../../pic32c/lib/v7e-m/fpv4-sp/hard\libc_nano.a(lib_a-putc.o)
 .debug_frame   0x0000c78c       0x3c c:/program files/microchip/xc32/v2.40/bin/bin/../../lib/gcc/pic32c/6.2.1/../../../../pic32c/lib/v7e-m/fpv4-sp/hard\libc_nano.a(lib_a-puts.o)
 .debug_frame   0x0000c7c8       0x44 c:/program files/microchip/xc32/v2.40/bin/bin/../../lib/gcc/pic32c/6.2.1/../../../../pic32c/lib/v7e-m/fpv4-sp/hard\libc_nano.a(lib_a-rand.o)
 .debug_frame   0x0000c80c       0x2c c:/program files/microchip/xc32/v2.40/bin/bin/../../lib/gcc/pic32c/6.2.1/../../../../pic32c/lib/v7e-m/fpv4-sp/hard\libc_nano.a(lib_a-sbrkr.o)
 .debug_frame   0x0000c838       0x7c c:/program files/microchip/xc32/v2.40/bin/bin/../../lib/gcc/pic32c/6.2.1/../../../../pic32c/lib/v7e-m/fpv4-sp/hard\libc_nano.a(lib_a-snprintf.o)
 .debug_frame   0x0000c8b4       0x74 c:/program files/microchip/xc32/v2.40/bin/bin/../../lib/gcc/pic32c/6.2.1/../../../../pic32c/lib/v7e-m/fpv4-sp/hard\libc_nano.a(lib_a-sprintf.o)
 .debug_frame   0x0000c928       0x48 c:/program files/microchip/xc32/v2.40/bin/bin/../../lib/gcc/pic32c/6.2.1/../../../../pic32c/lib/v7e-m/fpv4-sp/hard\libc_nano.a(_lib_a-sscanf.cdnopsuxX.o)
 .debug_frame   0x0000c970       0x50 c:/program files/microchip/xc32/v2.40/bin/bin/../../lib/gcc/pic32c/6.2.1/../../../../pic32c/lib/v7e-m/fpv4-sp/hard\libc_nano.a(lib_a-__ssfputs.o)
 .debug_frame   0x0000c9c0       0x88 c:/program files/microchip/xc32/v2.40/bin/bin/../../lib/gcc/pic32c/6.2.1/../../../../pic32c/lib/v7e-m/fpv4-sp/hard\libc_nano.a(lib_a-stdio.o)
 .debug_frame   0x0000ca48       0x20 c:/program files/microchip/xc32/v2.40/bin/bin/../../lib/gcc/pic32c/6.2.1/../../../../pic32c/lib/v7e-m/fpv4-sp/hard\libc_nano.a(lib_a-strcmp.o)
 .debug_frame   0x0000ca68       0x20 c:/program files/microchip/xc32/v2.40/bin/bin/../../lib/gcc/pic32c/6.2.1/../../../../pic32c/lib/v7e-m/fpv4-sp/hard\libc_nano.a(lib_a-strcpy.o)
 .debug_frame   0x0000ca88       0x28 c:/program files/microchip/xc32/v2.40/bin/bin/../../lib/gcc/pic32c/6.2.1/../../../../pic32c/lib/v7e-m/fpv4-sp/hard\libc_nano.a(lib_a-strncmp.o)
 .debug_frame   0x0000cab0       0x2c c:/program files/microchip/xc32/v2.40/bin/bin/../../lib/gcc/pic32c/6.2.1/../../../../pic32c/lib/v7e-m/fpv4-sp/hard\libc_nano.a(lib_a-strncpy.o)
 .debug_frame   0x0000cadc       0x30 c:/program files/microchip/xc32/v2.40/bin/bin/../../lib/gcc/pic32c/6.2.1/../../../../pic32c/lib/v7e-m/fpv4-sp/hard\libc_nano.a(lib_a-strstr.o)
 .debug_frame   0x0000cb0c       0x88 c:/program files/microchip/xc32/v2.40/bin/bin/../../lib/gcc/pic32c/6.2.1/../../../../pic32c/lib/v7e-m/fpv4-sp/hard\libc_nano.a(lib_a-strtol.o)
 .debug_frame   0x0000cb94       0x84 c:/program files/microchip/xc32/v2.40/bin/bin/../../lib/gcc/pic32c/6.2.1/../../../../pic32c/lib/v7e-m/fpv4-sp/hard\libc_nano.a(lib_a-strtoul.o)
 .debug_frame   0x0000cc18       0x4c c:/program files/microchip/xc32/v2.40/bin/bin/../../lib/gcc/pic32c/6.2.1/../../../../pic32c/lib/v7e-m/fpv4-sp/hard\libc_nano.a(lib_a-vsnprintf.o)
 .debug_frame   0x0000cc64       0x40 c:/program files/microchip/xc32/v2.40/bin/bin/../../lib/gcc/pic32c/6.2.1/../../../../pic32c/lib/v7e-m/fpv4-sp/hard\libc_nano.a(lib_a-wbuf.o)
 .debug_frame   0x0000cca4       0x3c c:/program files/microchip/xc32/v2.40/bin/bin/../../lib/gcc/pic32c/6.2.1/../../../../pic32c/lib/v7e-m/fpv4-sp/hard\libc_nano.a(lib_a-wctomb_r.o)
 .debug_frame   0x0000cce0       0x2c c:/program files/microchip/xc32/v2.40/bin/bin/../../lib/gcc/pic32c/6.2.1/../../../../pic32c/lib/v7e-m/fpv4-sp/hard\libc_nano.a(lib_a-writer.o)
 .debug_frame   0x0000cd0c       0x2c c:/program files/microchip/xc32/v2.40/bin/bin/../../lib/gcc/pic32c/6.2.1/../../../../pic32c/lib/v7e-m/fpv4-sp/hard\libc_nano.a(lib_a-wsetup.o)
 .debug_frame   0x0000cd38       0x2c c:/program files/microchip/xc32/v2.40/bin/bin/../../lib/gcc/pic32c/6.2.1/../../../../pic32c/lib/v7e-m/fpv4-sp/hard\libc_nano.a(lib_a-closer.o)
 .debug_frame   0x0000cd64       0x68 c:/program files/microchip/xc32/v2.40/bin/bin/../../lib/gcc/pic32c/6.2.1/../../../../pic32c/lib/v7e-m/fpv4-sp/hard\libc_nano.a(lib_a-fflush.o)
 .debug_frame   0x0000cdcc       0x9c c:/program files/microchip/xc32/v2.40/bin/bin/../../lib/gcc/pic32c/6.2.1/../../../../pic32c/lib/v7e-m/fpv4-sp/hard\libc_nano.a(lib_a-findfp.o)
 .debug_frame   0x0000ce68       0x70 c:/program files/microchip/xc32/v2.40/bin/bin/../../lib/gcc/pic32c/6.2.1/../../../../pic32c/lib/v7e-m/fpv4-sp/hard\libc_nano.a(lib_a-fputwc.o)
 .debug_frame   0x0000ced8       0x54 c:/program files/microchip/xc32/v2.40/bin/bin/../../lib/gcc/pic32c/6.2.1/../../../../pic32c/lib/v7e-m/fpv4-sp/hard\libc_nano.a(lib_a-fwalk.o)
 .debug_frame   0x0000cf2c       0x2c c:/program files/microchip/xc32/v2.40/bin/bin/../../lib/gcc/pic32c/6.2.1/../../../../pic32c/lib/v7e-m/fpv4-sp/hard\libc_nano.a(lib_a-lseekr.o)
 .debug_frame   0x0000cf58       0x58 c:/program files/microchip/xc32/v2.40/bin/bin/../../lib/gcc/pic32c/6.2.1/../../../../pic32c/lib/v7e-m/fpv4-sp/hard\libc_nano.a(lib_a-makebuf.o)
 .debug_frame   0x0000cfb0       0x30 c:/program files/microchip/xc32/v2.40/bin/bin/../../lib/gcc/pic32c/6.2.1/../../../../pic32c/lib/v7e-m/fpv4-sp/hard\libc_nano.a(lib_a-mlock.o)
 .debug_frame   0x0000cfe0       0x40 c:/program files/microchip/xc32/v2.40/bin/bin/../../lib/gcc/pic32c/6.2.1/../../../../pic32c/lib/v7e-m/fpv4-sp/hard\libc_nano.a(lib_a-nano-svfprintf.o)
 .debug_frame   0x0000d020       0x60 c:/program files/microchip/xc32/v2.40/bin/bin/../../lib/gcc/pic32c/6.2.1/../../../../pic32c/lib/v7e-m/fpv4-sp/hard\libc_nano.a(lib_a-nano-vfprintf_i.o)
 .debug_frame   0x0000d080       0xa8 c:/program files/microchip/xc32/v2.40/bin/bin/../../lib/gcc/pic32c/6.2.1/../../../../pic32c/lib/v7e-m/fpv4-sp/hard\libc_nano.a(_lib_a-nano-vfscanf.cdnopsuxX.o)
 .debug_frame   0x0000d128       0x2c c:/program files/microchip/xc32/v2.40/bin/bin/../../lib/gcc/pic32c/6.2.1/../../../../pic32c/lib/v7e-m/fpv4-sp/hard\libc_nano.a(lib_a-readr.o)
 .debug_frame   0x0000d154       0x5c c:/program files/microchip/xc32/v2.40/bin/bin/../../lib/gcc/pic32c/6.2.1/../../../../pic32c/lib/v7e-m/fpv4-sp/hard\libc_nano.a(lib_a-reent.o)
 .debug_frame   0x0000d1b0       0x40 c:/program files/microchip/xc32/v2.40/bin/bin/../../lib/gcc/pic32c/6.2.1/../../../../pic32c/lib/v7e-m/fpv4-sp/hard\libc_nano.a(lib_a-refill.o)
 .debug_frame   0x0000d1f0       0x2c c:/program files/microchip/xc32/v2.40/bin/bin/../../lib/gcc/pic32c/6.2.1/../../../../pic32c/lib/v7e-m/fpv4-sp/hard\libc_nano.a(lib_a-sccl.o)
 .debug_frame   0x0000d21c       0x34 c:/program files/microchip/xc32/v2.40/bin/bin/../../lib/gcc/pic32c/6.2.1/../../../../pic32c/lib/v7e-m/fpv4-sp/hard\libc_nano.a(lib_a-__ssputs.o)
 .debug_frame   0x0000d250       0x5c c:/program files/microchip/xc32/v2.40/bin/bin/../../lib/gcc/pic32c/6.2.1/../../../../pic32c/lib/v7e-m/fpv4-sp/hard\libc_nano.a(lib_a-ungetc.o)
 .debug_frame   0x0000d2ac       0x48 c:/program files/microchip/xc32/v2.40/bin/bin/../../lib/gcc/pic32c/6.2.1/../../../../pic32c/lib/v7e-m/fpv4-sp/hard\libc_nano.a(lib_a-wcrtomb.o)
 .debug_frame   0x0000d2f4       0x2c c:/program files/microchip/xc32/v2.40/bin/bin/../../lib/gcc/pic32c/6.2.1/../../../../pic32c/lib/v7e-m/fpv4-sp/hard\libc_nano.a(lib_a-fstatr.o)
 .debug_frame   0x0000d320       0x2c c:/program files/microchip/xc32/v2.40/bin/bin/../../lib/gcc/pic32c/6.2.1/../../../../pic32c/lib/v7e-m/fpv4-sp/hard\libc_nano.a(lib_a-isattyr.o)
 .debug_frame   0x0000d34c       0x3c c:/program files/microchip/xc32/v2.40/bin/bin/../../lib/gcc/pic32c/6.2.1/../../../../pic32c/lib/v7e-m/fpv4-sp/hard\libc_nano.a(lib_a-nano-reallocr.o)
 .debug_frame   0x0000d388       0x20 c:/program files/microchip/xc32/v2.40/bin/bin/../../lib/gcc/pic32c/6.2.1/../../../../pic32c/lib/v7e-m/fpv4-sp/hard\libc_nano.a(lib_a-nano-msizer.o)
 .debug_frame   0x0000d3a8       0x20 c:/program files/microchip/xc32/v2.40/bin/bin/../../lib/gcc/pic32c/6.2.1/../../../../pic32c/lib/v7e-m/fpv4-sp/hard\libpic32c.a(_close.o)
 .debug_frame   0x0000d3c8       0x20 c:/program files/microchip/xc32/v2.40/bin/bin/../../lib/gcc/pic32c/6.2.1/../../../../pic32c/lib/v7e-m/fpv4-sp/hard\libpic32c.a(_fstat.o)
 .debug_frame   0x0000d3e8       0x20 c:/program files/microchip/xc32/v2.40/bin/bin/../../lib/gcc/pic32c/6.2.1/../../../../pic32c/lib/v7e-m/fpv4-sp/hard\libpic32c.a(_isatty.o)
 .debug_frame   0x0000d408       0x20 c:/program files/microchip/xc32/v2.40/bin/bin/../../lib/gcc/pic32c/6.2.1/../../../../pic32c/lib/v7e-m/fpv4-sp/hard\libpic32c.a(_lseek.o)
 .debug_frame   0x0000d428       0x20 c:/program files/microchip/xc32/v2.40/bin/bin/../../lib/gcc/pic32c/6.2.1/../../../../pic32c/lib/v7e-m/fpv4-sp/hard\libpic32c.a(_read.o)
 .debug_frame   0x0000d448       0x20 c:/program files/microchip/xc32/v2.40/bin/bin/../../lib/gcc/pic32c/6.2.1/../../../../pic32c/lib/v7e-m/fpv4-sp/hard\libpic32c.a(sbrk.o)
 .debug_frame   0x0000d468       0x20 c:/program files/microchip/xc32/v2.40/bin/bin/../../lib/gcc/pic32c/6.2.1/../../../../pic32c/lib/v7e-m/fpv4-sp/hard\libpic32c.a(_write.o)
 .debug_frame   0x0000d488       0x20 c:/program files/microchip/xc32/v2.40/bin/bin/../../lib/gcc/pic32c/6.2.1/../../../../pic32c/lib/v7e-m/fpv4-sp/hard\libpic32c.a(close.o)
 .debug_frame   0x0000d4a8       0x20 c:/program files/microchip/xc32/v2.40/bin/bin/../../lib/gcc/pic32c/6.2.1/../../../../pic32c/lib/v7e-m/fpv4-sp/hard\libpic32c.a(fstat.o)
 .debug_frame   0x0000d4c8       0x20 c:/program files/microchip/xc32/v2.40/bin/bin/../../lib/gcc/pic32c/6.2.1/../../../../pic32c/lib/v7e-m/fpv4-sp/hard\libpic32c.a(isatty.o)
 .debug_frame   0x0000d4e8       0x20 c:/program files/microchip/xc32/v2.40/bin/bin/../../lib/gcc/pic32c/6.2.1/../../../../pic32c/lib/v7e-m/fpv4-sp/hard\libpic32c.a(lseek.o)
 .debug_frame   0x0000d508       0x2c c:/program files/microchip/xc32/v2.40/bin/bin/../../lib/gcc/pic32c/6.2.1/../../../../pic32c/lib/v7e-m/fpv4-sp/hard\libpic32c.a(read.o)
 .debug_frame   0x0000d534       0x2c c:/program files/microchip/xc32/v2.40/bin/bin/../../lib/gcc/pic32c/6.2.1/../../../../pic32c/lib/v7e-m/fpv4-sp/hard\libpic32c.a(write.o)

.stack          0x200300b8      0x3e8
 .stack         0x200300b8      0x3e8 stack

.bss%1          0x200002a8    0x2ea58
 .bss           0x200002a8    0x29830 build/aws_demos/production/_ext/1168480030/heap_4.o
 .bss           0x20029ad8     0x3000 build/aws_demos/production/_ext/1972722184/iot_pkcs11_pal.o
 .bss           0x2002cad8     0x10c0 build/aws_demos/production/_ext/1223942466/aws_demo.o
 .bss           0x2002db98      0x88c build/aws_demos/production/_ext/1778494626/BufferAllocation_2.o
 .bss           0x2002e424      0x490 build/aws_demos/production/_ext/1991396724/sys_command.o
 .bss           0x2002e8b4      0x44c build/aws_demos/production/_ext/112156576/iot_pkcs11_mbedtls.o

.data.__global_locale%7
                0x2002ed00      0x16c
 .data.__global_locale
                0x2002ed00      0x16c c:/program files/microchip/xc32/v2.40/bin/bin/../../lib/gcc/pic32c/6.2.1/../../../../pic32c/lib/v7e-m/fpv4-sp/hard\libc_nano.a(lib_a-locale.o)
                0x2002ed00                __global_locale

.bss%8          0x2002ee6c      0x2cc
 .bss           0x2002ee6c      0x168 build/aws_demos/production/_ext/811507611/tasks.o
                0x2002eea0                pxCurrentTCB
                0x2002efd0                FreeRTOS_errno
 .bss           0x2002efd4      0x164 build/aws_demos/production/_ext/333408969/iot_taskpool.o
                0x2002efd4                _IotSystemTaskPool

.data%10        0x2002f138      0x23c
 .data          0x2002f138      0x128 build/aws_demos/production/_ext/1319661984/drv_gmac.o
 .data          0x2002f260      0x114 build/aws_demos/production/_ext/112156576/iot_pkcs11_mbedtls.o

.bss%12         0x2002f374      0x7ba
 .bss           0x2002f374      0x110 build/aws_demos/production/_ext/1682906662/FreeRTOS_DNS.o
 .bss           0x2002f484      0x100 build/aws_demos/production/_ext/731420310/plib_sercom6_usart.o
 .bss           0x2002f584       0xf4 build/aws_demos/production/_ext/2040524622/aws_iot_network_manager.o
 .bss           0x2002f678       0xdc build/aws_demos/production/_ext/1534684544/sys_console.o
 .bss           0x2002f754       0xd8 build/aws_demos/production/_ext/484134862/sys_time.o
 .bss           0x2002f82c       0xac build/aws_demos/production/_ext/811507611/timers.o
 .bss           0x2002f8d8       0xa0 build/aws_demos/production/_ext/1319661984/drv_gmac_lib_samE5x.o
 .bss           0x2002f978       0x9c build/aws_demos/production/_ext/211704168/drv_miim.o
                0x2002f978                _MIIMStayAssertLoop
                0x2002fa10                _MIIMStayCondLoop
 .bss           0x2002fa14       0x98 build/aws_demos/production/_ext/13066905/iot_device_metrics.o
 .bss           0x2002faac       0x82 build/aws_demos/production/_ext/1682906662/FreeRTOS_IP.o
                0x2002fab0                xNetworkEventQueue
                0x2002fabc                xNetworkAddressing
                0x2002fad0                xDefaultAddressing
                0x2002fb2c                usPacketIdentifier

.bss%22         0x2002fb30       0x6c
 .bss           0x2002fb30       0x6c build/aws_demos/production/_ext/1200684192/drv_ethphy.o
                0x2002fb94                _PhyStayCondLoop
                0x2002fb98                _PhyStayAssertLoop

.bss%23         0x2002fba0       0x68
 .bss           0x2002fba0       0x68 build/aws_demos/production/_ext/366737/iot_secure_sockets.o

.data.impure_data%24
                0x2002fc08       0x60
 .data.impure_data
                0x2002fc08       0x60 c:/program files/microchip/xc32/v2.40/bin/bin/../../lib/gcc/pic32c/6.2.1/../../../../pic32c/lib/v7e-m/fpv4-sp/hard\libc_nano.a(lib_a-impure.o)

.bss%25         0x2002fc68       0xcc
 .bss           0x2002fc68       0x58 build/aws_demos/production/_ext/1223942466/iot_demo_freertos.o
 .bss           0x2002fcc0       0x4c build/aws_demos/production/_ext/1682906662/FreeRTOS_ARP.o
 .bss           0x2002fd0c       0x28 build/aws_demos/production/_ext/684768522/ssl_ciphersuites.o

.data%28        0x2002fd34       0x28
 .data          0x2002fd34       0x28 build/aws_demos/production/_ext/684768522/ssl_tls.o

.bss%29         0x2002fd5c       0x60
 .bss           0x2002fd5c       0x24 build/aws_demos/production/_ext/1682906662/FreeRTOS_DHCP.o
 .bss           0x2002fd80       0x20 build/aws_demos/production/_ext/1778494626/NetworkInterface_eth.o
 .bss           0x2002fda0       0x1c c:/program files/microchip/xc32/v2.40/bin/bin/../../lib/gcc/pic32c/6.2.1/v7e-m/fpv4-sp/hard/crtbegin.o

.data%32        0x2002fdbc       0x34
 .data          0x2002fdbc       0x1c build/aws_demos/production/_ext/2040524622/aws_iot_network_manager.o
 .data          0x2002fdd8       0x18 build/aws_demos/production/_ext/1682906662/FreeRTOS_UDP_IP.o
                0x2002fdd8                xDefaultPartUDPPacketHeader

.bss%34         0x2002fdf0       0x14
 .bss           0x2002fdf0       0x14 build/aws_demos/production/_ext/684768522/ecp.o

.data%35        0x2002fe04       0x20
 .data          0x2002fe04       0x10 build/aws_demos/production/_ext/1223942466/iot_demo_runner.o
 .data          0x2002fe14       0x10 build/aws_demos/production/_ext/684768522/threading.o
                0x2002fe14                mbedtls_mutex_init
                0x2002fe18                mbedtls_mutex_free
                0x2002fe1c                mbedtls_mutex_lock
                0x2002fe20                mbedtls_mutex_unlock

.bss%37         0x2002fe24       0x16
 .bss           0x2002fe24        0xc build/aws_demos/production/_ext/1534684544/sys_console_uart.o
 .bss           0x2002fe30        0xa build/aws_demos/production/_ext/1682906662/FreeRTOS_TCP_IP.o

.bss%39         0x2002fe3c       0x10
 .bss           0x2002fe3c        0x8 build/aws_demos/production/_ext/1360937237/main.o
 .bss           0x2002fe44        0x8 build/aws_demos/production/_ext/1385882503/port.o

.data%41        0x2002fe4c        0x8
 .data          0x2002fe4c        0x8 build/aws_demos/production/_ext/684768522/platform.o

.bss%42         0x2002fe54        0x8
 .bss           0x2002fe54        0x8 build/aws_demos/production/_ext/227692215/iot_logging_task_dynamic_buffers.o

.data%43        0x2002fe5c        0x6
 .data          0x2002fe5c        0x6 build/aws_demos/production/_ext/1223942466/aws_demo_network_addr.o
                0x2002fe5c                ucMACAddress

.bss%44         0x2002fe64        0x5
 .bss           0x2002fe64        0x5 build/aws_demos/production/_ext/1319661984/drv_gmac.o

.data%45        0x2002fb9c        0x4
 .data          0x2002fb9c        0x4 build/aws_demos/production/_ext/1385882503/port.o

.bss%46         0x2002fe6c       0x14
 .bss           0x2002fe6c        0x4 build/aws_demos/production/_ext/1682906662/FreeRTOS_Sockets.o
 .bss           0x2002fe70        0x4 build/aws_demos/production/_ext/1682906662/FreeRTOS_TCP_WIN.o
                0x2002fe70                xTCPWindowLoggingLevel
 .bss           0x2002fe74        0x4 build/aws_demos/production/_ext/197858987/tcpip_packet.o
 .bss           0x2002fe78        0x4 build/aws_demos/production/_ext/684768522/cipher.o
 .bss           0x2002fe7c        0x4 build/aws_demos/production/_ext/684768522/ctr_drbg.o

.data%51        0x2002fe80        0xc
 .data          0x2002fe80        0x4 build/aws_demos/production/_ext/684768522/ecp_curves.o
 .data          0x2002fe84        0x4 build/aws_demos/production/_ext/684768522/platform_util.o
 .data          0x2002fe88        0x4 build/aws_demos/production/_ext/1739149067/iot_mqtt_serialize.o

.data._impure_ptr%54
                0x2002fe8c        0x4
 .data._impure_ptr
                0x2002fe8c        0x4 c:/program files/microchip/xc32/v2.40/bin/bin/../../lib/gcc/pic32c/6.2.1/../../../../pic32c/lib/v7e-m/fpv4-sp/hard\libc_nano.a(lib_a-impure.o)
                0x2002fe8c                _impure_ptr

.bss.__malloc_free_list%55
                0x2002fe90        0x4
 .bss.__malloc_free_list
                0x2002fe90        0x4 c:/program files/microchip/xc32/v2.40/bin/bin/../../lib/gcc/pic32c/6.2.1/../../../../pic32c/lib/v7e-m/fpv4-sp/hard\libc_nano.a(lib_a-nano-mallocr.o)
                0x2002fe90                __malloc_free_list

.bss.__malloc_sbrk_start%56
                0x2002fe94        0x4
 .bss.__malloc_sbrk_start
                0x2002fe94        0x4 c:/program files/microchip/xc32/v2.40/bin/bin/../../lib/gcc/pic32c/6.2.1/../../../../pic32c/lib/v7e-m/fpv4-sp/hard\libc_nano.a(lib_a-nano-mallocr.o)
                0x2002fe94                __malloc_sbrk_start

.bss%57         0x2002fe98        0x4
 .bss           0x2002fe98        0x4 c:/program files/microchip/xc32/v2.40/bin/bin/../../lib/gcc/pic32c/6.2.1/../../../../pic32c/lib/v7e-m/fpv4-sp/hard\libpic32c.a(sbrk.o)

.bss%58         0x2002fb2e        0x2
 .bss           0x2002fb2e        0x2 build/aws_demos/production/_ext/665618993/plib_nvmctrl.o

.data%59        0x2002fe3a        0x2
 .data          0x2002fe3a        0x2 build/aws_demos/production/_ext/484134862/sys_time.o

.eh_frame%z1    0x00000000        0x0
 .eh_frame      0x00000000        0x0 c:/program files/microchip/xc32/v2.40/bin/bin/../../lib/gcc/pic32c/6.2.1/v7e-m/fpv4-sp/hard/crtbegin.o

.text%60        0x0000028c     0x2880
 .text          0x0000028c     0x2880 build/aws_demos/production/_ext/684768522/bignum.o
                0x000004d4                mbedtls_mpi_init
                0x000004e0                mbedtls_mpi_free
                0x00000506                mbedtls_mpi_grow
                0x0000055a                mbedtls_mpi_shrink
                0x000005d2                mbedtls_mpi_copy
                0x00000644                mbedtls_mpi_swap
                0x00000672                mbedtls_mpi_safe_cond_assign
                0x000006e4                mbedtls_mpi_safe_cond_swap
                0x00000774                mbedtls_mpi_lset
                0x000007ae                mbedtls_mpi_get_bit
                0x000007ce                mbedtls_mpi_set_bit
                0x00000828                mbedtls_mpi_lsb
                0x00000870                mbedtls_mpi_bitlen
                0x000008ea                mbedtls_mpi_size
                0x000008f6                mbedtls_mpi_read_binary
                0x00000960                mbedtls_mpi_write_binary
                0x000009ea                mbedtls_mpi_shift_l
                0x00000a98                mbedtls_mpi_shift_r
                0x00000b32                mbedtls_mpi_cmp_abs
                0x00000cf4                mbedtls_mpi_cmp_mpi
                0x00000dca                mbedtls_mpi_cmp_int
                0x00000df8                mbedtls_mpi_add_abs
                0x00000ec2                mbedtls_mpi_sub_abs
                0x00000f4a                mbedtls_mpi_add_mpi
                0x00000fa2                mbedtls_mpi_sub_mpi
                0x00000ffa                mbedtls_mpi_add_int
                0x00001028                mbedtls_mpi_sub_int
                0x00001056                mbedtls_mpi_mul_mpi
                0x0000114a                mbedtls_mpi_mul_int
                0x00001166                mbedtls_mpi_read_string
                0x000012b2                mbedtls_mpi_div_mpi
                0x00001698                mbedtls_mpi_div_int
                0x000016c4                mbedtls_mpi_mod_mpi
                0x0000172e                mbedtls_mpi_mod_int
                0x0000181c                mbedtls_mpi_write_string
                0x000019a0                mbedtls_mpi_exp_mod
                0x00001e78                mbedtls_mpi_gcd
                0x00001fa0                mbedtls_mpi_fill_random
                0x00002192                mbedtls_mpi_inv_mod
                0x00002466                mbedtls_mpi_is_prime_ext
                0x000024d2                mbedtls_mpi_gen_prime
                0x00002704                mbedtls_mpi_self_test

.rodata%61      0x00002b0c     0x2664
 .rodata        0x00002b0c     0x2664 build/aws_demos/production/_ext/684768522/aes.o

.text%62        0x00005170     0xf490
 .text          0x00005170     0x2648 build/aws_demos/production/_ext/684768522/ssl_tls.o
                0x0000543c                mbedtls_ssl_derive_keys
                0x00005790                mbedtls_ssl_fetch_input
                0x0000582c                mbedtls_ssl_flush_output
                0x00005888                mbedtls_ssl_write_record
                0x00005c60                mbedtls_ssl_write_handshake_msg
                0x00005cf4                mbedtls_ssl_prepare_handshake_record
                0x00005d2c                mbedtls_ssl_update_handshake_status
                0x00005d44                mbedtls_ssl_handle_message_type
                0x00005dc4                mbedtls_ssl_send_alert_message
                0x00005dfc                mbedtls_ssl_send_fatal_handshake_failure
                0x00005e08                mbedtls_ssl_read_record
                0x00006454                mbedtls_ssl_write_certificate
                0x00006560                mbedtls_ssl_write_change_cipher_spec
                0x00006580                mbedtls_ssl_parse_change_cipher_spec
                0x000065e8                mbedtls_ssl_optimize_checksum
                0x000065fc                mbedtls_ssl_reset_checksum
                0x0000660c                mbedtls_ssl_write_finished
                0x00006686                mbedtls_ssl_parse_finished
                0x00006748                mbedtls_ssl_session_init
                0x00006754                mbedtls_ssl_init
                0x00006760                mbedtls_ssl_conf_endpoint
                0x0000676e                mbedtls_ssl_conf_transport
                0x0000677c                mbedtls_ssl_conf_authmode
                0x0000678a                mbedtls_ssl_conf_verify
                0x00006790                mbedtls_ssl_conf_rng
                0x00006796                mbedtls_ssl_conf_dbg
                0x0000679c                mbedtls_ssl_set_bio
                0x000067a8                mbedtls_ssl_conf_read_timeout
                0x000067ac                mbedtls_ssl_set_timer_cb
                0x000067bc                mbedtls_ssl_conf_ciphersuites
                0x000067c6                mbedtls_ssl_conf_ciphersuites_for_version
                0x000067d6                mbedtls_ssl_conf_cert_profile
                0x000067da                mbedtls_ssl_conf_own_cert
                0x000067e4                mbedtls_ssl_conf_ca_chain
                0x000067ea                mbedtls_ssl_set_hs_own_cert
                0x000067f8                mbedtls_ssl_set_hs_ca_chain
                0x00006806                mbedtls_ssl_set_hs_authmode
                0x0000680e                mbedtls_ssl_conf_sig_hashes
                0x00006812                mbedtls_ssl_conf_curves
                0x00006816                mbedtls_ssl_set_hostname
                0x0000689c                mbedtls_ssl_conf_sni
                0x000068a2                mbedtls_ssl_conf_alpn_protocols
                0x000068dc                mbedtls_ssl_get_alpn_protocol
                0x000068e2                mbedtls_ssl_conf_max_version
                0x000068ec                mbedtls_ssl_conf_min_version
                0x000068f6                mbedtls_ssl_conf_encrypt_then_mac
                0x00006904                mbedtls_ssl_conf_extended_master_secret
                0x00006912                mbedtls_ssl_conf_max_frag_len
                0x00006944                mbedtls_ssl_conf_legacy_renegotiation
                0x00006952                mbedtls_ssl_get_bytes_avail
                0x0000695e                mbedtls_ssl_check_pending
                0x00006982                mbedtls_ssl_get_verify_result
                0x00006998                mbedtls_ssl_get_ciphersuite
                0x000069b0                mbedtls_ssl_get_version
                0x000069e8                mbedtls_ssl_get_record_expansion
                0x00006a34                mbedtls_ssl_get_max_frag_len
                0x00006a70                mbedtls_ssl_get_max_out_record_payload
                0x00006a82                mbedtls_ssl_get_peer_cert
                0x00006a94                mbedtls_ssl_handshake_step
                0x00006ac0                mbedtls_ssl_handshake
                0x00006af4                mbedtls_ssl_read
                0x00006c48                mbedtls_ssl_write
                0x00006cc0                mbedtls_ssl_close_notify
                0x00006cf4                mbedtls_ssl_transform_free
                0x00006d24                mbedtls_ssl_handshake_free
                0x00006d5e                mbedtls_ssl_session_free
                0x00006d7e                mbedtls_ssl_handshake_wrapup
                0x00006e3c                mbedtls_ssl_set_session
                0x00006e80                mbedtls_ssl_get_session
                0x00006fb0                mbedtls_ssl_setup
                0x00007030                mbedtls_ssl_session_reset
                0x000070be                mbedtls_ssl_free
                0x0000715a                mbedtls_ssl_config_init
                0x00007166                mbedtls_ssl_config_defaults
                0x00007204                mbedtls_ssl_config_free
                0x00007222                mbedtls_ssl_sig_from_pk
                0x00007244                mbedtls_ssl_sig_from_pk_alg
                0x0000725a                mbedtls_ssl_pk_alg_from_sig
                0x0000726c                mbedtls_ssl_sig_hash_set_find
                0x00007280                mbedtls_ssl_sig_hash_set_add
                0x0000729a                mbedtls_ssl_sig_hash_set_const_hash
                0x000072a0                mbedtls_ssl_md_alg_from_hash
                0x000072ba                mbedtls_ssl_hash_from_md_alg
                0x000072d4                mbedtls_ssl_check_curve
                0x00007306                mbedtls_ssl_check_sig_hash
                0x0000733a                mbedtls_ssl_check_cert_usage
                0x000073d4                mbedtls_ssl_parse_certificate
                0x000076f0                mbedtls_ssl_write_version
                0x000076f6                mbedtls_ssl_read_version
                0x00007700                mbedtls_ssl_set_calc_verify_md
                0x00007728                mbedtls_ssl_get_key_exchange_md_tls1_2
 .text          0x000077b8     0x21d8 build/aws_demos/production/_ext/684768522/ecp.o
                0x000081da                mbedtls_ecp_curve_list
                0x000081e4                mbedtls_ecp_grp_id_list
                0x00008204                mbedtls_ecp_curve_info_from_grp_id
                0x00008224                mbedtls_ecp_curve_info_from_tls_id
                0x00008248                mbedtls_ecp_curve_info_from_name
                0x00008274                mbedtls_ecp_point_init
                0x0000828e                mbedtls_ecp_group_init
                0x000082d0                mbedtls_ecp_keypair_init
                0x000082ea                mbedtls_ecp_point_free
                0x00008308                mbedtls_ecp_group_free
                0x0000836a                mbedtls_ecp_keypair_free
                0x00008388                mbedtls_ecp_copy
                0x000083bc                mbedtls_ecp_group_copy
                0x000083c6                mbedtls_ecp_set_zero
                0x00008bd8                mbedtls_ecp_is_zero
                0x00008bea                mbedtls_ecp_point_cmp
                0x00008c28                mbedtls_ecp_point_read_string
                0x00008c5c                mbedtls_ecp_point_write_binary
                0x00008d08                mbedtls_ecp_point_read_binary
                0x00008d88                mbedtls_ecp_tls_read_point
                0x00008dbc                mbedtls_ecp_tls_write_point
                0x00008df4                mbedtls_ecp_tls_read_group_id
                0x00008e3c                mbedtls_ecp_tls_read_group
                0x00008e62                mbedtls_ecp_tls_write_group
                0x00008e9c                mbedtls_ecp_check_pubkey
                0x00009068                mbedtls_ecp_check_privkey
                0x000090ac                mbedtls_ecp_mul_restartable
                0x000093f0                mbedtls_ecp_mul
                0x0000947c                mbedtls_ecp_muladd_restartable
                0x000094f8                mbedtls_ecp_muladd
                0x00009510                mbedtls_ecp_gen_privkey
                0x00009598                mbedtls_ecp_gen_keypair_base
                0x000095d0                mbedtls_ecp_gen_keypair
                0x000095ea                mbedtls_ecp_gen_key
                0x0000961c                mbedtls_ecp_check_pub_priv
                0x000096f0                mbedtls_ecp_self_test
 .text          0x00009990     0x1d20 build/aws_demos/production/_ext/112156576/iot_pkcs11_mbedtls.o
                0x00009990                C_GetFunctionList
                0x000099a4                C_GetSlotList
                0x000099e8                C_GetTokenInfo
                0x000099ec                C_InitToken
                0x000099f0                C_Login
                0x000099f4                C_GetMechanismInfo
                0x00009a40                C_Finalize
                0x00009a78                C_OpenSession
                0x00009b48                C_GenerateRandom
                0x00009b98                C_Verify
                0x00009d08                C_Sign
                0x00009e38                C_DigestFinal
                0x00009eac                C_DigestUpdate
                0x00009f0c                C_DigestInit
                0x00009f6c                C_FindObjectsFinal
                0x00009fa8                C_FindObjectsInit
                0x0000a078                C_CloseSession
                0x0000a0d8                prvSessionPointerFromHandle
                0x0000a0da                prvMbedTLS_Initialize
                0x0000a144                C_Initialize
                0x0000a160                prvGetObjectClass
                0x0000a190                prvFindObjectInListByLabel
                0x0000a1e4                prvFindObjectInListByHandle
                0x0000a234                C_GetAttributeValue
                0x0000a474                C_SignInit
                0x0000a5ec                C_VerifyInit
                0x0000a780                prvDeleteObjectFromList
                0x0000a7e4                prvAddObjectToList
                0x0000a88c                C_FindObjects
                0x0000a9a8                PKCS11_PAL_DestroyObject
                0x0000aa9c                C_DestroyObject
                0x0000aac8                xIsObjectWithNoNvmStorage
                0x0000ab24                prvCreateCertificate
                0x0000abdc                prvGetKeyType
                0x0000ac10                prvGetLabel
                0x0000ac3c                prvGetExistingKeyComponent
                0x0000acec                prvCreateEcPrivateKey
                0x0000adc0                prvCreateRsaPrivateKey
                0x0000af88                prvCreatePrivateKey
                0x0000b0e4                prvCreateECPublicKey
                0x0000b1dc                prvCreatePublicKey
                0x0000b2e8                C_CreateObject
                0x0000b378                prvCheckGenerateKeyPairPrivateTemplate
                0x0000b430                prvCheckGenerateKeyPairPublicTemplate
                0x0000b518                C_GenerateKeyPair
 .text          0x0000b6b0     0x1a04 build/aws_demos/production/_ext/684768522/rsa.o
                0x0000b912                mbedtls_rsa_import
                0x0000b986                mbedtls_rsa_import_raw
                0x0000ba08                mbedtls_rsa_complete
                0x0000bbec                mbedtls_rsa_export_raw
                0x0000bcdc                mbedtls_rsa_export
                0x0000bdc0                mbedtls_rsa_export_crt
                0x0000be54                mbedtls_rsa_init
                0x0000be7c                mbedtls_rsa_set_padding
                0x0000be86                mbedtls_rsa_get_len
                0x0000be8a                mbedtls_rsa_check_pubkey
                0x0000bee8                mbedtls_rsa_check_privkey
                0x0000bf60                mbedtls_rsa_check_pub_priv
                0x0000bfa8                mbedtls_rsa_public
                0x0000c074                mbedtls_rsa_private
                0x0000c424                mbedtls_rsa_rsaes_pkcs1_v15_encrypt
                0x0000c514                mbedtls_rsa_pkcs1_encrypt
                0x0000c53c                mbedtls_rsa_rsaes_pkcs1_v15_decrypt
                0x0000c750                mbedtls_rsa_pkcs1_decrypt
                0x0000c77c                mbedtls_rsa_rsassa_pkcs1_v15_sign
                0x0000c868                mbedtls_rsa_pkcs1_sign
                0x0000c894                mbedtls_rsa_rsassa_pkcs1_v15_verify
                0x0000c96c                mbedtls_rsa_pkcs1_verify
                0x0000c998                mbedtls_rsa_free
                0x0000ca18                mbedtls_rsa_gen_key
                0x0000cc4c                mbedtls_rsa_copy
                0x0000cd5a                mbedtls_rsa_self_test
 .text          0x0000d0b4     0x197c build/aws_demos/production/_ext/1682906662/FreeRTOS_TCP_IP.o
                0x0000d598                vTCPStateChange
                0x0000da94                xTCPSocketCheck
                0x0000de70                xProcessReceivedTCPPacket
                0x0000e9c0                FreeRTOS_GetTCPStateName
                0x0000e9d8                xTCPCheckNewClient
 .text          0x0000ea30     0x1908 build/aws_demos/production/_ext/684768522/x509_crt.o
                0x0000ec24                mbedtls_x509_crt_info
                0x0000f3ac                mbedtls_x509_crt_verify_info
                0x0000f440                mbedtls_x509_crt_check_key_usage
                0x0000f488                mbedtls_x509_crt_check_extended_key_usage
                0x0000f4f0                mbedtls_x509_crt_verify_restartable
                0x0000f8f4                mbedtls_x509_crt_verify
                0x0000f918                mbedtls_x509_crt_verify_with_profile
                0x0000f938                mbedtls_x509_crt_init
                0x0000f946                mbedtls_x509_crt_free
                0x0000fa22                mbedtls_x509_crt_parse_der
                0x00010234                mbedtls_x509_crt_parse
 .text          0x00010338     0x18f0 build/aws_demos/production/_ext/811507611/tasks.o
                0x00010628                xTaskCreateStatic
                0x000106c4                xTaskCreate
                0x00010720                vTaskDelete
                0x000107f0                eTaskGetState
                0x00010874                uxTaskPriorityGet
                0x00010894                uxTaskPriorityGetFromISR
                0x000108c4                vTaskPrioritySet
                0x000109ac                vTaskResume
                0x00010a34                xTaskResumeFromISR
                0x00010ad4                vTaskStartScheduler
                0x00010b58                vTaskEndScheduler
                0x00010b7c                vTaskSuspendAll
                0x00010b90                xTaskGetTickCount
                0x00010b9c                xTaskGetTickCountFromISR
                0x00010bb0                uxTaskGetNumberOfTasks
                0x00010bbc                pcTaskGetName
                0x00010be4                xTaskIncrementTick
                0x00010cdc                xTaskResumeAll
                0x00010dd0                vTaskDelayUntil
                0x00010e60                vTaskDelay
                0x00010eac                xTaskCatchUpTicks
                0x00010ee4                vTaskSwitchContext
                0x00010fb0                vTaskSuspend
                0x00011090                vTaskPlaceOnEventList
                0x000110c4                vTaskPlaceOnUnorderedEventList
                0x00011114                vTaskPlaceOnEventListRestricted
                0x00011150                xTaskRemoveFromEventList
                0x000111d0                vTaskRemoveFromUnorderedEventList
                0x0001124c                vTaskSetTimeOutState
                0x00011280                vTaskInternalSetTimeOutState
                0x00011294                xTaskCheckForTimeOut
                0x0001130c                vTaskMissedYield
                0x0001131c                uxTaskGetTaskNumber
                0x00011326                vTaskSetTaskNumber
                0x0001132c                vTaskGetInfo
                0x00011414                uxTaskGetSystemState
                0x000114bc                xTaskGetCurrentTaskHandle
                0x000114c8                xTaskGetSchedulerState
                0x000114e8                xTaskPriorityInherit
                0x00011594                xTaskPriorityDisinherit
                0x00011640                vTaskPriorityDisinheritAfterTimeout
                0x000116f4                vTaskList
                0x000117d4                uxTaskResetEventItemValue
                0x000117ec                pvTaskIncrementMutexHeldCount
                0x00011808                ulTaskNotifyTake
                0x00011880                xTaskNotifyWait
                0x00011918                xTaskGenericNotify
                0x000119fc                xTaskGenericNotifyFromISR
                0x00011b10                vTaskNotifyGiveFromISR
                0x00011bcc                xTaskNotifyStateClear
                0x00011bfc                ulTaskNotifyValueClear
 .text          0x00011c28     0x1604 build/aws_demos/production/_ext/1682906662/FreeRTOS_Sockets.o
                0x00011d3c                vNetworkSocketsInit
                0x00011d58                FreeRTOS_socket
                0x00011e84                FreeRTOS_recvfrom
                0x00011f62                FreeRTOS_bind
                0x00011fe4                FreeRTOS_sendto
                0x000120d0                vSocketBind
                0x00012208                FreeRTOS_closesocket
                0x00012244                vSocketClose
                0x00012338                pxUDPSocketLookup
                0x00012364                FreeRTOS_inet_addr
                0x00012404                FreeRTOS_GetLocalAddress
                0x0001241c                vSocketWakeUpUser
                0x0001243a                FreeRTOS_accept
                0x00012566                FreeRTOS_recv
                0x000126ba                FreeRTOS_get_tx_head
                0x00012700                FreeRTOS_send
                0x000128bc                FreeRTOS_listen
                0x0001294c                FreeRTOS_shutdown
                0x0001298a                xTCPTimerCheck
                0x00012a1c                pxTCPSocketLookup
                0x00012a6c                FreeRTOS_get_rx_buf
                0x00012a82                lTCPAddRxdata
                0x00012b48                FreeRTOS_GetRemoteAddress
                0x00012b84                FreeRTOS_maywrite
                0x00012bc6                FreeRTOS_tx_space
                0x00012bf0                FreeRTOS_tx_size
                0x00012c18                FreeRTOS_setsockopt
                0x00012f10                FreeRTOS_issocketconnected
                0x00012f30                FreeRTOS_connect
                0x00013064                FreeRTOS_mss
                0x00013076                FreeRTOS_connstatus
                0x00013088                FreeRTOS_rx_size
                0x000130b0                FreeRTOS_netstat
                0x000130ce                vTCPNetStat
 .text          0x0001322c     0x13d4 build/aws_demos/production/_ext/684768522/aes.o
                0x0001322c                mbedtls_aes_init
                0x0001323a                mbedtls_aes_free
                0x0001324a                mbedtls_aes_setkey_enc
                0x0001345c                mbedtls_aes_setkey_dec
                0x00013574                mbedtls_internal_aes_encrypt
                0x00013a1a                mbedtls_internal_aes_decrypt
                0x00013ecc                mbedtls_aes_crypt_ecb
                0x00013ee8                mbedtls_aes_crypt_cbc
                0x00013fbc                mbedtls_aes_crypt_cfb128
                0x00014052                mbedtls_aes_crypt_cfb8
                0x000140e8                mbedtls_aes_crypt_ctr
                0x00014170                mbedtls_aes_self_test

.rodata%71      0x00014600     0x1360
 .rodata        0x00014600     0x1360 build/aws_demos/production/_ext/2039890517/iot_tls.o

.text%72        0x00015960     0x66c4
 .text          0x00015960     0x1338 build/aws_demos/production/_ext/684768522/sha1.o
                0x00015960                mbedtls_sha1_init
                0x0001596c                mbedtls_sha1_free
                0x0001597a                mbedtls_sha1_clone
                0x00015984                mbedtls_sha1_starts_ret
                0x000159b8                mbedtls_internal_sha1_process
                0x000169e8                mbedtls_sha1_update_ret
                0x00016a7a                mbedtls_sha1_finish_ret
                0x00016b72                mbedtls_sha1_ret
                0x00016bb4                mbedtls_sha1_self_test
 .text          0x00016c98     0x11a4 build/aws_demos/production/_ext/333408969/iot_taskpool.o
                0x000174bc                IotTaskPool_GetSystemTaskPool
                0x000174c4                IotTaskPool_Destroy
                0x000176dc                IotTaskPool_SetMaxThreads
                0x00017754                IotTaskPool_CreateJob
                0x00017782                IotTaskPool_CreateRecyclableJob
                0x00017894                IotTaskPool_GetStatus
                0x000178d8                IotTaskPool_TryCancel
                0x00017920                IotTaskPool_GetJobStorageFromHandle
                0x00017922                IotTaskPool_strerror
                0x00017a18                IotTaskPool_DestroyRecyclableJob
                0x00017aa0                IotTaskPool_RecycleJob
                0x00017b9c                IotTaskPool_Schedule
                0x00017bf4                IotTaskPool_ScheduleDeferred
                0x00017db0                _performTaskPoolParameterValidation
                0x00017dd0                IotTaskPool_CreateSystemTaskPool
                0x00017df0                IotTaskPool_Create
 .text          0x00017e3c     0x10e4 build/aws_demos/production/_ext/1200684192/drv_ethphy.o
                0x00017e3c                DRV_ETHPHY_Deinitialize
                0x00017e48                DRV_ETHPHY_Status
                0x00017e56                DRV_ETHPHY_Tasks
                0x00017e74                DRV_ETHPHY_Close
                0x00017e96                DRV_ETHPHY_ClientStatus
                0x00017ea4                DRV_ETHPHY_ClientOperationResult
                0x00017eb2                DRV_ETHPHY_PhyAddressGet
                0x00017eca                DRV_ETHPHY_RestartNegotiation
                0x00017ef6                DRV_ETHPHY_HWConfigFlagsGet
                0x00017f1c                DRV_ETHPHY_VendorDataGet
                0x00017f32                DRV_ETHPHY_VendorDataSet
                0x00017f40                DRV_ETHPHY_Reinitialize
                0x000180b8                DRV_ETHPHY_ClientOperationAbort
                0x00018148                DRV_ETHPHY_Reset
                0x00018176                DRV_ETHPHY_LinkStatusGet
                0x000181ae                DRV_ETHPHY_NegotiationResultGet
                0x000181e4                DRV_ETHPHY_NegotiationIsComplete
                0x00018244                DRV_ETHPHY_Initialize
                0x000182a0                DRV_ETHPHY_Setup
                0x0001836c                DRV_ETHPHY_Open
                0x00018e28                DRV_ETHPHY_VendorSMIReadStart
                0x00018e80                DRV_ETHPHY_VendorSMIReadResultGet
                0x00018ec8                DRV_ETHPHY_VendorSMIWriteStart
 .text          0x00018f20     0x108c build/aws_demos/production/_ext/684768522/ssl_cli.o
                0x00018f20                mbedtls_ssl_handshake_client_step
 .text          0x00019fac     0x107c build/aws_demos/production/_ext/1739149067/iot_mqtt_api.o
                0x0001a1c8                _IotMqtt_IncrementConnectionReferences
                0x0001a23c                _IotMqtt_DecrementConnectionReferences
                0x0001a2b0                IotMqtt_Init
                0x0001a2d4                IotMqtt_Cleanup
                0x0001a2f8                IotMqtt_Publish
                0x0001a49c                IotMqtt_strerror
                0x0001a510                IotMqtt_OperationType
                0x0001a720                IotMqtt_Subscribe
                0x0001a73e                IotMqtt_Unsubscribe
                0x0001a75c                IotMqtt_Wait
                0x0001a86c                IotMqtt_Connect
                0x0001ad08                IotMqtt_Disconnect
                0x0001af6c                IotMqtt_TimedSubscribe
                0x0001afac                IotMqtt_TimedUnsubscribe
                0x0001afec                IotMqtt_TimedPublish
 .text          0x0001b028      0xffc build/aws_demos/production/_ext/197858987/tcpip_helpers.o
                0x0001b028                TCPIP_Helper_StringToIPAddress
                0x0001b114                TCPIP_Helper_IPAddressToString
                0x0001b160                TCPIP_Helper_StringToIPv6Address
                0x0001b462                TCPIP_Helper_IPv6AddressToString
                0x0001b508                TCPIP_Helper_IsPrivateAddress
                0x0001b534                TCPIP_Helper_StringToMACAddress
                0x0001b5ae                TCPIP_Helper_MACAddressToString
                0x0001b5f0                TCPIP_Helper_StringToPowerMode
                0x0001b624                TCPIP_Helper_PowerModeToString
                0x0001b638                TCPIP_Helper_Base64Decode
                0x0001b732                TCPIP_Helper_Base64Encode
                0x0001b836                TCPIP_Helper_CalcIPChecksum
                0x0001b89c                TCPIP_Helper_ChecksumFold
                0x0001b8aa                TCPIP_Helper_PacketChecksum
                0x0001b92a                TCPIP_Helper_PacketCopy
                0x0001b9a2                TCPIP_Helper_FormatNetBIOSName
                0x0001b9f0                TCPIP_Helper_FindCommonPrefix
                0x0001ba40                TCPIP_Helper_SingleListInitialize
                0x0001ba4a                TCPIP_Helper_SingleListHeadAdd
                0x0001ba60                TCPIP_Helper_SingleListTailAdd
                0x0001ba7a                TCPIP_Helper_SingleListMidAdd
                0x0001ba88                TCPIP_Helper_SingleListHeadRemove
                0x0001baa4                TCPIP_Helper_SingleListNextRemove
                0x0001baca                TCPIP_Helper_SingleListNodeRemove
                0x0001bb10                TCPIP_Helper_SingleListFind
                0x0001bb30                TCPIP_Helper_SingleListAppend
                0x0001bb4c                TCPIP_Helper_ProtectedSingleListInitialize
                0x0001bb6e                TCPIP_Helper_ProtectedSingleListDeinitialize
                0x0001bb9e                TCPIP_Helper_ProtectedSingleListHeadAdd
                0x0001bbc8                TCPIP_Helper_ProtectedSingleListTailAdd
                0x0001bbf2                TCPIP_Helper_ProtectedSingleListMidAdd
                0x0001bc22                TCPIP_Helper_ProtectedSingleListHeadRemove
                0x0001bc4e                TCPIP_Helper_ProtectedSingleListNextRemove
                0x0001bc7e                TCPIP_Helper_ProtectedSingleListNodeRemove
                0x0001bcae                TCPIP_Helper_ProtectedSingleListAppend
                0x0001bcd8                TCPIP_Helper_ProtectedSingleListRemoveAll
                0x0001bd02                TCPIP_Helper_ProtectedSingleListLock
                0x0001bd22                TCPIP_Helper_ProtectedSingleListUnlock
                0x0001bd3e                TCPIP_Helper_DoubleListInitialize
                0x0001bd48                TCPIP_Helper_DoubleListHeadAdd
                0x0001bd6a                TCPIP_Helper_DoubleListTailAdd
                0x0001bd8e                TCPIP_Helper_DoubleListMidAdd
                0x0001bda2                TCPIP_Helper_DoubleListHeadRemove
                0x0001bdc6                TCPIP_Helper_DoubleListTailRemove
                0x0001bdea                TCPIP_Helper_DoubleListMidRemove
                0x0001bdfe                TCPIP_Helper_DoubleListNodeRemove
                0x0001be1e                TCPIP_Helper_DoubleListFind
                0x0001be3e                TCPIP_Helper_ProtectedDoubleListInitialize
                0x0001be60                TCPIP_Helper_ProtectedDoubleListDeinitialize
                0x0001be90                TCPIP_Helper_ProtectedDoubleListHeadAdd
                0x0001beba                TCPIP_Helper_ProtectedDoubleListTailAdd
                0x0001bee4                TCPIP_Helper_ProtectedDoubleListMidAdd
                0x0001bf12                TCPIP_Helper_ProtectedDoubleListHeadRemove
                0x0001bf3e                TCPIP_Helper_ProtectedDoubleListTailRemove
                0x0001bf6a                TCPIP_Helper_ProtectedDoubleListMidRemove
                0x0001bf94                TCPIP_Helper_ProtectedDoubleListNodeRemove
                0x0001bfbe                TCPIP_Helper_ProtectedDoubleListRemoveAll
                0x0001bfe8                TCPIP_Helper_ProtectedDoubleListLock
                0x0001bffc                TCPIP_Helper_ProtectedDoubleListUnlock
                0x0001c00c                TCPIP_Helper_TCPSecurePortGet
                0x0001c010                TCPIP_Helper_UDPSecurePortGet
                0x0001c014                TCPIP_Helper_SecurePortGetByIndex
                0x0001c020                TCPIP_Helper_SecurePortSet

.rodata%78      0x0001c024      0xfb4
 .rodata        0x0001c024      0xfb4 build/aws_demos/production/_ext/198771642/aws_dev_mode_key_provisioning.o

.text%79        0x0001cfd8     0x1d74
 .text          0x0001cfd8      0xec0 build/aws_demos/production/_ext/1319661984/drv_gmac.o
                0x0001cfd8                DRV_GMAC_Status
                0x0001cfea                DRV_GMAC_ConfigGet
                0x0001d01e                DRV_GMAC_Open
                0x0001d058                DRV_GMAC_Close
                0x0001d06a                DRV_GMAC_LinkCheck
                0x0001d094                DRV_GMAC_PowerMode
                0x0001d0ea                DRV_GMAC_EventPendingGet
                0x0001d310                DRV_GMAC_Initialize
                0x0001d76c                DRV_GMAC_Tasks
                0x0001d9ba                DRV_GMAC_PacketTx
                0x0001da5c                DRV_GMAC_PacketRx
                0x0001db44                DRV_GMAC_RxFilterHashTableEntrySet
                0x0001db88                DRV_GMAC_StatisticsGet
                0x0001dbf6                DRV_GMAC_RegisterStatisticsGet
                0x0001dc3c                DRV_GMAC_ParametersGet
                0x0001dc6c                DRV_GMAC_EventMaskSet
                0x0001dd4c                DRV_GMAC_EventAcknowledge
                0x0001dda0                DRV_GMAC_Process
                0x0001dddc                DRV_GMAC_Tasks_ISR
                0x0001de8c                GMAC_InterruptHandler
 .text          0x0001de98      0xeb4 build/aws_demos/production/_ext/1319661984/drv_gmac_lib_samE5x.o
                0x0001de98                DRV_PIC32CGMAC_LibInitTransfer
                0x0001dee8                DRV_PIC32CGMAC_LibTransferEnable
                0x0001df08                DRV_PIC32CGMAC_LibClose
                0x0001df24                DRV_PIC32CGMAC_LibMACOpen
                0x0001df8c                DRV_PIC32CGMAC_SingleListHeadRemove
                0x0001dfa8                DRV_PIC32CGMAC_SingleListTailAdd
                0x0001e0e6                DRV_PIC32CGMAC_LibRxBuffersAppend
                0x0001e218                DRV_PIC32CGMAC_LibRxInit
                0x0001e2c0                DRV_PIC32CGMAC_LibTxInit
                0x0001e36c                DRV_PIC32CGMAC_LibTxAckPacket
                0x0001e46c                DRV_PIC32CGMAC_LibRxGetPacket
                0x0001e876                DRV_PIC32CGMAC_SingleListHeadAdd
                0x0001e88e                DRV_PIC32CGMAC_LibTxSendPacket
                0x0001eaa0                DRV_GMAC_LibDescriptorsPoolAdd
                0x0001eac0                DRV_PIC32CGMAC_LibRxFilterHash_Calculate
                0x0001ec38                DRV_PIC32CGMAC_LibSetMacAddr
                0x0001ec68                DRV_PIC32CGMAC_LibInit
                0x0001ecc8                DRV_PIC32CGMAC_LibGetMacAddr
                0x0001ed00                DRV_PIC32CGMAC_LibRxBuffersCountGet

.rodata%81      0x0001ed4c      0xeac
 .rodata        0x0001ed4c      0xeac build/aws_demos/production/_ext/112156576/iot_pkcs11_mbedtls.o

.text%82        0x0001fbf8     0x1bd4
 .text          0x0001fbf8      0xe8c build/aws_demos/production/_ext/1739149067/iot_mqtt_operation.o
                0x0001fc34                _IotMqtt_ProcessKeepAlive
                0x0001fe20                _IotMqtt_ProcessIncomingPublish
                0x0001fee0                _IotMqtt_CreateOperation
                0x00020024                _IotMqtt_DecrementOperationReferences
                0x000200d4                _IotMqtt_DestroyOperation
                0x00020264                _IotMqtt_ProcessCompletedOperation
                0x000202f8                _IotMqtt_ScheduleOperation
                0x000203b8                _IotMqtt_FindOperation
                0x00020554                _IotMqtt_Notify
                0x000206f0                _IotMqtt_ProcessSend
 .text          0x00020a84      0xd48 build/aws_demos/production/_ext/811507611/queue.o
                0x00020bb6                xQueueGenericReset
                0x00020c38                xQueueGenericCreateStatic
                0x00020cc8                xQueueGenericCreate
                0x00020d18                xQueueCreateCountingSemaphoreStatic
                0x00020d60                xQueueCreateCountingSemaphore
                0x00020d9c                xQueueGenericSend
                0x00020f2c                xQueueCreateMutex
                0x00020f42                xQueueCreateMutexStatic
                0x00020f60                xQueueGiveMutexRecursive
                0x00020fa0                xQueueGenericSendFromISR
                0x00021064                xQueueGiveFromISR
                0x00021108                xQueueReceive
                0x00021254                xQueueSemaphoreTake
                0x000213f4                xQueueTakeMutexRecursive
                0x00021438                xQueuePeek
                0x00021580                xQueueReceiveFromISR
                0x00021628                xQueuePeekFromISR
                0x00021698                uxQueueMessagesWaiting
                0x000216bc                uxQueueSpacesAvailable
                0x000216e4                uxQueueMessagesWaitingFromISR
                0x00021700                vQueueDelete
                0x00021728                uxQueueGetQueueNumber
                0x0002172c                vQueueSetQueueNumber
                0x00021730                ucQueueGetQueueType
                0x00021736                xQueueIsQueueEmptyFromISR
                0x00021758                xQueueIsQueueFullFromISR
                0x0002177c                vQueueWaitForMessageRestricted

.rodata%84      0x000217cc      0xd28
 .rodata        0x000217cc      0xd28 build/aws_demos/production/_ext/684768522/oid.o

.text%85        0x000224f4     0x18f8
 .text          0x000224f4      0xc90 build/aws_demos/production/_ext/684768522/gcm.o
                0x00022684                mbedtls_gcm_init
                0x00022692                mbedtls_gcm_setkey
                0x00022876                mbedtls_gcm_starts
                0x000229de                mbedtls_gcm_update
                0x00022b04                mbedtls_gcm_finish
                0x00022c0c                mbedtls_gcm_crypt_and_tag
                0x00022c4e                mbedtls_gcm_auth_decrypt
                0x00022cb0                mbedtls_gcm_free
                0x00022cc8                mbedtls_gcm_self_test
 .text          0x00023184      0xc68 build/aws_demos/production/_ext/198771642/aws_dev_mode_key_provisioning.o
                0x00023274                xProvisionPrivateKey
                0x00023544                xProvisionPublicKey
                0x00023708                xProvisionGenerateKeyPairRSA
                0x000237d4                xProvisionGenerateKeyPairEC
                0x000238a4                xDestroyProvidedObjects
                0x00023928                xProvisionCertificate
                0x00023a18                xDestroyDefaultCryptoObjects
                0x00023a4c                xProvisionDevice
                0x00023d74                vAlternateKeyProvisioning
                0x00023dba                vDevModeKeyProvisioning

.rodata%87      0x00023df0      0xc64
 .rodata        0x00023df0      0xc64 build/aws_demos/production/_ext/684768522/gcm.o

.text%88        0x00024a54      0xc40
 .text          0x00024a54      0xc40 build/aws_demos/production/_ext/1739149067/iot_mqtt_serialize.o
                0x00024aea                _IotMqtt_GetPacketType
                0x00024b04                _IotMqtt_GetRemainingLength
                0x00024b80                _IotMqtt_SerializeConnect
                0x00024d40                _IotMqtt_DeserializeConnack
                0x00024e40                _IotMqtt_SerializePublish
                0x00024f6c                _IotMqtt_PublishSetDup
                0x00024fd8                _IotMqtt_DeserializePublish
                0x000251c0                _IotMqtt_SerializePuback
                0x00025208                _IotMqtt_DeserializePuback
                0x0002528c                _IotMqtt_SerializeSubscribe
                0x0002538c                _IotMqtt_DeserializeSuback
                0x00025490                _IotMqtt_SerializeUnsubscribe
                0x0002558c                _IotMqtt_DeserializeUnsuback
                0x0002560c                _IotMqtt_SerializePingreq
                0x0002561c                _IotMqtt_DeserializePingresp
                0x00025670                _IotMqtt_SerializeDisconnect
                0x00025680                _IotMqtt_FreePacket

.rodata%89      0x00025694      0xc14
 .rodata        0x00025694      0xc14 build/aws_demos/production/_ext/2040524622/aws_iot_network_manager.o

.text%90        0x000262a8     0x3668
 .text          0x000262a8      0xbf8 build/aws_demos/production/_ext/1682906662/FreeRTOS_IP.o
                0x000262f8                xIsCallingFromIPTask
                0x00026310                FreeRTOS_NetworkDownFromISR
                0x00026344                FreeRTOS_GetUDPPayloadBuffer
                0x00026368                pxDuplicateNetworkBufferWithDescriptor
                0x00026396                pxPacketBuffer_to_NetworkBuffer
                0x000263ac                pxUDPPayloadBuffer_to_NetworkBuffer
                0x000263c6                FreeRTOS_ReleaseUDPPayloadBuffer
                0x000263d2                FreeRTOS_IPInit
                0x00026518                FreeRTOS_GetAddressConfiguration
                0x00026568                FreeRTOS_SetAddressConfiguration
                0x000265b4                xSendEventStructToIPTask
                0x00026624                FreeRTOS_NetworkDown
                0x00026644                xSendEventToIPTask
                0x0002665c                eConsiderFrameForProcessing
                0x0002669c                vIPNetworkUpCalls
                0x000266d0                usGenerateChecksum
                0x000267b4                usGenerateProtocolChecksum
                0x0002697c                vReturnEthernetFrame
                0x00026dae                FreeRTOS_GetIPAddress
                0x00026db8                FreeRTOS_SetIPAddress
                0x00026dc4                FreeRTOS_GetGatewayAddress
                0x00026dd0                FreeRTOS_GetDNSServerAddress
                0x00026ddc                FreeRTOS_GetNetmask
                0x00026de8                FreeRTOS_UpdateMACAddress
                0x00026dfc                FreeRTOS_GetMACAddress
                0x00026e04                FreeRTOS_SetNetmask
                0x00026e10                FreeRTOS_SetGatewayAddress
                0x00026e1c                vIPSetDHCPTimerEnableState
                0x00026e44                vIPReloadDHCPTimer
                0x00026e88                xIPIsNetworkTaskReady
                0x00026e94                FreeRTOS_IsNetworkUp
 .text          0x00026ea0      0xacc build/aws_demos/production/_ext/684768522/sha256.o
                0x00026ea0                mbedtls_sha256_init
                0x00026eac                mbedtls_sha256_free
                0x00026eba                mbedtls_sha256_clone
                0x00026ec4                mbedtls_sha256_starts_ret
                0x00026f68                mbedtls_internal_sha256_process
                0x0002760e                mbedtls_sha256_update_ret
                0x000276a0                mbedtls_sha256_finish_ret
                0x000277da                mbedtls_sha256_ret
                0x00027820                mbedtls_sha256_self_test
 .text          0x0002796c      0xaac build/aws_demos/production/_ext/1991396724/sys_command.o
                0x00027d7c                SYS_CMD_READY_TO_READ
                0x00027d80                SYS_CMD_ADDGRP
                0x00027dfc                SYS_CMD_Tasks
                0x00028220                SYS_CMD_MESSAGE
                0x0002822c                SYS_CMD_PRINT
                0x000282a8                SYS_CMDIO_GET_HANDLE
                0x000282d4                SYS_CMDIO_ADD
                0x0002836c                SYS_CMD_Initialize
                0x000283a4                SYS_CMD_DELETE
 .text          0x00028418      0xa94 build/aws_demos/production/_ext/484134862/sys_time.o
                0x000287f0                SYS_TIME_Initialize
                0x000288bc                SYS_TIME_Deinitialize
                0x000288f0                SYS_TIME_Status
                0x00028904                SYS_TIME_FrequencyGet
                0x00028910                SYS_TIME_Counter64Get
                0x00028954                SYS_TIME_CounterGet
                0x0002895c                SYS_TIME_CounterSet
                0x00028980                SYS_TIME_CountToUS
                0x000289c4                SYS_TIME_CountToMS
                0x00028a00                SYS_TIME_USToCount
                0x00028a20                SYS_TIME_MSToCount
                0x00028a3c                SYS_TIME_TimerCreate
                0x00028a58                SYS_TIME_TimerReload
                0x00028ae0                SYS_TIME_TimerDestroy
                0x00028bf8                SYS_TIME_TimerStart
                0x00028c50                SYS_TIME_TimerStop
                0x00028c8c                SYS_TIME_TimerCounterGet
                0x00028d18                SYS_TIME_TimerPeriodHasExpired
                0x00028d40                SYS_TIME_DelayUS
                0x00028d94                SYS_TIME_DelayMS
                0x00028de4                SYS_TIME_DelayIsComplete
                0x00028dfc                SYS_TIME_CallbackRegisterUS
                0x00028e54                SYS_TIME_CallbackRegisterMS
 .text          0x00028eac      0xa64 build/aws_demos/production/_ext/684768522/pkparse.o
                0x000294f8                mbedtls_pk_parse_subpubkey
                0x000295ec                mbedtls_pk_parse_key
                0x000297c0                mbedtls_pk_parse_public_key

.rodata%95      0x00029910     0x1384
 .rodata        0x00029910      0x9cc build/aws_demos/production/_ext/1739149067/iot_mqtt_operation.o
 .rodata        0x0002a2dc      0x9b8 build/aws_demos/production/_ext/1739149067/iot_mqtt_api.o

.text%97        0x0002ac94     0x131c
 .text          0x0002ac94      0x998 build/aws_demos/production/_ext/211704168/drv_miim.o
                0x0002ac94                DRV_MIIM_Reinitialize
                0x0002ac96                DRV_MIIM_Status
                0x0002adfa                DRV_MIIM_ClientStatus
                0x0002ae10                DRV_MIIM_RegisterCallback
                0x0002ae4a                DRV_MIIM_DeregisterCallback
                0x0002ae78                DRV_MIIM_Setup
                0x0002af14                DRV_MIIM_Open
                0x0002af90                Helper_SingleListInitialize
                0x0002af9a                Helper_SingleListTailAdd
                0x0002afb4                DRV_MIIM_Initialize
                0x0002b038                Helper_SingleListHeadRemove
                0x0002b13c                DRV_MIIM_Read
                0x0002b156                DRV_MIIM_Write
                0x0002b170                DRV_MIIM_Scan
                0x0002b18a                Helper_SingleListNodeRemove
                0x0002b33c                DRV_MIIM_Deinitialize
                0x0002b376                DRV_MIIM_Close
                0x0002b38e                DRV_MIIM_Tasks
                0x0002b57c                DRV_MIIM_OperationResult
                0x0002b5e0                DRV_MIIM_OperationAbort
 .text          0x0002b62c      0x984 build/aws_demos/production/_ext/684768522/cipher.o
                0x0002b838                mbedtls_cipher_list
                0x0002b874                mbedtls_cipher_info_from_type
                0x0002b89c                mbedtls_cipher_info_from_string
                0x0002b8cc                mbedtls_cipher_info_from_values
                0x0002b904                mbedtls_cipher_init
                0x0002b910                mbedtls_cipher_free
                0x0002b92e                mbedtls_cipher_setkey
                0x0002b97c                mbedtls_cipher_set_iv
                0x0002b9c4                mbedtls_cipher_reset
                0x0002b9d8                mbedtls_cipher_update_ad
                0x0002ba10                mbedtls_cipher_update
                0x0002bc2c                mbedtls_cipher_finish
                0x0002bd5c                mbedtls_cipher_set_padding_mode
                0x0002bdec                mbedtls_cipher_setup
                0x0002be24                mbedtls_cipher_write_tag
                0x0002be50                mbedtls_cipher_check_tag
                0x0002bebc                mbedtls_cipher_crypt
                0x0002bf1c                mbedtls_cipher_auth_encrypt
                0x0002bf60                mbedtls_cipher_auth_decrypt

.rodata%99      0x0002bfb0     0x1044
 .rodata        0x0002bfb0      0x844 build/aws_demos/production/_ext/684768522/x509_crt.o
                0x0002c3ac                mbedtls_x509_crt_profile_default
                0x0002c7d4                mbedtls_x509_crt_profile_suiteb
                0x0002c7e4                mbedtls_x509_crt_profile_next
 .rodata        0x0002c7f4      0x800 build/aws_demos/production/_ext/1739149067/iot_mqtt_serialize.o

.dinit%101      0x0002cff4      0x7e0
 .dinit         0x0002cff4      0x7e0 data_init

.rodata%102     0x0002d7d4      0xee0
 .rodata        0x0002d7d4      0x77c build/aws_demos/production/_ext/1319661984/drv_gmac.o
                0x0002def8                DRV_GMAC_Object
 .rodata        0x0002df50      0x764 build/aws_demos/production/_ext/1682906662/FreeRTOS_TCP_IP.o

.text%104       0x0002e6b4      0x74c
 .text          0x0002e6b4      0x74c build/aws_demos/production/_ext/684768522/ctr_drbg.o
                0x0002e926                mbedtls_ctr_drbg_init
                0x0002e944                mbedtls_ctr_drbg_free
                0x0002e970                mbedtls_ctr_drbg_set_prediction_resistance
                0x0002e974                mbedtls_ctr_drbg_set_entropy_len
                0x0002e978                mbedtls_ctr_drbg_set_reseed_interval
                0x0002e97c                mbedtls_ctr_drbg_update_ret
                0x0002e9ac                mbedtls_ctr_drbg_reseed
                0x0002ea3c                mbedtls_ctr_drbg_seed_entropy_len
                0x0002ea96                mbedtls_ctr_drbg_seed
                0x0002eaaa                mbedtls_ctr_drbg_random_with_add
                0x0002eba0                mbedtls_ctr_drbg_random
                0x0002ebf0                mbedtls_ctr_drbg_self_test

.rodata%105     0x0002ee00      0xe88
 .rodata        0x0002ee00      0x744 build/aws_demos/production/_ext/684768522/bignum.o
 .rodata        0x0002f544      0x744 build/aws_demos/production/_ext/1739149067/iot_mqtt_validate.o

.text%107       0x0002fc88      0xdbc
 .text          0x0002fc88      0x6e4 build/aws_demos/production/_ext/2039890517/iot_tls.o
                0x0002ff0a                TLS_Init
                0x0002ff6a                TLS_Connect
                0x000302a0                TLS_Recv
                0x000302ec                TLS_Send
                0x00030350                TLS_Cleanup
 .text          0x0003036c      0x6d8 build/aws_demos/production/_ext/684768522/x509.o
                0x000303c8                mbedtls_x509_get_serial
                0x0003041c                mbedtls_x509_get_alg_null
                0x0003042e                mbedtls_x509_get_alg
                0x00030440                mbedtls_x509_get_name
                0x00030564                mbedtls_x509_get_time
                0x00030704                mbedtls_x509_get_sig
                0x00030744                mbedtls_x509_get_sig_alg
                0x00030788                mbedtls_x509_get_ext
                0x000307e8                mbedtls_x509_dn_gets
                0x00030900                mbedtls_x509_serial_gets
                0x000309c0                mbedtls_x509_sig_alg_gets
                0x00030a10                mbedtls_x509_key_size_helper
                0x00030a38                mbedtls_x509_time_is_past
                0x00030a3c                mbedtls_x509_time_is_future
                0x00030a40                mbedtls_x509_self_test

.rodata%109     0x00030a44      0x6ac
 .rodata        0x00030a44      0x6ac build/aws_demos/production/_ext/13066905/iot_device_metrics.o

.text%110       0x000310f0     0x3ce0
 .text          0x000310f0      0x68c build/aws_demos/production/_ext/684768522/rsa_internal.o
                0x000310f0                mbedtls_rsa_deduce_primes
                0x00031348                mbedtls_rsa_deduce_private_exponent
                0x00031422                mbedtls_rsa_validate_crt
                0x00031538                mbedtls_rsa_validate_params
                0x00031700                mbedtls_rsa_deduce_crt
 .text          0x0003177c      0x670 build/aws_demos/production/_ext/811507611/timers.o
                0x0003180c                xTimerCreateTimerTask
                0x00031874                xTimerCreate
                0x000318cc                xTimerCreateStatic
                0x00031944                xTimerGenericCommand
                0x00031c1c                xTimerGetTimerDaemonTaskHandle
                0x00031c44                xTimerGetPeriod
                0x00031c60                vTimerSetReloadMode
                0x00031ca0                uxTimerGetReloadMode
                0x00031ccc                xTimerGetExpiryTime
                0x00031ce8                pcTimerGetName
                0x00031d04                xTimerIsTimerActive
                0x00031d30                pvTimerGetTimerID
                0x00031d54                vTimerSetTimerID
                0x00031d78                xTimerPendFunctionCallFromISR
                0x00031da0                xTimerPendFunctionCall
                0x00031de4                uxTimerGetTimerNumber
                0x00031de8                vTimerSetTimerNumber
 .text          0x00031dec      0x66c build/aws_demos/production/_ext/366737/iot_secure_sockets.o
                0x00031ef0                SOCKETS_Close
                0x00031f60                SOCKETS_Connect
                0x00032010                SOCKETS_GetHostByName
                0x00032018                SOCKETS_Recv
                0x00032044                SOCKETS_Send
                0x00032070                SOCKETS_SetSockOpt
                0x00032218                SOCKETS_Shutdown
                0x00032230                SOCKETS_Socket
                0x000322a4                SOCKETS_Init
                0x000322a8                xApplicationGetRandomNumber
                0x000322e6                ulApplicationGetNextSequenceNumber
 .text          0x00032458      0x668 build/aws_demos/production/_ext/1682906662/FreeRTOS_DHCP.o
                0x00032880                xIsDHCPSocket
                0x00032894                vDHCPProcess
 .text          0x00032ac0      0x650 build/aws_demos/production/_ext/1739149067/iot_mqtt_network.o
                0x00032ae6                _IotMqtt_GetNextByte
                0x00032b24                _IotMqtt_CloseNetworkConnection
                0x00032c4c                IotMqtt_ReceiveCallback
 .text          0x00033110      0x5e8 build/aws_demos/production/_ext/520142351/iot_network_freertos.o
                0x00033140                IotNetworkAfr_Create
                0x0003335c                IotNetworkAfr_SetReceiveCallback
                0x000333c4                IotNetworkAfr_Receive
                0x000334b0                IotNetworkAfr_ReceiveUpto
                0x00033624                IotNetworkAfr_Send
                0x00033680                IotNetworkAfr_Close
                0x000336b8                IotNetworkAfr_Destroy
 .text          0x000336f8      0x5d0 build/aws_demos/production/_ext/684768522/entropy.o
                0x00033852                mbedtls_entropy_free
                0x00033880                mbedtls_entropy_add_source
                0x000338e4                mbedtls_entropy_init
                0x0003392c                mbedtls_entropy_update_manual
                0x00033974                mbedtls_entropy_gather
                0x000339b0                mbedtls_entropy_func
                0x00033abc                mbedtls_entropy_source_self_test
                0x00033bb4                mbedtls_entropy_self_test
 .text          0x00033cc8      0x5b0 build/aws_demos/production/_ext/1778494626/NetworkInterface_eth.o
                0x00033f36                xNetworkInterfaceOutput
                0x00033fc8                PIC32_GetMacConfigData
                0x00033fd0                xGetPhyLinkStatus
                0x00033fdc                xNetworkInterfaceInitialise
 .text          0x00034278      0x5ac build/aws_demos/production/_ext/1441508942/iot_demo_mqtt.o
                0x00034424                RunMqttDemo
 .text          0x00034824      0x5ac build/aws_demos/production/_ext/684768522/ecdsa.o
                0x00034b8c                mbedtls_ecdsa_sign
                0x00034bac                mbedtls_ecdsa_verify
                0x00034bc4                mbedtls_ecdsa_write_signature_restartable
                0x00034c72                mbedtls_ecdsa_write_signature
                0x00034c92                mbedtls_ecdsa_read_signature_restartable
                0x00034d3c                mbedtls_ecdsa_read_signature
                0x00034d50                mbedtls_ecdsa_genkey
                0x00034d80                mbedtls_ecdsa_init
                0x00034d88                mbedtls_ecdsa_free
                0x00034d94                mbedtls_ecdsa_from_keypair

.rodata%120     0x00034dd0      0x5a4
 .rodata        0x00034dd0      0x5a4 build/aws_demos/production/_ext/684768522/ssl_ciphersuites.o

.text%121       0x00035374      0xb38
 .text          0x00035374      0x5a0 build/aws_demos/production/_ext/1682906662/FreeRTOS_DNS.o
                0x00035710                FreeRTOS_dnsclear
                0x00035724                FreeRTOS_dnslookup
                0x0003573e                FreeRTOS_gethostbyname
                0x000358f4                ulDNSHandlePacket
 .text          0x00035914      0x598 build/aws_demos/production/_ext/1739149067/iot_mqtt_subscription.o
                0x00035a70                _IotMqtt_InvokeSubscriptionCallback
                0x00035b74                _IotMqtt_RemoveSubscriptionByPacket
                0x00035c0c                _IotMqtt_RemoveSubscriptionByTopicFilter
                0x00035ce8                _IotMqtt_AddSubscriptions
                0x00035e24                IotMqtt_IsSubscribed

.rodata%123     0x00035eac      0x58c
 .rodata        0x00035eac      0x58c build/aws_demos/production/_ext/1739149067/iot_mqtt_network.o

.text%124       0x00036438      0xf6c
 .text          0x00036438      0x540 build/aws_demos/production/_ext/684768522/ecp_curves.o
                0x000368f6                mbedtls_ecp_group_load
 .text          0x00036978      0x524 build/aws_demos/production/_ext/684768522/pkwrite.o
                0x000369f6                mbedtls_pk_write_pubkey
                0x00036ac8                mbedtls_pk_write_pubkey_der
                0x00036ba4                mbedtls_pk_write_key_der
 .text          0x00036e9c      0x508 build/aws_demos/production/_ext/684768522/asn1write.o
                0x00036e9c                mbedtls_asn1_write_len
                0x00036faa                mbedtls_asn1_write_tag
                0x00036fc4                mbedtls_asn1_write_raw_buffer
                0x00036ff2                mbedtls_asn1_write_mpi
                0x00037078                mbedtls_asn1_write_null
                0x0003709c                mbedtls_asn1_write_oid
                0x000370ce                mbedtls_asn1_write_algorithm_identifier
                0x0003711e                mbedtls_asn1_write_bool
                0x00037162                mbedtls_asn1_write_int
                0x000371ca                mbedtls_asn1_write_tagged_string
                0x00037202                mbedtls_asn1_write_utf8_string
                0x00037216                mbedtls_asn1_write_printable_string
                0x0003722a                mbedtls_asn1_write_ia5_string
                0x0003723e                mbedtls_asn1_write_bitstring
                0x000372b2                mbedtls_asn1_write_octet_string
                0x000372e4                mbedtls_asn1_store_named_data

.rodata%127     0x000373a4      0x500
 .rodata        0x000373a4      0x500 build/aws_demos/production/_ext/333408969/iot_taskpool.o

.text%128       0x000378a4      0x4dc
 .text          0x000378a4      0x4dc build/aws_demos/production/_ext/684768522/oid.o
                0x000378dc                mbedtls_oid_get_attr_short_name
                0x00037930                mbedtls_oid_get_x509_ext_type
                0x00037988                mbedtls_oid_get_extended_key_usage
                0x000379e0                mbedtls_oid_get_sig_alg_desc
                0x000379f8                mbedtls_oid_get_sig_alg
                0x00037a16                mbedtls_oid_get_oid_by_sig_alg
                0x00037a48                mbedtls_oid_get_pk_alg
                0x00037aa0                mbedtls_oid_get_oid_by_pk_alg
                0x00037adc                mbedtls_oid_get_ec_grp
                0x00037b34                mbedtls_oid_get_oid_by_ec_grp
                0x00037b70                mbedtls_oid_get_cipher_alg
                0x00037bc8                mbedtls_oid_get_md_alg
                0x00037c20                mbedtls_oid_get_oid_by_md
                0x00037c5c                mbedtls_oid_get_md_hmac
                0x00037cb4                mbedtls_oid_get_numeric_string

.text.___svfscanf_r_cdnopsuxX%129
                0x00037d80      0x4dc
 .text.___svfscanf_r_cdnopsuxX
                0x00037d80      0x4dc c:/program files/microchip/xc32/v2.40/bin/bin/../../lib/gcc/pic32c/6.2.1/../../../../pic32c/lib/v7e-m/fpv4-sp/hard\libc_nano.a(_lib_a-nano-vfscanf.cdnopsuxX.o)
                0x00037d80                ___svfscanf_r_cdnopsuxX

.text%130       0x0003825c      0x4a4
 .text          0x0003825c      0x4a4 build/aws_demos/production/_ext/731420310/plib_sercom6_usart.o
                0x00038294                SERCOM6_USART_Initialize
                0x000382f8                SERCOM6_USART_FrequencyGet
                0x00038300                SERCOM6_USART_SerialSetup
                0x00038408                SERCOM6_USART_ErrorGet
                0x00038424                SERCOM6_USART_Read
                0x0003849c                SERCOM6_USART_ReadCountGet
                0x000384b0                SERCOM6_USART_ReadFreeBufferCountGet
                0x000384bc                SERCOM6_USART_ReadBufferSizeGet
                0x000384c0                SERCOM6_USART_ReadNotificationEnable
                0x000384d8                SERCOM6_USART_ReadThresholdSet
                0x000384e4                SERCOM6_USART_ReadCallbackRegister
                0x000384f0                SERCOM6_USART_WriteCountGet
                0x000384f8                SERCOM6_USART_Write
                0x00038554                SERCOM6_USART_WriteFreeBufferCountGet
                0x00038560                SERCOM6_USART_WriteBufferSizeGet
                0x00038564                SERCOM6_USART_WriteNotificationEnable
                0x00038574                SERCOM6_USART_WriteThresholdSet
                0x00038580                SERCOM6_USART_WriteCallbackRegister
                0x0003858c                SERCOM6_USART_InterruptHandler

.rodata%131     0x00038700      0x47c
 .rodata        0x00038700      0x47c build/aws_demos/production/_ext/1441508942/iot_demo_mqtt.o

.text%132       0x00038b7c      0x47c
 .text          0x00038b7c      0x47c build/aws_demos/production/_ext/1739149067/iot_mqtt_validate.o
                0x00038b7c                _IotMqtt_ValidateConnect
                0x00038cc0                _IotMqtt_ValidatePublish
                0x00038db8                _IotMqtt_ValidateOperation
                0x00038e00                _IotMqtt_ValidateSubscriptionList

.rodata%133     0x00038ff8      0x460
 .rodata        0x00038ff8      0x460 build/aws_demos/production/_ext/1682906662/FreeRTOS_Sockets.o

.text%134       0x00039458     0x1c18
 .text          0x00039458      0x438 build/aws_demos/production/_ext/1682906662/FreeRTOS_ARP.o
                0x00039458                vARPRefreshCacheEntry
                0x00039588                eARPProcessPacket
                0x00039628                eARPGetCacheEntry
                0x000396c8                vARPSendGratuitous
                0x000396dc                vARPGenerateRequestPacket
                0x00039764                FreeRTOS_OutputARPRequest
                0x000397ac                vARPAgeCache
                0x0003981c                FreeRTOS_ClearARP
                0x00039830                FreeRTOS_PrintARPCache
 .text          0x00039890      0x428 build/aws_demos/production/_ext/684768522/md.o
                0x00039890                mbedtls_md_list
                0x00039898                mbedtls_md_info_from_string
                0x000398fc                mbedtls_md_info_from_type
                0x00039924                mbedtls_md_init
                0x0003992e                mbedtls_md_free
                0x00039960                mbedtls_md_clone
                0x00039998                mbedtls_md_setup
                0x000399e0                mbedtls_md_starts
                0x000399fc                mbedtls_md_update
                0x00039a1c                mbedtls_md_finish
                0x00039a38                mbedtls_md
                0x00039a54                mbedtls_md_hmac_starts
                0x00039b2c                mbedtls_md_hmac_update
                0x00039b54                mbedtls_md_hmac_finish
                0x00039bd8                mbedtls_md_hmac_reset
                0x00039c18                mbedtls_md_hmac
                0x00039c7c                mbedtls_md_process
                0x00039c98                mbedtls_md_get_size
                0x00039ca4                mbedtls_md_get_type
                0x00039cae                mbedtls_md_get_name
 .text          0x00039cb8      0x40c build/aws_demos/production/_ext/811507611/event_groups.o
                0x00039cb8                xEventGroupCreateStatic
                0x00039d08                xEventGroupCreate
                0x00039d24                xEventGroupWaitBits
                0x00039e2c                xEventGroupClearBits
                0x00039e6c                vEventGroupClearBitsCallback
                0x00039e74                xEventGroupClearBitsFromISR
                0x00039e88                xEventGroupGetBitsFromISR
                0x00039ea4                xEventGroupSetBits
                0x00039f3c                xEventGroupSync
                0x0003a04c                vEventGroupSetBitsCallback
                0x0003a054                vEventGroupDelete
                0x0003a0a0                xEventGroupSetBitsFromISR
                0x0003a0b4                uxEventGroupGetNumber
                0x0003a0be                vEventGroupSetNumber
 .text          0x0003a0c4      0x3f8 build/aws_demos/production/_ext/684768522/asn1parse.o
                0x0003a0c4                mbedtls_asn1_get_len
                0x0003a18a                mbedtls_asn1_get_tag
                0x0003a1b0                mbedtls_asn1_get_bool
                0x0003a1e8                mbedtls_asn1_get_int
                0x0003a244                mbedtls_asn1_get_mpi
                0x0003a274                mbedtls_asn1_get_bitstring
                0x0003a2c2                mbedtls_asn1_get_bitstring_null
                0x0003a2f8                mbedtls_asn1_get_sequence_of
                0x0003a386                mbedtls_asn1_get_alg
                0x0003a422                mbedtls_asn1_get_alg_null
                0x0003a458                mbedtls_asn1_free_named_data
                0x0003a476                mbedtls_asn1_free_named_data_list
                0x0003a496                mbedtls_asn1_find_named_data
 .text          0x0003a4bc      0x3e8 build/aws_demos/production/_ext/684768522/base64.o
                0x0003a4bc                mbedtls_base64_encode
                0x0003a5fc                mbedtls_base64_decode
                0x0003a7b0                mbedtls_base64_self_test
 .text          0x0003a8a4      0x3e8 build/aws_demos/production/_ext/684768522/pk_wrap.o
 .text          0x0003ac8c      0x3e4 build/aws_demos/production/_ext/520142351/iot_threads_freertos.o
                0x0003aca4                Iot_CreateDetachedThread
                0x0003ad40                IotMutex_Create
                0x0003ad90                IotMutex_Destroy
                0x0003adac                prIotMutexTimedLock
                0x0003ae00                IotMutex_Lock
                0x0003ae0c                IotMutex_TryLock
                0x0003ae16                IotMutex_Unlock
                0x0003ae60                IotSemaphore_Create
                0x0003aea0                IotSemaphore_GetCount
                0x0003aee0                IotSemaphore_Destroy
                0x0003af18                IotSemaphore_Wait
                0x0003af7c                IotSemaphore_TimedWait
                0x0003afdc                IotSemaphore_TryWait
                0x0003b018                IotSemaphore_Post

.rodata%141     0x0003b070      0x790
 .rodata        0x0003b070      0x3d4 build/aws_demos/production/_ext/684768522/rsa.o
 .rodata        0x0003b444      0x3bc build/aws_demos/production/_ext/520142351/iot_network_freertos.o
                0x0003b7e4                IotNetworkAfr

.text%143       0x0003b800      0xde4
 .text          0x0003b800      0x3b0 build/aws_demos/production/_ext/13066905/iot_device_metrics.o
                0x0003b874                Utils_generateMD5Hash
                0x0003baac                getDeviceIdentifier
                0x0003bb38                getDeviceMetrics
                0x0003bba0                getDeviceMetricsLength
 .text          0x0003bbb0      0x390 build/aws_demos/production/_ext/731420310/plib_sercom2_usart.o
                0x0003bbd4                SERCOM2_USART_Initialize
                0x0003bc28                SERCOM2_USART_FrequencyGet
                0x0003bc30                SERCOM2_USART_SerialSetup
                0x0003bd6c                SERCOM2_USART_ErrorGet
                0x0003bd88                SERCOM2_USART_Write
                0x0003bdd0                SERCOM2_USART_WriteIsBusy
                0x0003bddc                SERCOM2_USART_WriteCountGet
                0x0003bde8                SERCOM2_USART_WriteCallbackRegister
                0x0003bdf4                SERCOM2_USART_Read
                0x0003be34                SERCOM2_USART_ReadIsBusy
                0x0003be40                SERCOM2_USART_ReadCountGet
                0x0003be4c                SERCOM2_USART_ReadCallbackRegister
                0x0003be58                SERCOM2_USART_InterruptHandler
 .text          0x0003bf40      0x358 build/aws_demos/production/_ext/1385882503/port.o
                0x0003bfb0                pxPortInitialiseStack
                0x0003bfdc                vPortSVCHandler
                0x0003c004                vPortEndScheduler
                0x0003c024                vPortEnterCritical
                0x0003c068                vPortExitCritical
                0x0003c094                xPortPendSVHandler
                0x0003c0f4                xPortSysTickHandler
                0x0003c120                vPortSetupTimerInterrupt
                0x0003c148                xPortStartScheduler
                0x0003c23c                vPortValidateInterruptPriority
 .text          0x0003c298      0x34c build/aws_demos/production/_ext/684768522/ecdh.o
                0x0003c298                mbedtls_ecdh_gen_public
                0x0003c2d2                mbedtls_ecdh_compute_shared
                0x0003c328                mbedtls_ecdh_init
                0x0003c370                mbedtls_ecdh_setup
                0x0003c384                mbedtls_ecdh_free
                0x0003c3ca                mbedtls_ecdh_make_params
                0x0003c444                mbedtls_ecdh_read_params
                0x0003c48c                mbedtls_ecdh_get_params
                0x0003c4e8                mbedtls_ecdh_make_public
                0x0003c53c                mbedtls_ecdh_read_public
                0x0003c570                mbedtls_ecdh_calc_secret

.rodata%147     0x0003c5e4      0x32c
 .rodata        0x0003c5e4      0x32c build/aws_demos/production/_ext/684768522/cipher_wrap.o
                0x0003c5e4                mbedtls_cipher_definitions

.text%148       0x0003c910      0xc48
 .text          0x0003c910      0x328 build/aws_demos/production/_ext/684768522/pk.o
                0x0003c910                mbedtls_pk_init
                0x0003c918                mbedtls_pk_free
                0x0003c934                mbedtls_pk_info_from_type
                0x0003c968                mbedtls_pk_setup
                0x0003c998                mbedtls_pk_setup_rsa_alt
                0x0003c9d8                mbedtls_pk_can_do
                0x0003c9f0                mbedtls_pk_verify_restartable
                0x0003ca40                mbedtls_pk_verify
                0x0003ca58                mbedtls_pk_verify_ext
                0x0003caac                mbedtls_pk_sign_restartable
                0x0003cb04                mbedtls_pk_sign
                0x0003cb24                mbedtls_pk_decrypt
                0x0003cb58                mbedtls_pk_encrypt
                0x0003cb8c                mbedtls_pk_check_pair
                0x0003cbd0                mbedtls_pk_get_bitlen
                0x0003cbe8                mbedtls_pk_debug
                0x0003cc0c                mbedtls_pk_get_name
                0x0003cc24                mbedtls_pk_get_type
 .text          0x0003cc38      0x318 build/aws_demos/production/_ext/2040524622/aws_iot_network_manager.o
                0x0003cc38                AwsIotNetworkManager_Init
                0x0003ccdc                AwsIotNetworkManager_SubscribeForStateChange
                0x0003cd5c                AwsIotNetworkManager_RemoveSubscription
                0x0003cdec                AwsIotNetworkManager_GetConfiguredNetworks
                0x0003ce10                AwsIotNetworkManager_GetEnabledNetworks
                0x0003ce54                AwsIotNetworkManager_GetConnectedNetworks
                0x0003ce98                AwsIotNetworkManager_EnableNetwork
                0x0003cebc                AwsIotNetworkManager_DisableNetwork
                0x0003cec0                AwsIotNetworkManager_GetNetworkInterface
                0x0003cef0                AwsIotNetworkManager_GetCredentials
                0x0003cf20                AwsIotNetworkManager_GetConnectionParams
 .text          0x0003cf50      0x304 build/aws_demos/production/_ext/1778494626/BufferAllocation_2.o
                0x0003cfb0                PIC32_MacPacketAllocate
                0x0003cfc4                PIC32_MacAssociate
                0x0003d00c                PIC32_MacPacketOrphan
                0x0003d020                NetworkBufferAllocate
                0x0003d034                NetworkBufferFree
                0x0003d078                xNetworkBuffersInitialise
                0x0003d0f0                pucGetNetworkBuffer
                0x0003d128                vReleaseNetworkBuffer
                0x0003d130                vReleaseNetworkBufferAndDescriptor
                0x0003d170                pxGetNetworkBufferWithDescriptor
                0x0003d1fc                uxGetNumberOfFreeNetworkBuffers
                0x0003d208                uxGetMinimumFreeNetworkBuffers
                0x0003d214                pxResizeNetworkBufferWithDescriptor
 .text          0x0003d254      0x304 build/aws_demos/production/_ext/1534684544/sys_console.o
                0x0003d254                SYS_CONSOLE_Initialize
                0x0003d2b8                SYS_CONSOLE_Status
                0x0003d308                SYS_CONSOLE_HandleGet
                0x0003d312                SYS_CONSOLE_DeviceGet
                0x0003d32c                SYS_CONSOLE_Tasks
                0x0003d354                SYS_CONSOLE_Read
                0x0003d388                SYS_CONSOLE_ReadFreeBufferCountGet
                0x0003d3bc                SYS_CONSOLE_ReadCountGet
                0x0003d3f0                SYS_CONSOLE_Write
                0x0003d424                SYS_CONSOLE_WriteFreeBufferCountGet
                0x0003d458                SYS_CONSOLE_WriteCountGet
                0x0003d48c                SYS_CONSOLE_Print
                0x0003d4fc                SYS_CONSOLE_Message
                0x0003d52c                SYS_CONSOLE_Flush

.rodata%152     0x0003d558      0x2e8
 .rodata        0x0003d558      0x2e8 build/aws_demos/production/_ext/1991396724/sys_command.o
                0x0003d7c4                sysConsoleApi

.text%153       0x0003d840      0x5b8
 .text          0x0003d840      0x2e4 build/aws_demos/production/_ext/1223942466/iot_demo_freertos.o
                0x0003d910                demoGetMqttSerializer
                0x0003d914                runDemoTask
                0x0003dae4                vApplicationMallocFailedHook
                0x0003db04                vApplicationStackOverflowHook
 .text          0x0003db24      0x2d4 build/aws_demos/production/_ext/1168480030/heap_4.o
                0x0003db78                pvPortMalloc
                0x0003dcc4                vPortFree
                0x0003dd6c                xPortGetFreeHeapSize
                0x0003dd78                xPortGetMinimumEverFreeHeapSize
                0x0003dd84                vPortInitialiseBlocks
                0x0003dd86                vPortGetHeapStats

.rodata%155     0x0003ddf8      0x2b8
 .rodata        0x0003ddf8      0x2b8 build/aws_demos/production/_ext/684768522/sha256.o

.text%156       0x0003e0b0      0x56c
 .text          0x0003e0b0      0x2b8 c:/program files/microchip/xc32/v2.40/bin/bin/../../lib/gcc/pic32c/6.2.1/v7e-m/fpv4-sp/hard\libgcc.a(_udivmoddi4.o)
                0x0003e0b0                __udivmoddi4
 .text          0x0003e368      0x2b4 build/aws_demos/production/_ext/2138053595/iot_pkcs11.o
                0x0003e368                xGetSlotList
                0x0003e3c2                prvOpenSession
                0x0003e3ee                xInitializePKCS11
                0x0003e420                xInitializePkcs11Token
                0x0003e4b0                xInitializePkcs11Session
                0x0003e520                xFindObjectWithLabelAndClass
                0x0003e5a0                vAppendSHA256AlgorithmIdentifierSequence

.rodata%158     0x0003e61c      0x2b0
 .rodata        0x0003e61c      0x2b0 build/aws_demos/production/_ext/1223942466/iot_demo_freertos.o

.text%159       0x0003e8cc      0x74c
 .text          0x0003e8cc      0x28c build/aws_demos/production/_ext/197858987/tcpip_packet.o
                0x0003e8cc                TCPIP_PKT_Initialize
                0x0003e8fc                TCPIP_PKT_Deinitialize
                0x0003e908                _TCPIP_PKT_PacketAcknowledge
                0x0003e926                TCPIP_PKT_SegmentAppend
                0x0003e93a                TCPIP_PKT_PacketMACFormat
                0x0003e972                TCPIP_PKT_DataSegmentGet
                0x0003e9e4                TCPIP_PKT_PayloadLen
                0x0003ea02                _TCPIP_PKT_PacketAlloc
                0x0003ea74                _TCPIP_PKT_SocketAlloc
                0x0003eaa0                _TCPIP_PKT_PacketFree
                0x0003eadc                _TCPIP_PKT_SegmentAlloc
                0x0003eb3c                _TCPIP_PKT_SegmentFree
 .text          0x0003eb58      0x26c build/aws_demos/production/_ext/1972722184/iot_pkcs11_pal.o
                0x0003eb58                PKCS11_PAL_SaveObject
                0x0003ec4c                PKCS11_PAL_FindObject
                0x0003ecc8                PKCS11_PAL_GetObjectValue
                0x0003ed38                PKCS11_PAL_GetObjectValueCleanup
                0x0003ed3a                mbedtls_hardware_poll
 .text          0x0003edc4      0x254 build/aws_demos/production/_ext/1682906662/FreeRTOS_TCP_WIN.o
                0x0003edc4                vListInsertGeneric
                0x0003edda                vTCPWindowInit
                0x0003ee2e                vTCPWindowCreate
                0x0003ee60                lTCPWindowRxCheck
                0x0003ee84                lTCPWindowTxAdd
                0x0003ef00                ulTCPWindowTxGet
                0x0003ef54                xTCPWindowTxDone
                0x0003ef5e                xTCPWindowTxHasData
                0x0003efa8                ulTCPWindowTxAck
                0x0003f008                xTCPWindowRxEmpty
                0x0003f014                vTCPWindowDestroy

.text._printf_i%162
                0x0003f018      0x240
 .text._printf_i
                0x0003f018      0x240 c:/program files/microchip/xc32/v2.40/bin/bin/../../lib/gcc/pic32c/6.2.1/../../../../pic32c/lib/v7e-m/fpv4-sp/hard\libc_nano.a(lib_a-nano-vfprintf_i.o)
                0x0003f018                _printf_i

.text%163       0x0003f258      0x23c
 .text          0x0003f258      0x23c build/aws_demos/production/_ext/197858987/tcpip_heap_external.o
                0x0003f3f0                TCPIP_HEAP_CreateExternal

.rodata%164     0x0003f494      0x22c
 .rodata        0x0003f494      0x22c build/aws_demos/production/_ext/520142351/iot_threads_freertos.o

.text%165       0x0003f6c0      0x220
 .text          0x0003f6c0      0x220 build/aws_demos/production/_ext/227692215/iot_logging.o
                0x0003f6c0                IotLog_Generic
                0x0003f858                IotLog_GenericPrintBuffer

.rodata%166     0x0003f8e0      0x438
 .rodata        0x0003f8e0      0x21c build/aws_demos/production/_ext/1778494626/NetworkInterface_eth.o
                0x0003f984                tcpipMACPIC32CINTInitData
                0x0003fa48                tcpipPhyInitData
                0x0003fabc                TCPIP_HOSTS_CONFIGURATION
                0x0003faf4                drvMiimInitData
 .rodata        0x0003fafc      0x21c build/aws_demos/production/_ext/684768522/ecp.o

.text%168       0x0003fd18      0x42c
 .text          0x0003fd18      0x21c build/aws_demos/production/_ext/350635301/iot_crypto.o
                0x0003fd18                aws_mbedtls_mutex_init
                0x0003fd3c                aws_mbedtls_mutex_free
                0x0003fd54                aws_mbedtls_mutex_lock
                0x0003fd84                aws_mbedtls_mutex_unlock
                0x0003fdd0                CRYPTO_ConfigureHeap
                0x0003fde4                CRYPTO_ConfigureThreading
                0x0003fe04                CRYPTO_Init
                0x0003fe10                CRYPTO_SignatureVerificationStart
                0x0003fe5c                CRYPTO_SignatureVerificationUpdate
                0x0003fe74                CRYPTO_SignatureVerificationFinal
 .text          0x0003ff34      0x210 build/aws_demos/production/_ext/520142351/iot_clock_freertos.o
                0x0003ff6c                IotClock_GetTimeMs
                0x0003ff8e                IotClock_GetTimestring
                0x0003ffe0                IotClock_SleepMs
                0x0003fffc                IotClock_TimerCreate
                0x00040068                IotClock_TimerDestroy
                0x000400d8                IotClock_TimerArm

.rodata%170     0x00040144      0x1fc
 .rodata        0x00040144      0x1fc build/aws_demos/production/_ext/1682906662/FreeRTOS_IP.o
                0x0004025c                xBroadcastMACAddress

.text%171       0x00040340      0x1f4
 .text          0x00040340      0x1f4 build/aws_demos/production/_ext/2077790016/mbedtls_utils.o
                0x00040340                convert_pem_to_der
                0x00040420                PKI_RSA_RSASSA_PKCS1_v15_Encode

.text._vfprintf_r%172
                0x00040534      0x1f4
 .text._vfprintf_r
                0x00040534      0x1f4 c:/program files/microchip/xc32/v2.40/bin/bin/../../lib/gcc/pic32c/6.2.1/../../../../pic32c/lib/v7e-m/fpv4-sp/hard\libc_nano.a(lib_a-nano-vfprintf.o)
                0x00040534                _vfprintf_r
                0x00040534                _vfiprintf_r

.text%173       0x00040728      0x3b6
 .text          0x00040728      0x1e4 build/aws_demos/production/_ext/665618993/plib_nvmctrl.o
                0x00040728                NVMCTRL_Initialize
                0x00040738                NVMCTRL_Read
                0x00040748                NVMCTRL_SetWriteMode
                0x0004075c                NVMCTRL_QuadWordWrite
                0x000407a8                NVMCTRL_DoubleWordWrite
                0x000407e8                NVMCTRL_PageWrite
                0x00040820                NVMCTRL_BlockErase
                0x0004083c                NVMCTRL_ErrorGet
                0x00040860                NVMCTRL_StatusGet
                0x0004086c                NVMCTRL_IsBusy
                0x0004087c                NVMCTRL_RegionLock
                0x0004088c                NVMCTRL_RegionUnlock
                0x0004089c                NVMCTRL_RegionLockStatusGet
                0x000408a8                NVMCTRL_SmartEEPROM_IsBusy
                0x000408b8                NVMCTRL_SmartEEPROMStatusGet
                0x000408c4                NVMCTRL_SmartEEPROM_IsActiveSectorFull
                0x000408d4                NVMCTRL_BankSwap
                0x000408e4                NVMCTRL_SmartEEPROMSectorReallocate
                0x000408f4                NVMCTRL_SmartEEPROMFlushPageBuffer
 .text          0x0004090c      0x1d2 build/aws_demos/production/_ext/1120274527/iot_pki_utils.o
                0x0004090c                PKI_mbedTLSSignatureToPkcs11Signature
                0x000409ac                PKI_pkcs11SignatureTombedTLSSignature

.text._svfprintf_r%175
                0x00040ae0      0x1c8
 .text._svfprintf_r
                0x00040ae0      0x1c8 c:/program files/microchip/xc32/v2.40/bin/bin/../../lib/gcc/pic32c/6.2.1/../../../../pic32c/lib/v7e-m/fpv4-sp/hard\libc_nano.a(lib_a-nano-svfprintf.o)
                0x00040ae0                _svfiprintf_r
                0x00040ae0                _svfprintf_r

.text%176       0x00040ca8      0x528
 .text          0x00040ca8      0x1c4 build/aws_demos/production/_ext/1360937237/main.o
                0x00040ca8                main
                0x00040d2c                prvWifiConnect
                0x00040d2e                vApplicationIPNetworkEventHook
                0x00040e00                vAssertCalled
                0x00040e48                vApplicationIdleHook
 .text          0x00040e6c      0x1b8 build/aws_demos/production/_ext/227692215/iot_logging_task_dynamic_buffers.o
                0x00040ea0                xLoggingTaskInitialize
                0x00040efc                vLoggingPrintf
                0x00040fcc                vLoggingPrint
 .text          0x00041024      0x1ac build/aws_demos/production/_ext/1972722184/pkcs11_nvm.o
                0x00041024                AWS_FlashRegionLock
                0x00041036                AWS_FlashRegionUnlock
                0x00041048                AWS_FlashBlockErase
                0x00041078                AWS_FlashPagesWrite
                0x000410c0                AWS_FlashRegionProtect
                0x000410c4                AWS_FlashEraseUpdateBank
                0x000410d2                AWS_FlashProgramBlock
                0x0004115c                AWS_NVM_QuadWordWrite
                0x000411ac                AWS_Update_ImageFlags

.rodata%179     0x000411d0      0x1a8
 .rodata        0x000411d0      0x1a8 build/aws_demos/production/_ext/684768522/base64.o

.text%180       0x00041378      0x770
 .text          0x00041378      0x19c build/aws_demos/production/_ext/1534684544/sys_console_uart.o
                0x00041378                Console_UART_Flush
                0x0004137c                Console_UART_Status
                0x0004138c                Console_UART_Tasks
                0x0004138e                Console_UART_Initialize
                0x000413cc                Console_UART_Read
                0x00041408                Console_UART_WriteCountGet
                0x0004143c                Console_UART_WriteFreeBufferCountGet
                0x00041470                Console_UART_Write
                0x000414ac                Console_UART_ReadFreeBufferCountGet
                0x000414e0                Console_UART_ReadCountGet
 .text          0x00041514      0x194 build/aws_demos/production/_ext/197858987/helpers.o
                0x00041514                uitoa
                0x00041570                hexatob
                0x000415b4                btohexa_high
                0x000415c0                btohexa_low
                0x000415ce                strncpy_m
                0x0004163e                stricmp
 .text          0x000416a8      0x18c build/aws_demos/production/_ext/1149029443/osal_freertos.o
                0x000416a8                OSAL_CRIT_Enter
                0x000416c0                OSAL_CRIT_Leave
                0x000416d6                OSAL_SEM_Create
                0x0004172e                OSAL_SEM_Delete
                0x00041740                OSAL_SEM_Pend
                0x0004175e                OSAL_SEM_Post
                0x00041776                OSAL_SEM_PostISR
                0x000417b4                OSAL_SEM_GetCount
                0x000417c6                OSAL_MUTEX_Create
                0x000417de                OSAL_MUTEX_Delete
                0x000417f8                OSAL_MUTEX_Lock
                0x00041816                OSAL_MUTEX_Unlock
                0x0004182e                OSAL_Initialize
 .text          0x00041834      0x160 build/aws_demos/production/_ext/1682906662/FreeRTOS_UDP_IP.o
                0x00041834                vProcessGeneratedUDPPacket
                0x0004191c                xProcessReceivedUDPPacket
 .text          0x00041994      0x154 build/aws_demos/production/_ext/684768522/pem.o
                0x00041994                mbedtls_pem_init
                0x0004199e                mbedtls_pem_read_buffer
                0x00041ac4                mbedtls_pem_free

.rodata%185     0x00041ae8      0x150
 .rodata        0x00041ae8      0x150 build/aws_demos/production/_ext/1682906662/FreeRTOS_DHCP.o

.text%186       0x00041c38      0x278
 .text          0x00041c38      0x148 build/aws_demos/production/_ext/1682906662/FreeRTOS_Stream_Buffer.o
                0x00041c38                uxStreamBufferAdd
                0x00041d00                uxStreamBufferGet
 .text          0x00041d80      0x130 build/aws_demos/production/_ext/1323727121/plib_clock.o
                0x00041d80                CLOCK_Initialize

.rodata%188     0x00041eb0      0x130
 .rodata        0x00041eb0      0x130 build/aws_demos/production/_ext/684768522/pkparse.o

.text.__srefill_r%189
                0x00041fe0      0x12c
 .text.__srefill_r
                0x00041fe0      0x12c c:/program files/microchip/xc32/v2.40/bin/bin/../../lib/gcc/pic32c/6.2.1/../../../../pic32c/lib/v7e-m/fpv4-sp/hard\libc_nano.a(lib_a-refill.o)
                0x00041fe0                __srefill_r

.rodata%190     0x0004210c      0x250
 .rodata        0x0004210c      0x128 build/aws_demos/production/_ext/684768522/ctr_drbg.o
 .rodata        0x00042234      0x128 build/aws_demos/production/_ext/684768522/pk_wrap.o
                0x00042254                mbedtls_rsa_alt_info
                0x0004228c                mbedtls_ecdsa_info
                0x000422c4                mbedtls_eckeydh_info
                0x000422f8                mbedtls_eckey_info
                0x0004232c                mbedtls_rsa_info

.text%192       0x0004235c      0x120
 .text          0x0004235c      0x120 build/aws_demos/production/_ext/1110296786/plib_tc3.o
                0x0004235c                TC3_TimerInitialize
                0x0004239c                TC3_TimerStart
                0x000423b4                TC3_TimerStop
                0x000423cc                TC3_TimerFrequencyGet
                0x000423d4                TC3_Timer16bitCounterGet
                0x000423fc                TC3_Timer16bitCounterSet
                0x00042410                TC3_Timer16bitPeriodSet
                0x00042424                TC3_Timer16bitPeriodGet
                0x00042430                TC3_Timer16bitCompareSet
                0x00042444                TC3_TimerCallbackRegister
                0x00042450                TC3_TimerInterruptHandler

.rodata%193     0x0004247c      0x23c
 .rodata        0x0004247c      0x120 build/aws_demos/production/_ext/1200684192/drv_ethphy.o
                0x00042540                DRV_ETHPHY_OBJECT_BASE_Default
 .rodata        0x0004259c      0x11c build/aws_demos/production/_ext/1682906662/FreeRTOS_DNS.o

.text%195       0x000426b8      0x11c
 .text          0x000426b8      0x11c build/aws_demos/production/_ext/684768522/ssl_ciphersuites.o
                0x000426b8                mbedtls_ssl_ciphersuite_from_string
                0x000426e4                mbedtls_ssl_ciphersuite_from_id
                0x00042708                mbedtls_ssl_list_ciphersuites
                0x00042754                mbedtls_ssl_get_ciphersuite_name
                0x00042768                mbedtls_ssl_get_ciphersuite_id
                0x00042778                mbedtls_ssl_get_ciphersuite_sig_pk_alg
                0x0004279e                mbedtls_ssl_get_ciphersuite_sig_alg
                0x000427b6                mbedtls_ssl_ciphersuite_uses_ec

.rodata%196     0x000427d4      0x118
 .rodata        0x000427d4      0x118 build/aws_demos/production/_ext/684768522/sha1.o

.text.__sflush_r%197
                0x000428ec      0x110
 .text.__sflush_r
                0x000428ec      0x110 c:/program files/microchip/xc32/v2.40/bin/bin/../../lib/gcc/pic32c/6.2.1/../../../../pic32c/lib/v7e-m/fpv4-sp/hard\libc_nano.a(lib_a-fflush.o)
                0x000428ec                __sflush_r

.rodata._ctype_%198
                0x000429fc      0x101
 .rodata._ctype_
                0x000429fc      0x101 c:/program files/microchip/xc32/v2.40/bin/bin/../../lib/gcc/pic32c/6.2.1/../../../../pic32c/lib/v7e-m/fpv4-sp/hard\libc_nano.a(lib_a-ctype_.o)
                0x000429fc                _ctype_

.text._strtol_l.isra.0%199
                0x00042afe      0x100
 .text._strtol_l.isra.0
                0x00042afe      0x100 c:/program files/microchip/xc32/v2.40/bin/bin/../../lib/gcc/pic32c/6.2.1/../../../../pic32c/lib/v7e-m/fpv4-sp/hard\libc_nano.a(lib_a-strtol.o)

.text._strtoul_l.isra.0%200
                0x00042bfe       0xfa
 .text._strtoul_l.isra.0
                0x00042bfe       0xfa c:/program files/microchip/xc32/v2.40/bin/bin/../../lib/gcc/pic32c/6.2.1/../../../../pic32c/lib/v7e-m/fpv4-sp/hard\libc_nano.a(lib_a-strtoul.o)

.text._ungetc_r%201
                0x00042cf8       0xf8
 .text._ungetc_r
                0x00042cf8       0xf8 c:/program files/microchip/xc32/v2.40/bin/bin/../../lib/gcc/pic32c/6.2.1/../../../../pic32c/lib/v7e-m/fpv4-sp/hard\libc_nano.a(lib_a-ungetc.o)
                0x00042cf8                _ungetc_r

.rodata%202     0x00042df0       0xf4
 .rodata        0x00042df0       0xf4 build/aws_demos/production/_ext/211704168/drv_miim.o
                0x00042ea4                DRV_MIIM_OBJECT_BASE_Default

.text%203       0x00042ee4       0xec
 .text          0x00042ee4       0xec build/aws_demos/production/_ext/59476128/plib_eic.o
                0x00042ee4                EIC_Initialize
                0x00042f64                EIC_InterruptEnable
                0x00042f74                EIC_InterruptDisable
                0x00042f84                EIC_CallbackRegister
                0x00042fb0                EIC_EXTINT_7_InterruptHandler

.text._printf_common%204
                0x00042fd0       0xec
 .text._printf_common
                0x00042fd0       0xec c:/program files/microchip/xc32/v2.40/bin/bin/../../lib/gcc/pic32c/6.2.1/../../../../pic32c/lib/v7e-m/fpv4-sp/hard\libc_nano.a(lib_a-nano-vfprintf_i.o)
                0x00042fd0                _printf_common

.text%205       0x000430bc       0xe8
 .text          0x000430bc       0xe8 build/aws_demos/production/_ext/1200684192/drv_extphy_ksz8091.o

.rodata%206     0x000431a4      0x1bc
 .rodata        0x000431a4       0xe0 build/aws_demos/production/_ext/1682906662/FreeRTOS_TCP_WIN.o
 .rodata        0x00043284       0xdc build/aws_demos/production/_ext/1682906662/FreeRTOS_ARP.o

.text.__swsetup_r%208
                0x00043360       0xdc
 .text.__swsetup_r
                0x00043360       0xdc c:/program files/microchip/xc32/v2.40/bin/bin/../../lib/gcc/pic32c/6.2.1/../../../../pic32c/lib/v7e-m/fpv4-sp/hard\libc_nano.a(lib_a-wsetup.o)
                0x00043360                __swsetup_r

.rodata%209     0x0004343c       0xd0
 .rodata        0x0004343c       0xd0 build/aws_demos/production/_ext/520142351/iot_clock_freertos.o

.text._puts_r%210
                0x0004350c       0xcc
 .text._puts_r  0x0004350c       0xcc c:/program files/microchip/xc32/v2.40/bin/bin/../../lib/gcc/pic32c/6.2.1/../../../../pic32c/lib/v7e-m/fpv4-sp/hard\libc_nano.a(lib_a-puts.o)
                0x0004350c                _puts_r

.text%211       0x000435d8      0x184
 .text          0x000435d8       0xc8 build/aws_demos/production/_ext/1843425920/plib_port.o
                0x000435d8                PORT_Initialize
                0x00043678                PORT_GroupRead
                0x0004367c                PORT_GroupWrite
                0x00043688                PORT_GroupLatchRead
                0x0004368c                PORT_GroupSet
                0x00043690                PORT_GroupClear
                0x00043694                PORT_GroupToggle
                0x00043698                PORT_GroupInputEnable
                0x0004369c                PORT_GroupOutputEnable
 .text          0x000436a0       0xbc build/aws_demos/production/_ext/684768522/md_wrap.o

.text._malloc_r%213
                0x0004375c       0xbc
 .text._malloc_r
                0x0004375c       0xbc c:/program files/microchip/xc32/v2.40/bin/bin/../../lib/gcc/pic32c/6.2.1/../../../../pic32c/lib/v7e-m/fpv4-sp/hard\libc_nano.a(lib_a-nano-mallocr.o)
                0x0004375c                _malloc_r

.text.__swbuf_r%214
                0x00043818       0xbc
 .text.__swbuf_r
                0x00043818       0xbc c:/program files/microchip/xc32/v2.40/bin/bin/../../lib/gcc/pic32c/6.2.1/../../../../pic32c/lib/v7e-m/fpv4-sp/hard\libc_nano.a(lib_a-wbuf.o)
                0x00043818                __swbuf_r

.text%215       0x000438d4       0xba
 .text          0x000438d4       0xba build/aws_demos/production/_ext/684768522/cipher_wrap.o

.text.__ssputs_r%216
                0x0004398e       0xb6
 .text.__ssputs_r
                0x0004398e       0xb6 c:/program files/microchip/xc32/v2.40/bin/bin/../../lib/gcc/pic32c/6.2.1/../../../../pic32c/lib/v7e-m/fpv4-sp/hard\libc_nano.a(lib_a-__ssputs.o)
                0x0004398e                __ssputs_r

.rodata%217     0x00043a44      0x1f0
 .rodata        0x00043a44       0xa8 build/aws_demos/production/_ext/684768522/md_wrap.o
                0x00043a4c                mbedtls_sha256_info
                0x00043a84                mbedtls_sha224_info
                0x00043abc                mbedtls_sha1_info
 .rodata        0x00043aec       0xa8 build/aws_demos/production/_ext/1739149067/iot_mqtt_subscription.o
 .rodata        0x00043b94       0xa0 build/aws_demos/production/_ext/684768522/ecp_curves.o

.text%220       0x00043c40       0xa0
 .text          0x00043c40       0xa0 c:/program files/microchip/xc32/v2.40/bin/bin/../../lib/gcc/pic32c/6.2.1/../../../../pic32c/lib/v7e-m/fpv4-sp/hard\libc_nano.a(lib_a-memchr.o)
                0x00043c40                memchr

.text._free_r%221
                0x00043ce0       0x9c
 .text._free_r  0x00043ce0       0x9c c:/program files/microchip/xc32/v2.40/bin/bin/../../lib/gcc/pic32c/6.2.1/../../../../pic32c/lib/v7e-m/fpv4-sp/hard\libc_nano.a(lib_a-nano-freer.o)
                0x00043ce0                _free_r

.rodata%222     0x00043d7c       0x98
 .rodata        0x00043d7c       0x98 build/aws_demos/production/_ext/684768522/ssl_tls.o

.text%223       0x00043e14      0x1b2
 .text          0x00043e14       0x94 build/aws_demos/production/_ext/1843479071/plib_nvic.o
                0x00043e14                NVIC_Initialize
 .text          0x00043ea8       0x90 build/aws_demos/production/_ext/1762024984/sys_int.o
                0x00043ea8                SYS_INT_Enable
                0x00043eb0                SYS_INT_Disable
                0x00043ec2                SYS_INT_Restore
                0x00043ed4                SYS_INT_SourceDisable
                0x00043f18                SYS_INT_SourceRestore
 .text          0x00043f38       0x8e build/aws_demos/production/_ext/811507611/list.o
                0x00043f38                vListInitialise
                0x00043f4e                vListInitialiseItem
                0x00043f54                vListInsertEnd
                0x00043f6c                vListInsert
                0x00043fa0                uxListRemove

.rodata%226     0x00043fc8      0x198
 .rodata        0x00043fc8       0x8c build/aws_demos/production/_ext/1778494626/BufferAllocation_2.o
                0x00044050                xBufferAllocFixedSize
 .rodata        0x00044054       0x88 build/aws_demos/production/_ext/1360937237/main.o
 .rodata        0x000440dc       0x84 build/aws_demos/production/_ext/227692215/iot_logging_task_dynamic_buffers.o

.text.__fputwc%229
                0x00044160       0x82
 .text.__fputwc
                0x00044160       0x82 c:/program files/microchip/xc32/v2.40/bin/bin/../../lib/gcc/pic32c/6.2.1/../../../../pic32c/lib/v7e-m/fpv4-sp/hard\libc_nano.a(lib_a-fputwc.o)
                0x00044160                __fputwc

.rodata%230     0x000441e4       0x80
 .rodata        0x000441e4       0x80 build/aws_demos/production/_ext/1972722184/iot_pkcs11_pal.o

.text.__pic32c_data_initialization%231
                0x00044264       0x80
 .text.__pic32c_data_initialization
                0x00044264       0x80 c:/program files/microchip/xc32/v2.40/bin/bin/../../lib/gcc/pic32c/6.2.1/../../../../pic32c/lib/v7e-m/fpv4-sp/hard\libpic32c.a(data_init.o)
                0x00044264                __pic32c_data_initialization

.text.Reset_Handler%232
                0x000442e4       0x78
 .text.Reset_Handler
                0x000442e4       0x78 build/aws_demos/production/_ext/1534096987/startup_xc32.o
                0x000442e4                Reset_Handler

.text%233       0x0004435c       0x78
 .text          0x0004435c       0x78 build/aws_demos/production/_ext/13066905/iot_init.o
                0x0004435c                IotSdk_Init
                0x000443a8                IotSdk_Cleanup

.text.__sfp%234
                0x000443d4       0x78
 .text.__sfp    0x000443d4       0x78 c:/program files/microchip/xc32/v2.40/bin/bin/../../lib/gcc/pic32c/6.2.1/../../../../pic32c/lib/v7e-m/fpv4-sp/hard\libc_nano.a(lib_a-findfp.o)
                0x000443d4                __sfp

.text.__smakebuf_r%235
                0x0004444c       0x78
 .text.__smakebuf_r
                0x0004444c       0x78 c:/program files/microchip/xc32/v2.40/bin/bin/../../lib/gcc/pic32c/6.2.1/../../../../pic32c/lib/v7e-m/fpv4-sp/hard\libc_nano.a(lib_a-makebuf.o)
                0x0004444c                __smakebuf_r

.text.__submore%236
                0x000444c4       0x76
 .text.__submore
                0x000444c4       0x76 c:/program files/microchip/xc32/v2.40/bin/bin/../../lib/gcc/pic32c/6.2.1/../../../../pic32c/lib/v7e-m/fpv4-sp/hard\libc_nano.a(lib_a-ungetc.o)
                0x000444c4                __submore

.text.rand%237  0x0004453c       0x74
 .text.rand     0x0004453c       0x74 c:/program files/microchip/xc32/v2.40/bin/bin/../../lib/gcc/pic32c/6.2.1/../../../../pic32c/lib/v7e-m/fpv4-sp/hard\libc_nano.a(lib_a-rand.o)
                0x0004453c                rand

.rodata%238     0x000445b0       0xe0
 .rodata        0x000445b0       0x70 build/aws_demos/production/_ext/13066905/iot_init.o
 .rodata        0x00044620       0x70 build/aws_demos/production/_ext/350635301/iot_crypto.o

.text._putc_r%240
                0x00044690       0x6c
 .text._putc_r  0x00044690       0x6c c:/program files/microchip/xc32/v2.40/bin/bin/../../lib/gcc/pic32c/6.2.1/../../../../pic32c/lib/v7e-m/fpv4-sp/hard\libc_nano.a(lib_a-putc.o)
                0x00044690                _putc_r

.text.snprintf%241
                0x000446fc       0x6c
 .text.snprintf
                0x000446fc       0x6c c:/program files/microchip/xc32/v2.40/bin/bin/../../lib/gcc/pic32c/6.2.1/../../../../pic32c/lib/v7e-m/fpv4-sp/hard\libc_nano.a(lib_a-snprintf.o)
                0x000446fc                __snprintf_di
                0x000446fc                snprintf
                0x000446fc                __snprintf_oxX
                0x000446fc                __snprintf_u
                0x000446fc                sniprintf
                0x000446fc                __snprintf_oxXs
                0x000446fc                __snprintf_us
                0x000446fc                __snprintf_c
                0x000446fc                __snprintf_s
                0x000446fc                __snprintf_diu
                0x000446fc                __snprintf_dis

.text%242       0x00044768       0xcc
 .text          0x00044768       0x68 build/aws_demos/production/_ext/1534096987/tasks.o
                0x00044768                _SYS_CMD_Tasks
                0x00044778                _DRV_MIIM_Task
                0x00044790                SYS_Tasks
 .text          0x000447d0       0x64 build/aws_demos/production/_ext/1534096987/initialization.o
                0x000447d0                SYS_Initialize

.rodata%244     0x00044834      0x18c
 .rodata        0x00044834       0x64 build/aws_demos/production/_ext/366737/iot_secure_sockets.o
 .rodata        0x00044898       0x64 build/aws_demos/production/_ext/1682906662/FreeRTOS_UDP_IP.o
 .rodata        0x000448fc       0x64 build/aws_demos/production/_ext/2138053595/iot_pkcs11.o
 .rodata        0x00044960       0x60 build/aws_demos/production/_ext/197858987/tcpip_helpers.o

.text.__sinit%248
                0x000449c0       0x60
 .text.__sinit  0x000449c0       0x60 c:/program files/microchip/xc32/v2.40/bin/bin/../../lib/gcc/pic32c/6.2.1/../../../../pic32c/lib/v7e-m/fpv4-sp/hard\libc_nano.a(lib_a-findfp.o)
                0x000449c0                __sinit

.text.__sccl%249
                0x00044a20       0x60
 .text.__sccl   0x00044a20       0x60 c:/program files/microchip/xc32/v2.40/bin/bin/../../lib/gcc/pic32c/6.2.1/../../../../pic32c/lib/v7e-m/fpv4-sp/hard\libc_nano.a(lib_a-sccl.o)
                0x00044a20                __sccl

.text._vsnprintf_r%250
                0x00044a80       0x5c
 .text._vsnprintf_r
                0x00044a80       0x5c c:/program files/microchip/xc32/v2.40/bin/bin/../../lib/gcc/pic32c/6.2.1/../../../../pic32c/lib/v7e-m/fpv4-sp/hard\libc_nano.a(lib_a-vsnprintf.o)
                0x00044a80                _vsniprintf_r
                0x00044a80                _vsnprintf_r

.rodata%251     0x00044adc       0x58
 .rodata        0x00044adc       0x58 build/aws_demos/production/_ext/1534096987/initialization.o
                0x00044ae4                sysCmdInit
                0x00044ae8                sysTimeInitData
                0x00044af0                sysConsole0Init
                0x00044afc                sysConsole0UARTInitData
                0x00044b00                sysConsole0UARTPlibAPI
                0x00044b18                sysTimePlibAPI

.text._vfscanf_cdnopsuxX%252
                0x00044b34       0x58
 .text._vfscanf_cdnopsuxX
                0x00044b34       0x58 c:/program files/microchip/xc32/v2.40/bin/bin/../../lib/gcc/pic32c/6.2.1/../../../../pic32c/lib/v7e-m/fpv4-sp/hard\libc_nano.a(_lib_a-nano-vfscanf.cdnopsuxX.o)
                0x00044b34                _vfscanf_cdnopsuxX

.text._fflush_r%253
                0x00044b8c       0x54
 .text._fflush_r
                0x00044b8c       0x54 c:/program files/microchip/xc32/v2.40/bin/bin/../../lib/gcc/pic32c/6.2.1/../../../../pic32c/lib/v7e-m/fpv4-sp/hard\libc_nano.a(lib_a-fflush.o)
                0x00044b8c                _fflush_r

.rodata%254     0x00044be0       0xa0
 .rodata        0x00044be0       0x50 build/aws_demos/production/_ext/1972722184/pkcs11_nvm.o
 .rodata        0x00044c30       0x50 build/aws_demos/production/_ext/227692215/iot_logging.o

.text._wcrtomb_r%256
                0x00044c80       0x50
 .text._wcrtomb_r
                0x00044c80       0x50 c:/program files/microchip/xc32/v2.40/bin/bin/../../lib/gcc/pic32c/6.2.1/../../../../pic32c/lib/v7e-m/fpv4-sp/hard\libc_nano.a(lib_a-wcrtomb.o)
                0x00044c80                _wcrtomb_r

.text.sprintf%257
                0x00044cd0       0x4c
 .text.sprintf  0x00044cd0       0x4c c:/program files/microchip/xc32/v2.40/bin/bin/../../lib/gcc/pic32c/6.2.1/../../../../pic32c/lib/v7e-m/fpv4-sp/hard\libc_nano.a(lib_a-sprintf.o)
                0x00044cd0                __sprintf_u
                0x00044cd0                __sprintf_dis
                0x00044cd0                __sprintf_uc
                0x00044cd0                sprintf
                0x00044cd0                __sprintf_oxX
                0x00044cd0                siprintf
                0x00044cd0                __sprintf_di

.text._sscanf_cdnopsuxX%258
                0x00044d1c       0x4c
 .text._sscanf_cdnopsuxX
                0x00044d1c       0x4c c:/program files/microchip/xc32/v2.40/bin/bin/../../lib/gcc/pic32c/6.2.1/../../../../pic32c/lib/v7e-m/fpv4-sp/hard\libc_nano.a(_lib_a-sscanf.cdnopsuxX.o)
                0x00044d1c                _sscanf_cdnopsuxX
                0x00044d1c                __sscanf_dis

.text._realloc_r%259
                0x00044d68       0x4c
 .text._realloc_r
                0x00044d68       0x4c c:/program files/microchip/xc32/v2.40/bin/bin/../../lib/gcc/pic32c/6.2.1/../../../../pic32c/lib/v7e-m/fpv4-sp/hard\libc_nano.a(lib_a-nano-reallocr.o)
                0x00044d68                _realloc_r

.text.__ssfputs_r%260
                0x00044db4       0x4a
 .text.__ssfputs_r
                0x00044db4       0x4a c:/program files/microchip/xc32/v2.40/bin/bin/../../lib/gcc/pic32c/6.2.1/../../../../pic32c/lib/v7e-m/fpv4-sp/hard\libc_nano.a(lib_a-__ssfputs.o)
                0x00044db4                __ssfputs_r

.rodata%261     0x00044e00       0x48
 .rodata        0x00044e00       0x48 build/aws_demos/production/_ext/811507611/tasks.o

.text.__libc_init_array%262
                0x00044e48       0x48
 .text.__libc_init_array
                0x00044e48       0x48 c:/program files/microchip/xc32/v2.40/bin/bin/../../lib/gcc/pic32c/6.2.1/../../../../pic32c/lib/v7e-m/fpv4-sp/hard\libc_nano.a(lib_a-init.o)
                0x00044e48                __libc_init_array

.text.std.isra.0%263
                0x00044e90       0x48
 .text.std.isra.0
                0x00044e90       0x48 c:/program files/microchip/xc32/v2.40/bin/bin/../../lib/gcc/pic32c/6.2.1/../../../../pic32c/lib/v7e-m/fpv4-sp/hard\libc_nano.a(lib_a-findfp.o)

.text.__swhatbuf_r%264
                0x00044ed8       0x48
 .text.__swhatbuf_r
                0x00044ed8       0x48 c:/program files/microchip/xc32/v2.40/bin/bin/../../lib/gcc/pic32c/6.2.1/../../../../pic32c/lib/v7e-m/fpv4-sp/hard\libc_nano.a(lib_a-makebuf.o)
                0x00044ed8                __swhatbuf_r

.rodata%265     0x00044f20       0x44
 .rodata        0x00044f20       0x44 build/aws_demos/production/_ext/1385882503/port.o

.text%266       0x00044f64       0x40
 .text          0x00044f64       0x40 c:/program files/microchip/xc32/v2.40/bin/bin/../../lib/gcc/pic32c/6.2.1/v7e-m/fpv4-sp/hard/crtbegin.o

.rodata%267     0x00044fa4       0x40
 .rodata        0x00044fa4       0x40 build/aws_demos/production/_ext/1168480030/heap_4.o

.text%268       0x00044fe4       0x3c
 .text          0x00044fe4       0x3c build/aws_demos/production/_ext/1263901141/xc32_monitor.o
                0x00044fe4                _mon_getc
                0x00045004                _mon_putc

.rodata%269     0x00045020       0x78
 .rodata        0x00045020       0x3c build/aws_demos/production/_ext/684768522/entropy.o
 .rodata        0x0004505c       0x3c build/aws_demos/production/_ext/684768522/x509.o

.text._fwalk_reent%271
                0x00045098       0x3c
 .text._fwalk_reent
                0x00045098       0x3c c:/program files/microchip/xc32/v2.40/bin/bin/../../lib/gcc/pic32c/6.2.1/../../../../pic32c/lib/v7e-m/fpv4-sp/hard\libc_nano.a(lib_a-fwalk.o)
                0x00045098                _fwalk_reent

.text.write%272
                0x000450d4       0x3c
 .text.write    0x000450d4       0x3c c:/program files/microchip/xc32/v2.40/bin/bin/../../lib/gcc/pic32c/6.2.1/../../../../pic32c/lib/v7e-m/fpv4-sp/hard\libpic32c.a(write.o)
                0x000450d4                write

.rodata%273     0x00045110       0x38
 .rodata        0x00045110       0x38 build/aws_demos/production/_ext/811507611/timers.o

.text%274       0x00045148       0x38
 .text          0x00045148       0x38 build/aws_demos/production/_ext/684768522/platform.o
                0x00045148                mbedtls_calloc
                0x00045158                mbedtls_free
                0x00045168                mbedtls_platform_set_calloc_free
                0x00045178                mbedtls_platform_setup
                0x0004517c                mbedtls_platform_teardown

.rodata%275     0x00045180       0x38
 .rodata        0x00045180       0x38 build/aws_demos/production/_ext/684768522/rsa_internal.o

.text.__swrite%276
                0x000451b8       0x38
 .text.__swrite
                0x000451b8       0x38 c:/program files/microchip/xc32/v2.40/bin/bin/../../lib/gcc/pic32c/6.2.1/../../../../pic32c/lib/v7e-m/fpv4-sp/hard\libc_nano.a(lib_a-stdio.o)
                0x000451b8                __swrite

.text._fwalk%277
                0x000451f0       0x38
 .text._fwalk   0x000451f0       0x38 c:/program files/microchip/xc32/v2.40/bin/bin/../../lib/gcc/pic32c/6.2.1/../../../../pic32c/lib/v7e-m/fpv4-sp/hard\libc_nano.a(lib_a-fwalk.o)
                0x000451f0                _fwalk

.text.strstr%278
                0x00045228       0x36
 .text.strstr   0x00045228       0x36 c:/program files/microchip/xc32/v2.40/bin/bin/../../lib/gcc/pic32c/6.2.1/../../../../pic32c/lib/v7e-m/fpv4-sp/hard\libc_nano.a(lib_a-strstr.o)
                0x00045228                strstr

.text%279       0x0004525e       0x34
 .text          0x0004525e       0x34 build/aws_demos/production/_ext/197858987/tcpip_heap_alloc.o
                0x0004525e                _TCPIP_HEAP_BufferMapNonCached
                0x00045260                _TCPIP_HEAP_PointerMapCached
                0x00045262                TCPIP_HEAP_Create
                0x0004527a                TCPIP_HEAP_MallocOutline
                0x00045282                TCPIP_HEAP_CallocOutline
                0x0004528a                TCPIP_HEAP_FreeOutline

.text%280       0x00045294       0x34
 .text          0x00045294       0x34 build/aws_demos/production/_ext/1223942466/aws_demo.o
                0x00045294                vApplicationGetIdleTaskMemory
                0x000452a8                vApplicationGetTimerTaskMemory

.rodata%281     0x000452c8       0x34
 .rodata        0x000452c8       0x34 build/aws_demos/production/_ext/811507611/event_groups.o

.text.memmove%282
                0x000452fc       0x34
 .text.memmove  0x000452fc       0x34 c:/program files/microchip/xc32/v2.40/bin/bin/../../lib/gcc/pic32c/6.2.1/../../../../pic32c/lib/v7e-m/fpv4-sp/hard\libc_nano.a(lib_a-memmove.o)
                0x000452fc                memmove

.text%283       0x00045330       0x30
 .text          0x00045330       0x30 build/aws_demos/production/_ext/1223942466/aws_demo_network_addr.o
                0x00045330                vApplicationIPInit
                0x00045358                pcApplicationHostnameHook

.rodata%284     0x00045360       0x30
 .rodata        0x00045360       0x30 build/aws_demos/production/_ext/811507611/queue.o

.text%285       0x00045390       0x30
 .text          0x00045390       0x30 c:/program files/microchip/xc32/v2.40/bin/bin/../../lib/gcc/pic32c/6.2.1/v7e-m/fpv4-sp/hard\libgcc.a(_aeabi_uldivmod.o)
                0x00045390                __aeabi_uldivmod

.text.printf%286
                0x000453c0       0x30
 .text.printf   0x000453c0       0x30 c:/program files/microchip/xc32/v2.40/bin/bin/../../lib/gcc/pic32c/6.2.1/../../../../pic32c/lib/v7e-m/fpv4-sp/hard\libc_nano.a(lib_a-printf.o)
                0x000453c0                __printf_oxX
                0x000453c0                __printf_di
                0x000453c0                __printf_s
                0x000453c0                iprintf
                0x000453c0                __printf_u
                0x000453c0                __printf_dis
                0x000453c0                printf

.text.__sfputc_r%287
                0x000453f0       0x30
 .text.__sfputc_r
                0x000453f0       0x30 c:/program files/microchip/xc32/v2.40/bin/bin/../../lib/gcc/pic32c/6.2.1/../../../../pic32c/lib/v7e-m/fpv4-sp/hard\libc_nano.a(lib_a-__ssfputs.o)

.rodata%288     0x00045420       0x58
 .rodata        0x00045420       0x2c build/aws_demos/production/_ext/684768522/md.o
 .rodata        0x0004544c       0x2c build/aws_demos/production/_ext/1534684544/sys_console_uart.o
                0x0004544c                sysConsoleUARTDevDesc

.text.strtol%290
                0x00045478       0x2c
 .text.strtol   0x00045478       0x2c c:/program files/microchip/xc32/v2.40/bin/bin/../../lib/gcc/pic32c/6.2.1/../../../../pic32c/lib/v7e-m/fpv4-sp/hard\libc_nano.a(lib_a-strtol.o)
                0x00045478                strtol

.text.__sfmoreglue%291
                0x000454a4       0x2c
 .text.__sfmoreglue
                0x000454a4       0x2c c:/program files/microchip/xc32/v2.40/bin/bin/../../lib/gcc/pic32c/6.2.1/../../../../pic32c/lib/v7e-m/fpv4-sp/hard\libc_nano.a(lib_a-findfp.o)
                0x000454a4                __sfmoreglue

.rodata%292     0x000454d0       0x2c
 .rodata        0x000454d0       0x2c c:/program files/microchip/xc32/v2.40/bin/bin/../../lib/gcc/pic32c/6.2.1/../../../../pic32c/lib/v7e-m/fpv4-sp/hard\libc_nano.a(_lib_a-nano-vfscanf.cdnopsuxX.o)

.text._sbrk%293
                0x000454fc       0x2c
 .text._sbrk    0x000454fc       0x2c c:/program files/microchip/xc32/v2.40/bin/bin/../../lib/gcc/pic32c/6.2.1/../../../../pic32c/lib/v7e-m/fpv4-sp/hard\libpic32c.a(sbrk.o)
                0x000454fc                _sbrk

.text.strncpy%294
                0x00045528       0x2a
 .text.strncpy  0x00045528       0x2a c:/program files/microchip/xc32/v2.40/bin/bin/../../lib/gcc/pic32c/6.2.1/../../../../pic32c/lib/v7e-m/fpv4-sp/hard\libc_nano.a(lib_a-strncpy.o)
                0x00045528                strncpy

.text%295       0x00045554       0x28
 .text          0x00045554       0x28 build/aws_demos/production/_ext/1843304010/plib_trng.o
                0x00045554                TRNG_Initialize
                0x00045556                TRNG_ReadData

.text.putchar%296
                0x0004557c       0x28
 .text.putchar  0x0004557c       0x28 c:/program files/microchip/xc32/v2.40/bin/bin/../../lib/gcc/pic32c/6.2.1/../../../../pic32c/lib/v7e-m/fpv4-sp/hard\libc_nano.a(lib_a-putchar.o)
                0x0004557c                putchar

.text.read%297  0x000455a4       0x28
 .text.read     0x000455a4       0x28 c:/program files/microchip/xc32/v2.40/bin/bin/../../lib/gcc/pic32c/6.2.1/../../../../pic32c/lib/v7e-m/fpv4-sp/hard\libpic32c.a(read.o)
                0x000455a4                read

.rodata%298     0x000455cc       0x48
 .rodata        0x000455cc       0x24 build/aws_demos/production/_ext/197858987/tcpip_heap_external.o
 .rodata        0x000455f0       0x24 build/aws_demos/production/_ext/1223942466/aws_demo_network_addr.o

.text%300       0x00045614       0x24
 .text          0x00045614       0x24 build/aws_demos/production/_ext/684768522/threading.o
                0x0004561c                mbedtls_threading_set_alt
                0x00045634                mbedtls_threading_free_alt

.text.__ascii_mbtowc%301
                0x00045638       0x24
 .text.__ascii_mbtowc
                0x00045638       0x24 c:/program files/microchip/xc32/v2.40/bin/bin/../../lib/gcc/pic32c/6.2.1/../../../../pic32c/lib/v7e-m/fpv4-sp/hard\libc_nano.a(lib_a-mbtowc_r.o)
                0x00045638                __ascii_mbtowc

.text.__sseek%302
                0x0004565c       0x24
 .text.__sseek  0x0004565c       0x24 c:/program files/microchip/xc32/v2.40/bin/bin/../../lib/gcc/pic32c/6.2.1/../../../../pic32c/lib/v7e-m/fpv4-sp/hard\libc_nano.a(lib_a-stdio.o)
                0x0004565c                __sseek

.text.strncmp%303
                0x00045680       0x24
 .text.strncmp  0x00045680       0x24 c:/program files/microchip/xc32/v2.40/bin/bin/../../lib/gcc/pic32c/6.2.1/../../../../pic32c/lib/v7e-m/fpv4-sp/hard\libc_nano.a(lib_a-strncmp.o)
                0x00045680                strncmp

.text._strtol_r%304
                0x000456a4       0x24
 .text._strtol_r
                0x000456a4       0x24 c:/program files/microchip/xc32/v2.40/bin/bin/../../lib/gcc/pic32c/6.2.1/../../../../pic32c/lib/v7e-m/fpv4-sp/hard\libc_nano.a(lib_a-strtol.o)
                0x000456a4                _strtol_r

.text._strtoul_r%305
                0x000456c8       0x24
 .text._strtoul_r
                0x000456c8       0x24 c:/program files/microchip/xc32/v2.40/bin/bin/../../lib/gcc/pic32c/6.2.1/../../../../pic32c/lib/v7e-m/fpv4-sp/hard\libc_nano.a(lib_a-strtoul.o)
                0x000456c8                _strtoul_r

.text._write_r%306
                0x000456ec       0x24
 .text._write_r
                0x000456ec       0x24 c:/program files/microchip/xc32/v2.40/bin/bin/../../lib/gcc/pic32c/6.2.1/../../../../pic32c/lib/v7e-m/fpv4-sp/hard\libc_nano.a(lib_a-writer.o)
                0x000456ec                _write_r

.text.fflush%307
                0x00045710       0x24
 .text.fflush   0x00045710       0x24 c:/program files/microchip/xc32/v2.40/bin/bin/../../lib/gcc/pic32c/6.2.1/../../../../pic32c/lib/v7e-m/fpv4-sp/hard\libc_nano.a(lib_a-fflush.o)
                0x00045710                fflush

.text._lseek_r%308
                0x00045734       0x24
 .text._lseek_r
                0x00045734       0x24 c:/program files/microchip/xc32/v2.40/bin/bin/../../lib/gcc/pic32c/6.2.1/../../../../pic32c/lib/v7e-m/fpv4-sp/hard\libc_nano.a(lib_a-lseekr.o)
                0x00045734                _lseek_r

.text._read_r%309
                0x00045758       0x24
 .text._read_r  0x00045758       0x24 c:/program files/microchip/xc32/v2.40/bin/bin/../../lib/gcc/pic32c/6.2.1/../../../../pic32c/lib/v7e-m/fpv4-sp/hard\libc_nano.a(lib_a-readr.o)
                0x00045758                _read_r

.text._fstat_r%310
                0x0004577c       0x24
 .text._fstat_r
                0x0004577c       0x24 c:/program files/microchip/xc32/v2.40/bin/bin/../../lib/gcc/pic32c/6.2.1/../../../../pic32c/lib/v7e-m/fpv4-sp/hard\libc_nano.a(lib_a-fstatr.o)
                0x0004577c                _fstat_r

.text.__sread%311
                0x000457a0       0x22
 .text.__sread  0x000457a0       0x22 c:/program files/microchip/xc32/v2.40/bin/bin/../../lib/gcc/pic32c/6.2.1/../../../../pic32c/lib/v7e-m/fpv4-sp/hard\libc_nano.a(lib_a-stdio.o)
                0x000457a0                __sread

.rodata%312     0x000457c2       0x42
 .rodata        0x000457c2       0x22 c:/program files/microchip/xc32/v2.40/bin/bin/../../lib/gcc/pic32c/6.2.1/../../../../pic32c/lib/v7e-m/fpv4-sp/hard\libc_nano.a(lib_a-nano-vfprintf_i.o)
 .rodata        0x000457e4       0x20 build/aws_demos/production/_ext/1534096987/tasks.o

.text._sbrk_r%314
                0x00045804       0x20
 .text._sbrk_r  0x00045804       0x20 c:/program files/microchip/xc32/v2.40/bin/bin/../../lib/gcc/pic32c/6.2.1/../../../../pic32c/lib/v7e-m/fpv4-sp/hard\libc_nano.a(lib_a-sbrkr.o)
                0x00045804                _sbrk_r

.text._close_r%315
                0x00045824       0x20
 .text._close_r
                0x00045824       0x20 c:/program files/microchip/xc32/v2.40/bin/bin/../../lib/gcc/pic32c/6.2.1/../../../../pic32c/lib/v7e-m/fpv4-sp/hard\libc_nano.a(lib_a-closer.o)
                0x00045824                _close_r

.rodata.__sf_fake_stderr%316
                0x00045844       0x20
 .rodata.__sf_fake_stderr
                0x00045844       0x20 c:/program files/microchip/xc32/v2.40/bin/bin/../../lib/gcc/pic32c/6.2.1/../../../../pic32c/lib/v7e-m/fpv4-sp/hard\libc_nano.a(lib_a-findfp.o)
                0x00045844                __sf_fake_stderr

.rodata.__sf_fake_stdin%317
                0x00045864       0x20
 .rodata.__sf_fake_stdin
                0x00045864       0x20 c:/program files/microchip/xc32/v2.40/bin/bin/../../lib/gcc/pic32c/6.2.1/../../../../pic32c/lib/v7e-m/fpv4-sp/hard\libc_nano.a(lib_a-findfp.o)
                0x00045864                __sf_fake_stdin

.rodata.__sf_fake_stdout%318
                0x00045884       0x20
 .rodata.__sf_fake_stdout
                0x00045884       0x20 c:/program files/microchip/xc32/v2.40/bin/bin/../../lib/gcc/pic32c/6.2.1/../../../../pic32c/lib/v7e-m/fpv4-sp/hard\libc_nano.a(lib_a-findfp.o)
                0x00045884                __sf_fake_stdout

.text._isatty_r%319
                0x000458a4       0x20
 .text._isatty_r
                0x000458a4       0x20 c:/program files/microchip/xc32/v2.40/bin/bin/../../lib/gcc/pic32c/6.2.1/../../../../pic32c/lib/v7e-m/fpv4-sp/hard\libc_nano.a(lib_a-isattyr.o)
                0x000458a4                _isatty_r

.text.memcmp%320
                0x000458c4       0x1e
 .text.memcmp   0x000458c4       0x1e c:/program files/microchip/xc32/v2.40/bin/bin/../../lib/gcc/pic32c/6.2.1/../../../../pic32c/lib/v7e-m/fpv4-sp/hard\libc_nano.a(lib_a-memcmp.o)
                0x000458c4                memcmp

.text%321       0x000458e4       0x1c
 .text          0x000458e4       0x1c build/aws_demos/production/_ext/1223942466/iot_demo_runner.o
                0x000458e4                DEMO_RUNNER_RunDemos

.text.__locale_mb_cur_max%322
                0x00045900       0x1c
 .text.__locale_mb_cur_max
                0x00045900       0x1c c:/program files/microchip/xc32/v2.40/bin/bin/../../lib/gcc/pic32c/6.2.1/../../../../pic32c/lib/v7e-m/fpv4-sp/hard\libc_nano.a(lib_a-locale.o)
                0x00045900                __locale_mb_cur_max

.text.__locale_ctype_ptr%323
                0x0004591c       0x1c
 .text.__locale_ctype_ptr
                0x0004591c       0x1c c:/program files/microchip/xc32/v2.40/bin/bin/../../lib/gcc/pic32c/6.2.1/../../../../pic32c/lib/v7e-m/fpv4-sp/hard\libc_nano.a(lib_a-locale.o)
                0x0004591c                __locale_ctype_ptr

.text._calloc_r%324
                0x00045938       0x1c
 .text._calloc_r
                0x00045938       0x1c c:/program files/microchip/xc32/v2.40/bin/bin/../../lib/gcc/pic32c/6.2.1/../../../../pic32c/lib/v7e-m/fpv4-sp/hard\libc_nano.a(lib_a-nano-callocr.o)
                0x00045938                _calloc_r

.text.vsnprintf%325
                0x00045954       0x1c
 .text.vsnprintf
                0x00045954       0x1c c:/program files/microchip/xc32/v2.40/bin/bin/../../lib/gcc/pic32c/6.2.1/../../../../pic32c/lib/v7e-m/fpv4-sp/hard\libc_nano.a(lib_a-vsnprintf.o)
                0x00045954                vsniprintf
                0x00045954                vsnprintf

.text._fputwc_r%326
                0x00045970       0x1c
 .text._fputwc_r
                0x00045970       0x1c c:/program files/microchip/xc32/v2.40/bin/bin/../../lib/gcc/pic32c/6.2.1/../../../../pic32c/lib/v7e-m/fpv4-sp/hard\libc_nano.a(lib_a-fputwc.o)
                0x00045970                _fputwc_r

.text.__ascii_wctomb%327
                0x0004598c       0x1a
 .text.__ascii_wctomb
                0x0004598c       0x1a c:/program files/microchip/xc32/v2.40/bin/bin/../../lib/gcc/pic32c/6.2.1/../../../../pic32c/lib/v7e-m/fpv4-sp/hard\libc_nano.a(lib_a-wctomb_r.o)
                0x0004598c                __ascii_wctomb

.rodata%328     0x000459a8       0x30
 .rodata        0x000459a8       0x18 build/aws_demos/production/_ext/684768522/pem.o
 .rodata        0x000459c0       0x18 build/aws_demos/production/_ext/2077790016/mbedtls_utils.o

.text.memcpy%330
                0x000459d8       0x16
 .text.memcpy   0x000459d8       0x16 c:/program files/microchip/xc32/v2.40/bin/bin/../../lib/gcc/pic32c/6.2.1/../../../../pic32c/lib/v7e-m/fpv4-sp/hard\libc_nano.a(lib_a-memcpy-stub.o)
                0x000459d8                memcpy

.text%331       0x000459f0       0x28
 .text          0x000459f0       0x14 build/aws_demos/production/_ext/684768522/platform_util.o
                0x000459f0                mbedtls_platform_zeroize
 .text          0x00045a04       0x14 c:/program files/microchip/xc32/v2.40/bin/bin/../../lib/gcc/pic32c/6.2.1/../../../../pic32c/lib/v7e-m/fpv4-sp/hard\libc_nano.a(lib_a-strcmp.o)
                0x00045a04                strcmp

.text.lflush%333
                0x00045a18       0x12
 .text.lflush   0x00045a18       0x12 c:/program files/microchip/xc32/v2.40/bin/bin/../../lib/gcc/pic32c/6.2.1/../../../../pic32c/lib/v7e-m/fpv4-sp/hard\libc_nano.a(lib_a-refill.o)

.text._malloc_usable_size_r%334
                0x00045a2a       0x12
 .text._malloc_usable_size_r
                0x00045a2a       0x12 c:/program files/microchip/xc32/v2.40/bin/bin/../../lib/gcc/pic32c/6.2.1/../../../../pic32c/lib/v7e-m/fpv4-sp/hard\libc_nano.a(lib_a-nano-msizer.o)
                0x00045a2a                _malloc_usable_size_r

.rodata%335     0x00045a3c       0x22
 .rodata        0x00045a3c       0x11 c:/program files/microchip/xc32/v2.40/bin/bin/../../lib/gcc/pic32c/6.2.1/../../../../pic32c/lib/v7e-m/fpv4-sp/hard\libc_nano.a(lib_a-nano-vfprintf.o)
 .rodata        0x00045a4d       0x11 c:/program files/microchip/xc32/v2.40/bin/bin/../../lib/gcc/pic32c/6.2.1/../../../../pic32c/lib/v7e-m/fpv4-sp/hard\libc_nano.a(lib_a-nano-svfprintf.o)

.rodata%337     0x00045a60       0x10
 .rodata        0x00045a60       0x10 build/aws_demos/production/_ext/1200684192/drv_extphy_ksz8091.o
                0x00045a60                DRV_ETHPHY_OBJECT_KSZ8091

.text.calloc%338
                0x00045a70       0x10
 .text.calloc   0x00045a70       0x10 c:/program files/microchip/xc32/v2.40/bin/bin/../../lib/gcc/pic32c/6.2.1/../../../../pic32c/lib/v7e-m/fpv4-sp/hard\libc_nano.a(lib_a-calloc.o)
                0x00045a70                calloc

.text.malloc%339
                0x00045a80       0x10
 .text.malloc   0x00045a80       0x10 c:/program files/microchip/xc32/v2.40/bin/bin/../../lib/gcc/pic32c/6.2.1/../../../../pic32c/lib/v7e-m/fpv4-sp/hard\libc_nano.a(lib_a-malloc.o)
                0x00045a80                malloc

.text.free%340  0x00045a90       0x10
 .text.free     0x00045a90       0x10 c:/program files/microchip/xc32/v2.40/bin/bin/../../lib/gcc/pic32c/6.2.1/../../../../pic32c/lib/v7e-m/fpv4-sp/hard\libc_nano.a(lib_a-malloc.o)
                0x00045a90                free

.text.memset%341
                0x00045aa0       0x10
 .text.memset   0x00045aa0       0x10 c:/program files/microchip/xc32/v2.40/bin/bin/../../lib/gcc/pic32c/6.2.1/../../../../pic32c/lib/v7e-m/fpv4-sp/hard\libc_nano.a(lib_a-memset.o)
                0x00045aa0                memset

.text.puts%342  0x00045ab0       0x10
 .text.puts     0x00045ab0       0x10 c:/program files/microchip/xc32/v2.40/bin/bin/../../lib/gcc/pic32c/6.2.1/../../../../pic32c/lib/v7e-m/fpv4-sp/hard\libc_nano.a(lib_a-puts.o)
                0x00045ab0                puts

.text.strcpy%343
                0x00045ac0       0x10
 .text.strcpy   0x00045ac0       0x10 c:/program files/microchip/xc32/v2.40/bin/bin/../../lib/gcc/pic32c/6.2.1/../../../../pic32c/lib/v7e-m/fpv4-sp/hard\libc_nano.a(lib_a-strcpy.o)
                0x00045ac0                strcpy

.text%344       0x00045ad0       0x10
 .text          0x00045ad0       0x10 c:/program files/microchip/xc32/v2.40/bin/bin/../../lib/gcc/pic32c/6.2.1/../../../../pic32c/lib/v7e-m/fpv4-sp/hard\libc_nano.a(lib_a-strlen.o)
                0x00045ad0                strlen

.text%345       0x00043c34        0xc
 .text          0x00043c34        0xc build/aws_demos/production/_ext/1534096987/exceptions.o
                0x00043c34                NonMaskableInt_Handler
                0x00043c36                HardFault_Handler
                0x00043c38                DebugMonitor_Handler
                0x00043c3a                MemoryManagement_Handler
                0x00043c3c                BusFault_Handler
                0x00043c3e                UsageFault_Handler

.rodata%346     0x00045ae0        0xc
 .rodata        0x00045ae0        0xc build/aws_demos/production/_ext/684768522/pk.o

.text%347       0x00045aec        0xc
 .text          0x00045aec        0xc build/aws_demos/production/_ext/1120274527/iot_system_init.o
                0x00045aec                SYSTEM_Init

.text._cleanup_r%348
                0x00045af8        0xc
 .text._cleanup_r
                0x00045af8        0xc c:/program files/microchip/xc32/v2.40/bin/bin/../../lib/gcc/pic32c/6.2.1/../../../../pic32c/lib/v7e-m/fpv4-sp/hard\libc_nano.a(lib_a-findfp.o)
                0x00045af8                _cleanup_r

.text.fstat%349
                0x00045b04        0xc
 .text.fstat    0x00045b04        0xc c:/program files/microchip/xc32/v2.40/bin/bin/../../lib/gcc/pic32c/6.2.1/../../../../pic32c/lib/v7e-m/fpv4-sp/hard\libpic32c.a(fstat.o)
                0x00045b04                fstat

.rodata%350     0x00045b10        0xb
 .rodata        0x00045b10        0xb c:/program files/microchip/xc32/v2.40/bin/bin/../../lib/gcc/pic32c/6.2.1/../../../../pic32c/lib/v7e-m/fpv4-sp/hard\libc_nano.a(lib_a-locale.o)

.text.__sclose%351
                0x00045b1c        0x8
 .text.__sclose
                0x00045b1c        0x8 c:/program files/microchip/xc32/v2.40/bin/bin/../../lib/gcc/pic32c/6.2.1/../../../../pic32c/lib/v7e-m/fpv4-sp/hard\libc_nano.a(lib_a-stdio.o)
                0x00045b1c                __sclose

.text.close%352
                0x00045b24        0x8
 .text.close    0x00045b24        0x8 c:/program files/microchip/xc32/v2.40/bin/bin/../../lib/gcc/pic32c/6.2.1/../../../../pic32c/lib/v7e-m/fpv4-sp/hard\libpic32c.a(close.o)
                0x00045b24                close

.text.__locale_ctype_ptr_l%353
                0x00045b2c        0x6
 .text.__locale_ctype_ptr_l
                0x00045b2c        0x6 c:/program files/microchip/xc32/v2.40/bin/bin/../../lib/gcc/pic32c/6.2.1/../../../../pic32c/lib/v7e-m/fpv4-sp/hard\libc_nano.a(lib_a-locale.o)
                0x00045b2c                __locale_ctype_ptr_l

.text.__printf_float%354
                0x00045b32        0x6
 .text.__printf_float
                0x00045b32        0x6 c:/program files/microchip/xc32/v2.40/bin/bin/../../lib/gcc/pic32c/6.2.1/../../../../pic32c/lib/v7e-m/fpv4-sp/hard\libc_nano.a(_lib_a-nano-vfprintf.s.o)
                0x00045b32                _printf_float

.text%355       0x00023dec        0x4
 .text          0x00023dec        0x4 c:/program files/microchip/xc32/v2.40/bin/bin/../../lib/gcc/pic32c/6.2.1/v7e-m/fpv4-sp/hard\libgcc.a(_dvmd_tls.o)
                0x00023dec                __aeabi_idiv0
                0x00023dec                __aeabi_ldiv0

.rodata._global_impure_ptr%356
                0x00045b38        0x4
 .rodata._global_impure_ptr
                0x00045b38        0x4 c:/program files/microchip/xc32/v2.40/bin/bin/../../lib/gcc/pic32c/6.2.1/../../../../pic32c/lib/v7e-m/fpv4-sp/hard\libc_nano.a(lib_a-impure.o)
                0x00045b38                _global_impure_ptr

.text.__seofread%357
                0x00045b3c        0x4
 .text.__seofread
                0x00045b3c        0x4 c:/program files/microchip/xc32/v2.40/bin/bin/../../lib/gcc/pic32c/6.2.1/../../../../pic32c/lib/v7e-m/fpv4-sp/hard\libc_nano.a(lib_a-stdio.o)
                0x00045b3c                __seofread

.text._close%358
                0x00045b40        0x4
 .text._close   0x00045b40        0x4 c:/program files/microchip/xc32/v2.40/bin/bin/../../lib/gcc/pic32c/6.2.1/../../../../pic32c/lib/v7e-m/fpv4-sp/hard\libpic32c.a(_close.o)
                0x00045b40                _close

.text._fstat%359
                0x00045b44        0x4
 .text._fstat   0x00045b44        0x4 c:/program files/microchip/xc32/v2.40/bin/bin/../../lib/gcc/pic32c/6.2.1/../../../../pic32c/lib/v7e-m/fpv4-sp/hard\libpic32c.a(_fstat.o)
                0x00045b44                _fstat

.text._isatty%360
                0x00045b48        0x4
 .text._isatty  0x00045b48        0x4 c:/program files/microchip/xc32/v2.40/bin/bin/../../lib/gcc/pic32c/6.2.1/../../../../pic32c/lib/v7e-m/fpv4-sp/hard\libpic32c.a(_isatty.o)
                0x00045b48                _isatty

.text._lseek%361
                0x00045b4c        0x4
 .text._lseek   0x00045b4c        0x4 c:/program files/microchip/xc32/v2.40/bin/bin/../../lib/gcc/pic32c/6.2.1/../../../../pic32c/lib/v7e-m/fpv4-sp/hard\libpic32c.a(_lseek.o)
                0x00045b4c                _lseek

.text._read%362
                0x00045b50        0x4
 .text._read    0x00045b50        0x4 c:/program files/microchip/xc32/v2.40/bin/bin/../../lib/gcc/pic32c/6.2.1/../../../../pic32c/lib/v7e-m/fpv4-sp/hard\libpic32c.a(_read.o)
                0x00045b50                _read

.text._write%363
                0x00045b54        0x4
 .text._write   0x00045b54        0x4 c:/program files/microchip/xc32/v2.40/bin/bin/../../lib/gcc/pic32c/6.2.1/../../../../pic32c/lib/v7e-m/fpv4-sp/hard\libpic32c.a(_write.o)
                0x00045b54                _write

.text.isatty%364
                0x00045b58        0x4
 .text.isatty   0x00045b58        0x4 c:/program files/microchip/xc32/v2.40/bin/bin/../../lib/gcc/pic32c/6.2.1/../../../../pic32c/lib/v7e-m/fpv4-sp/hard\libpic32c.a(isatty.o)
                0x00045b58                isatty

.text.lseek%365
                0x00045b5c        0x4
 .text.lseek    0x00045b5c        0x4 c:/program files/microchip/xc32/v2.40/bin/bin/../../lib/gcc/pic32c/6.2.1/../../../../pic32c/lib/v7e-m/fpv4-sp/hard\libpic32c.a(lseek.o)
                0x00045b5c                lseek

.text%366       0x00040ade        0x2
 .text          0x00040ade        0x2 build/aws_demos/production/_ext/1321577635/plib_evsys.o
                0x00040ade                EVSYS_Initialize

.text.Dummy_Handler%367
                0x00043fc6        0x2
 .text.Dummy_Handler
                0x00043fc6        0x2 build/aws_demos/production/_ext/1534096987/interrupts.o
                0x00043fc6                EIC_EXTINT_9_Handler
                0x00043fc6                TCC0_MC5_Handler
                0x00043fc6                SERCOM0_2_Handler
                0x00043fc6                USB_SOF_HSOF_Handler
                0x00043fc6                TCC4_OTHER_Handler
                0x00043fc6                TCC2_MC2_Handler
                0x00043fc6                EVSYS_0_Handler
                0x00043fc6                TRNG_Handler
                0x00043fc6                TC2_Handler
                0x00043fc6                USB_TRCPT0_Handler
                0x00043fc6                DAC_OTHER_Handler
                0x00043fc6                AC_Handler
                0x00043fc6                DAC_EMPTY_0_Handler
                0x00043fc6                DMAC_OTHER_Handler
                0x00043fc6                EIC_EXTINT_5_Handler
                0x00043fc6                SERCOM3_1_Handler
                0x00043fc6                SERCOM4_OTHER_Handler
                0x00043fc6                SERCOM3_2_Handler
                0x00043fc6                EIC_EXTINT_6_Handler
                0x00043fc6                TC7_Handler
                0x00043fc6                TCC4_MC0_Handler
                0x00043fc6                EVSYS_3_Handler
                0x00043fc6                QSPI_Handler
                0x00043fc6                TCC2_MC0_Handler
                0x00043fc6                PDEC_OTHER_Handler
                0x00043fc6                TCC3_MC0_Handler
                0x00043fc6                PDEC_MC1_Handler
                0x00043fc6                TCC2_MC1_Handler
                0x00043fc6                OSCCTRL_XOSC1_Handler
                0x00043fc6                PDEC_MC0_Handler
                0x00043fc6                EIC_EXTINT_4_Handler
                0x00043fc6                SERCOM0_OTHER_Handler
                0x00043fc6                EVSYS_OTHER_Handler
                0x00043fc6                SERCOM0_0_Handler
                0x00043fc6                RTC_Handler
                0x00043fc6                SERCOM4_0_Handler
                0x00043fc6                TCC1_MC0_Handler
                0x00043fc6                SERCOM1_OTHER_Handler
                0x00043fc6                TCC2_OTHER_Handler
                0x00043fc6                EIC_EXTINT_11_Handler
                0x00043fc6                SUPC_BODDET_Handler
                0x00043fc6                EIC_EXTINT_14_Handler
                0x00043fc6                OSC32KCTRL_Handler
                0x00043fc6                EVSYS_1_Handler
                0x00043fc6                TC6_Handler
                0x00043fc6                TCC4_MC1_Handler
                0x00043fc6                DMAC_0_Handler
                0x00043fc6                SUPC_OTHER_Handler
                0x00043fc6                WDT_Handler
                0x00043fc6                CAN0_Handler
                0x00043fc6                EIC_EXTINT_15_Handler
                0x00043fc6                EIC_EXTINT_1_Handler
                0x00043fc6                TCC3_MC1_Handler
                0x00043fc6                SERCOM5_0_Handler
                0x00043fc6                TC4_Handler
                0x00043fc6                TC1_Handler
                0x00043fc6                TCC1_MC1_Handler
                0x00043fc6                EIC_EXTINT_0_Handler
                0x00043fc6                TCC1_OTHER_Handler
                0x00043fc6                PAC_Handler
                0x00043fc6                SERCOM4_1_Handler
                0x00043fc6                Dummy_Handler
                0x00043fc6                DAC_RESRDY_0_Handler
                0x00043fc6                SERCOM5_1_Handler
                0x00043fc6                DMAC_2_Handler
                0x00043fc6                TCC0_MC4_Handler
                0x00043fc6                USB_TRCPT1_Handler
                0x00043fc6                SERCOM0_1_Handler
                0x00043fc6                TCC0_MC3_Handler
                0x00043fc6                EIC_EXTINT_12_Handler
                0x00043fc6                OSCCTRL_DPLL0_Handler
                0x00043fc6                SERCOM7_1_Handler
                0x00043fc6                SERCOM5_OTHER_Handler
                0x00043fc6                PM_Handler
                0x00043fc6                OSCCTRL_DFLL_Handler
                0x00043fc6                SERCOM7_0_Handler
                0x00043fc6                DAC_RESRDY_1_Handler
                0x00043fc6                DMAC_1_Handler
                0x00043fc6                USB_OTHER_Handler
                0x00043fc6                SDHC1_Handler
                0x00043fc6                SERCOM7_2_Handler
                0x00043fc6                CAN1_Handler
                0x00043fc6                TCC0_OTHER_Handler
                0x00043fc6                EIC_EXTINT_10_Handler
                0x00043fc6                TCC1_MC3_Handler
                0x00043fc6                OSCCTRL_XOSC0_Handler
                0x00043fc6                TCC0_MC0_Handler
                0x00043fc6                EIC_EXTINT_2_Handler
                0x00043fc6                SDHC0_Handler
                0x00043fc6                SERCOM1_1_Handler
                0x00043fc6                I2S_Handler
                0x00043fc6                PCC_Handler
                0x00043fc6                TCC3_OTHER_Handler
                0x00043fc6                EIC_EXTINT_13_Handler
                0x00043fc6                SERCOM1_0_Handler
                0x00043fc6                PUKCC_Handler
                0x00043fc6                SERCOM1_2_Handler
                0x00043fc6                SERCOM3_0_Handler
                0x00043fc6                SERCOM4_2_Handler
                0x00043fc6                TCC1_MC2_Handler
                0x00043fc6                ADC1_RESRDY_Handler
                0x00043fc6                NVMCTRL_1_Handler
                0x00043fc6                SERCOM5_2_Handler
                0x00043fc6                DAC_EMPTY_1_Handler
                0x00043fc6                ADC1_OTHER_Handler
                0x00043fc6                OSCCTRL_DPLL1_Handler
                0x00043fc6                EIC_EXTINT_3_Handler
                0x00043fc6                SERCOM3_OTHER_Handler
                0x00043fc6                EIC_EXTINT_8_Handler
                0x00043fc6                NVMCTRL_0_Handler
                0x00043fc6                ADC0_RESRDY_Handler
                0x00043fc6                ADC0_OTHER_Handler
                0x00043fc6                MCLK_Handler
                0x00043fc6                SERCOM7_OTHER_Handler
                0x00043fc6                EVSYS_2_Handler
                0x00043fc6                FREQM_Handler
                0x00043fc6                TC0_Handler
                0x00043fc6                TCC0_MC1_Handler
                0x00043fc6                DMAC_3_Handler
                0x00043fc6                RAMECC_Handler
                0x00043fc6                TC5_Handler
                0x00043fc6                AES_Handler
                0x00043fc6                ICM_Handler
                0x00043fc6                TCC0_MC2_Handler

.text.__malloc_lock%368
                0x000441e2        0x2
 .text.__malloc_lock
                0x000441e2        0x2 c:/program files/microchip/xc32/v2.40/bin/bin/../../lib/gcc/pic32c/6.2.1/../../../../pic32c/lib/v7e-m/fpv4-sp/hard\libc_nano.a(lib_a-mlock.o)
                0x000441e2                __malloc_lock

.text.__malloc_unlock%369
                0x0004453a        0x2
 .text.__malloc_unlock
                0x0004453a        0x2 c:/program files/microchip/xc32/v2.40/bin/bin/../../lib/gcc/pic32c/6.2.1/../../../../pic32c/lib/v7e-m/fpv4-sp/hard\libc_nano.a(lib_a-mlock.o)
                0x0004453a                __malloc_unlock
